MODULE Linux x86_64 102DAE19F96915559BF674A67657FF4E0 cds-avs-du-agent.exe
INFO CODE_ID 19AE2D1069F955159BF674A67657FF4ED90EA4BC
PUBLIC 1c000 0 _init
PUBLIC 1cfb0 0 _start
PUBLIC 1d082 0 svserror
PUBLIC 1d578 0 svserror_suppress
PUBLIC 1d65c 0 dvgui_init
PUBLIC 1ee55 0 init_printargs
PUBLIC 1fea5 0 svinit_getplusarg
PUBLIC 1ff0f 0 init_forget
PUBLIC 2040e 0 init_help
PUBLIC 20587 0 init_banner
PUBLIC 205f1 0 init_optchk
PUBLIC 21409 0 loadStrap
PUBLIC 2144e 0 main
PUBLIC 21a3e 0 dvgui_getversionstr
PUBLIC 21a49 0 dvgui_printversion
PUBLIC 21a62 0 dvgui_getbannerstr
PUBLIC 21a6d 0 dvgui_printbanner
PUBLIC 21a86 0 dvgui_setversionwriter
PUBLIC 21a8e 0 dvgui_striptoolname
PUBLIC 21acf 0 dvgui_compareVersionName
PUBLIC 220e0 0 claGetMaster_qd
PUBLIC 221b0 0 claGetMaster
PUBLIC 22600 0 claSetMaster
PUBLIC 227b0 0 claGetLatest
PUBLIC 22870 0 claSetLatest
PUBLIC 230a0 0 claInvalidatePackedLib
PUBLIC 23150 0 claGetSpec
PUBLIC 23520 0 claiZipExists
PUBLIC 23550 0 clai_mkspec
PUBLIC 238d0 0 cdsFS_strerror
PUBLIC 239a0 0 cdsFSCreatePathSpec
PUBLIC 23a30 0 cdsFSGetSpecIOImpName
PUBLIC 23a60 0 cdsFSFreeSpec
PUBLIC 23ac0 0 cdsFSGetSpecString
PUBLIC 23b80 0 cdsFS_openFile
PUBLIC 23c50 0 cdsFS_open
PUBLIC 23d00 0 cdsFS_fgets
PUBLIC 23d50 0 cdsFS_getc
PUBLIC 23d90 0 cdsFS_ungetc
PUBLIC 23dd0 0 cdsFS_fsync
PUBLIC 23e30 0 cdsFS_close
PUBLIC 23ed0 0 cdsFS_rewind
PUBLIC 23f20 0 cdsFS_read
PUBLIC 23fa0 0 cdsFS_write
PUBLIC 24020 0 cdsFS_seek
PUBLIC 24090 0 cdsFS_tell
PUBLIC 24120 0 cdsFS_opendir
PUBLIC 24160 0 cdsFS_readdir
PUBLIC 241a0 0 cdsFS_rewinddir
PUBLIC 241e0 0 cdsFS_closedir
PUBLIC 24220 0 cdsFS_getDirentName
PUBLIC 24260 0 cdsFS_stat
PUBLIC 242f0 0 cdsFS_lstat
PUBLIC 24380 0 cdsFS_getFileMode
PUBLIC 243c0 0 cdsFS_getFileGID
PUBLIC 24400 0 cdsFS_getFileUID
PUBLIC 24440 0 cdsFS_getFileSize
PUBLIC 24480 0 cdsFS_getFileModTime
PUBLIC 244c0 0 cdsFSiOpendir
PUBLIC 245b0 0 cdsFSiReaddir
PUBLIC 24610 0 cdsFSiRewinddir
PUBLIC 24620 0 cdsFSiClosedir
PUBLIC 24680 0 cdsFSiGetDirentName
PUBLIC 24c40 0 cdsFSStdioCreatePathSpec
PUBLIC 24cd0 0 cdsFSStdio_openFile
PUBLIC 24e30 0 cdsZipOpenZip
PUBLIC 24e40 0 cdsZipCloseZip
PUBLIC 24e50 0 cdsZipCreateSpec
PUBLIC 24e60 0 cdsZip_zip
PUBLIC 24e70 0 cdsZip_unzip
PUBLIC 25300 0 claInitEx
PUBLIC 25910 0 claInit
PUBLIC 25930 0 claInitialize
PUBLIC 25950 0 claSetImplicitTmp
PUBLIC 25a10 0 claGetImplicitTmpFlags
PUBLIC 25a40 0 claSetUnknownASSIGNfunc
PUBLIC 25a50 0 claGetCurHandle
PUBLIC 25a70 0 claAddCommand
PUBLIC 25b80 0 claSetUmask
PUBLIC 25c00 0 claiReleaseHandle
PUBLIC 25c30 0 claReleaseHandle
PUBLIC 25ce0 0 claWhereGlobalExplicitTmp
PUBLIC 25d30 0 claWhereIncluded
PUBLIC 25f30 0 claIsIncluded
PUBLIC 260e0 0 claGetErrorMsg
PUBLIC 26100 0 clai_getLastErr
PUBLIC 26110 0 clai_setLastErr
PUBLIC 26120 0 clai_useDefaultWarn
PUBLIC 26130 0 clai_doCdsLibCheck
PUBLIC 26140 0 claDumpEverything
PUBLIC 265f0 0 clai_get_libp
PUBLIC 26740 0 claLibHasTmp
PUBLIC 267f0 0 claGetPath
PUBLIC 26e70 0 claQuery
PUBLIC 27630 0 claWhereDefined
PUBLIC 27720 0 claWhereAssigned
PUBLIC 27950 0 claIsDefined
PUBLIC 279e0 0 claIsAssigned
PUBLIC 27b90 0 clai_do_fatal
PUBLIC 27c10 0 clai_do_error
PUBLIC 27c90 0 claSetPathNoneExistWarnFlag
PUBLIC 27ca0 0 claiCheckPathNoneExistWarnFlag
PUBLIC 27cc0 0 claGetDisplayValue
PUBLIC 27db0 0 claGetCombineValue
PUBLIC 28470 0 claStatCacheCtl
PUBLIC 284c0 0 clai_setUidGid
PUBLIC 284e0 0 clai_getenv_stat_cache
PUBLIC 28520 0 clai_quick_access
PUBLIC 28b10 0 claiMkdir
PUBLIC 29010 0 clai_access_path
PUBLIC 299c0 0 claiLibPathReused
PUBLIC 29c00 0 claiUpdateImplicit
PUBLIC 29d40 0 claiFreeLibinfo
PUBLIC 29d60 0 claiAddGlobalTmppath
PUBLIC 2a070 0 clai_process_command
PUBLIC 2ba40 0 clai_parse_cdslib_file
PUBLIC 2c2b0 0 claSearch
PUBLIC 2c390 0 claSearchList
PUBLIC 2c440 0 claFullSearchList
PUBLIC 2c5d0 0 claFullSearch
PUBLIC 2c650 0 claFindWritable
PUBLIC 2c700 0 clai_generate_full_path
PUBLIC 2ce80 0 clai_generate_nsl_path_ex
PUBLIC 2d3b0 0 clai_generate_nsl_path
PUBLIC 2d3c0 0 clai_mkpath
PUBLIC 2d560 0 claiStrcpy
PUBLIC 2d5e0 0 claiIsGoodLibPath
PUBLIC 2d670 0 claiMkGoodLibPath
PUBLIC 2d770 0 claLookupHandle
PUBLIC 2d7b0 0 claHandleTableInsert
PUBLIC 2d870 0 claHandleTableDelete
PUBLIC 2d8c0 0 cdsCopyString
PUBLIC 2d8e0 0 cdsCatString
PUBLIC 2d9f0 0 cdsStrlistToStr
PUBLIC 2da60 0 cdsGrowStrlist
PUBLIC 2dae0 0 cdsAddToStrlist
PUBLIC 2dbf0 0 cdsFastAddToStrlist
PUBLIC 2dcf0 0 cdsCopyStrlist
PUBLIC 2ddb0 0 cdsFreeStrlist
PUBLIC 2de00 0 cdsStrToStrlist
PUBLIC 2e020 0 cdsSortStrlist
PUBLIC 2e040 0 cdsFilterStrlist
PUBLIC 2fee0 0 cds_regcomp
PUBLIC 30140 0 cds_regexec
PUBLIC 308f0 0 cifGetErrorMsg
PUBLIC 30910 0 cifRegisterErrorHandler
PUBLIC 30920 0 cifPrintError
PUBLIC 30960 0 cifNormalizePath
PUBLIC 30bd0 0 cifNormalizePathSorta
PUBLIC 30c20 0 cifiHandleInputLine
PUBLIC 31380 0 cifMakeCdsinfoObj
PUBLIC 31490 0 freeInfoStructMembers
PUBLIC 314e0 0 cifGetCdsinfoAtLoc
PUBLIC 318f0 0 cifLocalSearchElement
PUBLIC 31f10 0 cifRemoveEntry
PUBLIC 32330 0 cifAddEntry
PUBLIC 324a0 0 cifiStringizeEntry
PUBLIC 325b0 0 cifGetEntry
PUBLIC 326b0 0 cifLookupEntry
PUBLIC 32890 0 cifLookupEntryX
PUBLIC 329c0 0 cifClearPathUnmanaged
PUBLIC 329d0 0 cifSetPathDmType
PUBLIC 329e0 0 cifSetPathUnmanaged
PUBLIC 329f0 0 cifGetNameSpaceX
PUBLIC 32a50 0 cifGetNameSpace
PUBLIC 32a60 0 cifIsLibraryX
PUBLIC 32bd0 0 cifIsLibrary
PUBLIC 32be0 0 cifIsInLibrary
PUBLIC 32c00 0 cifIsInLibraryX
PUBLIC 32c20 0 cifCheckLibraryX
PUBLIC 32e40 0 cifCheckLibrary
PUBLIC 32e50 0 cifGetDmType
PUBLIC 32e60 0 cifGetDmTypeX
PUBLIC 32e70 0 cifCreateInfoFile
PUBLIC 33080 0 cifResetCache
PUBLIC 331a0 0 cds_regerror
PUBLIC 331c0 0 cdsRegErrorFunc
PUBLIC 331d0 0 cdsGetErrorFunc
PUBLIC 331e0 0 cdsReportError
PUBLIC 33210 0 cdsFileExists
PUBLIC 33250 0 cdsGetFileSize
PUBLIC 33290 0 cdsFileIsDirectory
PUBLIC 332e0 0 cdsFileIsLink
PUBLIC 33320 0 cdsGetFileSizeInStatbuf
PUBLIC 33330 0 cdsGetTimestampInStatbuf
PUBLIC 33340 0 cdsReadSymLink
PUBLIC 33380 0 cdsBuildDirPath
PUBLIC 33490 0 nmpIsLegalLibraryUnix
PUBLIC 33540 0 nmpIdentToLibraryUnix
PUBLIC 33780 0 nmpLibraryUnixToIdent
PUBLIC 339e0 0 nmpIsLegalName
PUBLIC 33a20 0 nmpMapName
PUBLIC 33ab0 0 nmpMapper
PUBLIC 33b20 0 nmpGetNameToIdentFunc
PUBLIC 33b40 0 nmpGetIdentToNameFunc
PUBLIC 33b60 0 nmpGetIsLegalFunc
PUBLIC 33b80 0 nmpGetAllFuncs
PUBLIC 33c00 0 nmpIdentCmp
PUBLIC 33d00 0 nmpIdentHash
PUBLIC 33d70 0 nmpAllocHandle
PUBLIC 340a0 0 nmpGetHandle
PUBLIC 34660 0 nmpFreeHandle
PUBLIC 34680 0 nmpPathMapper
PUBLIC 34820 0 nmpPathMapperEx
PUBLIC 349c0 0 nmpGetHandleDefaults
PUBLIC 34c60 0 nmpPathGenStart
PUBLIC 34c70 0 nmpPathGenNext
PUBLIC 34d90 0 nmpPathGetLocation
PUBLIC 34dd0 0 nmpPathGetLastLocation
PUBLIC 34e80 0 nmpPathRemoveFromLocation
PUBLIC 35170 0 nmpPathSetLocation
PUBLIC 351d0 0 nmpPathGetIndex
PUBLIC 35260 0 nmpPathGetRange
PUBLIC 35360 0 nmpPathGetStepRange
PUBLIC 354a0 0 nmpPathGetRepeat
PUBLIC 35530 0 nmpPathGetLib
PUBLIC 355d0 0 nmpPathGetFlag
PUBLIC 35660 0 nmpFreePath
PUBLIC 357e0 0 nmpCreatePath
PUBLIC 358d0 0 nmpPathRemoveIndex
PUBLIC 35960 0 nmpPathRemoveLevel
PUBLIC 35a60 0 nmpiGetNewPath
PUBLIC 35b10 0 nmpPathAddListEnd
PUBLIC 35bb0 0 nmpPathAddListStart
PUBLIC 35c50 0 nmpPathAddList
PUBLIC 35cf0 0 nmpPathAddIdent
PUBLIC 35de0 0 nmpPathAddTopIdent
PUBLIC 35ef0 0 nmpPathAddRepeat
PUBLIC 36030 0 nmpPathAddIndex
PUBLIC 36170 0 nmpPathAddLib
PUBLIC 36300 0 nmpPathAddRange
PUBLIC 364d0 0 nmpPathAddStepRange
PUBLIC 36700 0 nmpiPathAdd
PUBLIC 36760 0 nmpiScanVlog
PUBLIC 36800 0 nmpiScanCDBA
PUBLIC 36910 0 nmpiScanVHDL
PUBLIC 369c0 0 nmpPathGetIdent
PUBLIC 37530 0 nmpPathGetString
PUBLIC 37a40 0 nmpiScanGenesis
PUBLIC 37ac0 0 nmpiScanFlatGenesis
PUBLIC 37b20 0 nmpiPrevItem
PUBLIC 37b90 0 nmpiScanSpectreHDL
PUBLIC 37c10 0 nmpiScanSpectre
PUBLIC 37c80 0 nmpiScanLef
PUBLIC 37d00 0 nmpiScanSdf
PUBLIC 37d80 0 nmpiScanSpef
PUBLIC 37e00 0 nmpiScanSpf
PUBLIC 37e80 0 nmpiScanGcf
PUBLIC 37f00 0 nmpiScanDef
PUBLIC 37f80 0 nmpiScanSpice
PUBLIC 37fe0 0 nmpAllocRing
PUBLIC 38100 0 nmpFreeRing
PUBLIC 38160 0 nmpNewIdent
PUBLIC 38230 0 nmpNewString
PUBLIC 382e0 0 nmpToLowerCopy
PUBLIC 38350 0 nmpTableSearch
PUBLIC 38440 0 nmpToPoundHex
PUBLIC 38460 0 nmpFromPoundHex
PUBLIC 384f0 0 nmpAllLower
PUBLIC 38540 0 nmpIsForce
PUBLIC 38560 0 nmpSkipForce
PUBLIC 38590 0 nmpSetMapState
PUBLIC 385b0 0 nmpGetMapState
PUBLIC 386f0 0 nmpIsLegalSdf
PUBLIC 387f0 0 nmpIdentToSdfWithHandle
PUBLIC 38b70 0 nmpIdentToSdf
PUBLIC 38b80 0 nmpSdfToIdentWithHandle
PUBLIC 38ea0 0 nmpSdfToIdent
PUBLIC 38eb0 0 nmpIsLegalSpf
PUBLIC 38f90 0 nmpIdentToSpfWithHandle
PUBLIC 392a0 0 nmpIdentToSpf
PUBLIC 392b0 0 nmpSpfToIdentWithHandle
PUBLIC 39570 0 nmpSpfToIdent
PUBLIC 39580 0 nmpVerifySpectreKeywords
PUBLIC 39bb0 0 nmpIsSpectreKeyword
PUBLIC 39f90 0 nmpIsLegalSpectre
PUBLIC 3a0c0 0 nmpIdentToSpectre
PUBLIC 3a7a0 0 nmpSpectreToIdent
PUBLIC 3aa00 0 nmpVerifySpectreHDLKeywords
PUBLIC 3ac20 0 nmpIsSpectreHDLKeyword
PUBLIC 3af10 0 nmpIsLegalSpectreHDL
PUBLIC 3afb0 0 nmpSpectreHDLToIdent
PUBLIC 3b050 0 nmpIdentToSpectreHDL
PUBLIC 3b2b0 0 nmpIsLegalSpef
PUBLIC 3b3b0 0 nmpIdentToSpefWithHandle
PUBLIC 3b730 0 nmpIdentToSpef
PUBLIC 3b740 0 nmpSpefToIdentWithHandle
PUBLIC 3ba60 0 nmpSpefToIdent
PUBLIC 3ba70 0 nmpIdentToSpice
PUBLIC 3c020 0 nmpIsLegalSpice
PUBLIC 3c040 0 nmpSpiceToIdent
PUBLIC 3c0b0 0 nmpVerifySpiceKeywords
PUBLIC 3c2e0 0 nmpIsSpiceKeyword
PUBLIC 3c750 0 nmpVerifyVerilogKeywords
PUBLIC 3c970 0 nmpIsVerilogKeyword
PUBLIC 3cc60 0 nmpIsLegalVerilog
PUBLIC 3cd00 0 nmpVerilogToIdent
PUBLIC 3cda0 0 nmpIdentToVerilog
PUBLIC 3d1f0 0 nmpVerifyVerilogAMSKeywords
PUBLIC 3d420 0 nmpIsVerilogAMSKeyword
PUBLIC 3d740 0 nmpIsLegalVerilogAMS
PUBLIC 3d7e0 0 nmpVerilogAMSToIdent
PUBLIC 3d880 0 nmpIdentToVerilogAMS
PUBLIC 3dae0 0 nmpVerifyVHDLKeywords
PUBLIC 3dcf0 0 nmpSetVHDLMode
PUBLIC 3dd00 0 nmpIsVHDLKeyword
PUBLIC 3e130 0 nmpIsLegalVHDL
PUBLIC 3e200 0 nmpIdentToVHDL
PUBLIC 3e840 0 nmpVHDLToIdent
PUBLIC 3e8b0 0 nmpVerifyVHDL87Keywords
PUBLIC 3eac0 0 nmpIsVHDL87Keyword
PUBLIC 3ee40 0 nmpIsLegalVHDL87
PUBLIC 3ef10 0 nmpIdentToVHDL87
PUBLIC 3f550 0 nmpVHDL87ToIdent
PUBLIC 3f5c0 0 nmpVerifyVHDLAMSKeywords
PUBLIC 3f7e0 0 nmpIsVHDLAMSKeyword
PUBLIC 3fb80 0 nmpIsLegalVHDLAMS
PUBLIC 3fc50 0 nmpIdentToVHDLAMS
PUBLIC 40290 0 nmpVHDLAMSToIdent
PUBLIC 403c0 0 nmpIsLegal44CDBA
PUBLIC 40410 0 nmpIdentToEscCDBA
PUBLIC 406a0 0 nmpIsLegalEscCDBA
PUBLIC 40750 0 nmpIdentTo44CDBA
PUBLIC 409f0 0 nmp44CDBAToIdent
PUBLIC 40be0 0 nmpEscCDBAToIdent
PUBLIC 40f30 0 nmpIsLegalCDBA
PUBLIC 40f80 0 nmpIdentToCDBA
PUBLIC 40f90 0 nmpCDBAToIdent
PUBLIC 40fa0 0 nmpCDBAFlatToCDBA
PUBLIC 411e0 0 nmpCDBAToCDBAFlat
PUBLIC 412e0 0 nmpIsLegalDef
PUBLIC 413e0 0 nmpVerifyDefKeywords
PUBLIC 41600 0 nmpIsDefKeyword
PUBLIC 418e0 0 nmpIdentToDefWithHandle
PUBLIC 41cc0 0 nmpIdentToDef
PUBLIC 41cd0 0 nmpDefToIdentWithHandle
PUBLIC 42030 0 nmpDefToIdent
PUBLIC 42040 0 nmpIsLegalFlatGenesis
PUBLIC 42110 0 nmpFlatGenesisToIdent
PUBLIC 42350 0 nmpIdentToFlatGenesis
PUBLIC 425f0 0 nmpIsLegalGcf
PUBLIC 426f0 0 nmpIdentToGcfWithHandle
PUBLIC 42a50 0 nmpIdentToGcf
PUBLIC 42a60 0 nmpGcfToIdentWithHandle
PUBLIC 42d60 0 nmpGcfToIdent
PUBLIC 42d70 0 nmpGetSpaceNames
PUBLIC 42d80 0 nmpGetAllSpaceNames
PUBLIC 42d90 0 nmpGetSpaceByName
PUBLIC 430f0 0 nmpIdentToGenesis
PUBLIC 43320 0 nmpIsLegalGenesis
PUBLIC 43410 0 nmpGenesisToIdent
PUBLIC 43610 0 nmpIsLegalIdent
PUBLIC 43650 0 nmpIsLegalLef
PUBLIC 437c0 0 nmpVerifyLefKeywords
PUBLIC 439f0 0 nmpIsLefKeyword
PUBLIC 43cf0 0 nmpIdentToLefWithHandle
PUBLIC 440d0 0 nmpIdentToLef
PUBLIC 440e0 0 nmpLefToIdentWithHandle
PUBLIC 44440 0 nmpLefToIdent
PUBLIC 445d0 0 nmpIsLegalLibraryNT
PUBLIC 446e0 0 nmpIdentToLibraryNT
PUBLIC 44c40 0 nmpLibraryNTToIdent
PUBLIC 44da0 0 nmpParseCDBA
PUBLIC 45fd0 0 nmpParseVHDLGeneric
PUBLIC 46fb0 0 nmpParseVHDL
PUBLIC 46fc0 0 nmpParseVHDL87
PUBLIC 46fe0 0 nmpParseVHDLAMS
PUBLIC 47000 0 nmpParseVerilogGeneric
PUBLIC 47980 0 nmpParseVerilog
PUBLIC 47990 0 nmpParseVerilogAMS
PUBLIC 479b0 0 nmpParseSpectre
PUBLIC 48320 0 nmpParseSpectreHDL
PUBLIC 48c90 0 nmpParseFlatGenesis
PUBLIC 49250 0 nmpParseGenesis
PUBLIC 49910 0 nmpParseLef
PUBLIC 4a040 0 nmpParseDef
PUBLIC 4a770 0 nmpParseSdf
PUBLIC 4ae10 0 nmpParseSpf
PUBLIC 4b4b0 0 nmpParseSpef
PUBLIC 4bb50 0 nmpParseGcf
PUBLIC 4c1f0 0 nmpParseSpice
PUBLIC 51e00 0 nmpPathToCDBAEx
PUBLIC 52ac0 0 nmpPathToCDBA
PUBLIC 52ad0 0 nmpPathToVHDLEx
PUBLIC 53440 0 nmpPathToVHDL
PUBLIC 53450 0 nmpPathToFlatGenesisEx
PUBLIC 53da0 0 nmpPathToFlatGenesis
PUBLIC 53db0 0 nmpPathToGenesisEx
PUBLIC 54700 0 nmpPathToGenesis
PUBLIC 54710 0 nmpPathToLefEx
PUBLIC 55110 0 nmpPathToLef
PUBLIC 55120 0 nmpPathToDefEx
PUBLIC 55b20 0 nmpPathToDef
PUBLIC 55b30 0 nmpPathToSdfEx
PUBLIC 564e0 0 nmpPathToSdf
PUBLIC 564f0 0 nmpPathToSpfEx
PUBLIC 56ea0 0 nmpPathToSpf
PUBLIC 56eb0 0 nmpPathToSpefEx
PUBLIC 57860 0 nmpPathToSpef
PUBLIC 57870 0 nmpPathToGcfEx
PUBLIC 58220 0 nmpPathToGcf
PUBLIC 58230 0 nmpPathToSpiceEx
PUBLIC 58b50 0 nmpPathToSpice
PUBLIC 58b60 0 nmpPathToVerilogEx
PUBLIC 594f0 0 nmpPathToVerilog
PUBLIC 59500 0 nmpPathToSpectreEx
PUBLIC 59e30 0 nmpPathToSpectre
PUBLIC 59e40 0 nmpPathToSpectreHDLEx
PUBLIC 5a770 0 nmpPathToSpectreHDL
PUBLIC 5a780 0 nmpIdentToNVerilog
PUBLIC 5a980 0 nmpIsLegalNVerilog
PUBLIC 5aa10 0 nmpNVerilogToIdent
PUBLIC 5abe0 0 nmpIdentToPrint
PUBLIC 5adc0 0 nmpIsLegalPrint
PUBLIC 5ae50 0 nmpPrintToIdent
PUBLIC 5b220 0 nmpVerifySysVerilogKeywords
PUBLIC 5b440 0 nmpIsSysVerilogKeyword
PUBLIC 5b750 0 nmpIsLegalSysVerilog
PUBLIC 5b7f0 0 nmpSysVerilogToIdent
PUBLIC 5b890 0 nmpIdentToSysVerilog
PUBLIC 5bce0 0 nmpVerifyVerilogAKeywords
PUBLIC 5bf10 0 nmpIsVerilogAKeyword
PUBLIC 5c230 0 nmpIsLegalVerilogA
PUBLIC 5c2d0 0 nmpVerilogAToIdent
PUBLIC 5c370 0 nmpIdentToVerilogA
PUBLIC 5c5d0 0 nmpIdentToAscii
PUBLIC 5c750 0 nmpIsLegalAscii
PUBLIC 5c7d0 0 nmpAsciiToIdent
PUBLIC 5c970 0 nmpIdentToConcept
PUBLIC 5ce60 0 nmpIsLegalConcept
PUBLIC 5cff0 0 nmpConceptToIdent
PUBLIC 5d440 0 nmpIdentToEdif200
PUBLIC 5d610 0 nmpIsLegalEdif200
PUBLIC 5d680 0 nmpEdif200ToIdent
PUBLIC 5d850 0 nmpIdentToEdif300
PUBLIC 5da20 0 nmpIsLegalEdif300
PUBLIC 5da90 0 nmpEdif300ToIdent
PUBLIC 5dc60 0 cdsHashAllocTable
PUBLIC 5dda0 0 cdsHashFreeTable
PUBLIC 5de00 0 cdsHashDouble
PUBLIC 5de20 0 cdsHashDelete
PUBLIC 5df10 0 cdsHashProbe
PUBLIC 5dfb0 0 cdsHashRebuildTable
PUBLIC 5e100 0 cdsHashCreate
PUBLIC 5e1f0 0 cdsHashReplace
PUBLIC 5e340 0 cdsHashCreateAfterProbe
PUBLIC 5e3a0 0 cdsHashStartGen
PUBLIC 5e3f0 0 cdsHashGen
PUBLIC 5e470 0 cdsHashStopGen
PUBLIC 5e490 0 cdsHashString
PUBLIC 5e4c0 0 cdsHashString32
PUBLIC 5e4f0 0 cdsHashStringLen
PUBLIC 5eb60 0 cdsInitDone
PUBLIC 5eb70 0 cdsInit
PUBLIC 5ebe0 0 cdsInitNonCDSApp
PUBLIC 5ec50 0 cmnNoInstallRootRequired
PUBLIC 5ec70 0 cmnGetInstallRootRequired
PUBLIC 5ec80 0 cmnSetInstallRootRequired
PUBLIC 5ec90 0 cdsProcMinusVersionArg
PUBLIC 5ecf0 0 cdsPlat
PUBLIC 5ed00 0 cdsGetLogin
PUBLIC 5ee10 0 cdsGetLoginInBuf
PUBLIC 5fa00 0 cdsInstallRootsOpen
PUBLIC 5faf0 0 cdsInstallRootsRead
PUBLIC 5fb00 0 cdsToolsPathsRead
PUBLIC 5fb20 0 cdsGetAllInstallRoots
PUBLIC 5fd50 0 cdsGetInstallRootWithPath
PUBLIC 5ff70 0 cdsGetInstallRootFromFilePath
PUBLIC 60060 0 cdsGetInstallRootFromPath
PUBLIC 601c0 0 cdsIsCadenceHier
PUBLIC 60240 0 cdsGetInstallRoot
PUBLIC 60310 0 cdsGetInstallRootInBuf
PUBLIC 603c0 0 cdsGetInstPath
PUBLIC 60550 0 cdsGetInstPathInBuf
PUBLIC 606a0 0 cdsGetToolsPath
PUBLIC 60770 0 cdsGetToolsPathInBuf
PUBLIC 60c40 0 cds_mkstemp
PUBLIC 60c70 0 cds_mktemp
PUBLIC 60ca0 0 cds_tempnam
PUBLIC 60d70 0 cdsCanonicalizeDirSep
PUBLIC 60d80 0 cdsIsRooted
PUBLIC 60d90 0 cdsIsRoot
PUBLIC 60df0 0 cdsIsUNCRoot
PUBLIC 60e00 0 cdsGetWorkingDir
PUBLIC 60e60 0 cdsiMkRootedPath
PUBLIC 60f60 0 cdsMkRootedPath
PUBLIC 61190 0 cdsGetTmpDir
PUBLIC 61270 0 cdsMkUniqueFilePath
PUBLIC 612b0 0 cds_fgets
PUBLIC 61320 0 cdsNtToUnixLine
PUBLIC 61350 0 cdsGetFilesysCaseSensitivity
PUBLIC 615c0 0 cdsiFileExistsExecutable
PUBLIC 61600 0 cdsiPathExists
PUBLIC 61630 0 cdsiCleanupRootedPath
PUBLIC 61730 0 cdsFindExecInPath
PUBLIC 61a10 0 cdsFileWritable
PUBLIC 61b10 0 cdsFlSrchPathOpen
PUBLIC 61b20 0 cdsFlSrchPathClose
PUBLIC 61b30 0 cdsFlSrchPathRead
PUBLIC 61bb0 0 cdsFlSrchIsMatchingDirent
PUBLIC 61d30 0 cdsFlSrchPathForDirent
PUBLIC 62400 0 cdsFlSrchPathForExe
PUBLIC 624f0 0 cdsFlSrchHasDirSep
PUBLIC 625d0 0 csfDefaultErrMsgHandler
PUBLIC 63670 0 csfSetCwdToSearchList
PUBLIC 636d0 0 csfInsertToSearchList
PUBLIC 638d0 0 csfInitialize
PUBLIC 639d0 0 csfSearchGroup
PUBLIC 63b50 0 csfSearchDirList
PUBLIC 63ca0 0 csfSearchEx
PUBLIC 63e40 0 csfGetPathToSetupLocFile
PUBLIC 63ee0 0 csfSearch
PUBLIC 63fd0 0 csfFullSearchDirList
PUBLIC 641e0 0 csfFullSearch
PUBLIC 64270 0 csfReleaseHandle
PUBLIC 64390 0 csfGetErrorMsg
PUBLIC 643b0 0 csfSetDebugMsgHandler
PUBLIC 643c0 0 csfFindWritableEx
PUBLIC 64680 0 csfFindWritable
PUBLIC 64690 0 csfGetIncludeFilePath
PUBLIC 64f40 0 csfUseCsfFor
PUBLIC 65110 0 csfConvertPathNotThereEx
PUBLIC 651a0 0 csfConvertPathEx
PUBLIC 65250 0 csfConvertPath
PUBLIC 65300 0 csfConvertPathNotThere
PUBLIC 653b0 0 cdsAssertErrString
PUBLIC 65430 0 cdsAssertInstallEmitter
PUBLIC 65440 0 cdsAssertEmit
PUBLIC 65450 0 cdsAssertSetAction
PUBLIC 65460 0 cdsAssertGetAction
PUBLIC 65470 0 cdsAssertInstallHandler
PUBLIC 65490 0 cdsAssertSimpleInstallHandler
PUBLIC 654a0 0 cdsAssertSimpleInstallRelHandler
PUBLIC 654c0 0 cdsAssertUninstallRelHandler
PUBLIC 654e0 0 cdsAssertFilterInsert
PUBLIC 65670 0 cdsAssertFilterRemove
PUBLIC 65700 0 cdsAssertFilterCountReset
PUBLIC 65720 0 cdsAssertGlobalHandler
PUBLIC 65730 0 cdsAssertHandler
PUBLIC 657e0 0 cdsReleaseAssertHandler
PUBLIC 658a0 0 cdsFatalAssertHandler
PUBLIC 65940 0 cdsAssertDefaultEmit
PUBLIC 659c0 0 cdsAssertDefaultHandler
PUBLIC 66770 0 cdsInterpolate
PUBLIC 67aa0 0 gzopen
PUBLIC 67ab0 0 gzdopen
PUBLIC 67b00 0 gzsetparams
PUBLIC 67bb0 0 gzread
PUBLIC 68440 0 gzgetc
PUBLIC 68d00 0 gzungetc
PUBLIC 68d60 0 gzgets
PUBLIC 69710 0 gzwrite
PUBLIC 69820 0 gzprintf
PUBLIC 699f0 0 gzputc
PUBLIC 69b10 0 gzputs
PUBLIC 69c30 0 gzflush
PUBLIC 69c90 0 gzseek
PUBLIC 6a0a0 0 gzrewind
PUBLIC 6a140 0 gztell
PUBLIC 6a150 0 gzeof
PUBLIC 6a190 0 gzdirect
PUBLIC 6a1b0 0 gzclose
PUBLIC 6a260 0 gzerror
PUBLIC 6a370 0 gzclearerr
PUBLIC 6a4e0 0 inflateReset
PUBLIC 6a580 0 inflatePrime
PUBLIC 6a5d0 0 inflateInit2_
PUBLIC 6a780 0 inflateInit_
PUBLIC 6a8e0 0 inflate
PUBLIC 6c910 0 inflateEnd
PUBLIC 6c980 0 inflateSetDictionary
PUBLIC 6ca80 0 inflateGetHeader
PUBLIC 6cab0 0 inflateSync
PUBLIC 6cd90 0 inflateSyncPoint
PUBLIC 6cdc0 0 inflateCopy
PUBLIC 6d020 0 inflate_table
PUBLIC 6db10 0 zlibVersion
PUBLIC 6db20 0 zlibCompileFlags
PUBLIC 6db30 0 zError
PUBLIC 6db50 0 zcalloc
PUBLIC 6db60 0 zcfree
PUBLIC 6db70 0 adler32
PUBLIC 6e1f0 0 adler32_combine
PUBLIC 6e2d0 0 get_crc_table
PUBLIC 6e2e0 0 crc32
PUBLIC 6e760 0 crc32_combine
PUBLIC 6fda0 0 deflateSetDictionary
PUBLIC 6fef0 0 deflateReset
PUBLIC 70070 0 deflateSetHeader
PUBLIC 700a0 0 deflatePrime
PUBLIC 700e0 0 deflateTune
PUBLIC 70110 0 deflateBound
PUBLIC 70150 0 deflate
PUBLIC 71090 0 deflateParams
PUBLIC 711b0 0 deflateEnd
PUBLIC 712b0 0 deflateInit2_
PUBLIC 71590 0 deflateInit_
PUBLIC 717d0 0 deflateCopy
PUBLIC 71a00 0 inflate_fast
PUBLIC 73f10 0 _tr_init
PUBLIC 74010 0 _tr_stored_block
PUBLIC 741b0 0 _tr_align
PUBLIC 74490 0 _tr_flush_block
PUBLIC 74cc0 0 _tr_tally
PUBLIC 74d70 0 compress2
PUBLIC 74e30 0 compress
PUBLIC 74ef0 0 compressBound
PUBLIC 74f10 0 simple_string_create_general
PUBLIC 74f90 0 simple_string_create
PUBLIC 74fa0 0 simple_string_clear
PUBLIC 74fb0 0 simple_string_destroy
PUBLIC 74fd0 0 simple_string_cat
PUBLIC 75070 0 simple_string_n_cat
PUBLIC 75120 0 simple_string_cpy
PUBLIC 75130 0 simple_string_str
PUBLIC 75180 0 isOverflow
PUBLIC 75190 0 gvec_alloc
PUBLIC 75220 0 gvec_reset
PUBLIC 75250 0 gadd_element
PUBLIC 75330 0 gvec_data
PUBLIC 75340 0 gvec_elements
PUBLIC 75350 0 gvec_size
PUBLIC 75360 0 gremove_last_element
PUBLIC 75380 0 gvec_free
PUBLIC 753b0 0 gvec_sort
PUBLIC 753e0 0 gvector_capacity
PUBLIC 753f0 0 gvector_size
PUBLIC 75400 0 gvector_empty
PUBLIC 75420 0 gvector_create_general
PUBLIC 754f0 0 gvector_create
PUBLIC 75500 0 gvector_reserve
PUBLIC 75570 0 gvector_append
PUBLIC 75600 0 gvector_get
PUBLIC 75650 0 gvector_print_integers
PUBLIC 756a0 0 gvector_get_last
PUBLIC 756b0 0 gvector_contains
PUBLIC 75700 0 gvector_set
PUBLIC 75750 0 gvector_delete
PUBLIC 75820 0 gvector_delete_last
PUBLIC 75880 0 gvector_destroy
PUBLIC 758e0 0 gvector_resize
PUBLIC 759e0 0 gvector_insert
PUBLIC 75af0 0 gvector_sort
PUBLIC 75b30 0 gvector_partial_sort
PUBLIC 75ba0 0 default_malloc
PUBLIC 75c00 0 default_free
PUBLIC 75c30 0 svenlib_register_path_for_bpad
PUBLIC 75d50 0 svenlib_register_cbpad
PUBLIC 765c0 0 ld_check_for_dynload_with_local_bind
PUBLIC 765e0 0 ld_stop_dyn_syms_processing
PUBLIC 765f0 0 cds_no_gcc
PUBLIC 76680 0 slib_set_shared_lib_symcheck_flag
PUBLIC 76690 0 ld_check_redux_install
PUBLIC 766b0 0 ld_dyn_lookup
PUBLIC 76800 0 ld_dyn_unload
PUBLIC 769a0 0 ld_dyn_syminfo
PUBLIC 76b60 0 findExeName
PUBLIC 76d50 0 ld_dyn_syminfof
PUBLIC 76e20 0 ld_dyn_libinfo
PUBLIC 76ea0 0 ld_fix_exe_ptr
PUBLIC 76eb0 0 ld_create_shared_object_cpp
PUBLIC 77200 0 ld_create_shared_object
PUBLIC 773f0 0 ld_find_exe_name
PUBLIC 77420 0 ld_exe_name
PUBLIC 77430 0 ld_stack_array
PUBLIC 77550 0 ld_dyn_get_env
PUBLIC 77800 0 get_text_section_info
PUBLIC 77b20 0 ld_get_lib_info
PUBLIC 77d60 0 ld_exec_find_syminfo
PUBLIC 77f10 0 ld_dyn_get_lib_list
PUBLIC 78350 0 ld_exec_process_symbols
PUBLIC 788d0 0 ld_dumpStack
PUBLIC 78e00 0 ld_exec_save_sym
PUBLIC 78e90 0 ld_populate_pcsym_hash
PUBLIC 78f20 0 ld_symkeep_header
PUBLIC 79360 0 ld_symkeep_translate
PUBLIC 79560 0 ld_create_symcheck_hash
PUBLIC 796b0 0 ld_check_shared_symbols
PUBLIC 7a270 0 ld_dyn_load
PUBLIC 7a280 0 ld_find_lib
PUBLIC 7a450 0 ld_dyn_load_deferred
PUBLIC 7a460 0 ld_print_bin_path
PUBLIC 7a9d0 0 svio_set_string_length
PUBLIC 7a9e0 0 svio_register_protection
PUBLIC 7aa00 0 svio_get_filename
PUBLIC 7aa30 0 svio_mt_safe_init
PUBLIC 7aa70 0 svio_lock
PUBLIC 7aaa0 0 svio_unlock
PUBLIC 7aad0 0 svio_fdinit_aux
PUBLIC 7abc0 0 svio_fdinit
PUBLIC 7ac20 0 svio_std_init
PUBLIC 7acf0 0 svio_feof
PUBLIC 7ad70 0 svio_lookup
PUBLIC 7ae20 0 svio_add_timeout_cbk
PUBLIC 7aea0 0 svio_remove_timeout_cbk
PUBLIC 7af60 0 svio_push_aux
PUBLIC 7b080 0 svio_push
PUBLIC 7b1b0 0 svio_force_newline
PUBLIC 7b210 0 svio_purge_pushed
PUBLIC 7b2a0 0 svio_stdin_push
PUBLIC 7b370 0 svio_patch_autofetch_message
PUBLIC 7b3e0 0 svio_fill_simlogname
PUBLIC 7b3f0 0 svio_remove_for_restart_aux
PUBLIC 7b4f0 0 svio_remove_for_restart
PUBLIC 7b540 0 svio_close_aux
PUBLIC 7b6f0 0 svio_custom_std_init_aux
PUBLIC 7b8b0 0 svio_custom_std_init
PUBLIC 7b920 0 svio_open_aux
PUBLIC 7bc40 0 svio_open
PUBLIC 7bca0 0 svio_close
PUBLIC 7bcf0 0 svio_filep
PUBLIC 7bd10 0 svio_custom_device
PUBLIC 7bd60 0 svio_ispushed
PUBLIC 7bd70 0 svio_current_logfile
PUBLIC 7bd80 0 svio_register_reinit
PUBLIC 7bd90 0 svio_register_file
PUBLIC 7be40 0 svio_init
PUBLIC 7c030 0 svio_open_keyfile
PUBLIC 7c100 0 svio_reinit
PUBLIC 7c2f0 0 svio_unregister_file_aux
PUBLIC 7c350 0 svio_unregister_file
PUBLIC 7c3f0 0 svio_release_all
PUBLIC 7c4e0 0 svio_is_registered_aux
PUBLIC 7c550 0 svio_is_registered
PUBLIC 7c5f0 0 svio_new_logfile_aux
PUBLIC 7c720 0 svio_set_new_logfile_aux
PUBLIC 7c900 0 svio_new_logfile
PUBLIC 7d550 0 svio_write
PUBLIC 7d5b0 0 svio_stdout_write
PUBLIC 7d620 0 svio_stderr_write
PUBLIC 7d690 0 svio_printf
PUBLIC 7d780 0 svio_stdout_write_char
PUBLIC 7d7f0 0 svio_vprintf
PUBLIC 7d860 0 svio_stdout_write_key
PUBLIC 7d8e0 0 svio_stdout_write_log
PUBLIC 7d960 0 svio_printf_log
PUBLIC 7da80 0 svio_printf_stdout
PUBLIC 7dbf0 0 svio_stdout_write_stdout
PUBLIC 7dd00 0 svio_tcl_stdout_write
PUBLIC 7dd70 0 svio_vfprintf
PUBLIC 7dde0 0 svio_fprintf
PUBLIC 7ded0 0 svio_formatted_write_aux
PUBLIC 7e150 0 svio_formatted_write
PUBLIC 7e1d0 0 svio_read_aux
PUBLIC 7e850 0 svio_read
PUBLIC 7e8b0 0 svio_readline_aux
PUBLIC 7eac0 0 svio_readline
PUBLIC 7eb20 0 svio_set_new_logfile
PUBLIC 7ed80 0 svio_flush
PUBLIC 7ede0 0 svio_flush_logfile
PUBLIC 7ee00 0 svio_replace_logfile
PUBLIC 7ee80 0 svio_append_stop_execfile_info_aux
PUBLIC 7f180 0 svio_append_stop_execfile_info
PUBLIC 7f1d0 0 svio_printf_log_or_stdout
PUBLIC 7f2e0 0 ldaddlibHash
PUBLIC 7f400 0 ldlookuphandleHash
PUBLIC 7f440 0 ldlookuplibHash
PUBLIC 7f580 0 ldremovelibHash
PUBLIC 7f830 0 bub_report_ignr_flock_acq_fail
PUBLIC 7f8b0 0 bub_open
PUBLIC 7fb90 0 bub_flush
PUBLIC 7fcb0 0 bub_scramble
PUBLIC 7fcf0 0 bub_sync
PUBLIC 7fd20 0 bub_tell
PUBLIC 7fda0 0 bub_seek
PUBLIC 7ff90 0 bub_stat
PUBLIC 7ffe0 0 bub_isrofs
PUBLIC 80010 0 bub_isrofile
PUBLIC 80050 0 bub_read
PUBLIC 804d0 0 bub_getc
PUBLIC 80550 0 bub_gets
PUBLIC 805e0 0 bub_getsx
PUBLIC 80670 0 bub_write
PUBLIC 80d10 0 bub_putc
PUBLIC 80d80 0 bub_puts
PUBLIC 80dc0 0 bub_putsx
PUBLIC 80e00 0 bub_auto_close
PUBLIC 80e30 0 bub_shrink
PUBLIC 80ec0 0 bub_set_ingr_flock_failure
PUBLIC 80f00 0 bub_lock
PUBLIC 813e0 0 bub_close
PUBLIC 816b0 0 bub_rsize
PUBLIC 816d0 0 bub_move
PUBLIC 81980 0 bub_copy
PUBLIC 81bb0 0 xlm_ns::perm_mkstring_ns::large_str_hash_fn(void*)
PUBLIC 81bc0 0 xlm_ns::perm_mkstring_ns::str_cmp_fn(void*, void*)
PUBLIC 81bf0 0 xlm_ns::perm_mkstring_ns::large_str_cmp_fn(void*, void*)
PUBLIC 81c10 0 xlm_ns::perm_mkstring_ns::perm_mkstring_destroy_cache()
PUBLIC 81c40 0 perm_init
PUBLIC 81c50 0 perm_mkstring
PUBLIC 81e90 0 perm_mkstring_cached
PUBLIC 821e0 0 perm_find_string
PUBLIC 823b0 0 perm_free_on_exit
PUBLIC 82420 0 str_free_fn
PUBLIC 82430 0 str_alloc_fn
PUBLIC 82450 0 xlm_ns::string_table_ns::str_cmp_fn(void*, void*)
PUBLIC 82480 0 xlm_ns::string_table_ns::string_table::insert(char const*, unsigned long)
PUBLIC 824f0 0 xlm_ns::string_table_ns::string_table::insert(char const*)
PUBLIC 82530 0 xlm_ns::string_table_ns::string_table::find(char const*, unsigned long)
PUBLIC 82540 0 xlm_ns::string_table_ns::string_table::find(char const*)
PUBLIC 82580 0 xlm_ns::string_table_ns::string_table::string_table(char*, unsigned long)
PUBLIC 82640 0 xlm_ns::string_table_ns::string_table::string_table(unsigned long)
PUBLIC 826c0 0 xlm_ns::string_table_ns::string_table::~string_table()
PUBLIC 82930 0 salloc_resetcall
PUBLIC 82950 0 salloc_showcalldiff
PUBLIC 82980 0 slib_zmem
PUBLIC 82990 0 ha_roundup
PUBLIC 829a0 0 smalloc
PUBLIC 82a10 0 salloc
PUBLIC 82b10 0 sfree
PUBLIC 82b60 0 safefree
PUBLIC 82b80 0 salloc_big
PUBLIC 82bb0 0 sfree_big
PUBLIC 82bd0 0 mkstring
PUBLIC 82bf0 0 ha_init
PUBLIC 82c60 0 ha_context_init
PUBLIC 82c90 0 ha_reset
PUBLIC 82d90 0 ha_mark
PUBLIC 82dd0 0 ha_release
PUBLIC 82f20 0 ha_free
PUBLIC 83050 0 ha_free_munmap
PUBLIC 83170 0 ha_size
PUBLIC 831a0 0 ha_compute_ph_context_size_div_8
PUBLIC 83210 0 ha_init3
PUBLIC 83460 0 ha_context_custom_init
PUBLIC 83490 0 ha_init3_mmap
PUBLIC 83700 0 ha_context_custom_init_mmap
PUBLIC 83ca0 0 ha_context_free_size
PUBLIC 83d40 0 ha_context_size
PUBLIC 84620 0 ha_merge_contexts
PUBLIC 846d0 0 ha_unmerge_contexts
PUBLIC 84770 0 ha_alloc_long_aligned
PUBLIC 84ae0 0 ha_alloc
PUBLIC 85270 0 ha_alloc_mmap
PUBLIC 859d0 0 ha_freesize
PUBLIC 85a80 0 ha_find_pointer_in_context
PUBLIC 85ad0 0 ha_offset
PUBLIC 85b30 0 ha_align
PUBLIC 85e00 0 ha_ptr
PUBLIC 85e70 0 ha_mkstring
PUBLIC 85eb0 0 ha_c2bs
PUBLIC 85fb0 0 ha_binsearch
PUBLIC 86070 0 mkpstring
PUBLIC 86080 0 ha_register_context
PUBLIC 86090 0 default_salloc
PUBLIC 860c0 0 default_safefree
PUBLIC 860f0 0 default_sfree
PUBLIC 86140 0 clean_sexit
PUBLIC 861b0 0 sexit0
PUBLIC 86240 0 sexit1
PUBLIC 86300 0 on_sexit3
PUBLIC 863a0 0 on_sexit
PUBLIC 863b0 0 on_sexit3_last
PUBLIC 863c0 0 sexit_init
PUBLIC 86400 0 sexit_restart_pid
PUBLIC 86420 0 signal_and_kill_memory_monitor
PUBLIC 864b0 0 sexit
PUBLIC 86670 0 slib_grow_buffer
PUBLIC 866d0 0 args_evaluate_name
PUBLIC 869b0 0 args_fix_env_name
PUBLIC 86b90 0 sparse_init_arg_file_2
PUBLIC 877d0 0 sparse_init_arg_file
PUBLIC 877e0 0 slib_64bit_env_check
PUBLIC 87810 0 slib_64bit_check
PUBLIC 87ca0 0 slib_check_util_exit_status
PUBLIC 87dd0 0 slib_qualcomm_ius_transition
PUBLIC 87de0 0 slib_set_qualcomm_ius_transition
PUBLIC 87df0 0 slib_set_warn_exe
PUBLIC 87eb0 0 slib_init
PUBLIC 87fe0 0 slib_get_warn_exe
PUBLIC 87ff0 0 slib_is_deprecated_exe
PUBLIC 88000 0 slib_depr_exe_warn
PUBLIC 880c0 0 spath_add_node_to_spath_amhln_hash_table
PUBLIC 88300 0 spath_shrink
PUBLIC 88560 0 spath_access
PUBLIC 886e0 0 spath_getcwd
PUBLIC 88710 0 spath_getcwd_rsl
PUBLIC 88740 0 spath_concat
PUBLIC 88860 0 spath_dirsep_concat
PUBLIC 88a10 0 spath_single_str_replace
PUBLIC 88bf0 0 spath_retarget_nostat
PUBLIC 88ed0 0 spath_unlink
PUBLIC 89150 0 spath_rmdir
PUBLIC 89230 0 spath_rmdir_rf
PUBLIC 893a0 0 spath_rmdir_regf
PUBLIC 894d0 0 spath_mkdir
PUBLIC 89690 0 spath_fix_dirsep
PUBLIC 896a0 0 spath_basename
PUBLIC 89b20 0 spath_dirname
PUBLIC 89ca0 0 spath_dirname_and_filename
PUBLIC 89cd0 0 spath_readlink
PUBLIC 89cf0 0 spath_isrooted
PUBLIC 89d00 0 spath_absolute
PUBLIC 8a0a0 0 spath_retarget
PUBLIC 8a3a0 0 spath_absolute_nl
PUBLIC 8a930 0 spath_simplify
PUBLIC 8ac00 0 spath_simple_abs_dirname
PUBLIC 8ac80 0 spath_setcwd
PUBLIC 8af50 0 spath_chdir
PUBLIC 8afa0 0 spath_simple_abs_basename
PUBLIC 8afd0 0 spath_retarget_wsl
PUBLIC 8b280 0 spath_bestpath
PUBLIC 8b340 0 spath_install_root
PUBLIC 8b3c0 0 nc_install_root
PUBLIC 8b3d0 0 spath_compare
PUBLIC 8b480 0 spath_compare_ne
PUBLIC 8b4f0 0 spath_clean_tmp_dir
PUBLIC 8b500 0 spath_create_tmp_file
PUBLIC 8b690 0 spath_chk_path_in_install
PUBLIC 8b6d0 0 chk_file_in_libmapdir
PUBLIC 8b870 0 spath_resolve_Env_path
PUBLIC 8ba40 0 spath_dir_files
PUBLIC 8ba60 0 spath_dir_init
PUBLIC 8bb20 0 spath_dir_has_file
PUBLIC 8bd70 0 spath_dir_finish
PUBLIC 8bea0 0 spath_inc_dir_not_used
PUBLIC 8bf60 0 spath_isDirectory
PUBLIC 8bf90 0 spath_isDirectoryEmpty
PUBLIC 8c040 0 spath_set_install_dir
PUBLIC 8c400 0 spath_init
PUBLIC 8c550 0 spath_simplify_nostat
PUBLIC 8c6c0 0 spath_absolute_nostat
PUBLIC 8c720 0 spath_concat3
PUBLIC 8c7b0 0 spath_read_write_state_file
PUBLIC 8c8f0 0 spath_scandir
PUBLIC 8c900 0 ssig_exit
PUBLIC 8c960 0 ssig_interr
PUBLIC 8ca60 0 sexecp
PUBLIC 8cde0 0 sexec
PUBLIC 8cdf0 0 sreinvoke
PUBLIC 8ce20 0 ssystem
PUBLIC 8ce60 0 sys_errmsg
PUBLIC 8ce70 0 ssig_handle
PUBLIC 8cee0 0 ssig_handle_unignored
PUBLIC 8cf80 0 ssig_set_unexpsig_msg
PUBLIC 8cfb0 0 ssig_defaults
PUBLIC 8d060 0 ssig_nt_exception
PUBLIC 8d070 0 slock
PUBLIC 8d0d0 0 slock_wait
PUBLIC 8d110 0 slib_cpu_type
PUBLIC 8d680 0 stats_get_memory
PUBLIC 8d740 0 stats_get_resident_memory
PUBLIC 8d880 0 stats_resident_memory_text
PUBLIC 8da00 0 stats_get_virtual_memory
PUBLIC 8daa0 0 get_peak_memory_data_perf_analysis
PUBLIC 8dc10 0 stats_memory_text
PUBLIC 8dc80 0 adjusted_stats_memory_text
PUBLIC 8dcc0 0 stats_memory_to_environment_vars
PUBLIC 8ddc0 0 stats_memory_report_mp_dump
PUBLIC 8de10 0 stats_memory_report
PUBLIC 8de50 0 stats_cpu_bias
PUBLIC 8de80 0 stats_cpu_report_thread
PUBLIC 8e030 0 slib_difftimeofday
PUBLIC 8e0a0 0 slib_gettimeofday
PUBLIC 8e0c0 0 stats_init
PUBLIC 8e100 0 stats_cpu_report
PUBLIC 8e2f0 0 stats_get_cpu_data
PUBLIC 8e570 0 stats_cpu_data_to_environment_vars
PUBLIC 8e620 0 stats_cpu_report_full
PUBLIC 8e6b0 0 stats_get_cpu_data_incremental
PUBLIC 8e770 0 stats_cpu_report_incremental
PUBLIC 8e800 0 slib_wall_clock_time
PUBLIC 8e860 0 slib_ticks
PUBLIC 8e880 0 slib_is_win98
PUBLIC 8e890 0 slib_rusage
PUBLIC 8e960 0 slib_itoa
PUBLIC 8e9a0 0 slib_dump_proc_hostinfo
PUBLIC 8e9c0 0 slib_dump_proc_maps
PUBLIC 8ea80 0 slib_dump_proc_cmdline
PUBLIC 8eb80 0 slib_dumpall_env
PUBLIC 8ebd0 0 slib_dump_debug_info
PUBLIC 8ed50 0 stats_get_walltime
PUBLIC 8ed70 0 stoa
PUBLIC 8f010 0 stoafree
PUBLIC 8f080 0 stoacopy
PUBLIC 8f140 0 stoacopy_efficient
PUBLIC 8f220 0 stoamatch
PUBLIC 8f2a0 0 sym_addr
PUBLIC 8f500 0 alarm_handler
PUBLIC 8fbf0 0 serror_alloc_tmp_dynamic_buff
PUBLIC 8fc20 0 serror_copy_old_tmp_dynamic_buff_to_new_tmp_dynamic_buff
PUBLIC 8fdc0 0 serror_realloc_tmp_dynamic_buff_generic
PUBLIC 8ffc0 0 serror_realloc_tmp_dynamic_buff
PUBLIC 901b0 0 serror_realloc_tmp_dynamic_buff_n
PUBLIC 903b0 0 serror_dealloc_tmp_dynamic_buff
PUBLIC 903f0 0 serror_register_counter
PUBLIC 90400 0 serror_error_count
PUBLIC 90420 0 serror_update_status
PUBLIC 90440 0 serror_register_callback
PUBLIC 90450 0 serror_no_soft_errors
PUBLIC 904a0 0 errorToWarning
PUBLIC 904d0 0 serror_enable
PUBLIC 90530 0 serror_get_error_code
PUBLIC 90580 0 serror_chk_err_flag
PUBLIC 905f0 0 serror_get_ep_for
PUBLIC 90690 0 serror_chk_inconsistent_err
PUBLIC 90710 0 serror_max_ep
PUBLIC 90730 0 set_error_info_flag_for_prtdesign
PUBLIC 90740 0 serror_set_all_warn_to_error_flag
PUBLIC 90750 0 serror_change_severity
PUBLIC 90760 0 is_multi_line_buff
PUBLIC 907a0 0 serror_prelf
PUBLIC 907b0 0 serror_set_bpad_status
PUBLIC 907c0 0 csi_init
PUBLIC 90870 0 csi_close
PUBLIC 908e0 0 csi_get_error_msg
PUBLIC 90900 0 csi_override_sighandles
PUBLIC 90990 0 csi_get_new_evidence
PUBLIC 90a70 0 csi_set_evidence_inuse
PUBLIC 90b10 0 csi_get_max_evidence
PUBLIC 90b30 0 csi_is_done
PUBLIC 90b70 0 csi_process_register_evidence
PUBLIC 90b80 0 csi_process_stack_evidence
PUBLIC 90ca0 0 start_csi_investigation
PUBLIC 91540 0 vserror
PUBLIC 93290 0 serror_msg
PUBLIC 93330 0 serror
PUBLIC 93410 0 serror_store_suppress_proc_sm
PUBLIC 93540 0 serror_process_store_list
PUBLIC 93770 0 serror_ignr_warnmax
PUBLIC 938f0 0 serror_severityN
PUBLIC 93b90 0 isWarningOff
PUBLIC 93c00 0 serror_at_max_warn
PUBLIC 93c80 0 serror_xmallerror_neverwarn_incompat_err
PUBLIC 93e20 0 serror_printf
PUBLIC 94080 0 serror_set_header
PUBLIC 94350 0 serror_set_end_marker
PUBLIC 943e0 0 serror_update_errorcount
PUBLIC 94460 0 serror_report_ignr_flock_acq_fail
PUBLIC 944a0 0 csi_sighandler
PUBLIC 94ed0 0 serror_store_suppress_proc
PUBLIC 952c0 0 serror_suppress
PUBLIC 956d0 0 serror_severityW
PUBLIC 956f0 0 serror_undo_err
PUBLIC 95a40 0 serror_severityF
PUBLIC 95d40 0 serror_severityE
PUBLIC 95d60 0 undo_severityW
PUBLIC 95d80 0 sfatal
PUBLIC 95e50 0 csi_parse_structure
PUBLIC 97690 0 csi_print_evidence
PUBLIC 98160 0 csi_register_agent
PUBLIC 981f0 0 csi_register_native_agent
PUBLIC 98210 0 csi_register_user_agent
PUBLIC 98230 0 csi_register_set
PUBLIC 98250 0 file_is_compressed
PUBLIC 983a0 0 spawn_decompress_file
PUBLIC 985f0 0 error_get_source
PUBLIC 995e0 0 error_show_source
PUBLIC 99760 0 create_dir_s
PUBLIC 99850 0 cleanname_dot
PUBLIC 998c0 0 clean_compressed_file
PUBLIC 99c10 0 spawn_decompress_file_tmp
PUBLIC 9a090 0 make_decompress_file
PUBLIC 9a0d0 0 serror_cleanup_source_fps
PUBLIC 9a120 0 serror_msgcntl_valid_sev_change
PUBLIC 9a350 0 serror_dump_msg_severities
PUBLIC 9a710 0 serror_init_msgcntl
PUBLIC 9b1f0 0 serror_init
PUBLIC 9b330 0 slib_set_dmtcp
PUBLIC 9b340 0 serror_gen_msgcntl
PUBLIC 9b6c0 0 serror_store_err
PUBLIC 9b7d0 0 serror_print_stored_err
PUBLIC 9b870 0 serror_stored_err_exist
PUBLIC 9b880 0 serror_enable_defer_msgs_during_suppression
PUBLIC 9b890 0 slib_set_msg_marker
PUBLIC 9b8a0 0 slib_set_serror_emit_interr_msg_at_exit
PUBLIC 9b8b0 0 slib_addarg
PUBLIC 9ba00 0 slib_addarg_efficient
PUBLIC 9bb80 0 slib_addordarg_prefix
PUBLIC 9bcc0 0 slib_addordarg
PUBLIC 9bcd0 0 slib_adderrarg
PUBLIC 9be10 0 slib_adddeprarg
PUBLIC 9bf70 0 slib_ncmp_arg_helper
PUBLIC 9c000 0 slib_cmp_arg_helper
PUBLIC 9c060 0 process_deprecated_opt_warn
PUBLIC 9c200 0 ha_is_set_search_enabled
PUBLIC 9c240 0 ha_judy_if_memory_statistics
PUBLIC 9c8b0 0 ha_find_pheap_and_root
PUBLIC 9d5d0 0 ha_is_pheap_registered
PUBLIC 9dd30 0 ha_pthread_self_has_already_entered_critical_section
PUBLIC 9e110 0 ha_enable_malloc_unhooking
PUBLIC 9e350 0 ha_enable_mutex_locking
PUBLIC 9e590 0 ha_register_pheap
PUBLIC 9eba0 0 ha_register_root
PUBLIC 9ecb0 0 ha_register_root_ldd
PUBLIC 9f350 0 ha_unregister_pheap
PUBLIC 9f9f0 0 ha_free_pheap_and_root_tracking_structures
PUBLIC a0080 0 ha_unregister_root
PUBLIC a01c0 0 ha_unregister_root_ldd
PUBLIC a0870 0 pheapMap_singleton_and_scoped_lock::free_substitute_hook(void*, void const*)
PUBLIC a0d10 0 pheapMap_singleton_and_scoped_lock::malloc_substitute_hook(unsigned long, void const*)
PUBLIC a12f0 0 pheapMap_singleton_and_scoped_lock::pheapMap_singleton_and_scoped_lock()
PUBLIC a27c0 0 pheapMap_singleton_and_scoped_lock::~pheapMap_singleton_and_scoped_lock()
PUBLIC a38a0 0 std::pair<std::_Rb_tree_iterator<pheap_s const*>, bool> std::_Rb_tree<pheap_s const*, pheap_s const*, std::_Identity<pheap_s const*>, std::greater<pheap_s const*>, std::allocator<pheap_s const*> >::_M_insert_unique<pheap_s const* const&>(pheap_s const* const&)
PUBLIC a39c0 0 std::pair<std::_Rb_tree_iterator<if_root_s const*>, bool> std::_Rb_tree<if_root_s const*, if_root_s const*, std::_Identity<if_root_s const*>, std::greater<if_root_s const*>, std::allocator<if_root_s const*> >::_M_insert_unique<if_root_s const* const&>(if_root_s const* const&)
PUBLIC a3ae0 0 std::_Rb_tree<pheap_s const*, pheap_s const*, std::_Identity<pheap_s const*>, std::greater<pheap_s const*>, std::allocator<pheap_s const*> >::_M_erase(std::_Rb_tree_node<pheap_s const*>*)
PUBLIC a3b20 0 std::_Rb_tree<pheap_s const*, pheap_s const*, std::_Identity<pheap_s const*>, std::greater<pheap_s const*>, std::allocator<pheap_s const*> >::erase(pheap_s const* const&)
PUBLIC a3ca0 0 std::_Rb_tree<if_root_s const*, if_root_s const*, std::_Identity<if_root_s const*>, std::greater<if_root_s const*>, std::allocator<if_root_s const*> >::_M_erase(std::_Rb_tree_node<if_root_s const*>*)
PUBLIC a3ce0 0 MemblocksCache::~MemblocksCache()
PUBLIC a3d40 0 std::_Rb_tree<if_root_s const*, if_root_s const*, std::_Identity<if_root_s const*>, std::greater<if_root_s const*>, std::allocator<if_root_s const*> >::erase(if_root_s const* const&)
PUBLIC a4d30 0 JudyHSDel_bootstrap
PUBLIC a4d80 0 Judy1MemUsed_bootstrap
PUBLIC a4db0 0 JudyLMemUsed_bootstrap
PUBLIC a4de0 0 Judy1FreeArray_bootstrap
PUBLIC a4e20 0 JudyLFreeArray_bootstrap
PUBLIC a4e60 0 JudyHSFreeArray_bootstrap
PUBLIC a4ea0 0 JudySLFreeArray_bootstrap
PUBLIC a4ee0 0 JudySLLast_bootstrap
PUBLIC a4f20 0 JudySLPrev_bootstrap
PUBLIC a4f60 0 JudyHSGet_bootstrap
PUBLIC a4fa0 0 JudySLGet_bootstrap
PUBLIC a4fe0 0 JudySLFirst_bootstrap
PUBLIC a5020 0 JudySLNext_bootstrap
PUBLIC a5060 0 JudyLLastEmpty_bootstrap
PUBLIC a50a0 0 JudyLPrevEmpty_bootstrap
PUBLIC a50e0 0 JudySLIns_bootstrap
PUBLIC a5120 0 JudySLDel_bootstrap
PUBLIC a5160 0 Judy1Set_bootstrap
PUBLIC a51a0 0 Judy1Unset_bootstrap
PUBLIC a51e0 0 Judy1Test_bootstrap
PUBLIC a5220 0 Judy1Next_bootstrap
PUBLIC a5260 0 Judy1Last_bootstrap
PUBLIC a52a0 0 Judy1Prev_bootstrap
PUBLIC a52e0 0 Judy1FirstEmpty_bootstrap
PUBLIC a5320 0 Judy1First_bootstrap
PUBLIC a5360 0 JudyLFirst_bootstrap
PUBLIC a53a0 0 JudyLNext_bootstrap
PUBLIC a53e0 0 JudyLLast_bootstrap
PUBLIC a5420 0 JudyLPrev_bootstrap
PUBLIC a5460 0 JudyLFirstEmpty_bootstrap
PUBLIC a54a0 0 JudyLNextEmpty_bootstrap
PUBLIC a54e0 0 Judy1NextEmpty_bootstrap
PUBLIC a5520 0 Judy1LastEmpty_bootstrap
PUBLIC a5560 0 Judy1PrevEmpty_bootstrap
PUBLIC a55a0 0 JudyLIns_bootstrap
PUBLIC a55e0 0 JudyLDel_bootstrap
PUBLIC a5620 0 JudyLGet_bootstrap
PUBLIC a5660 0 Judy1ByCount_bootstrap
PUBLIC a56b0 0 JudyLCount_bootstrap
PUBLIC a5700 0 JudyLByCount_bootstrap
PUBLIC a5750 0 Judy1Count_bootstrap
PUBLIC a57a0 0 JudyHSIns_bootstrap
PUBLIC a57f0 0 EJudy1::EJudy1Warn()
PUBLIC a5860 0 EJudy1::EJudy1GetSet(void const*)
PUBLIC a5870 0 EJudy1::EJudy1MemUsed(void const*)
PUBLIC a58a0 0 EJudy1::EJudy1Test(void const*, unsigned long, J_UDY_ERROR_STRUCT*)
PUBLIC a5930 0 EJudy1::EJudy1Count(void const*, unsigned long, unsigned long, J_UDY_ERROR_STRUCT*)
PUBLIC a5a20 0 EJudy1::EJudy1ByCount(void const*, unsigned long, unsigned long*, J_UDY_ERROR_STRUCT*)
PUBLIC a5ac0 0 EJudy1::EJudy1First(void const*, unsigned long*, J_UDY_ERROR_STRUCT*)
PUBLIC a5b60 0 EJudy1::EJudy1Next(void const*, unsigned long*, J_UDY_ERROR_STRUCT*)
PUBLIC a5c00 0 EJudy1::EJudy1Last(void const*, unsigned long*, J_UDY_ERROR_STRUCT*)
PUBLIC a5cc0 0 EJudy1::EJudy1Prev(void const*, unsigned long*, J_UDY_ERROR_STRUCT*)
PUBLIC a5d30 0 EJudy1::EJudy1FirstEmpty(void const*, unsigned long*, J_UDY_ERROR_STRUCT*)
PUBLIC a5df0 0 EJudy1::EJudy1NextEmpty(void const*, unsigned long*, J_UDY_ERROR_STRUCT*)
PUBLIC a5e60 0 EJudy1::EJudy1LastEmpty(void const*, unsigned long*, J_UDY_ERROR_STRUCT*)
PUBLIC a5f40 0 EJudy1::EJudy1PrevEmpty(void const*, unsigned long*, J_UDY_ERROR_STRUCT*)
PUBLIC a5fb0 0 EJudy1::EJudy1GetSet(void**)
PUBLIC a6010 0 EJudyL::EJudyLWarn()
PUBLIC a6080 0 EJudyL::EJudyLGetMap(void const*)
PUBLIC a6090 0 EJudyL::EJudyLMemUsed(void const*)
PUBLIC a60c0 0 EJudyL::EJudyLByCount(void const*, unsigned long, unsigned long*, J_UDY_ERROR_STRUCT*)
PUBLIC a6160 0 EJudyL::EJudyLFirst(void const*, unsigned long*, J_UDY_ERROR_STRUCT*)
PUBLIC a6200 0 EJudyL::EJudyLGet(void const*, unsigned long, J_UDY_ERROR_STRUCT*)
PUBLIC a6280 0 EJudyL::EJudyLFirstEmpty(void const*, unsigned long*, J_UDY_ERROR_STRUCT*)
PUBLIC a6340 0 EJudyL::EJudyLNextEmpty(void const*, unsigned long*, J_UDY_ERROR_STRUCT*)
PUBLIC a63b0 0 EJudyL::EJudyLLastEmpty(void const*, unsigned long*, J_UDY_ERROR_STRUCT*)
PUBLIC a6490 0 EJudyL::EJudyLPrevEmpty(void const*, unsigned long*, J_UDY_ERROR_STRUCT*)
PUBLIC a6500 0 EJudyL::EJudyLCount(void const*, unsigned long, unsigned long, J_UDY_ERROR_STRUCT*)
PUBLIC a65f0 0 EJudyL::EJudyLGetMap(void**)
PUBLIC a6650 0 JudyIsAvailable
PUBLIC a66a0 0 EJudy1::EJudy1FreeArray(void**, J_UDY_ERROR_STRUCT*)
PUBLIC a6750 0 EJudy1::EJudy1Unset(void**, unsigned long, J_UDY_ERROR_STRUCT*)
PUBLIC a6920 0 EJudy1::EJudy1Set(void**, unsigned long, J_UDY_ERROR_STRUCT*)
PUBLIC a6980 0 EJudyL::EJudyLFreeArray(void**, J_UDY_ERROR_STRUCT*)
PUBLIC a6a30 0 EJudyL::EJudyLDel(void**, unsigned long, J_UDY_ERROR_STRUCT*)
PUBLIC a6c00 0 EJudyL::EJudyLIns(void**, unsigned long, J_UDY_ERROR_STRUCT*)
PUBLIC a6cc0 0 EJudyL::EJudyLNext(void const*, unsigned long*, J_UDY_ERROR_STRUCT*)
PUBLIC a6dd0 0 EJudyL::EJudyLLast(void const*, unsigned long*, J_UDY_ERROR_STRUCT*)
PUBLIC a6f40 0 EJudyL::EJudyLPrev(void const*, unsigned long*, J_UDY_ERROR_STRUCT*)
PUBLIC a6fb0 0 std::_Rb_tree<unsigned long, unsigned long, std::_Identity<unsigned long>, std::less<unsigned long>, std::allocator<unsigned long> >::_M_erase(std::_Rb_tree_node<unsigned long>*)
PUBLIC a6ff0 0 std::pair<std::_Rb_tree_iterator<unsigned long>, bool> std::_Rb_tree<unsigned long, unsigned long, std::_Identity<unsigned long>, std::less<unsigned long>, std::allocator<unsigned long> >::_M_insert_unique<unsigned long const&>(unsigned long const&)
PUBLIC a7110 0 std::_Rb_tree<unsigned long, std::pair<unsigned long const, unsigned long>, std::_Select1st<std::pair<unsigned long const, unsigned long> >, std::less<unsigned long>, std::allocator<std::pair<unsigned long const, unsigned long> > >::_M_erase(std::_Rb_tree_node<std::pair<unsigned long const, unsigned long> >*)
PUBLIC a7150 0 std::_Rb_tree_iterator<std::pair<unsigned long const, unsigned long> > std::_Rb_tree<unsigned long, std::pair<unsigned long const, unsigned long>, std::_Select1st<std::pair<unsigned long const, unsigned long> >, std::less<unsigned long>, std::allocator<std::pair<unsigned long const, unsigned long> > >::_M_emplace_hint_unique<std::piecewise_construct_t const&, std::tuple<unsigned long const&>, std::tuple<> >(std::_Rb_tree_const_iterator<std::pair<unsigned long const, unsigned long> >, std::piecewise_construct_t const&, std::tuple<unsigned long const&>&&, std::tuple<>&&)
PUBLIC a7820 0 nc_print_peak
PUBLIC a7950 0 memstats_alloc
PUBLIC a79e0 0 memstats_free
PUBLIC a7a60 0 memstats_context_init
PUBLIC a7a80 0 memstats_context_free
PUBLIC a7ba0 0 memstats_context_change
PUBLIC a7c40 0 memstats_context_final_size(char**)
PUBLIC a7cd0 0 memstats_if_init
PUBLIC a7e50 0 memstats_if_context
PUBLIC a7eb0 0 memstats_lptrblk
PUBLIC a7f40 0 memstats_ptrblk
PUBLIC a7fd0 0 memstats_ha_alloc
PUBLIC a8400 0 memstats_addinfo(char**, int, char*, int)
PUBLIC a8490 0 memstats_ha_report
PUBLIC a8560 0 memstats_drp_report
PUBLIC a85a0 0 memstats_newpass
PUBLIC a8770 0 slib_enable_memstats
PUBLIC a8780 0 slib_disable_memstats
PUBLIC a8790 0 size_in_megs
PUBLIC a87e0 0 mp_collecting_banana_metrics
PUBLIC a8830 0 mp_profiling_enabled
PUBLIC a8860 0 mp_start_profile
PUBLIC a8a10 0 mp_enable_internal_debug
PUBLIC a8a20 0 mp_show_checkpoint_names
PUBLIC a8a30 0 mp_if_read
PUBLIC a8a80 0 mp_salloc
PUBLIC a8b10 0 mp_sfree
PUBLIC a8b50 0 mp_rm_context
PUBLIC a8c50 0 mp_get_context_name_and_description
PUBLIC a8cf0 0 mp_add_context_helper(mp_cxt_s**, char**, char const*, char const*, int)
PUBLIC a8df0 0 mp_add_context
PUBLIC a8e10 0 memory_monitor_set_peak_file_path
PUBLIC a8e70 0 memory_monitor_get_peak
PUBLIC a9010 0 mp_dump_data
PUBLIC a9ee0 0 mp_end_profile
PUBLIC a9f80 0 mp_clear_sim_context
PUBLIC a9fc0 0 mp_rm_sim_context
PUBLIC aa060 0 mp_add_sim_context
PUBLIC aa0d0 0 report_sim_context_free_size
PUBLIC aa0f0 0 get_sim_context_free_size
PUBLIC aa140 0 mp_add_context_for_clone_cxts_info
PUBLIC aa160 0 mp_context_clone_cxts_info
PUBLIC aa1d0 0 ncdbg_init
PUBLIC aa240 0 ncdbg_wait
PUBLIC aa2f0 0 ncdbg_go
PUBLIC aa300 0 ncdbg_libs_loaded
PUBLIC aa360 0 ncdbg_fatal
PUBLIC aa460 0 ncdbg_exit
PUBLIC aa4c0 0 slib_getuid
PUBLIC aa4d0 0 slib_getpid
PUBLIC aa4e0 0 slib_gethostid
PUBLIC aa4f0 0 slib_putenv
PUBLIC aa500 0 slib_getenv
PUBLIC aa510 0 slib_setenv
PUBLIC aa520 0 slib_getcwd
PUBLIC aa530 0 slib_unsetenv
PUBLIC aa550 0 slib_getenv_rebrand_helper_nomrg
PUBLIC aa5d0 0 slib_xlm_compatibility_mode_filenames
PUBLIC aa630 0 slib_xlm_compatibility_mode
PUBLIC aa680 0 slib_xcelium_incisive_mergeopts
PUBLIC aa6d0 0 slib_getenv_rebrand_helper_nowarn
PUBLIC aa800 0 slib_getenv_rebrand_helper
PUBLIC aa960 0 slib_unsetenv_rebrand_helper
PUBLIC aa980 0 soption_set_and_get_vlogrelax
PUBLIC aa9e0 0 soption_set_and_get_xlm_bq1
PUBLIC aaa40 0 soption_set_and_get_enable_relax_format_specifier
PUBLIC aaaa0 0 soption_set_and_get_disable_relax_format_specifier
PUBLIC aab00 0 soption_set_and_get_allow_unsized_const
PUBLIC aab60 0 soption_set_and_get_svrollout
PUBLIC aabc0 0 soption_set_and_get_disable_dpiexp_longint_arr
PUBLIC aac20 0 soption_set_and_get_disable_dpi_shortreal_arr
PUBLIC aac80 0 soption_set_and_get_disable_dpi_bitlogic_arr
PUBLIC aace0 0 soption_set_and_get_disable_dpi_packarr_enum
PUBLIC aad40 0 soption_set_and_get_disable_dpi_struct_arr
PUBLIC aada0 0 soption_set_and_get_disable_dpi_struct_string_arr
PUBLIC aae00 0 soption_set_and_get_disable_dpi_multidim_arr
PUBLIC aae60 0 soption_set_and_get_disable_dpi_openarray_bitselect_arg
PUBLIC aaec0 0 soption_set_and_get_disable_dpi_openarray_2D_dynamic_array_arg
PUBLIC aaf20 0 soption_set_and_get_disable_dpi_unpacked_struct_array_of_packed_struct_arg
PUBLIC aaf80 0 soption_set_and_get_disable_dpi_openarray_shortreal_arg
PUBLIC aafe0 0 soption_set_and_get_extended_flat_udn
PUBLIC ab040 0 soption_set_and_get_enable_hier_expr_up_ref
PUBLIC ab0a0 0 soption_set_and_get_disable_hier_expr_up_ref
PUBLIC ab100 0 soption_set_and_get_enable_elab_param
PUBLIC ab160 0 soption_set_and_get_enable_upstruct_cfn
PUBLIC ab1c0 0 soption_set_and_get_disable_upstruct_cfn
PUBLIC ab220 0 soption_set_and_get_enable_array_op_inside
PUBLIC ab280 0 soption_set_and_get_disable_array_op_inside
PUBLIC ab2e0 0 soption_set_and_get_enable_hier_type_param_ref
PUBLIC ab340 0 soption_set_and_get_disable_hier_type_param_ref
PUBLIC ab3a0 0 soption_set_and_get_enable_multidim_strparam_uparr
PUBLIC ab400 0 soption_set_and_get_disable_multidim_strparam_uparr
PUBLIC ab460 0 soption_set_and_get_enable_dotted_member_select
PUBLIC ab4c0 0 soption_set_and_get_disable_dotted_member_select
PUBLIC ab520 0 soption_set_and_get_enable_reduce_valfit_warns
PUBLIC ab580 0 soption_set_and_get_disable_reduce_valfit_warns
PUBLIC ab5e0 0 soption_set_and_get_enable_staticcast_streamconcat
PUBLIC ab640 0 soption_set_and_get_disable_staticcast_streamconcat
PUBLIC ab6a0 0 soption_set_and_get_enable_upstrmem_init
PUBLIC ab700 0 soption_set_and_get_disable_upstrmem_init
PUBLIC ab760 0 soption_set_and_get_disable_ref_fork_check
PUBLIC ab7c0 0 soption_set_and_get_enable_cf
PUBLIC ab820 0 soption_set_and_get_disable_cf
PUBLIC ab880 0 soption_set_and_get_disable_cfn_builtin_chk
PUBLIC ab8e0 0 soption_set_and_get_enable_svsema_tp
PUBLIC ab940 0 soption_set_and_get_enable_muldim_sparsearray
PUBLIC ab9a0 0 soption_set_and_get_enable_chandle_tp
PUBLIC aba00 0 soption_set_and_get_disable_chandle_tp
PUBLIC aba60 0 soption_set_and_get_allowundefinedsvhref
PUBLIC abac0 0 soption_set_and_get_enable_dbits
PUBLIC abb20 0 soption_set_and_get_enable_ps_ap
PUBLIC abb80 0 soption_set_and_get_disable_tp_unp_array
PUBLIC abbe0 0 soption_set_and_get_enable_warn_rtoi_assign
PUBLIC abc40 0 soption_set_and_get_enable_custom_format_system_tasks
PUBLIC abca0 0 soption_set_and_get_enable_str_first_arg_fatal
PUBLIC abd00 0 soption_set_and_get_extended_dlnolk_err
PUBLIC abd60 0 soption_set_and_get_disable_dbits
PUBLIC abdc0 0 soption_set_and_get_enable_tpe
PUBLIC abe20 0 soption_set_and_get_relax_sv_assigns
PUBLIC abe80 0 soption_set_and_get_disable_cf_da_chk
PUBLIC abee0 0 soption_set_and_get_disable_sc_libsearch_opt
PUBLIC abf40 0 soption_set_and_get_nolock
PUBLIC abfa0 0 soption_set_and_get_abv_flushed_state
PUBLIC ac000 0 soption_set_and_get_lps_enable_assertion_ctrl
PUBLIC ac060 0 soption_set_and_get_disable_vifc_subelem_res
PUBLIC ac0c0 0 soption_set_and_get_process_save
PUBLIC ac120 0 soption_set_and_get_checkpoint_enable
PUBLIC ac180 0 soption_set_and_get_cds_implicit_tmpdir
PUBLIC ac1e0 0 soption_set_and_get_abvasrtamalgopt
PUBLIC ac240 0 soption_set_and_get_default_port_array_wire
PUBLIC ac2a0 0 soption_set_and_get_enable_susres_in_func
PUBLIC ac300 0 soption_set_and_get_enable_compress_gz_check
PUBLIC ac360 0 soption_set_and_get_enable_strict_cfn_chk
PUBLIC ac3c0 0 soption_set_and_get_disable_strict_cfn_chk
PUBLIC ac420 0 soption_set_and_get_enable_enh_param_arch
PUBLIC ac480 0 soption_set_and_get_enable_const_builtin
PUBLIC ac4e0 0 soption_set_and_get_disable_const_builtin
PUBLIC ac540 0 soption_set_and_get_enable_autochk_monitor_strobe
PUBLIC ac5a0 0 soption_set_and_get_disable_2_state_wire
PUBLIC ac600 0 soption_set_and_get_enable_enum_array
PUBLIC ac660 0 soption_set_and_get_enable_csunp_sens
PUBLIC ac6c0 0 soption_set_and_get_disable_strings_in_constraints
PUBLIC ac720 0 soption_set_and_get_disable_aa_index_twostate_cast
PUBLIC ac780 0 soption_set_and_get_debug_dlcird
PUBLIC ac7e0 0 soption_set_vlogcontrolrelax
PUBLIC ac850 0 soption_get_vlogcontrolrelax
PUBLIC ac860 0 soption_unset_vlogcontrolrelax
PUBLIC ac8d0 0 sindex
PUBLIC ac900 0 srindex
PUBLIC ac930 0 cistrcmp
PUBLIC ac970 0 cistrncmp
PUBLIC ac990 0 fnamecmp
PUBLIC ac9a0 0 smkpath
PUBLIC ac9e0 0 sbasename
PUBLIC ac9f0 0 supcase
PUBLIC aca50 0 sdowncase
PUBLIC acab0 0 ignore_whitespace_newlinechar
PUBLIC acb30 0 iastrcmp
PUBLIC acc50 0 sconvert_line_to_string
PUBLIC acc70 0 sbeginswith
PUBLIC accc0 0 scibeginswith
PUBLIC acd60 0 nc_getversionstr
PUBLIC acd70 0 nc_getversionstr_compat
PUBLIC acd80 0 nc_get_licenseversionstr
PUBLIC acd90 0 nc_get_buildcl
PUBLIC acda0 0 nc_printversion
PUBLIC acde0 0 nc_print_license_version
PUBLIC ace00 0 nc_getbannerstr
PUBLIC ace10 0 nc_getrawversionstr
PUBLIC ace20 0 nc_printbanner
PUBLIC ace40 0 nc_printhostinfo
PUBLIC acf40 0 nc_printlimitinfo
PUBLIC ad0f0 0 setversionwriter
PUBLIC ad100 0 nc_striptoolname
PUBLIC ad130 0 nc_compareVersionName
PUBLIC ad180 0 nc_check_version_compatibility
PUBLIC ad350 0 nc_printnewline
PUBLIC ad490 0 ghash_create
PUBLIC ad4b0 0 ghash_default_uconfigs
PUBLIC ad500 0 ghash_create_custom
PUBLIC ad8e0 0 ghash_create_general
PUBLIC ada70 0 ghash_create_general_size
PUBLIC adc30 0 ghash_get_array_index(ghash_s*, void*)
PUBLIC adc60 0 ghash_clear
PUBLIC adf50 0 ghash_destroy
PUBLIC adfb0 0 ghash_has_key
PUBLIC ae0b0 0 ghash_find
PUBLIC ae170 0 ghash_find_or_insert
PUBLIC ae480 0 ghash_insert_with_key_ref
PUBLIC ae7e0 0 ghash_insert
PUBLIC ae800 0 ghash_delete_data_from_list
PUBLIC ae990 0 ghash_append_data_to_list
PUBLIC aeb20 0 ghash_delete
PUBLIC aed80 0 ghash_hash_destroy
PUBLIC af210 0 ghash_hash_find
PUBLIC af240 0 ghash_hash_find_no_share_cs
PUBLIC af310 0 ghash_hash_find_desc
PUBLIC af400 0 ghash_hash_find_or_insert
PUBLIC af540 0 ghash_hash_insert
PUBLIC af680 0 ghash_hash_insert_no_share_cs
PUBLIC af860 0 ghash_hash_delete
PUBLIC af890 0 ghash_hash_delete_no_share_cs
PUBLIC af960 0 ghash_hash_has_key
PUBLIC af9a0 0 ghash_get_num_keys
PUBLIC af9b0 0 ghash_get_num_elements
PUBLIC af9c0 0 ghash_get_table_size
PUBLIC af9d0 0 ghash_get_num_data_elements
PUBLIC afa00 0 ghash_iterate_simple
PUBLIC afb00 0 ghash_iterate_data_ref
PUBLIC afba0 0 ghash_print(ghash_s*)
PUBLIC afd70 0 ghash_quality
PUBLIC b04c0 0 gslist_create_general
PUBLIC b0530 0 gslist_create
PUBLIC b0540 0 gslist_clear
PUBLIC b0610 0 gslist_destroy
PUBLIC b0640 0 gslist_prepend
PUBLIC b0690 0 gslist_append
PUBLIC b0700 0 gslist_remove
PUBLIC b07a0 0 gslist_exists_elem
PUBLIC b07d0 0 gslist_count
PUBLIC b07e0 0 gslist_pop_head
PUBLIC b0840 0 gslist_pop_tail
PUBLIC b08c0 0 gslist_show_head
PUBLIC b08f0 0 gslist_show_tail
PUBLIC b0920 0 gslist_iter_begin
PUBLIC b0950 0 gslist_iter_end
PUBLIC b0960 0 gslist_iter_inc
PUBLIC b0990 0 gslist_iter_val
PUBLIC b09c0 0 gstr_alloc
PUBLIC b09e0 0 gstr_free
PUBLIC b09f0 0 gstr_strcpy
PUBLIC b0a30 0 gstr_strncpy
PUBLIC b0a70 0 gstr_strcat
PUBLIC b0af0 0 gstr_strcat_with_len
PUBLIC b0cd0 0 gstr_strncat
PUBLIC b0d50 0 gstr_vsprintf
PUBLIC b0d80 0 gstr_vsprintf_cat
PUBLIC b0dd0 0 gstr_sprintf
PUBLIC b0e60 0 gstr_sprintf_cat
PUBLIC b0ef0 0 gstr_vsprintf_cat_with_len
PUBLIC b0f20 0 gstr_sprintf_cat_with_len
PUBLIC b0fc0 0 __libc_csu_init
PUBLIC b1030 0 __libc_csu_fini
PUBLIC b105c 0 _fini
STACK CFI INIT 1cfb0 2a .cfa: $rsp 8 + .ra: .cfa -8 + ^
STACK CFI INIT 1c020 d50 .cfa: $rsp 16 + .ra: .cfa -8 + ^
STACK CFI 1c026 .cfa: $rsp 24 +
STACK CFI INIT 1cd70 10 .cfa: $rsp 8 + .ra: .cfa -8 + ^
STACK CFI INIT 1d082 4f6 .cfa: $rsp 8 + .ra: .cfa -8 + ^
STACK CFI 1d084 $r15: .cfa -16 + ^ .cfa: $rsp 16 +
STACK CFI 1d086 $r14: .cfa -24 + ^ .cfa: $rsp 24 +
STACK CFI 1d088 $r13: .cfa -32 + ^ .cfa: $rsp 32 +
STACK CFI 1d08a $r12: .cfa -40 + ^ .cfa: $rsp 40 +
STACK CFI 1d08b $rbp: .cfa -48 + ^ .cfa: $rsp 48 +
STACK CFI 1d08c $rbx: .cfa -56 + ^ .cfa: $rsp 56 +
STACK CFI 1d093 .cfa: $rsp 4176 +
STACK CFI 1d134 .cfa: $rsp 4184 +
STACK CFI 1d13b .cfa: $rsp 4192 +
STACK CFI 1d142 .cfa: $rsp 4200 +
STACK CFI 1d149 .cfa: $rsp 4208 +
STACK CFI 1d150 .cfa: $rsp 4216 +
STACK CFI 1d157 .cfa: $rsp 4224 +
STACK CFI 1d182 .cfa: $rsp 4176 +
STACK CFI 1d396 .cfa: $rsp 4184 +
STACK CFI 1d39d .cfa: $rsp 4192 +
STACK CFI 1d3a4 .cfa: $rsp 4200 +
STACK CFI 1d3ab .cfa: $rsp 4208 +
STACK CFI 1d3b2 .cfa: $rsp 4216 +
STACK CFI 1d3b4 .cfa: $rsp 4224 +
STACK CFI 1d3d5 .cfa: $rsp 4176 +
STACK CFI 1d53f .cfa: $rsp 56 +
STACK CFI 1d540 .cfa: $rsp 48 +
STACK CFI 1d541 .cfa: $rsp 40 +
STACK CFI 1d543 .cfa: $rsp 32 +
STACK CFI 1d545 .cfa: $rsp 24 +
STACK CFI 1d547 .cfa: $rsp 16 +
STACK CFI 1d549 .cfa: $rsp 8 +
STACK CFI 1d54a .cfa: $rsp 4176 +
STACK CFI INIT 1d578 96 .cfa: $rsp 8 + .ra: .cfa -8 + ^
STACK CFI 1d583 $r13: .cfa -16 + ^ .cfa: $rsp 16 +
STACK CFI 1d585 $r12: .cfa -24 + ^ .cfa: $rsp 24 +
STACK CFI 1d586 $rbp: .cfa -32 + ^ .cfa: $rsp 32 +
STACK CFI 1d587 $rbx: .cfa -40 + ^ .cfa: $rsp 40 +
STACK CFI 1d58b .cfa: $rsp 48 +
STACK CFI 1d606 .cfa: $rsp 40 +
STACK CFI 1d607 .cfa: $rsp 32 +
STACK CFI 1d608 .cfa: $rsp 24 +
STACK CFI 1d60a .cfa: $rsp 16 +
STACK CFI 1d60c .cfa: $rsp 8 +
STACK CFI 1d60d $r12: $r12 $r13: $r13 $rbp: $rbp $rbx: $rbx
STACK CFI INIT 1d60e 4e .cfa: $rsp 8 + .ra: .cfa -8 + ^
STACK CFI INIT 1d65c 17f9 .cfa: $rsp 8 + .ra: .cfa -8 + ^
STACK CFI 1d65e $r15: .cfa -16 + ^ .cfa: $rsp 16 +
STACK CFI 1d660 $r14: .cfa -24 + ^ .cfa: $rsp 24 +
STACK CFI 1d662 $r13: .cfa -32 + ^ .cfa: $rsp 32 +
STACK CFI 1d664 $r12: .cfa -40 + ^ .cfa: $rsp 40 +
STACK CFI 1d665 $rbp: .cfa -48 + ^ .cfa: $rsp 48 +
STACK CFI 1d666 $rbx: .cfa -56 + ^ .cfa: $rsp 56 +
STACK CFI 1d66a .cfa: $rsp 96 +
STACK CFI 1d869 .cfa: $rsp 56 +
STACK CFI 1d86a .cfa: $rsp 48 +
STACK CFI 1d86b .cfa: $rsp 40 +
STACK CFI 1d86d .cfa: $rsp 32 +
STACK CFI 1d86f .cfa: $rsp 24 +
STACK CFI 1d871 .cfa: $rsp 16 +
STACK CFI 1d873 .cfa: $rsp 8 +
STACK CFI 1d874 .cfa: $rsp 96 +
STACK CFI INIT 1ee55 1050 .cfa: $rsp 8 + .ra: .cfa -8 + ^
STACK CFI 1ee57 $r15: .cfa -16 + ^ .cfa: $rsp 16 +
STACK CFI 1ee59 $r14: .cfa -24 + ^ .cfa: $rsp 24 +
STACK CFI 1ee5b $r13: .cfa -32 + ^ .cfa: $rsp 32 +
STACK CFI 1ee5d $r12: .cfa -40 + ^ .cfa: $rsp 40 +
STACK CFI 1ee5e $rbp: .cfa -48 + ^ .cfa: $rsp 48 +
STACK CFI 1ee5f $rbx: .cfa -56 + ^ .cfa: $rsp 56 +
STACK CFI 1ee63 .cfa: $rsp 96 +
STACK CFI 1fe9a .cfa: $rsp 56 +
STACK CFI 1fe9b .cfa: $rsp 48 +
STACK CFI 1fe9c .cfa: $rsp 40 +
STACK CFI 1fe9e .cfa: $rsp 32 +
STACK CFI 1fea0 .cfa: $rsp 24 +
STACK CFI 1fea2 .cfa: $rsp 16 +
STACK CFI 1fea4 .cfa: $rsp 8 +
STACK CFI INIT 1fea5 6a .cfa: $rsp 8 + .ra: .cfa -8 + ^
STACK CFI 1fea7 $r14: .cfa -16 + ^ .cfa: $rsp 16 +
STACK CFI 1fea9 $r13: .cfa -24 + ^ .cfa: $rsp 24 +
STACK CFI 1feab $r12: .cfa -32 + ^ .cfa: $rsp 32 +
STACK CFI 1feac $rbp: .cfa -40 + ^ .cfa: $rsp 40 +
STACK CFI 1fead $rbx: .cfa -48 + ^ .cfa: $rsp 48 +
STACK CFI 1ff07 .cfa: $rsp 40 +
STACK CFI 1ff08 .cfa: $rsp 32 +
STACK CFI 1ff0a .cfa: $rsp 24 +
STACK CFI 1ff0c .cfa: $rsp 16 +
STACK CFI 1ff0e .cfa: $rsp 8 +
STACK CFI INIT 1ff0f 4ff .cfa: $rsp 8 + .ra: .cfa -8 + ^
STACK CFI 1ff13 .cfa: $rsp 16 +
STACK CFI 2040d .cfa: $rsp 8 +
STACK CFI INIT 2040e 179 .cfa: $rsp 8 + .ra: .cfa -8 + ^
STACK CFI 2041f .cfa: $rsp 16 +
STACK CFI 20585 .cfa: $rsp 8 +
STACK CFI INIT 20587 6a .cfa: $rsp 8 + .ra: .cfa -8 + ^
STACK CFI 20594 .cfa: $rsp 16 +
STACK CFI 205e8 .cfa: $rsp 8 +
STACK CFI 205e9 .cfa: $rsp 16 +
STACK CFI 205f0 .cfa: $rsp 8 +
STACK CFI INIT 205f1 26 .cfa: $rsp 8 + .ra: .cfa -8 + ^
STACK CFI 205f2 $rbp: .cfa -16 + ^ .cfa: $rsp 16 +
STACK CFI 205f3 $rbx: .cfa -24 + ^ .cfa: $rsp 24 +
STACK CFI 205f7 .cfa: $rsp 32 +
STACK CFI 2060d .cfa: $rsp 24 +
STACK CFI 2060e .cfa: $rsp 16 +
STACK CFI 2060f .cfa: $rsp 8 +
STACK CFI 20610 .cfa: $rsp 32 +
STACK CFI INIT 20617 11 .cfa: $rsp 8 + .ra: .cfa -8 + ^
STACK CFI INIT 20628 b .cfa: $rsp 8 + .ra: .cfa -8 + ^
STACK CFI INIT 20633 45e .cfa: $rsp 8 + .ra: .cfa -8 + ^
STACK CFI 20635 $r14: .cfa -16 + ^ .cfa: $rsp 16 +
STACK CFI 20637 $r13: .cfa -24 + ^ .cfa: $rsp 24 +
STACK CFI 20639 $r12: .cfa -32 + ^ .cfa: $rsp 32 +
STACK CFI 2063a $rbp: .cfa -40 + ^ .cfa: $rsp 40 +
STACK CFI 2063b $rbx: .cfa -48 + ^ .cfa: $rsp 48 +
STACK CFI 207b7 .cfa: $rsp 40 +
STACK CFI 207b8 .cfa: $rsp 32 +
STACK CFI 207ba .cfa: $rsp 24 +
STACK CFI 207bc .cfa: $rsp 16 +
STACK CFI 207be .cfa: $rsp 8 +
STACK CFI 207bf .cfa: $rsp 48 +
STACK CFI INIT 20a91 10d .cfa: $rsp 8 + .ra: .cfa -8 + ^
STACK CFI 20a93 $r12: .cfa -16 + ^ .cfa: $rsp 16 +
STACK CFI 20a94 $rbp: .cfa -24 + ^ .cfa: $rsp 24 +
STACK CFI 20a95 $rbx: .cfa -32 + ^ .cfa: $rsp 32 +
STACK CFI 20b93 .cfa: $rsp 24 +
STACK CFI 20b94 .cfa: $rsp 16 +
STACK CFI 20b96 .cfa: $rsp 8 +
STACK CFI 20b97 .cfa: $rsp 32 +
STACK CFI INIT 20b9e 80b .cfa: $rsp 8 + .ra: .cfa -8 + ^
STACK CFI 20b9f $rbp: .cfa -16 + ^ .cfa: $rsp 16 +
STACK CFI 20ba0 $rbx: .cfa -24 + ^ .cfa: $rsp 24 +
STACK CFI 20ba7 .cfa: $rsp 16464 +
STACK CFI 21004 .cfa: $rsp 24 +
STACK CFI 21005 .cfa: $rsp 16 +
STACK CFI 21006 .cfa: $rsp 8 +
STACK CFI 21007 .cfa: $rsp 16464 +
STACK CFI INIT 213a9 60 .cfa: $rsp 8 + .ra: .cfa -8 + ^
STACK CFI 213b0 .cfa: $rsp 144 +
STACK CFI 213da .cfa: $rsp 8 +
STACK CFI 213db .cfa: $rsp 144 +
STACK CFI INIT 21409 45 .cfa: $rsp 8 + .ra: .cfa -8 + ^
STACK CFI 2140d .cfa: $rsp 32 +
STACK CFI 2143c .cfa: $rsp 8 +
STACK CFI 2143d .cfa: $rsp 32 +
STACK CFI INIT 2144e 5f0 .cfa: $rsp 8 + .ra: .cfa -8 + ^
STACK CFI 21450 $r13: .cfa -16 + ^ .cfa: $rsp 16 +
STACK CFI 21452 $r12: .cfa -24 + ^ .cfa: $rsp 24 +
STACK CFI 21453 $rbp: .cfa -32 + ^ .cfa: $rsp 32 +
STACK CFI 21454 $rbx: .cfa -40 + ^ .cfa: $rsp 40 +
STACK CFI 2145b .cfa: $rsp 192 +
STACK CFI 217c3 .cfa: $rsp 200 +
STACK CFI 217cb .cfa: $rsp 208 +
STACK CFI 217d4 .cfa: $rsp 192 +
STACK CFI INIT 21a3e b .cfa: $rsp 8 + .ra: .cfa -8 + ^
STACK CFI INIT 21a49 19 .cfa: $rsp 8 + .ra: .cfa -8 + ^
STACK CFI 21a4a $rbx: .cfa -16 + ^ .cfa: $rsp 16 +
STACK CFI 21a61 .cfa: $rsp 8 +
STACK CFI INIT 21a62 b .cfa: $rsp 8 + .ra: .cfa -8 + ^
STACK CFI INIT 21a6d 19 .cfa: $rsp 8 + .ra: .cfa -8 + ^
STACK CFI 21a6e $rbx: .cfa -16 + ^ .cfa: $rsp 16 +
STACK CFI 21a85 .cfa: $rsp 8 +
STACK CFI INIT 21a86 8 .cfa: $rsp 8 + .ra: .cfa -8 + ^
STACK CFI INIT 21a8e 41 .cfa: $rsp 8 + .ra: .cfa -8 + ^
STACK CFI INIT 21acf 3c .cfa: $rsp 8 + .ra: .cfa -8 + ^
STACK CFI 21ad0 $rbp: .cfa -16 + ^ .cfa: $rsp 16 +
STACK CFI 21ad1 $rbx: .cfa -24 + ^ .cfa: $rsp 24 +
STACK CFI 21ad5 .cfa: $rsp 32 +
STACK CFI 21b01 .cfa: $rsp 24 +
STACK CFI 21b02 .cfa: $rsp 16 +
STACK CFI 21b03 .cfa: $rsp 8 +
STACK CFI 21b04 .cfa: $rsp 32 +
STACK CFI INIT 21b10 43b .cfa: $rsp 8 + .ra: .cfa -8 + ^
STACK CFI 21b11 $rbp: .cfa -16 + ^ .cfa: $rsp 16 +
STACK CFI 21b14 .cfa: $rbp 16 +
STACK CFI 21b1a $r13: .cfa -40 + ^ $r14: .cfa -32 + ^ $r15: .cfa -24 + ^
STACK CFI 21b1f $r12: .cfa -48 + ^
STACK CFI 21b23 $rbx: .cfa -56 + ^
STACK CFI 21d6e .cfa: $rsp 8 +
STACK CFI 21d6f .cfa: $rbp 16 +
STACK CFI INIT 21f50 18b .cfa: $rsp 8 + .ra: .cfa -8 + ^
STACK CFI 21f51 $rbp: .cfa -16 + ^ .cfa: $rsp 16 +
STACK CFI 21f54 .cfa: $rbp 16 +
STACK CFI 21f58 $r13: .cfa -32 + ^ $r14: .cfa -24 + ^
STACK CFI 21f61 $r12: .cfa -40 + ^
STACK CFI 21f67 $rbx: .cfa -48 + ^
STACK CFI 2205f .cfa: $rsp 8 +
STACK CFI 22060 .cfa: $rbp 16 +
STACK CFI INIT 220e0 c6 .cfa: $rsp 8 + .ra: .cfa -8 + ^
STACK CFI 220e1 $rbp: .cfa -16 + ^ .cfa: $rsp 16 +
STACK CFI 220e4 .cfa: $rbp 16 +
STACK CFI 220ee $r12: .cfa -40 + ^ $r13: .cfa -32 + ^ $r14: .cfa -24 + ^
STACK CFI 22150 .cfa: $rsp 8 +
STACK CFI 22158 .cfa: $rbp 16 +
STACK CFI INIT 221b0 449 .cfa: $rsp 8 + .ra: .cfa -8 + ^
STACK CFI 221b1 $rbp: .cfa -16 + ^ .cfa: $rsp 16 +
STACK CFI 221b4 .cfa: $rbp 16 +
STACK CFI 221c4 $r12: .cfa -48 + ^ $r13: .cfa -40 + ^ $r14: .cfa -32 + ^ $r15: .cfa -24 + ^ $rbx: .cfa -56 + ^
STACK CFI 2222b .cfa: $rsp 8 +
STACK CFI 22230 .cfa: $rbp 16 +
STACK CFI INIT 22600 1a8 .cfa: $rsp 8 + .ra: .cfa -8 + ^
STACK CFI 22601 $rbp: .cfa -16 + ^ .cfa: $rsp 16 +
STACK CFI 22604 .cfa: $rbp 16 +
STACK CFI 22614 $r12: .cfa -48 + ^ $r13: .cfa -40 + ^ $r14: .cfa -32 + ^ $r15: .cfa -24 + ^ $rbx: .cfa -56 + ^
STACK CFI 2271d .cfa: $rsp 8 +
STACK CFI 22720 .cfa: $rbp 16 +
STACK CFI INIT 227b0 b3 .cfa: $rsp 8 + .ra: .cfa -8 + ^
STACK CFI 227b1 $rbp: .cfa -16 + ^ .cfa: $rsp 16 +
STACK CFI 227b4 .cfa: $rbp 16 +
STACK CFI 227be $r12: .cfa -40 + ^ $r13: .cfa -32 + ^ $r14: .cfa -24 + ^
STACK CFI 22813 .cfa: $rsp 8 +
STACK CFI 22818 .cfa: $rbp 16 +
STACK CFI INIT 22870 13d .cfa: $rsp 8 + .ra: .cfa -8 + ^
STACK CFI 22871 $rbp: .cfa -16 + ^ .cfa: $rsp 16 +
STACK CFI 22874 .cfa: $rbp 16 +
STACK CFI 22883 $r12: .cfa -48 + ^ $r13: .cfa -40 + ^ $r14: .cfa -32 + ^ $r15: .cfa -24 + ^
STACK CFI 228cf .cfa: $rsp 8 +
STACK CFI 228d0 .cfa: $rbp 16 +
STACK CFI INIT 229b0 93 .cfa: $rsp 8 + .ra: .cfa -8 + ^
STACK CFI 229b1 $rbp: .cfa -16 + ^ .cfa: $rsp 16 +
STACK CFI 229b4 .cfa: $rbp 16 +
STACK CFI 229b8 $r12: .cfa -32 + ^ $r13: .cfa -24 + ^
STACK CFI 22a42 .cfa: $rsp 8 +
STACK CFI INIT 22a50 c .cfa: $rsp 8 + .ra: .cfa -8 + ^
STACK CFI INIT 22a60 c .cfa: $rsp 8 + .ra: .cfa -8 + ^
STACK CFI INIT 22a70 c .cfa: $rsp 8 + .ra: .cfa -8 + ^
STACK CFI INIT 22a80 c .cfa: $rsp 8 + .ra: .cfa -8 + ^
STACK CFI INIT 22a90 c .cfa: $rsp 8 + .ra: .cfa -8 + ^
STACK CFI INIT 22aa0 124 .cfa: $rsp 8 + .ra: .cfa -8 + ^
STACK CFI 22aa1 $rbp: .cfa -16 + ^ .cfa: $rsp 16 +
STACK CFI 22aa4 .cfa: $rbp 16 +
STACK CFI 22aa6 $r15: .cfa -24 + ^
STACK CFI 22aab $r14: .cfa -32 + ^
STACK CFI 22ab0 $r13: .cfa -40 + ^
STACK CFI 22ab6 $r12: .cfa -48 + ^ $rbx: .cfa -56 + ^
STACK CFI 22b66 .cfa: $rsp 8 +
STACK CFI 22b67 .cfa: $rbp 16 +
STACK CFI INIT 22bd0 1b4 .cfa: $rsp 8 + .ra: .cfa -8 + ^
STACK CFI 22bd1 $rbp: .cfa -16 + ^ .cfa: $rsp 16 +
STACK CFI 22bd4 .cfa: $rbp 16 +
STACK CFI 22bd8 $r14: .cfa -32 + ^ $r15: .cfa -24 + ^
STACK CFI 22bdd $r13: .cfa -40 + ^
STACK CFI 22be2 $r12: .cfa -48 + ^
STACK CFI 22be6 $rbx: .cfa -56 + ^
STACK CFI 22d6c .cfa: $rsp 8 +
STACK CFI 22d70 .cfa: $rbp 16 +
STACK CFI 22d83 .cfa: $rsp 8 +
STACK CFI INIT 22d90 305 .cfa: $rsp 8 + .ra: .cfa -8 + ^
STACK CFI 22d91 $rbp: .cfa -16 + ^ .cfa: $rsp 16 +
STACK CFI 22d94 .cfa: $rbp 16 +
STACK CFI 22da4 $r12: .cfa -48 + ^ $r13: .cfa -40 + ^ $r14: .cfa -32 + ^ $r15: .cfa -24 + ^ $rbx: .cfa -56 + ^
STACK CFI 22df5 .cfa: $rsp 8 +
STACK CFI 22e00 .cfa: $rbp 16 +
STACK CFI INIT 230a0 af .cfa: $rsp 8 + .ra: .cfa -8 + ^
STACK CFI 230a1 $rbp: .cfa -16 + ^ .cfa: $rsp 16 +
STACK CFI 230a4 .cfa: $rbp 16 +
STACK CFI 230ac $rbx: .cfa -24 + ^
STACK CFI 23124 .cfa: $rsp 8 +
STACK CFI 23128 .cfa: $rbp 16 +
STACK CFI 23136 .cfa: $rsp 8 +
STACK CFI 23140 .cfa: $rbp 16 +
STACK CFI 2314e .cfa: $rsp 8 +
STACK CFI INIT 23150 3c6 .cfa: $rsp 8 + .ra: .cfa -8 + ^
STACK CFI 23151 $rbp: .cfa -16 + ^ .cfa: $rsp 16 +
STACK CFI 23154 .cfa: $rbp 16 +
STACK CFI 23164 $r12: .cfa -48 + ^ $r13: .cfa -40 + ^ $r14: .cfa -32 + ^ $r15: .cfa -24 + ^ $rbx: .cfa -56 + ^
STACK CFI 232ca .cfa: $rsp 8 +
STACK CFI 232cb .cfa: $rbp 16 +
STACK CFI INIT 23520 22 .cfa: $rsp 8 + .ra: .cfa -8 + ^
STACK CFI 23521 $rbp: .cfa -16 + ^ .cfa: $rsp 16 +
STACK CFI 23524 .cfa: $rbp 16 +
STACK CFI 23541 .cfa: $rsp 8 +
STACK CFI INIT 23550 37e .cfa: $rsp 8 + .ra: .cfa -8 + ^
STACK CFI 2355a $rbp: .cfa -16 + ^ .cfa: $rsp 16 +
STACK CFI 23560 .cfa: $rbp 16 +
STACK CFI 23568 $r12: .cfa -48 + ^ $r13: .cfa -40 + ^ $r14: .cfa -32 + ^ $r15: .cfa -24 + ^
STACK CFI 23573 $rbx: .cfa -56 + ^
STACK CFI 236a7 .cfa: $rsp 8 +
STACK CFI 236b0 .cfa: $rbp 16 +
STACK CFI 237c8 $r12: $r12 $r13: $r13 $r14: $r14 $r15: $r15 $rbp: $rbp $rbx: $rbx .cfa: $rsp 8 +
STACK CFI 237d8 $r12: .cfa -48 + ^ $r13: .cfa -40 + ^ $r14: .cfa -32 + ^ $r15: .cfa -24 + ^ $rbp: .cfa -16 + ^ $rbx: .cfa -56 + ^ .cfa: $rbp 16 +
STACK CFI INIT 238d0 cc .cfa: $rsp 8 + .ra: .cfa -8 + ^
STACK CFI 238d1 $rbp: .cfa -16 + ^ .cfa: $rsp 16 +
STACK CFI 238d4 .cfa: $rbp 16 +
STACK CFI 238d6 $r15: .cfa -24 + ^
STACK CFI 238df $r12: .cfa -48 + ^ $r13: .cfa -40 + ^ $r14: .cfa -32 + ^
STACK CFI 238e3 $rbx: .cfa -56 + ^
STACK CFI 23949 .cfa: $rsp 8 +
STACK CFI 23950 .cfa: $rbp 16 +
STACK CFI INIT 239a0 8c .cfa: $rsp 8 + .ra: .cfa -8 + ^
STACK CFI 239a6 $rbp: .cfa -16 + ^ .cfa: $rsp 16 +
STACK CFI 239ae .cfa: $rbp 16 +
STACK CFI 239b3 $r12: .cfa -32 + ^ $r13: .cfa -24 + ^ $rbx: .cfa -40 + ^
STACK CFI 23a06 .cfa: $rsp 8 +
STACK CFI 23a10 $r12: $r12 $r13: $r13 $rbp: $rbp $rbx: $rbx
STACK CFI 23a16 $r12: .cfa -32 + ^ $r13: .cfa -24 + ^ $rbp: .cfa -16 + ^ $rbx: .cfa -40 + ^ .cfa: $rbp 16 +
STACK CFI INIT 23a30 26 .cfa: $rsp 8 + .ra: .cfa -8 + ^
STACK CFI INIT 23a60 5d .cfa: $rsp 8 + .ra: .cfa -8 + ^
STACK CFI 23a66 $rbp: .cfa -16 + ^ .cfa: $rsp 16 +
STACK CFI 23a69 .cfa: $rbp 16 +
STACK CFI 23a6b $r12: .cfa -24 + ^
STACK CFI 23a8a $r12: $r12
STACK CFI 23a8b $rbp: $rbp .cfa: $rsp 8 +
STACK CFI 23a90 $r12: .cfa -24 + ^ $rbp: .cfa -16 + ^ .cfa: $rbp 16 +
STACK CFI 23aae .cfa: $rsp 8 +
STACK CFI 23ab0 $r12: $r12 $rbp: $rbp
STACK CFI 23ab6 $r12: .cfa -24 + ^ $rbp: .cfa -16 + ^ .cfa: $rbp 16 +
STACK CFI INIT 23ac0 b4 .cfa: $rsp 8 + .ra: .cfa -8 + ^
STACK CFI 23aca $rbp: .cfa -16 + ^ .cfa: $rsp 16 +
STACK CFI 23acd .cfa: $rbp 16 +
STACK CFI 23ad1 $r12: .cfa -32 + ^ $r13: .cfa -24 + ^
STACK CFI 23af5 $r12: $r12
STACK CFI 23af7 $r13: $r13
STACK CFI 23af8 $rbp: $rbp .cfa: $rsp 8 +
STACK CFI 23b00 $r12: .cfa -32 + ^ $r13: .cfa -24 + ^ $rbp: .cfa -16 + ^ .cfa: $rbp 16 +
STACK CFI 23b42 .cfa: $rsp 8 +
STACK CFI 23b48 .cfa: $rbp 16 +
STACK CFI 23b56 .cfa: $rsp 8 +
STACK CFI 23b60 $r12: $r12 $r13: $r13 $rbp: $rbp
STACK CFI 23b66 $r12: .cfa -32 + ^ $r13: .cfa -24 + ^ $rbp: .cfa -16 + ^ .cfa: $rbp 16 +
STACK CFI INIT 23b80 c7 .cfa: $rsp 8 + .ra: .cfa -8 + ^
STACK CFI 23b8a $rbp: .cfa -16 + ^ .cfa: $rsp 16 +
STACK CFI 23b92 .cfa: $rbp 16 +
STACK CFI 23b96 $r13: .cfa -32 + ^ $r14: .cfa -24 + ^
STACK CFI 23b9c $r12: .cfa -40 + ^ $rbx: .cfa -48 + ^
STACK CFI 23c0d .cfa: $rsp 8 +
STACK CFI 23c10 $r12: $r12 $r13: $r13 $r14: $r14 $rbp: $rbp $rbx: $rbx
STACK CFI 23c20 $r12: .cfa -40 + ^ $r13: .cfa -32 + ^ $r14: .cfa -24 + ^ $rbp: .cfa -16 + ^ $rbx: .cfa -48 + ^ .cfa: $rbp 16 +
STACK CFI INIT 23c50 ad .cfa: $rsp 8 + .ra: .cfa -8 + ^
STACK CFI 23c5b $rbp: .cfa -16 + ^ .cfa: $rsp 16 +
STACK CFI 23c5e .cfa: $rbp 16 +
STACK CFI 23c60 $r12: .cfa -24 + ^
STACK CFI 23c68 $rbx: .cfa -32 + ^
STACK CFI 23c7f $rbx: $rbx
STACK CFI 23c81 $r12: $r12
STACK CFI 23c82 $rbp: $rbp .cfa: $rsp 8 +
STACK CFI 23c90 $r12: .cfa -24 + ^ $rbp: .cfa -16 + ^ $rbx: .cfa -32 + ^ .cfa: $rbp 16 +
STACK CFI 23cd1 .cfa: $rsp 8 +
STACK CFI 23cd8 .cfa: $rbp 16 +
STACK CFI INIT 23d00 46 .cfa: $rsp 8 + .ra: .cfa -8 + ^
STACK CFI INIT 23d50 36 .cfa: $rsp 8 + .ra: .cfa -8 + ^
STACK CFI INIT 23d90 36 .cfa: $rsp 8 + .ra: .cfa -8 + ^
STACK CFI INIT 23dd0 5f .cfa: $rsp 8 + .ra: .cfa -8 + ^
STACK CFI 23df1 $rbp: .cfa -16 + ^ .cfa: $rsp 16 +
STACK CFI 23df7 .cfa: $rbp 16 +
STACK CFI 23e08 .cfa: $rsp 8 +
STACK CFI 23e10 $rbp: $rbp
STACK CFI 23e20 $rbp: .cfa -16 + ^ .cfa: $rbp 16 +
STACK CFI 23e26 .cfa: $rsp 8 +
STACK CFI 23e29 $rbp: $rbp
STACK CFI INIT 23e30 98 .cfa: $rsp 8 + .ra: .cfa -8 + ^
STACK CFI 23e36 $rbp: .cfa -16 + ^ .cfa: $rsp 16 +
STACK CFI 23e39 .cfa: $rbp 16 +
STACK CFI 23e3b $r12: .cfa -24 + ^
STACK CFI 23e5e $r12: $r12
STACK CFI 23e5f $rbp: $rbp .cfa: $rsp 8 +
STACK CFI 23e68 $r12: .cfa -24 + ^ $rbp: .cfa -16 + ^ .cfa: $rbp 16 +
STACK CFI 23e91 .cfa: $rsp 8 +
STACK CFI 23e98 $r12: $r12 $rbp: $rbp
STACK CFI 23ea0 $r12: .cfa -24 + ^ $rbp: .cfa -16 + ^ .cfa: $rbp 16 +
STACK CFI INIT 23ed0 4a .cfa: $rsp 8 + .ra: .cfa -8 + ^
STACK CFI 23f01 $rbp: .cfa -16 + ^ .cfa: $rsp 16 +
STACK CFI 23f0b .cfa: $rbp 16 +
STACK CFI 23f13 .cfa: $rsp 8 +
STACK CFI 23f14 $rbp: $rbp
STACK CFI INIT 23f20 7e .cfa: $rsp 8 + .ra: .cfa -8 + ^
STACK CFI 23f61 $rbp: .cfa -16 + ^ .cfa: $rsp 16 +
STACK CFI 23f64 .cfa: $rbp 16 +
STACK CFI 23f84 .cfa: $rsp 8 +
STACK CFI 23f88 .cfa: $rbp 16 +
STACK CFI 23f97 .cfa: $rsp 8 +
STACK CFI 23f98 $rbp: $rbp
STACK CFI INIT 23fa0 7e .cfa: $rsp 8 + .ra: .cfa -8 + ^
STACK CFI 23fe1 $rbp: .cfa -16 + ^ .cfa: $rsp 16 +
STACK CFI 23fe4 .cfa: $rbp 16 +
STACK CFI 24004 .cfa: $rsp 8 +
STACK CFI 24008 .cfa: $rbp 16 +
STACK CFI 24017 .cfa: $rsp 8 +
STACK CFI 24018 $rbp: $rbp
STACK CFI INIT 24020 67 .cfa: $rsp 8 + .ra: .cfa -8 + ^
STACK CFI 24051 $rbp: .cfa -16 + ^ .cfa: $rsp 16 +
STACK CFI 24054 .cfa: $rbp 16 +
STACK CFI 24074 .cfa: $rsp 8 +
STACK CFI 24078 .cfa: $rbp 16 +
STACK CFI 24080 .cfa: $rsp 8 +
STACK CFI 24081 $rbp: $rbp
STACK CFI INIT 24090 8d .cfa: $rsp 8 + .ra: .cfa -8 + ^
STACK CFI 24096 $rbp: .cfa -16 + ^ .cfa: $rsp 16 +
STACK CFI 24099 .cfa: $rbp 16 +
STACK CFI 2409b $r12: .cfa -24 + ^
STACK CFI 240c3 $r12: $r12
STACK CFI 240c4 $rbp: $rbp .cfa: $rsp 8 +
STACK CFI 240d0 $r12: .cfa -24 + ^ $rbp: .cfa -16 + ^ .cfa: $rbp 16 +
STACK CFI 240dc .cfa: $rsp 8 +
STACK CFI 240e0 .cfa: $rbp 16 +
STACK CFI 24110 $r12: $r12 $rbp: $rbp .cfa: $rsp 8 +
STACK CFI 24116 $r12: .cfa -24 + ^ $rbp: .cfa -16 + ^ .cfa: $rbp 16 +
STACK CFI INIT 24120 3b .cfa: $rsp 8 + .ra: .cfa -8 + ^
STACK CFI INIT 24160 3b .cfa: $rsp 8 + .ra: .cfa -8 + ^
STACK CFI INIT 241a0 3b .cfa: $rsp 8 + .ra: .cfa -8 + ^
STACK CFI INIT 241e0 3b .cfa: $rsp 8 + .ra: .cfa -8 + ^
STACK CFI INIT 24220 3b .cfa: $rsp 8 + .ra: .cfa -8 + ^
STACK CFI INIT 24260 8d .cfa: $rsp 8 + .ra: .cfa -8 + ^
STACK CFI 24266 $rbp: .cfa -16 + ^ .cfa: $rsp 16 +
STACK CFI 24269 .cfa: $rbp 16 +
STACK CFI 2426b $r13: .cfa -24 + ^
STACK CFI 24270 $r12: .cfa -32 + ^
STACK CFI 2428c $r12: $r12
STACK CFI 2428e $r13: $r13
STACK CFI 2428f $rbp: $rbp .cfa: $rsp 8 +
STACK CFI 24298 $r12: .cfa -32 + ^ $r13: .cfa -24 + ^ $rbp: .cfa -16 + ^ .cfa: $rbp 16 +
STACK CFI 242a2 .cfa: $rsp 8 +
STACK CFI 242a8 .cfa: $rbp 16 +
STACK CFI 242e0 $r12: $r12 $r13: $r13 $rbp: $rbp .cfa: $rsp 8 +
STACK CFI 242e6 $r12: .cfa -32 + ^ $r13: .cfa -24 + ^ $rbp: .cfa -16 + ^ .cfa: $rbp 16 +
STACK CFI INIT 242f0 8d .cfa: $rsp 8 + .ra: .cfa -8 + ^
STACK CFI 242f6 $rbp: .cfa -16 + ^ .cfa: $rsp 16 +
STACK CFI 242f9 .cfa: $rbp 16 +
STACK CFI 242fb $r13: .cfa -24 + ^
STACK CFI 24300 $r12: .cfa -32 + ^
STACK CFI 2431c $r12: $r12
STACK CFI 2431e $r13: $r13
STACK CFI 2431f $rbp: $rbp .cfa: $rsp 8 +
STACK CFI 24328 $r12: .cfa -32 + ^ $r13: .cfa -24 + ^ $rbp: .cfa -16 + ^ .cfa: $rbp 16 +
STACK CFI 24332 .cfa: $rsp 8 +
STACK CFI 24338 .cfa: $rbp 16 +
STACK CFI 24370 $r12: $r12 $r13: $r13 $rbp: $rbp .cfa: $rsp 8 +
STACK CFI 24376 $r12: .cfa -32 + ^ $r13: .cfa -24 + ^ $rbp: .cfa -16 + ^ .cfa: $rbp 16 +
STACK CFI INIT 24380 3e .cfa: $rsp 8 + .ra: .cfa -8 + ^
STACK CFI INIT 243c0 3e .cfa: $rsp 8 + .ra: .cfa -8 + ^
STACK CFI INIT 24400 3e .cfa: $rsp 8 + .ra: .cfa -8 + ^
STACK CFI INIT 24440 40 .cfa: $rsp 8 + .ra: .cfa -8 + ^
STACK CFI INIT 24480 40 .cfa: $rsp 8 + .ra: .cfa -8 + ^
STACK CFI INIT 244c0 e1 .cfa: $rsp 8 + .ra: .cfa -8 + ^
STACK CFI 244c1 $rbp: .cfa -16 + ^ .cfa: $rsp 16 +
STACK CFI 244c4 .cfa: $rbp 16 +
STACK CFI 244c8 $r14: .cfa -32 + ^ $r15: .cfa -24 + ^
STACK CFI 244cf $r12: .cfa -48 + ^ $r13: .cfa -40 + ^
STACK CFI 244d7 $rbx: .cfa -56 + ^
STACK CFI 2454f .cfa: $rsp 8 +
STACK CFI 24550 .cfa: $rbp 16 +
STACK CFI 2456c .cfa: $rsp 8 +
STACK CFI 2456d .cfa: $rbp 16 +
STACK CFI INIT 245b0 5c .cfa: $rsp 8 + .ra: .cfa -8 + ^
STACK CFI 245b1 $rbp: .cfa -16 + ^ .cfa: $rsp 16 +
STACK CFI 245b4 .cfa: $rbp 16 +
STACK CFI 245b6 $r12: .cfa -24 + ^
STACK CFI 245ba $rbx: .cfa -32 + ^
STACK CFI 245f4 .cfa: $rsp 8 +
STACK CFI 245f8 .cfa: $rbp 16 +
STACK CFI 2460b .cfa: $rsp 8 +
STACK CFI INIT 24610 10 .cfa: $rsp 8 + .ra: .cfa -8 + ^
STACK CFI 24611 $rbp: .cfa -16 + ^ .cfa: $rsp 16 +
STACK CFI 24617 .cfa: $rbp 16 +
STACK CFI 2461f .cfa: $rsp 8 +
STACK CFI INIT 24620 5f .cfa: $rsp 8 + .ra: .cfa -8 + ^
STACK CFI 24621 $rbp: .cfa -16 + ^ .cfa: $rsp 16 +
STACK CFI 24624 .cfa: $rbp 16 +
STACK CFI 24626 $r12: .cfa -24 + ^
STACK CFI 2466f .cfa: $rsp 8 +
STACK CFI 24670 .cfa: $rbp 16 +
STACK CFI 2467e .cfa: $rsp 8 +
STACK CFI INIT 24680 57 .cfa: $rsp 8 + .ra: .cfa -8 + ^
STACK CFI 24681 $rbp: .cfa -16 + ^ .cfa: $rsp 16 +
STACK CFI 24684 .cfa: $rbp 16 +
STACK CFI 24686 $r14: .cfa -24 + ^
STACK CFI 2468b $r13: .cfa -32 + ^
STACK CFI 24691 $r12: .cfa -40 + ^ $rbx: .cfa -48 + ^
STACK CFI 246ca .cfa: $rsp 8 +
STACK CFI 246d0 .cfa: $rbp 16 +
STACK CFI INIT 246e0 8 .cfa: $rsp 8 + .ra: .cfa -8 + ^
STACK CFI INIT 246f0 8 .cfa: $rsp 8 + .ra: .cfa -8 + ^
STACK CFI INIT 24700 8 .cfa: $rsp 8 + .ra: .cfa -8 + ^
STACK CFI INIT 24710 a .cfa: $rsp 8 + .ra: .cfa -8 + ^
STACK CFI INIT 24720 a .cfa: $rsp 8 + .ra: .cfa -8 + ^
STACK CFI INIT 24730 27 .cfa: $rsp 8 + .ra: .cfa -8 + ^
STACK CFI 24731 $rbp: .cfa -16 + ^ .cfa: $rsp 16 +
STACK CFI 24734 .cfa: $rbp 16 +
STACK CFI 24736 $r12: .cfa -24 + ^
STACK CFI 24756 .cfa: $rsp 8 +
STACK CFI INIT 24760 5 .cfa: $rsp 8 + .ra: .cfa -8 + ^
STACK CFI INIT 24770 5 .cfa: $rsp 8 + .ra: .cfa -8 + ^
STACK CFI INIT 24780 5 .cfa: $rsp 8 + .ra: .cfa -8 + ^
STACK CFI INIT 24790 5 .cfa: $rsp 8 + .ra: .cfa -8 + ^
STACK CFI INIT 247a0 5 .cfa: $rsp 8 + .ra: .cfa -8 + ^
STACK CFI INIT 247b0 10 .cfa: $rsp 8 + .ra: .cfa -8 + ^
STACK CFI 247b1 $rbp: .cfa -16 + ^ .cfa: $rsp 16 +
STACK CFI 247b7 .cfa: $rbp 16 +
STACK CFI 247bf .cfa: $rsp 8 +
STACK CFI INIT 247c0 1f .cfa: $rsp 8 + .ra: .cfa -8 + ^
STACK CFI 247c1 $rbp: .cfa -16 + ^ .cfa: $rsp 16 +
STACK CFI 247c4 .cfa: $rbp 16 +
STACK CFI 247c5 $rbx: .cfa -24 + ^
STACK CFI 247de .cfa: $rsp 8 +
STACK CFI INIT 247e0 10c .cfa: $rsp 8 + .ra: .cfa -8 + ^
STACK CFI 247e1 $rbp: .cfa -16 + ^ .cfa: $rsp 16 +
STACK CFI 247e4 .cfa: $rbp 16 +
STACK CFI 247e6 $r13: .cfa -24 + ^
STACK CFI 247ec $r12: .cfa -32 + ^ $rbx: .cfa -40 + ^
STACK CFI 24856 .cfa: $rsp 8 +
STACK CFI 24860 .cfa: $rbp 16 +
STACK CFI 248d1 .cfa: $rsp 8 +
STACK CFI 248d2 .cfa: $rbp 16 +
STACK CFI INIT 248f0 57 .cfa: $rsp 8 + .ra: .cfa -8 + ^
STACK CFI 248f1 $rbp: .cfa -16 + ^ .cfa: $rsp 16 +
STACK CFI 248f4 .cfa: $rbp 16 +
STACK CFI 248f8 $r13: .cfa -32 + ^ $r14: .cfa -24 + ^
STACK CFI 248fd $r12: .cfa -40 + ^
STACK CFI 24901 $rbx: .cfa -48 + ^
STACK CFI 24935 .cfa: $rsp 8 +
STACK CFI 24940 .cfa: $rbp 16 +
STACK CFI INIT 24950 3c .cfa: $rsp 8 + .ra: .cfa -8 + ^
STACK CFI 24951 $rbp: .cfa -16 + ^ .cfa: $rsp 16 +
STACK CFI 24958 .cfa: $rbp 16 +
STACK CFI 2495a $r12: .cfa -24 + ^
STACK CFI 2495e $rbx: .cfa -32 + ^
STACK CFI 2497c .cfa: $rsp 8 +
STACK CFI 24980 .cfa: $rbp 16 +
STACK CFI 2498b .cfa: $rsp 8 +
STACK CFI INIT 24990 50 .cfa: $rsp 8 + .ra: .cfa -8 + ^
STACK CFI 24991 $rbp: .cfa -16 + ^ .cfa: $rsp 16 +
STACK CFI 24994 .cfa: $rbp 16 +
STACK CFI 24996 $r12: .cfa -24 + ^
STACK CFI 2499a $rbx: .cfa -32 + ^
STACK CFI 249cc .cfa: $rsp 8 +
STACK CFI 249d0 .cfa: $rbp 16 +
STACK CFI 249dc .cfa: $rsp 8 +
STACK CFI INIT 249e0 4c .cfa: $rsp 8 + .ra: .cfa -8 + ^
STACK CFI 249e1 $rbp: .cfa -16 + ^ .cfa: $rsp 16 +
STACK CFI 249e4 .cfa: $rbp 16 +
STACK CFI 249e6 $r12: .cfa -24 + ^
STACK CFI 249ea $rbx: .cfa -32 + ^
STACK CFI 24a08 .cfa: $rsp 8 +
STACK CFI 24a10 .cfa: $rbp 16 +
STACK CFI 24a21 .cfa: $rsp 8 +
STACK CFI INIT 24a30 29 .cfa: $rsp 8 + .ra: .cfa -8 + ^
STACK CFI 24a31 $rbp: .cfa -16 + ^ .cfa: $rsp 16 +
STACK CFI 24a37 .cfa: $rbp 16 +
STACK CFI 24a48 .cfa: $rsp 8 +
STACK CFI 24a50 .cfa: $rbp 16 +
STACK CFI 24a56 .cfa: $rsp 8 +
STACK CFI INIT 24a60 42 .cfa: $rsp 8 + .ra: .cfa -8 + ^
STACK CFI 24a61 $rbp: .cfa -16 + ^ .cfa: $rsp 16 +
STACK CFI 24a64 .cfa: $rbp 16 +
STACK CFI 24a65 $rbx: .cfa -24 + ^
STACK CFI 24a89 .cfa: $rsp 8 +
STACK CFI 24a90 .cfa: $rbp 16 +
STACK CFI 24a9e .cfa: $rsp 8 +
STACK CFI INIT 24ab0 3c .cfa: $rsp 8 + .ra: .cfa -8 + ^
STACK CFI 24ab1 $rbp: .cfa -16 + ^ .cfa: $rsp 16 +
STACK CFI 24ab8 .cfa: $rbp 16 +
STACK CFI 24aba $r12: .cfa -24 + ^
STACK CFI 24abe $rbx: .cfa -32 + ^
STACK CFI 24adc .cfa: $rsp 8 +
STACK CFI 24ae0 .cfa: $rbp 16 +
STACK CFI 24aeb .cfa: $rsp 8 +
STACK CFI INIT 24af0 5d .cfa: $rsp 8 + .ra: .cfa -8 + ^
STACK CFI 24af1 $rbp: .cfa -16 + ^ .cfa: $rsp 16 +
STACK CFI 24af4 .cfa: $rbp 16 +
STACK CFI 24af8 $r12: .cfa -32 + ^ $r13: .cfa -24 + ^
STACK CFI 24b24 .cfa: $rsp 8 +
STACK CFI 24b28 .cfa: $rbp 16 +
STACK CFI 24b4c .cfa: $rsp 8 +
STACK CFI INIT 24b50 50 .cfa: $rsp 8 + .ra: .cfa -8 + ^
STACK CFI 24b51 $rbp: .cfa -16 + ^ .cfa: $rsp 16 +
STACK CFI 24b54 .cfa: $rbp 16 +
STACK CFI 24b56 $r12: .cfa -24 + ^
STACK CFI 24b5a $rbx: .cfa -32 + ^
STACK CFI 24b7c .cfa: $rsp 8 +
STACK CFI 24b80 .cfa: $rbp 16 +
STACK CFI 24b9f .cfa: $rsp 8 +
STACK CFI INIT 24ba0 50 .cfa: $rsp 8 + .ra: .cfa -8 + ^
STACK CFI 24ba1 $rbp: .cfa -16 + ^ .cfa: $rsp 16 +
STACK CFI 24ba4 .cfa: $rbp 16 +
STACK CFI 24ba6 $r12: .cfa -24 + ^
STACK CFI 24baa $rbx: .cfa -32 + ^
STACK CFI 24bcc .cfa: $rsp 8 +
STACK CFI 24bd0 .cfa: $rbp 16 +
STACK CFI 24bef .cfa: $rsp 8 +
STACK CFI INIT 24bf0 4c .cfa: $rsp 8 + .ra: .cfa -8 + ^
STACK CFI 24bf1 $rbp: .cfa -16 + ^ .cfa: $rsp 16 +
STACK CFI 24bf4 .cfa: $rbp 16 +
STACK CFI 24bf6 $r12: .cfa -24 + ^
STACK CFI 24bfa $rbx: .cfa -32 + ^
STACK CFI 24c18 .cfa: $rsp 8 +
STACK CFI 24c20 .cfa: $rbp 16 +
STACK CFI 24c31 .cfa: $rsp 8 +
STACK CFI INIT 24c40 8c .cfa: $rsp 8 + .ra: .cfa -8 + ^
STACK CFI 24c46 $rbp: .cfa -16 + ^ .cfa: $rsp 16 +
STACK CFI 24c4e .cfa: $rbp 16 +
STACK CFI 24c53 $r12: .cfa -32 + ^ $r13: .cfa -24 + ^ $rbx: .cfa -40 + ^
STACK CFI 24ca6 .cfa: $rsp 8 +
STACK CFI 24cb0 $r12: $r12 $r13: $r13 $rbp: $rbp $rbx: $rbx
STACK CFI 24cb6 $r12: .cfa -32 + ^ $r13: .cfa -24 + ^ $rbp: .cfa -16 + ^ $rbx: .cfa -40 + ^ .cfa: $rbp 16 +
STACK CFI INIT 24cd0 159 .cfa: $rsp 8 + .ra: .cfa -8 + ^
STACK CFI 24cda $rbp: .cfa -16 + ^ .cfa: $rsp 16 +
STACK CFI 24ce2 .cfa: $rbp 16 +
STACK CFI 24ce4 $r14: .cfa -24 + ^
STACK CFI 24cec $r12: .cfa -40 + ^ $r13: .cfa -32 + ^ $rbx: .cfa -48 + ^
STACK CFI 24d84 .cfa: $rsp 8 +
STACK CFI 24d88 .cfa: $rbp 16 +
STACK CFI 24dfc .cfa: $rsp 8 +
STACK CFI 24e00 $r12: $r12 $r13: $r13 $r14: $r14 $rbp: $rbp $rbx: $rbx
STACK CFI 24e06 $r12: .cfa -40 + ^ $r13: .cfa -32 + ^ $r14: .cfa -24 + ^ $rbp: .cfa -16 + ^ $rbx: .cfa -48 + ^ .cfa: $rbp 16 +
STACK CFI INIT 24e30 6 .cfa: $rsp 8 + .ra: .cfa -8 + ^
STACK CFI INIT 24e40 6 .cfa: $rsp 8 + .ra: .cfa -8 + ^
STACK CFI INIT 24e50 6 .cfa: $rsp 8 + .ra: .cfa -8 + ^
STACK CFI INIT 24e60 6 .cfa: $rsp 8 + .ra: .cfa -8 + ^
STACK CFI INIT 24e70 6 .cfa: $rsp 8 + .ra: .cfa -8 + ^
STACK CFI INIT 24e80 3 .cfa: $rsp 8 + .ra: .cfa -8 + ^
STACK CFI INIT 24e90 3 .cfa: $rsp 8 + .ra: .cfa -8 + ^
STACK CFI INIT 24ea0 6c .cfa: $rsp 8 + .ra: .cfa -8 + ^
STACK CFI 24ea1 $rbp: .cfa -16 + ^ .cfa: $rsp 16 +
STACK CFI 24eac .cfa: $rbp 16 +
STACK CFI 24ead $rbx: .cfa -24 + ^
STACK CFI 24ee4 .cfa: $rsp 8 +
STACK CFI 24ee8 .cfa: $rbp 16 +
STACK CFI 24f0b .cfa: $rsp 8 +
STACK CFI INIT 24f10 115 .cfa: $rsp 8 + .ra: .cfa -8 + ^
STACK CFI 24f11 $rbp: .cfa -16 + ^ .cfa: $rsp 16 +
STACK CFI 24f14 .cfa: $rbp 16 +
STACK CFI 24f16 $r15: .cfa -24 + ^
STACK CFI 24f24 $r12: .cfa -48 + ^ $r13: .cfa -40 + ^ $r14: .cfa -32 + ^ $rbx: .cfa -56 + ^
STACK CFI 25020 .cfa: $rsp 8 +
STACK CFI INIT 25030 2ce .cfa: $rsp 8 + .ra: .cfa -8 + ^
STACK CFI 25031 $rbp: .cfa -16 + ^ .cfa: $rsp 16 +
STACK CFI 25034 .cfa: $rbp 16 +
STACK CFI 2503f $r13: .cfa -32 + ^ $r14: .cfa -24 + ^
STACK CFI 25052 $r12: .cfa -40 + ^
STACK CFI 2505d $rbx: .cfa -48 + ^
STACK CFI 250a9 .cfa: $rsp 8 +
STACK CFI 250b0 .cfa: $rbp 16 +
STACK CFI INIT 25300 601 .cfa: $rsp 8 + .ra: .cfa -8 + ^
STACK CFI 25301 $rbp: .cfa -16 + ^ .cfa: $rsp 16 +
STACK CFI 25304 .cfa: $rbp 16 +
STACK CFI 25306 $r15: .cfa -24 + ^
STACK CFI 2530b $r14: .cfa -32 + ^
STACK CFI 25310 $r13: .cfa -40 + ^
STACK CFI 25315 $r12: .cfa -48 + ^
STACK CFI 25320 $rbx: .cfa -56 + ^
STACK CFI 25637 .cfa: $rsp 8 +
STACK CFI 25640 .cfa: $rbp 16 +
STACK CFI INIT 25910 17 .cfa: $rsp 8 + .ra: .cfa -8 + ^
STACK CFI 25911 $rbp: .cfa -16 + ^ .cfa: $rsp 16 +
STACK CFI 25917 .cfa: $rbp 16 +
STACK CFI 25926 .cfa: $rsp 8 +
STACK CFI INIT 25930 1d .cfa: $rsp 8 + .ra: .cfa -8 + ^
STACK CFI 25931 $rbp: .cfa -16 + ^ .cfa: $rsp 16 +
STACK CFI 2593c .cfa: $rbp 16 +
STACK CFI 2594c .cfa: $rsp 8 +
STACK CFI INIT 25950 b6 .cfa: $rsp 8 + .ra: .cfa -8 + ^
STACK CFI 2595a $rbp: .cfa -16 + ^ .cfa: $rsp 16 +
STACK CFI 2595d .cfa: $rbp 16 +
STACK CFI 2595f $r12: .cfa -24 + ^
STACK CFI 25963 $rbx: .cfa -32 + ^
STACK CFI 2597b $rbx: $rbx
STACK CFI 25980 $r12: $r12
STACK CFI 25981 $rbp: $rbp .cfa: $rsp 8 +
STACK CFI 25990 $r12: .cfa -24 + ^ $rbp: .cfa -16 + ^ $rbx: .cfa -32 + ^ .cfa: $rbp 16 +
STACK CFI 259fe .cfa: $rsp 8 +
STACK CFI 25a00 $r12: $r12 $rbp: $rbp $rbx: $rbx
STACK CFI INIT 25a10 26 .cfa: $rsp 8 + .ra: .cfa -8 + ^
STACK CFI INIT 25a40 f .cfa: $rsp 8 + .ra: .cfa -8 + ^
STACK CFI INIT 25a50 17 .cfa: $rsp 8 + .ra: .cfa -8 + ^
STACK CFI INIT 25a70 10f .cfa: $rsp 8 + .ra: .cfa -8 + ^
STACK CFI 25a71 $rbp: .cfa -16 + ^ .cfa: $rsp 16 +
STACK CFI 25a74 .cfa: $rbp 16 +
STACK CFI 25a77 $r12: .cfa -24 + ^ $rbx: .cfa -32 + ^
STACK CFI 25ac4 .cfa: $rsp 8 +
STACK CFI 25ac8 .cfa: $rbp 16 +
STACK CFI 25b7e .cfa: $rsp 8 +
STACK CFI INIT 25b80 74 .cfa: $rsp 8 + .ra: .cfa -8 + ^
STACK CFI 25ba5 $rbp: .cfa -16 + ^ .cfa: $rsp 16 +
STACK CFI 25baf .cfa: $rbp 16 +
STACK CFI 25bc6 .cfa: $rsp 8 +
STACK CFI 25bd0 .cfa: $rbp 16 +
STACK CFI 25bf3 .cfa: $rsp 8 +
STACK CFI INIT 25c00 26 .cfa: $rsp 8 + .ra: .cfa -8 + ^
STACK CFI 25c0a $rbp: .cfa -16 + ^ .cfa: $rsp 16 +
STACK CFI 25c0d .cfa: $rbp 16 +
STACK CFI 25c15 .cfa: $rsp 8 +
STACK CFI 25c20 $rbp: $rbp
STACK CFI INIT 25c30 ac .cfa: $rsp 8 + .ra: .cfa -8 + ^
STACK CFI 25c31 $rbp: .cfa -16 + ^ .cfa: $rsp 16 +
STACK CFI 25c34 .cfa: $rbp 16 +
STACK CFI 25c36 $r12: .cfa -24 + ^
STACK CFI 25c69 .cfa: $rsp 8 +
STACK CFI 25c70 .cfa: $rbp 16 +
STACK CFI 25c7e .cfa: $rsp 8 +
STACK CFI 25c80 .cfa: $rbp 16 +
STACK CFI 25cb0 .cfa: $rsp 8 +
STACK CFI 25cb8 .cfa: $rbp 16 +
STACK CFI INIT 25ce0 4a .cfa: $rsp 8 + .ra: .cfa -8 + ^
STACK CFI INIT 25d30 1fb .cfa: $rsp 8 + .ra: .cfa -8 + ^
STACK CFI 25d31 $rbp: .cfa -16 + ^ .cfa: $rsp 16 +
STACK CFI 25d34 .cfa: $rbp 16 +
STACK CFI 25d38 $r13: .cfa -32 + ^ $r14: .cfa -24 + ^
STACK CFI 25d3d $r12: .cfa -40 + ^
STACK CFI 25d48 $rbx: .cfa -48 + ^
STACK CFI 25e9d .cfa: $rsp 8 +
STACK CFI 25ea0 .cfa: $rbp 16 +
STACK CFI INIT 25f30 1ab .cfa: $rsp 8 + .ra: .cfa -8 + ^
STACK CFI 25f31 $rbp: .cfa -16 + ^ .cfa: $rsp 16 +
STACK CFI 25f34 .cfa: $rbp 16 +
STACK CFI 25f40 $r12: .cfa -32 + ^ $r13: .cfa -24 + ^ $rbx: .cfa -40 + ^
STACK CFI 2605b .cfa: $rsp 8 +
STACK CFI 26060 .cfa: $rbp 16 +
STACK CFI INIT 260e0 15 .cfa: $rsp 8 + .ra: .cfa -8 + ^
STACK CFI INIT 26100 7 .cfa: $rsp 8 + .ra: .cfa -8 + ^
STACK CFI INIT 26110 7 .cfa: $rsp 8 + .ra: .cfa -8 + ^
STACK CFI INIT 26120 7 .cfa: $rsp 8 + .ra: .cfa -8 + ^
STACK CFI INIT 26130 7 .cfa: $rsp 8 + .ra: .cfa -8 + ^
STACK CFI INIT 26140 4a1 .cfa: $rsp 8 + .ra: .cfa -8 + ^
STACK CFI 26141 $rbp: .cfa -16 + ^ .cfa: $rsp 16 +
STACK CFI 26144 .cfa: $rbp 16 +
STACK CFI 2614a $r13: .cfa -40 + ^ $r14: .cfa -32 + ^ $r15: .cfa -24 + ^
STACK CFI 2614f $r12: .cfa -48 + ^
STACK CFI 26157 $rbx: .cfa -56 + ^
STACK CFI 265a0 .cfa: $rsp 8 +
STACK CFI 265a5 .cfa: $rbp 16 +
STACK CFI 265dc .cfa: $rsp 8 +
STACK CFI INIT 265f0 14b .cfa: $rsp 8 + .ra: .cfa -8 + ^
STACK CFI 265f1 $rbp: .cfa -16 + ^ .cfa: $rsp 16 +
STACK CFI 265f4 .cfa: $rbp 16 +
STACK CFI 265f6 $r13: .cfa -24 + ^
STACK CFI 265fc $r12: .cfa -32 + ^ $rbx: .cfa -40 + ^
STACK CFI 266a7 .cfa: $rsp 8 +
STACK CFI 266b0 .cfa: $rbp 16 +
STACK CFI 2672f .cfa: $rsp 8 +
STACK CFI 26730 .cfa: $rbp 16 +
STACK CFI INIT 26740 a8 .cfa: $rsp 8 + .ra: .cfa -8 + ^
STACK CFI 26756 $rbp: .cfa -16 + ^ .cfa: $rsp 16 +
STACK CFI 26759 .cfa: $rbp 16 +
STACK CFI 2675a $rbx: .cfa -24 + ^
STACK CFI 267a0 .cfa: $rsp 8 +
STACK CFI 267a8 .cfa: $rbp 16 +
STACK CFI 267c0 $rbp: $rbp $rbx: $rbx .cfa: $rsp 8 +
STACK CFI 267d0 $rbp: .cfa -16 + ^ $rbx: .cfa -24 + ^ .cfa: $rbp 16 +
STACK CFI INIT 267f0 679 .cfa: $rsp 8 + .ra: .cfa -8 + ^
STACK CFI 267f1 $rbp: .cfa -16 + ^ .cfa: $rsp 16 +
STACK CFI 267f4 .cfa: $rbp 16 +
STACK CFI 267f6 $r15: .cfa -24 + ^
STACK CFI 267fb $r14: .cfa -32 + ^
STACK CFI 26800 $r13: .cfa -40 + ^
STACK CFI 26806 $r12: .cfa -48 + ^ $rbx: .cfa -56 + ^
STACK CFI 269a9 .cfa: $rsp 8 +
STACK CFI 269b0 .cfa: $rbp 16 +
STACK CFI INIT 26e70 7b6 .cfa: $rsp 8 + .ra: .cfa -8 + ^
STACK CFI 26e71 $rbp: .cfa -16 + ^ .cfa: $rsp 16 +
STACK CFI 26e74 .cfa: $rbp 16 +
STACK CFI 26e76 $r15: .cfa -24 + ^
STACK CFI 26e7b $r14: .cfa -32 + ^
STACK CFI 26e80 $r13: .cfa -40 + ^
STACK CFI 26e86 $r12: .cfa -48 + ^ $rbx: .cfa -56 + ^
STACK CFI 26f63 .cfa: $rsp 8 +
STACK CFI 26f68 .cfa: $rbp 16 +
STACK CFI INIT 27630 ea .cfa: $rsp 8 + .ra: .cfa -8 + ^
STACK CFI 27631 $rbp: .cfa -16 + ^ .cfa: $rsp 16 +
STACK CFI 27634 .cfa: $rbp 16 +
STACK CFI 27636 $r12: .cfa -24 + ^
STACK CFI 2763a $rbx: .cfa -32 + ^
STACK CFI 2768f .cfa: $rsp 8 +
STACK CFI 27690 .cfa: $rbp 16 +
STACK CFI 276ce .cfa: $rsp 8 +
STACK CFI 276d0 .cfa: $rbp 16 +
STACK CFI INIT 27720 22f .cfa: $rsp 8 + .ra: .cfa -8 + ^
STACK CFI 27721 $rbp: .cfa -16 + ^ .cfa: $rsp 16 +
STACK CFI 27724 .cfa: $rbp 16 +
STACK CFI 2772d $r12: .cfa -48 + ^ $r13: .cfa -40 + ^ $r14: .cfa -32 + ^ $r15: .cfa -24 + ^ $rbx: .cfa -56 + ^
STACK CFI 278db .cfa: $rsp 8 +
STACK CFI 278e0 .cfa: $rbp 16 +
STACK CFI INIT 27950 90 .cfa: $rsp 8 + .ra: .cfa -8 + ^
STACK CFI 27951 $rbp: .cfa -16 + ^ .cfa: $rsp 16 +
STACK CFI 27954 .cfa: $rbp 16 +
STACK CFI 27964 .cfa: $rsp 8 +
STACK CFI 27970 .cfa: $rbp 16 +
STACK CFI 279ab .cfa: $rsp 8 +
STACK CFI 279b0 .cfa: $rbp 16 +
STACK CFI 279df .cfa: $rsp 8 +
STACK CFI INIT 279e0 1a2 .cfa: $rsp 8 + .ra: .cfa -8 + ^
STACK CFI 279e1 $rbp: .cfa -16 + ^ .cfa: $rsp 16 +
STACK CFI 279e4 .cfa: $rbp 16 +
STACK CFI 279ed $r12: .cfa -48 + ^ $r13: .cfa -40 + ^ $r14: .cfa -32 + ^ $r15: .cfa -24 + ^ $rbx: .cfa -56 + ^
STACK CFI 27aeb .cfa: $rsp 8 +
STACK CFI 27af0 .cfa: $rbp 16 +
STACK CFI INIT 27b90 73 .cfa: $rsp 8 + .ra: .cfa -8 + ^
STACK CFI 27b91 $rbp: .cfa -16 + ^ .cfa: $rsp 16 +
STACK CFI 27b94 .cfa: $rbp 16 +
STACK CFI 27b96 $r12: .cfa -24 + ^
STACK CFI 27bbd .cfa: $rsp 8 +
STACK CFI 27bc0 .cfa: $rbp 16 +
STACK CFI 27c02 .cfa: $rsp 8 +
STACK CFI INIT 27c10 75 .cfa: $rsp 8 + .ra: .cfa -8 + ^
STACK CFI 27c11 $rbp: .cfa -16 + ^ .cfa: $rsp 16 +
STACK CFI 27c17 .cfa: $rbp 16 +
STACK CFI 27c19 $r12: .cfa -24 + ^
STACK CFI 27c40 .cfa: $rsp 8 +
STACK CFI 27c48 .cfa: $rbp 16 +
STACK CFI 27c70 .cfa: $rsp 8 +
STACK CFI 27c78 .cfa: $rbp 16 +
STACK CFI INIT 27c90 7 .cfa: $rsp 8 + .ra: .cfa -8 + ^
STACK CFI INIT 27ca0 1f .cfa: $rsp 8 + .ra: .cfa -8 + ^
STACK CFI INIT 27cc0 eb .cfa: $rsp 8 + .ra: .cfa -8 + ^
STACK CFI 27cc1 $rbp: .cfa -16 + ^ .cfa: $rsp 16 +
STACK CFI 27cc4 .cfa: $rbp 16 +
STACK CFI 27cc5 $rbx: .cfa -24 + ^
STACK CFI 27d1d .cfa: $rsp 8 +
STACK CFI 27d20 .cfa: $rbp 16 +
STACK CFI 27d64 .cfa: $rsp 8 +
STACK CFI 27d68 .cfa: $rbp 16 +
STACK CFI INIT 27db0 2b6 .cfa: $rsp 8 + .ra: .cfa -8 + ^
STACK CFI 27db1 $rbp: .cfa -16 + ^ .cfa: $rsp 16 +
STACK CFI 27db4 .cfa: $rbp 16 +
STACK CFI 27dc1 $r12: .cfa -48 + ^ $r13: .cfa -40 + ^ $r14: .cfa -32 + ^ $r15: .cfa -24 + ^ $rbx: .cfa -56 + ^
STACK CFI 27f74 .cfa: $rsp 8 +
STACK CFI 27f75 .cfa: $rbp 16 +
STACK CFI INIT 28070 9 .cfa: $rsp 8 + .ra: .cfa -8 + ^
STACK CFI INIT 28080 2b .cfa: $rsp 8 + .ra: .cfa -8 + ^
STACK CFI 2808b $rbp: .cfa -16 + ^ .cfa: $rsp 16 +
STACK CFI 28096 .cfa: $rbp 16 +
STACK CFI 2809c .cfa: $rsp 8 +
STACK CFI 280a8 $rbp: $rbp
STACK CFI INIT 280b0 11d .cfa: $rsp 8 + .ra: .cfa -8 + ^
STACK CFI 280b1 $rbp: .cfa -16 + ^ .cfa: $rsp 16 +
STACK CFI 280b4 .cfa: $rbp 16 +
STACK CFI 280c1 $r12: .cfa -48 + ^ $r13: .cfa -40 + ^ $r14: .cfa -32 + ^ $r15: .cfa -24 + ^ $rbx: .cfa -56 + ^
STACK CFI 281cc .cfa: $rsp 8 +
STACK CFI INIT 281d0 292 .cfa: $rsp 8 + .ra: .cfa -8 + ^
STACK CFI 281d1 $rbp: .cfa -16 + ^ .cfa: $rsp 16 +
STACK CFI 281d4 .cfa: $rbp 16 +
STACK CFI 281df $r12: .cfa -40 + ^ $r13: .cfa -32 + ^ $r14: .cfa -24 + ^ $rbx: .cfa -48 + ^
STACK CFI 2826a .cfa: $rsp 8 +
STACK CFI 28270 .cfa: $rbp 16 +
STACK CFI INIT 28470 41 .cfa: $rsp 8 + .ra: .cfa -8 + ^
STACK CFI 284a1 $rbp: .cfa -16 + ^ .cfa: $rsp 16 +
STACK CFI 284a4 .cfa: $rbp 16 +
STACK CFI 284b0 .cfa: $rsp 8 +
STACK CFI INIT 284c0 1c .cfa: $rsp 8 + .ra: .cfa -8 + ^
STACK CFI 284c1 $rbp: .cfa -16 + ^ .cfa: $rsp 16 +
STACK CFI 284c4 .cfa: $rbp 16 +
STACK CFI 284d5 .cfa: $rsp 8 +
STACK CFI INIT 284e0 32 .cfa: $rsp 8 + .ra: .cfa -8 + ^
STACK CFI 284e1 $rbp: .cfa -16 + ^ .cfa: $rsp 16 +
STACK CFI 284e9 .cfa: $rbp 16 +
STACK CFI 28511 .cfa: $rsp 8 +
STACK CFI INIT 28520 5ee .cfa: $rsp 8 + .ra: .cfa -8 + ^
STACK CFI 28521 $rbp: .cfa -16 + ^ .cfa: $rsp 16 +
STACK CFI 28524 .cfa: $rbp 16 +
STACK CFI 28528 $r14: .cfa -32 + ^ $r15: .cfa -24 + ^
STACK CFI 2852d $r13: .cfa -40 + ^
STACK CFI 28532 $r12: .cfa -48 + ^
STACK CFI 28536 $rbx: .cfa -56 + ^
STACK CFI 28587 .cfa: $rsp 8 +
STACK CFI 28590 .cfa: $rbp 16 +
STACK CFI INIT 28b10 4fb .cfa: $rsp 8 + .ra: .cfa -8 + ^
STACK CFI 28b11 $rbp: .cfa -16 + ^ .cfa: $rsp 16 +
STACK CFI 28b14 .cfa: $rbp 16 +
STACK CFI 28b1a $r13: .cfa -40 + ^ $r14: .cfa -32 + ^ $r15: .cfa -24 + ^
STACK CFI 28b1f $r12: .cfa -48 + ^
STACK CFI 28b2b $rbx: .cfa -56 + ^
STACK CFI 28b9c .cfa: $rsp 8 +
STACK CFI 28ba0 .cfa: $rbp 16 +
STACK CFI INIT 29010 6d0 .cfa: $rsp 8 + .ra: .cfa -8 + ^
STACK CFI 29011 $rbp: .cfa -16 + ^ .cfa: $rsp 16 +
STACK CFI 29014 .cfa: $rbp 16 +
STACK CFI 29016 $r15: .cfa -24 + ^
STACK CFI 29027 $r12: .cfa -48 + ^ $r13: .cfa -40 + ^ $r14: .cfa -32 + ^ $rbx: .cfa -56 + ^
STACK CFI 2906f .cfa: $rsp 8 +
STACK CFI 29070 .cfa: $rbp 16 +
STACK CFI INIT 296e0 175 .cfa: $rsp 8 + .ra: .cfa -8 + ^
STACK CFI 296e1 $rbp: .cfa -16 + ^ .cfa: $rsp 16 +
STACK CFI 296e9 .cfa: $rbp 16 +
STACK CFI 296f6 $r12: .cfa -48 + ^ $r13: .cfa -40 + ^ $r14: .cfa -32 + ^ $r15: .cfa -24 + ^ $rbx: .cfa -56 + ^
STACK CFI 297f9 .cfa: $rsp 8 +
STACK CFI 29800 .cfa: $rbp 16 +
STACK CFI 2984d .cfa: $rsp 8 +
STACK CFI 2984e .cfa: $rbp 16 +
STACK CFI INIT 29860 85 .cfa: $rsp 8 + .ra: .cfa -8 + ^
STACK CFI 29861 $rbp: .cfa -16 + ^ .cfa: $rsp 16 +
STACK CFI 29864 .cfa: $rbp 16 +
STACK CFI 29866 $r15: .cfa -24 + ^
STACK CFI 2986b $r14: .cfa -32 + ^
STACK CFI 29875 $r13: .cfa -40 + ^
STACK CFI 29880 $r12: .cfa -48 + ^ $rbx: .cfa -56 + ^
STACK CFI 298dd .cfa: $rsp 8 +
STACK CFI 298e0 .cfa: $rbp 16 +
STACK CFI INIT 298f0 c2 .cfa: $rsp 8 + .ra: .cfa -8 + ^
STACK CFI 298f1 $rbp: .cfa -16 + ^ .cfa: $rsp 16 +
STACK CFI 298f4 .cfa: $rbp 16 +
STACK CFI 298f6 $r13: .cfa -24 + ^
STACK CFI 29900 $r12: .cfa -32 + ^ $rbx: .cfa -40 + ^
STACK CFI 299ad .cfa: $rsp 8 +
STACK CFI INIT 299c0 231 .cfa: $rsp 8 + .ra: .cfa -8 + ^
STACK CFI 299c1 $rbp: .cfa -16 + ^ .cfa: $rsp 16 +
STACK CFI 299c4 .cfa: $rbp 16 +
STACK CFI 299cc $r12: .cfa -48 + ^ $r13: .cfa -40 + ^ $r14: .cfa -32 + ^ $r15: .cfa -24 + ^
STACK CFI 299d0 $rbx: .cfa -56 + ^
STACK CFI 29ba4 .cfa: $rsp 8 +
STACK CFI 29ba8 .cfa: $rbp 16 +
STACK CFI INIT 29c00 135 .cfa: $rsp 8 + .ra: .cfa -8 + ^
STACK CFI 29c01 $rbp: .cfa -16 + ^ .cfa: $rsp 16 +
STACK CFI 29c04 .cfa: $rbp 16 +
STACK CFI 29c0d $r12: .cfa -48 + ^ $r13: .cfa -40 + ^ $r14: .cfa -32 + ^ $r15: .cfa -24 + ^ $rbx: .cfa -56 + ^
STACK CFI 29cd7 .cfa: $rsp 8 +
STACK CFI 29ce0 .cfa: $rbp 16 +
STACK CFI INIT 29d40 11 .cfa: $rsp 8 + .ra: .cfa -8 + ^
STACK CFI INIT 29d60 30c .cfa: $rsp 8 + .ra: .cfa -8 + ^
STACK CFI 29d7e $rbp: .cfa -16 + ^ .cfa: $rsp 16 +
STACK CFI 29d81 .cfa: $rbp 16 +
STACK CFI 29d85 $r13: .cfa -32 + ^ $r14: .cfa -24 + ^
STACK CFI 29d8e $r12: .cfa -40 + ^
STACK CFI 29d9c $rbx: .cfa -48 + ^
STACK CFI 29f06 .cfa: $rsp 8 +
STACK CFI 29f10 .cfa: $rbp 16 +
STACK CFI 29fcd .cfa: $rsp 8 +
STACK CFI 29fd0 .cfa: $rbp 16 +
STACK CFI 2a000 $r12: $r12 $r13: $r13 $r14: $r14 $rbp: $rbp $rbx: $rbx .cfa: $rsp 8 +
STACK CFI 2a008 $r12: .cfa -40 + ^ $r13: .cfa -32 + ^ $r14: .cfa -24 + ^ $rbp: .cfa -16 + ^ $rbx: .cfa -48 + ^ .cfa: $rbp 16 +
STACK CFI 2a03b .cfa: $rsp 8 +
STACK CFI 2a040 .cfa: $rbp 16 +
STACK CFI INIT 2a070 19c5 .cfa: $rsp 8 + .ra: .cfa -8 + ^
STACK CFI 2a071 $rbp: .cfa -16 + ^ .cfa: $rsp 16 +
STACK CFI 2a076 .cfa: $rbp 16 +
STACK CFI 2a07a $r14: .cfa -32 + ^ $r15: .cfa -24 + ^
STACK CFI 2a085 $r12: .cfa -48 + ^ $r13: .cfa -40 + ^
STACK CFI 2a089 $rbx: .cfa -56 + ^
STACK CFI 2a2c7 .cfa: $rsp 8 +
STACK CFI 2a2c8 .cfa: $rbp 16 +
STACK CFI 2a3a8 .cfa: $rsp 8 +
STACK CFI 2a3a9 .cfa: $rbp 16 +
STACK CFI 2a4f1 .cfa: $rsp 8 +
STACK CFI 2a4f8 .cfa: $rbp 16 +
STACK CFI INIT 2ba40 391 .cfa: $rsp 8 + .ra: .cfa -8 + ^
STACK CFI 2ba41 $rbp: .cfa -16 + ^ .cfa: $rsp 16 +
STACK CFI 2ba44 .cfa: $rbp 16 +
STACK CFI 2ba48 $r14: .cfa -32 + ^ $r15: .cfa -24 + ^
STACK CFI 2ba51 $r12: .cfa -48 + ^ $r13: .cfa -40 + ^
STACK CFI 2ba55 $rbx: .cfa -56 + ^
STACK CFI 2bc54 .cfa: $rsp 8 +
STACK CFI 2bc58 .cfa: $rbp 16 +
STACK CFI INIT 2bde0 12 .cfa: $rsp 8 + .ra: .cfa -8 + ^
STACK CFI INIT 2be00 f .cfa: $rsp 8 + .ra: .cfa -8 + ^
STACK CFI INIT 2be10 13c .cfa: $rsp 8 + .ra: .cfa -8 + ^
STACK CFI 2be11 $rbp: .cfa -16 + ^ .cfa: $rsp 16 +
STACK CFI 2be14 .cfa: $rbp 16 +
STACK CFI 2be18 $r13: .cfa -32 + ^ $r14: .cfa -24 + ^
STACK CFI 2be24 $r12: .cfa -40 + ^
STACK CFI 2be28 $rbx: .cfa -48 + ^
STACK CFI 2be89 .cfa: $rsp 8 +
STACK CFI 2be90 .cfa: $rbp 16 +
STACK CFI 2bf02 .cfa: $rsp 8 +
STACK CFI 2bf08 .cfa: $rbp 16 +
STACK CFI INIT 2bf50 13c .cfa: $rsp 8 + .ra: .cfa -8 + ^
STACK CFI 2bf51 $rbp: .cfa -16 + ^ .cfa: $rsp 16 +
STACK CFI 2bf54 .cfa: $rbp 16 +
STACK CFI 2bf58 $r13: .cfa -32 + ^ $r14: .cfa -24 + ^
STACK CFI 2bf64 $r12: .cfa -40 + ^
STACK CFI 2bf68 $rbx: .cfa -48 + ^
STACK CFI 2bfc9 .cfa: $rsp 8 +
STACK CFI 2bfd0 .cfa: $rbp 16 +
STACK CFI 2c042 .cfa: $rsp 8 +
STACK CFI 2c048 .cfa: $rbp 16 +
STACK CFI INIT 2c090 217 .cfa: $rsp 8 + .ra: .cfa -8 + ^
STACK CFI 2c091 $rbp: .cfa -16 + ^ .cfa: $rsp 16 +
STACK CFI 2c094 .cfa: $rbp 16 +
STACK CFI 2c09a $r13: .cfa -40 + ^ $r14: .cfa -32 + ^ $r15: .cfa -24 + ^
STACK CFI 2c09f $r12: .cfa -48 + ^
STACK CFI 2c0a7 $rbx: .cfa -56 + ^
STACK CFI 2c150 .cfa: $rsp 8 +
STACK CFI 2c158 .cfa: $rbp 16 +
STACK CFI INIT 2c2b0 d1 .cfa: $rsp 8 + .ra: .cfa -8 + ^
STACK CFI 2c2b1 $rbp: .cfa -16 + ^ .cfa: $rsp 16 +
STACK CFI 2c2bb .cfa: $rbp 16 +
STACK CFI 2c2bd $r15: .cfa -24 + ^
STACK CFI 2c2c2 $r14: .cfa -32 + ^
STACK CFI 2c2c7 $r13: .cfa -40 + ^
STACK CFI 2c2cc $r12: .cfa -48 + ^
STACK CFI 2c2d0 $rbx: .cfa -56 + ^
STACK CFI 2c36c .cfa: $rsp 8 +
STACK CFI 2c370 .cfa: $rbp 16 +
STACK CFI INIT 2c390 ae .cfa: $rsp 8 + .ra: .cfa -8 + ^
STACK CFI 2c391 $rbp: .cfa -16 + ^ .cfa: $rsp 16 +
STACK CFI 2c398 .cfa: $rbp 16 +
STACK CFI 2c39a $r15: .cfa -24 + ^
STACK CFI 2c39f $r14: .cfa -32 + ^
STACK CFI 2c3a4 $r13: .cfa -40 + ^
STACK CFI 2c3a9 $r12: .cfa -48 + ^
STACK CFI 2c3ad $rbx: .cfa -56 + ^
STACK CFI 2c425 .cfa: $rsp 8 +
STACK CFI 2c430 .cfa: $rbp 16 +
STACK CFI INIT 2c440 18b .cfa: $rsp 8 + .ra: .cfa -8 + ^
STACK CFI 2c441 $rbp: .cfa -16 + ^ .cfa: $rsp 16 +
STACK CFI 2c448 .cfa: $rbp 16 +
STACK CFI 2c44a $r15: .cfa -24 + ^
STACK CFI 2c456 $r14: .cfa -32 + ^
STACK CFI 2c45b $r13: .cfa -40 + ^
STACK CFI 2c463 $r12: .cfa -48 + ^
STACK CFI 2c467 $rbx: .cfa -56 + ^
STACK CFI 2c56c .cfa: $rsp 8 +
STACK CFI 2c570 .cfa: $rbp 16 +
STACK CFI INIT 2c5d0 7b .cfa: $rsp 8 + .ra: .cfa -8 + ^
STACK CFI 2c5d1 $rbp: .cfa -16 + ^ .cfa: $rsp 16 +
STACK CFI 2c5db .cfa: $rbp 16 +
STACK CFI 2c5dd $r14: .cfa -24 + ^
STACK CFI 2c5e2 $r13: .cfa -32 + ^
STACK CFI 2c5e7 $r12: .cfa -40 + ^
STACK CFI 2c5eb $rbx: .cfa -48 + ^
STACK CFI 2c64a .cfa: $rsp 8 +
STACK CFI INIT 2c650 a1 .cfa: $rsp 8 + .ra: .cfa -8 + ^
STACK CFI 2c651 $rbp: .cfa -16 + ^ .cfa: $rsp 16 +
STACK CFI 2c658 .cfa: $rbp 16 +
STACK CFI 2c65c $r14: .cfa -32 + ^ $r15: .cfa -24 + ^
STACK CFI 2c661 $r13: .cfa -40 + ^
STACK CFI 2c666 $r12: .cfa -48 + ^
STACK CFI 2c66a $rbx: .cfa -56 + ^
STACK CFI 2c6d7 .cfa: $rsp 8 +
STACK CFI 2c6e0 .cfa: $rbp 16 +
STACK CFI INIT 2c700 77d .cfa: $rsp 8 + .ra: .cfa -8 + ^
STACK CFI 2c701 $rbp: .cfa -16 + ^ .cfa: $rsp 16 +
STACK CFI 2c704 .cfa: $rbp 16 +
STACK CFI 2c70a $r13: .cfa -40 + ^ $r14: .cfa -32 + ^ $r15: .cfa -24 + ^
STACK CFI 2c70f $r12: .cfa -48 + ^
STACK CFI 2c71a $rbx: .cfa -56 + ^
STACK CFI 2c900 .cfa: $rsp 8 +
STACK CFI 2c908 .cfa: $rbp 16 +
STACK CFI INIT 2ce80 52e .cfa: $rsp 8 + .ra: .cfa -8 + ^
STACK CFI 2ce81 $rbp: .cfa -16 + ^ .cfa: $rsp 16 +
STACK CFI 2ce84 .cfa: $rbp 16 +
STACK CFI 2ce88 $r14: .cfa -32 + ^ $r15: .cfa -24 + ^
STACK CFI 2ce8f $r12: .cfa -48 + ^ $r13: .cfa -40 + ^
STACK CFI 2ce97 $rbx: .cfa -56 + ^
STACK CFI 2cf06 .cfa: $rsp 8 +
STACK CFI 2cf07 .cfa: $rbp 16 +
STACK CFI INIT 2d3b0 b .cfa: $rsp 8 + .ra: .cfa -8 + ^
STACK CFI INIT 2d3c0 194 .cfa: $rsp 8 + .ra: .cfa -8 + ^
STACK CFI 2d3c1 $rbp: .cfa -16 + ^ .cfa: $rsp 16 +
STACK CFI 2d3c4 .cfa: $rbp 16 +
STACK CFI 2d3c6 $r15: .cfa -24 + ^
STACK CFI 2d3cb $r14: .cfa -32 + ^
STACK CFI 2d3d0 $r13: .cfa -40 + ^
STACK CFI 2d3d5 $r12: .cfa -48 + ^
STACK CFI 2d3d9 $rbx: .cfa -56 + ^
STACK CFI 2d490 .cfa: $rsp 8 +
STACK CFI 2d498 .cfa: $rbp 16 +
STACK CFI INIT 2d560 73 .cfa: $rsp 8 + .ra: .cfa -8 + ^
STACK CFI 2d561 $rbp: .cfa -16 + ^ .cfa: $rsp 16 +
STACK CFI 2d564 .cfa: $rbp 16 +
STACK CFI 2d566 $r14: .cfa -24 + ^
STACK CFI 2d56e $r13: .cfa -32 + ^
STACK CFI 2d574 $r12: .cfa -40 + ^ $rbx: .cfa -48 + ^
STACK CFI 2d5a6 .cfa: $rsp 8 +
STACK CFI 2d5b0 .cfa: $rbp 16 +
STACK CFI INIT 2d5e0 8a .cfa: $rsp 8 + .ra: .cfa -8 + ^
STACK CFI 2d5e1 $rbp: .cfa -16 + ^ .cfa: $rsp 16 +
STACK CFI 2d5e4 .cfa: $rbp 16 +
STACK CFI 2d5e6 $r14: .cfa -24 + ^
STACK CFI 2d5f2 $r13: .cfa -32 + ^
STACK CFI 2d5fc $r12: .cfa -40 + ^
STACK CFI 2d637 .cfa: $rsp 8 +
STACK CFI 2d640 .cfa: $rbp 16 +
STACK CFI 2d669 .cfa: $rsp 8 +
STACK CFI INIT 2d670 fe .cfa: $rsp 8 + .ra: .cfa -8 + ^
STACK CFI 2d671 $rbp: .cfa -16 + ^ .cfa: $rsp 16 +
STACK CFI 2d674 .cfa: $rbp 16 +
STACK CFI 2d676 $r15: .cfa -24 + ^
STACK CFI 2d67b $r14: .cfa -32 + ^
STACK CFI 2d680 $r13: .cfa -40 + ^
STACK CFI 2d68c $r12: .cfa -48 + ^
STACK CFI 2d690 $rbx: .cfa -56 + ^
STACK CFI 2d6db .cfa: $rsp 8 +
STACK CFI 2d6e0 .cfa: $rbp 16 +
STACK CFI INIT 2d770 31 .cfa: $rsp 8 + .ra: .cfa -8 + ^
STACK CFI 2d77d $rbp: .cfa -16 + ^ .cfa: $rsp 16 +
STACK CFI 2d780 .cfa: $rbp 16 +
STACK CFI 2d79d .cfa: $rsp 8 +
STACK CFI 2d7a0 $rbp: $rbp
STACK CFI INIT 2d7b0 be .cfa: $rsp 8 + .ra: .cfa -8 + ^
STACK CFI 2d7b1 $rbp: .cfa -16 + ^ .cfa: $rsp 16 +
STACK CFI 2d7b4 .cfa: $rbp 16 +
STACK CFI 2d7b9 $r12: .cfa -32 + ^ $r13: .cfa -24 + ^ $rbx: .cfa -40 + ^
STACK CFI 2d80d .cfa: $rsp 8 +
STACK CFI 2d810 .cfa: $rbp 16 +
STACK CFI 2d86d .cfa: $rsp 8 +
STACK CFI INIT 2d870 41 .cfa: $rsp 8 + .ra: .cfa -8 + ^
STACK CFI 2d87d $rbp: .cfa -16 + ^ .cfa: $rsp 16 +
STACK CFI 2d880 .cfa: $rbp 16 +
STACK CFI 2d8aa .cfa: $rsp 8 +
STACK CFI 2d8b0 $rbp: $rbp
STACK CFI INIT 2d8c0 13 .cfa: $rsp 8 + .ra: .cfa -8 + ^
STACK CFI INIT 2d8e0 f5 .cfa: $rsp 8 + .ra: .cfa -8 + ^
STACK CFI 2d8e1 $rbp: .cfa -16 + ^ .cfa: $rsp 16 +
STACK CFI 2d8e4 .cfa: $rbp 16 +
STACK CFI 2d8e8 $r14: .cfa -32 + ^ $r15: .cfa -24 + ^
STACK CFI 2d8f4 $r12: .cfa -48 + ^ $r13: .cfa -40 + ^ $rbx: .cfa -56 + ^
STACK CFI 2d98c .cfa: $rsp 8 +
STACK CFI 2d990 .cfa: $rbp 16 +
STACK CFI 2d9a6 .cfa: $rsp 8 +
STACK CFI 2d9b0 .cfa: $rbp 16 +
STACK CFI INIT 2d9e0 b .cfa: $rsp 8 + .ra: .cfa -8 + ^
STACK CFI INIT 2d9f0 61 .cfa: $rsp 8 + .ra: .cfa -8 + ^
STACK CFI 2d9f1 $rbp: .cfa -16 + ^ .cfa: $rsp 16 +
STACK CFI 2d9f4 .cfa: $rbp 16 +
STACK CFI 2d9f8 $r13: .cfa -32 + ^ $r14: .cfa -24 + ^
STACK CFI 2d9fe $r12: .cfa -40 + ^ $rbx: .cfa -48 + ^
STACK CFI 2da50 .cfa: $rsp 8 +
STACK CFI INIT 2da60 79 .cfa: $rsp 8 + .ra: .cfa -8 + ^
STACK CFI 2da61 $rbp: .cfa -16 + ^ .cfa: $rsp 16 +
STACK CFI 2da64 .cfa: $rbp 16 +
STACK CFI 2da66 $r13: .cfa -24 + ^
STACK CFI 2da6b $r12: .cfa -32 + ^
STACK CFI 2da73 $rbx: .cfa -40 + ^
STACK CFI 2dab7 .cfa: $rsp 8 +
STACK CFI 2dac0 .cfa: $rbp 16 +
STACK CFI INIT 2dae0 10c .cfa: $rsp 8 + .ra: .cfa -8 + ^
STACK CFI 2dae1 $rbp: .cfa -16 + ^ .cfa: $rsp 16 +
STACK CFI 2dae4 .cfa: $rbp 16 +
STACK CFI 2daea $r13: .cfa -40 + ^ $r14: .cfa -32 + ^ $r15: .cfa -24 + ^
STACK CFI 2daf4 $r12: .cfa -48 + ^ $rbx: .cfa -56 + ^
STACK CFI 2db9d .cfa: $rsp 8 +
STACK CFI 2dba0 .cfa: $rbp 16 +
STACK CFI INIT 2dbf0 fe .cfa: $rsp 8 + .ra: .cfa -8 + ^
STACK CFI 2dbf1 $rbp: .cfa -16 + ^ .cfa: $rsp 16 +
STACK CFI 2dbf4 .cfa: $rbp 16 +
STACK CFI 2dbf6 $r15: .cfa -24 + ^
STACK CFI 2dbfb $r14: .cfa -32 + ^
STACK CFI 2dc02 $r12: .cfa -48 + ^ $r13: .cfa -40 + ^
STACK CFI 2dc0a $rbx: .cfa -56 + ^
STACK CFI 2dc40 .cfa: $rsp 8 +
STACK CFI 2dc48 .cfa: $rbp 16 +
STACK CFI 2dcc9 .cfa: $rsp 8 +
STACK CFI 2dcd0 .cfa: $rbp 16 +
STACK CFI INIT 2dcf0 b7 .cfa: $rsp 8 + .ra: .cfa -8 + ^
STACK CFI 2dcf1 $rbp: .cfa -16 + ^ .cfa: $rsp 16 +
STACK CFI 2dcf4 .cfa: $rbp 16 +
STACK CFI 2dcfb $r12: .cfa -40 + ^ $r13: .cfa -32 + ^ $r14: .cfa -24 + ^ $rbx: .cfa -48 + ^
STACK CFI 2dd70 .cfa: $rsp 8 +
STACK CFI 2dd78 .cfa: $rbp 16 +
STACK CFI 2dd86 .cfa: $rsp 8 +
STACK CFI 2dd90 .cfa: $rbp 16 +
STACK CFI INIT 2ddb0 41 .cfa: $rsp 8 + .ra: .cfa -8 + ^
STACK CFI 2ddb6 $rbp: .cfa -16 + ^ .cfa: $rsp 16 +
STACK CFI 2ddb9 .cfa: $rbp 16 +
STACK CFI 2ddbb $r12: .cfa -24 + ^
STACK CFI 2ddbf $rbx: .cfa -32 + ^
STACK CFI 2dde3 $rbx: $rbx
STACK CFI 2dde8 $r12: $r12
STACK CFI 2dde9 $rbp: $rbp .cfa: $rsp 8 +
STACK CFI INIT 2de00 217 .cfa: $rsp 8 + .ra: .cfa -8 + ^
STACK CFI 2de01 $rbp: .cfa -16 + ^ .cfa: $rsp 16 +
STACK CFI 2de04 .cfa: $rbp 16 +
STACK CFI 2de14 $r12: .cfa -48 + ^ $r13: .cfa -40 + ^ $r14: .cfa -32 + ^ $r15: .cfa -24 + ^ $rbx: .cfa -56 + ^
STACK CFI 2df38 .cfa: $rsp 8 +
STACK CFI 2df40 .cfa: $rbp 16 +
STACK CFI INIT 2e020 12 .cfa: $rsp 8 + .ra: .cfa -8 + ^
STACK CFI INIT 2e040 fd .cfa: $rsp 8 + .ra: .cfa -8 + ^
STACK CFI 2e041 $rbp: .cfa -16 + ^ .cfa: $rsp 16 +
STACK CFI 2e044 .cfa: $rbp 16 +
STACK CFI 2e04b $r12: .cfa -40 + ^ $r13: .cfa -32 + ^ $r14: .cfa -24 + ^ $rbx: .cfa -48 + ^
STACK CFI 2e129 .cfa: $rsp 8 +
STACK CFI 2e12a .cfa: $rbp 16 +
STACK CFI 2e13c .cfa: $rsp 8 +
STACK CFI INIT 2e140 526 .cfa: $rsp 8 + .ra: .cfa -8 + ^
STACK CFI 2e141 $rbp: .cfa -16 + ^ .cfa: $rsp 16 +
STACK CFI 2e144 .cfa: $rbp 16 +
STACK CFI 2e151 $r12: .cfa -48 + ^ $r13: .cfa -40 + ^ $r14: .cfa -32 + ^ $r15: .cfa -24 + ^ $rbx: .cfa -56 + ^
STACK CFI 2e25a .cfa: $rsp 8 +
STACK CFI 2e260 .cfa: $rbp 16 +
STACK CFI 2e2b2 .cfa: $rsp 8 +
STACK CFI 2e2b8 .cfa: $rbp 16 +
STACK CFI 2e420 .cfa: $rsp 8 +
STACK CFI 2e428 .cfa: $rbp 16 +
STACK CFI INIT 2e670 41c .cfa: $rsp 8 + .ra: .cfa -8 + ^
STACK CFI 2e671 $rbp: .cfa -16 + ^ .cfa: $rsp 16 +
STACK CFI 2e674 .cfa: $rbp 16 +
STACK CFI 2e676 $r15: .cfa -24 + ^
STACK CFI 2e67f $r12: .cfa -48 + ^ $r13: .cfa -40 + ^ $r14: .cfa -32 + ^
STACK CFI 2e687 $rbx: .cfa -56 + ^
STACK CFI 2e974 .cfa: $rsp 8 +
STACK CFI 2e978 .cfa: $rbp 16 +
STACK CFI INIT 2ea90 1450 .cfa: $rsp 8 + .ra: .cfa -8 + ^
STACK CFI 2ea91 $rbp: .cfa -16 + ^ .cfa: $rsp 16 +
STACK CFI 2ea97 .cfa: $rbp 16 +
STACK CFI 2eaa4 $r12: .cfa -48 + ^ $r13: .cfa -40 + ^ $r14: .cfa -32 + ^ $r15: .cfa -24 + ^ $rbx: .cfa -56 + ^
STACK CFI 2eff2 .cfa: $rsp 8 +
STACK CFI 2eff3 .cfa: $rbp 16 +
STACK CFI INIT 2fee0 259 .cfa: $rsp 8 + .ra: .cfa -8 + ^
STACK CFI 2fee1 $rbp: .cfa -16 + ^ .cfa: $rsp 16 +
STACK CFI 2fee4 .cfa: $rbp 16 +
STACK CFI 2fef1 $r12: .cfa -48 + ^ $r13: .cfa -40 + ^ $r14: .cfa -32 + ^ $r15: .cfa -24 + ^ $rbx: .cfa -56 + ^
STACK CFI 300b1 .cfa: $rsp 8 +
STACK CFI 300b8 .cfa: $rbp 16 +
STACK CFI INIT 1cd80 a $r12: .cfa -48 + ^ $r13: .cfa -40 + ^ $r14: .cfa -32 + ^ $r15: .cfa -24 + ^ $rbp: .cfa -16 + ^ $rbx: .cfa -56 + ^ .cfa: $rbp 16 + .ra: .cfa -8 + ^
STACK CFI INIT 30140 263 .cfa: $rsp 8 + .ra: .cfa -8 + ^
STACK CFI 30141 $rbp: .cfa -16 + ^ .cfa: $rsp 16 +
STACK CFI 30144 .cfa: $rbp 16 +
STACK CFI 30151 $r12: .cfa -48 + ^ $r13: .cfa -40 + ^ $r14: .cfa -32 + ^ $r15: .cfa -24 + ^ $rbx: .cfa -56 + ^
STACK CFI 301cb .cfa: $rsp 8 +
STACK CFI 301d0 .cfa: $rbp 16 +
STACK CFI 3028e .cfa: $rsp 8 +
STACK CFI 30290 .cfa: $rbp 16 +
STACK CFI INIT 303b0 d0 .cfa: $rsp 8 + .ra: .cfa -8 + ^
STACK CFI 303b1 $rbp: .cfa -16 + ^ .cfa: $rsp 16 +
STACK CFI 303b7 .cfa: $rbp 16 +
STACK CFI 303c0 $r12: .cfa -24 + ^
STACK CFI 30402 .cfa: $rsp 8 +
STACK CFI 30408 .cfa: $rbp 16 +
STACK CFI INIT 30480 228 .cfa: $rsp 8 + .ra: .cfa -8 + ^
STACK CFI 30481 $rbp: .cfa -16 + ^ .cfa: $rsp 16 +
STACK CFI 30484 .cfa: $rbp 16 +
STACK CFI 30488 $r14: .cfa -32 + ^ $r15: .cfa -24 + ^
STACK CFI 30497 $r13: .cfa -40 + ^
STACK CFI 304a6 $r12: .cfa -48 + ^
STACK CFI 30589 .cfa: $rsp 8 +
STACK CFI 30590 .cfa: $rbp 16 +
STACK CFI INIT 306b0 233 .cfa: $rsp 8 + .ra: .cfa -8 + ^
STACK CFI 306b1 $rbp: .cfa -16 + ^ .cfa: $rsp 16 +
STACK CFI 306b4 .cfa: $rbp 16 +
STACK CFI 306b6 $r15: .cfa -24 + ^
STACK CFI 306bd $r13: .cfa -40 + ^ $r14: .cfa -32 + ^
STACK CFI 306c2 $r12: .cfa -48 + ^
STACK CFI 306cd $rbx: .cfa -56 + ^
STACK CFI 307cd .cfa: $rsp 8 +
STACK CFI 307d0 .cfa: $rbp 16 +
STACK CFI INIT 308f0 15 .cfa: $rsp 8 + .ra: .cfa -8 + ^
STACK CFI INIT 30910 f .cfa: $rsp 8 + .ra: .cfa -8 + ^
STACK CFI INIT 30920 40 .cfa: $rsp 8 + .ra: .cfa -8 + ^
STACK CFI 30921 $rbp: .cfa -16 + ^ .cfa: $rsp 16 +
STACK CFI 30924 .cfa: $rbp 16 +
STACK CFI 30926 $r12: .cfa -24 + ^
STACK CFI 30945 .cfa: $rsp 8 +
STACK CFI 30950 .cfa: $rbp 16 +
STACK CFI 3095f .cfa: $rsp 8 +
STACK CFI INIT 30960 264 .cfa: $rsp 8 + .ra: .cfa -8 + ^
STACK CFI 30961 $rbp: .cfa -16 + ^ .cfa: $rsp 16 +
STACK CFI 30964 .cfa: $rbp 16 +
STACK CFI 30968 $r14: .cfa -32 + ^ $r15: .cfa -24 + ^
STACK CFI 30974 $r13: .cfa -40 + ^
STACK CFI 30980 $r12: .cfa -48 + ^
STACK CFI 30a0e .cfa: $rsp 8 +
STACK CFI 30a10 .cfa: $rbp 16 +
STACK CFI INIT 30bd0 4c .cfa: $rsp 8 + .ra: .cfa -8 + ^
STACK CFI 30bdb $rbp: .cfa -16 + ^ .cfa: $rsp 16 +
STACK CFI 30bf6 .cfa: $rbp 16 +
STACK CFI 30c03 .cfa: $rsp 8 +
STACK CFI 30c08 $rbp: $rbp
STACK CFI 30c10 $rbp: .cfa -16 + ^ .cfa: $rbp 16 +
STACK CFI 30c1b .cfa: $rsp 8 +
STACK CFI INIT 30c20 3a4 .cfa: $rsp 8 + .ra: .cfa -8 + ^
STACK CFI 30c21 $rbp: .cfa -16 + ^ .cfa: $rsp 16 +
STACK CFI 30c24 .cfa: $rbp 16 +
STACK CFI 30c28 $r14: .cfa -32 + ^ $r15: .cfa -24 + ^
STACK CFI 30c2d $r13: .cfa -40 + ^
STACK CFI 30c32 $r12: .cfa -48 + ^
STACK CFI 30c36 $rbx: .cfa -56 + ^
STACK CFI 30c9d .cfa: $rsp 8 +
STACK CFI 30ca0 .cfa: $rbp 16 +
STACK CFI 30d16 .cfa: $rsp 8 +
STACK CFI 30d20 .cfa: $rbp 16 +
STACK CFI 30dc6 .cfa: $rsp 8 +
STACK CFI 30dd0 .cfa: $rbp 16 +
STACK CFI INIT 30fd0 3ae .cfa: $rsp 8 + .ra: .cfa -8 + ^
STACK CFI 30fd1 $rbp: .cfa -16 + ^ .cfa: $rsp 16 +
STACK CFI 30fd4 .cfa: $rbp 16 +
STACK CFI 30fda $r13: .cfa -40 + ^ $r14: .cfa -32 + ^ $r15: .cfa -24 + ^
STACK CFI 30fdf $r12: .cfa -48 + ^
STACK CFI 30fe7 $rbx: .cfa -56 + ^
STACK CFI 312a7 .cfa: $rsp 8 +
STACK CFI 312b0 .cfa: $rbp 16 +
STACK CFI INIT 31380 10b .cfa: $rsp 8 + .ra: .cfa -8 + ^
STACK CFI 31381 $rbp: .cfa -16 + ^ .cfa: $rsp 16 +
STACK CFI 31384 .cfa: $rbp 16 +
STACK CFI 31386 $r13: .cfa -24 + ^
STACK CFI 31390 $r12: .cfa -32 + ^
STACK CFI 31398 $rbx: .cfa -40 + ^
STACK CFI 3148a .cfa: $rsp 8 +
STACK CFI INIT 31490 46 .cfa: $rsp 8 + .ra: .cfa -8 + ^
STACK CFI 31491 $rbp: .cfa -16 + ^ .cfa: $rsp 16 +
STACK CFI 31494 .cfa: $rbp 16 +
STACK CFI 3149a $r13: .cfa -24 + ^
STACK CFI 314a0 $r12: .cfa -32 + ^
STACK CFI 314c8 .cfa: $rsp 8 +
STACK CFI 314d0 .cfa: $rbp 16 +
STACK CFI 314d5 .cfa: $rsp 8 +
STACK CFI INIT 314e0 40e .cfa: $rsp 8 + .ra: .cfa -8 + ^
STACK CFI 314e1 $rbp: .cfa -16 + ^ .cfa: $rsp 16 +
STACK CFI 314e6 .cfa: $rbp 16 +
STACK CFI 314e8 $r15: .cfa -24 + ^
STACK CFI 314ed $r14: .cfa -32 + ^
STACK CFI 314f2 $r13: .cfa -40 + ^
STACK CFI 314f7 $r12: .cfa -48 + ^
STACK CFI 31504 $rbx: .cfa -56 + ^
STACK CFI 31636 .cfa: $rsp 8 +
STACK CFI 31640 .cfa: $rbp 16 +
STACK CFI 316b4 .cfa: $rsp 8 +
STACK CFI 316b8 .cfa: $rbp 16 +
STACK CFI INIT 318f0 611 .cfa: $rsp 8 + .ra: .cfa -8 + ^
STACK CFI 318f1 $rbp: .cfa -16 + ^ .cfa: $rsp 16 +
STACK CFI 318f4 .cfa: $rbp 16 +
STACK CFI 318f8 $r14: .cfa -32 + ^ $r15: .cfa -24 + ^
STACK CFI 3190b $r12: .cfa -48 + ^ $r13: .cfa -40 + ^ $rbx: .cfa -56 + ^
STACK CFI 31bb3 .cfa: $rsp 8 +
STACK CFI 31bb8 .cfa: $rbp 16 +
STACK CFI INIT 31f10 415 .cfa: $rsp 8 + .ra: .cfa -8 + ^
STACK CFI 31f11 $rbp: .cfa -16 + ^ .cfa: $rsp 16 +
STACK CFI 31f24 .cfa: $rbp 16 +
STACK CFI 31f2a $r13: .cfa -40 + ^ $r14: .cfa -32 + ^ $r15: .cfa -24 + ^
STACK CFI 31f36 $r12: .cfa -48 + ^
STACK CFI 31f46 $rbx: .cfa -56 + ^
STACK CFI 31ffc .cfa: $rsp 8 +
STACK CFI 32000 .cfa: $rbp 16 +
STACK CFI 320f8 .cfa: $rsp 8 +
STACK CFI 32100 .cfa: $rbp 16 +
STACK CFI INIT 32330 167 .cfa: $rsp 8 + .ra: .cfa -8 + ^
STACK CFI 32331 $rbp: .cfa -16 + ^ .cfa: $rsp 16 +
STACK CFI 32334 .cfa: $rbp 16 +
STACK CFI 32336 $r13: .cfa -24 + ^
STACK CFI 3233b $r12: .cfa -32 + ^
STACK CFI 32496 .cfa: $rsp 8 +
STACK CFI INIT 324a0 10e .cfa: $rsp 8 + .ra: .cfa -8 + ^
STACK CFI 324a1 $rbp: .cfa -16 + ^ .cfa: $rsp 16 +
STACK CFI 324a9 .cfa: $rbp 16 +
STACK CFI 324ae $r12: .cfa -32 + ^ $r13: .cfa -24 + ^ $rbx: .cfa -40 + ^
STACK CFI 3254b .cfa: $rsp 8 +
STACK CFI 32550 .cfa: $rbp 16 +
STACK CFI 3256c .cfa: $rsp 8 +
STACK CFI 32570 .cfa: $rbp 16 +
STACK CFI 3259e .cfa: $rsp 8 +
STACK CFI 325a0 .cfa: $rbp 16 +
STACK CFI INIT 325b0 f8 .cfa: $rsp 8 + .ra: .cfa -8 + ^
STACK CFI 325b1 $rbp: .cfa -16 + ^ .cfa: $rsp 16 +
STACK CFI 325b4 .cfa: $rbp 16 +
STACK CFI 325bd $r12: .cfa -24 + ^
STACK CFI 3269d .cfa: $rsp 8 +
STACK CFI 326a0 .cfa: $rbp 16 +
STACK CFI 326a7 .cfa: $rsp 8 +
STACK CFI INIT 326b0 1d5 .cfa: $rsp 8 + .ra: .cfa -8 + ^
STACK CFI 326b1 $rbp: .cfa -16 + ^ .cfa: $rsp 16 +
STACK CFI 326b7 .cfa: $rbp 16 +
STACK CFI 326b9 $r13: .cfa -24 + ^
STACK CFI 326be $r12: .cfa -32 + ^
STACK CFI 32789 .cfa: $rsp 8 +
STACK CFI 32790 .cfa: $rbp 16 +
STACK CFI 32838 .cfa: $rsp 8 +
STACK CFI 32840 .cfa: $rbp 16 +
STACK CFI 3284b .cfa: $rsp 8 +
STACK CFI 32850 .cfa: $rbp 16 +
STACK CFI 32884 .cfa: $rsp 8 +
STACK CFI INIT 32890 121 .cfa: $rsp 8 + .ra: .cfa -8 + ^
STACK CFI 32891 $rbp: .cfa -16 + ^ .cfa: $rsp 16 +
STACK CFI 32894 .cfa: $rbp 16 +
STACK CFI 32896 $r14: .cfa -24 + ^
STACK CFI 3289b $r13: .cfa -32 + ^
STACK CFI 328a5 $r12: .cfa -40 + ^ $rbx: .cfa -48 + ^
STACK CFI 32936 .cfa: $rsp 8 +
STACK CFI 32940 .cfa: $rbp 16 +
STACK CFI 32956 .cfa: $rsp 8 +
STACK CFI 32960 .cfa: $rbp 16 +
STACK CFI 329b0 .cfa: $rsp 8 +
STACK CFI INIT 329c0 a .cfa: $rsp 8 + .ra: .cfa -8 + ^
STACK CFI INIT 329d0 d .cfa: $rsp 8 + .ra: .cfa -8 + ^
STACK CFI INIT 329e0 f .cfa: $rsp 8 + .ra: .cfa -8 + ^
STACK CFI INIT 329f0 59 .cfa: $rsp 8 + .ra: .cfa -8 + ^
STACK CFI 329f1 $rbp: .cfa -16 + ^ .cfa: $rsp 16 +
STACK CFI 329fc .cfa: $rbp 16 +
STACK CFI 329fe $r13: .cfa -24 + ^
STACK CFI 32a0a $r12: .cfa -32 + ^
STACK CFI 32a48 .cfa: $rsp 8 +
STACK CFI INIT 32a50 4 .cfa: $rsp 8 + .ra: .cfa -8 + ^
STACK CFI INIT 32a60 163 .cfa: $rsp 8 + .ra: .cfa -8 + ^
STACK CFI 32a61 $rbp: .cfa -16 + ^ .cfa: $rsp 16 +
STACK CFI 32a67 .cfa: $rbp 16 +
STACK CFI 32a6b $r12: .cfa -32 + ^ $r13: .cfa -24 + ^
STACK CFI 32ade .cfa: $rsp 8 +
STACK CFI 32ae0 .cfa: $rbp 16 +
STACK CFI 32b5a .cfa: $rsp 8 +
STACK CFI 32b60 .cfa: $rbp 16 +
STACK CFI 32b98 .cfa: $rsp 8 +
STACK CFI 32ba0 .cfa: $rbp 16 +
STACK CFI INIT 32bd0 7 .cfa: $rsp 8 + .ra: .cfa -8 + ^
STACK CFI INIT 32be0 18 .cfa: $rsp 8 + .ra: .cfa -8 + ^
STACK CFI 32be1 $rbp: .cfa -16 + ^ .cfa: $rsp 16 +
STACK CFI 32beb .cfa: $rbp 16 +
STACK CFI 32bf1 .cfa: $rsp 8 +
STACK CFI INIT 32c00 19 .cfa: $rsp 8 + .ra: .cfa -8 + ^
STACK CFI 32c01 $rbp: .cfa -16 + ^ .cfa: $rsp 16 +
STACK CFI 32c0c .cfa: $rbp 16 +
STACK CFI 32c12 .cfa: $rsp 8 +
STACK CFI INIT 32c20 218 .cfa: $rsp 8 + .ra: .cfa -8 + ^
STACK CFI 32c21 $rbp: .cfa -16 + ^ .cfa: $rsp 16 +
STACK CFI 32c24 .cfa: $rbp 16 +
STACK CFI 32c2a $r12: .cfa -40 + ^ $r13: .cfa -32 + ^ $r14: .cfa -24 + ^
STACK CFI 32c35 $rbx: .cfa -48 + ^
STACK CFI 32ca5 .cfa: $rsp 8 +
STACK CFI 32cb0 .cfa: $rbp 16 +
STACK CFI INIT 32e40 7 .cfa: $rsp 8 + .ra: .cfa -8 + ^
STACK CFI INIT 32e50 c .cfa: $rsp 8 + .ra: .cfa -8 + ^
STACK CFI INIT 32e60 d .cfa: $rsp 8 + .ra: .cfa -8 + ^
STACK CFI INIT 32e70 202 .cfa: $rsp 8 + .ra: .cfa -8 + ^
STACK CFI 32e71 $rbp: .cfa -16 + ^ .cfa: $rsp 16 +
STACK CFI 32e74 .cfa: $rbp 16 +
STACK CFI 32e77 $r12: .cfa -24 + ^ $rbx: .cfa -32 + ^
STACK CFI 32f54 .cfa: $rsp 8 +
STACK CFI 32f58 .cfa: $rbp 16 +
STACK CFI 32f86 .cfa: $rsp 8 +
STACK CFI 32f90 .cfa: $rbp 16 +
STACK CFI 32ffe .cfa: $rsp 8 +
STACK CFI 33000 .cfa: $rbp 16 +
STACK CFI INIT 33080 11a .cfa: $rsp 8 + .ra: .cfa -8 + ^
STACK CFI 33081 $rbp: .cfa -16 + ^ .cfa: $rsp 16 +
STACK CFI 33084 .cfa: $rbp 16 +
STACK CFI 33088 $r13: .cfa -32 + ^ $r14: .cfa -24 + ^
STACK CFI 33091 $r12: .cfa -40 + ^ $rbx: .cfa -48 + ^
STACK CFI 33199 .cfa: $rsp 8 +
STACK CFI INIT 331a0 16 .cfa: $rsp 8 + .ra: .cfa -8 + ^
STACK CFI INIT 331c0 f .cfa: $rsp 8 + .ra: .cfa -8 + ^
STACK CFI INIT 331d0 8 .cfa: $rsp 8 + .ra: .cfa -8 + ^
STACK CFI INIT 331e0 26 .cfa: $rsp 8 + .ra: .cfa -8 + ^
STACK CFI INIT 33210 33 .cfa: $rsp 8 + .ra: .cfa -8 + ^
STACK CFI 33221 $rbp: .cfa -16 + ^ .cfa: $rsp 16 +
STACK CFI 3322e .cfa: $rbp 16 +
STACK CFI 33234 .cfa: $rsp 8 +
STACK CFI 33240 $rbp: $rbp
STACK CFI INIT 33250 3c .cfa: $rsp 8 + .ra: .cfa -8 + ^
STACK CFI 33261 $rbp: .cfa -16 + ^ .cfa: $rsp 16 +
STACK CFI 3326e .cfa: $rbp 16 +
STACK CFI 33280 .cfa: $rsp 8 +
STACK CFI 33288 .cfa: $rbp 16 +
STACK CFI 3328b .cfa: $rsp 8 +
STACK CFI INIT 33290 44 .cfa: $rsp 8 + .ra: .cfa -8 + ^
STACK CFI 332a1 $rbp: .cfa -16 + ^ .cfa: $rsp 16 +
STACK CFI 332ae .cfa: $rbp 16 +
STACK CFI 332bf .cfa: $rsp 8 +
STACK CFI 332d0 .cfa: $rbp 16 +
STACK CFI 332d3 .cfa: $rsp 8 +
STACK CFI INIT 332e0 39 .cfa: $rsp 8 + .ra: .cfa -8 + ^
STACK CFI 332e1 $rbp: .cfa -16 + ^ .cfa: $rsp 16 +
STACK CFI 332f1 .cfa: $rbp 16 +
STACK CFI 33318 .cfa: $rsp 8 +
STACK CFI INIT 33320 8 .cfa: $rsp 8 + .ra: .cfa -8 + ^
STACK CFI INIT 33330 8 .cfa: $rsp 8 + .ra: .cfa -8 + ^
STACK CFI INIT 33340 33 .cfa: $rsp 8 + .ra: .cfa -8 + ^
STACK CFI 33341 $rbp: .cfa -16 + ^ .cfa: $rsp 16 +
STACK CFI 33349 .cfa: $rbp 16 +
STACK CFI 3334a $rbx: .cfa -24 + ^
STACK CFI 33372 .cfa: $rsp 8 +
STACK CFI INIT 33380 10b .cfa: $rsp 8 + .ra: .cfa -8 + ^
STACK CFI 3338a $rbp: .cfa -16 + ^ .cfa: $rsp 16 +
STACK CFI 3338d .cfa: $rbp 16 +
STACK CFI 33391 $r12: .cfa -32 + ^ $r13: .cfa -24 + ^
STACK CFI 333fe .cfa: $rsp 8 +
STACK CFI 33400 .cfa: $rbp 16 +
STACK CFI 33456 .cfa: $rsp 8 +
STACK CFI 33460 .cfa: $rbp 16 +
STACK CFI 33488 $r12: $r12 $r13: $r13 $rbp: $rbp .cfa: $rsp 8 +
STACK CFI INIT 33490 a4 .cfa: $rsp 8 + .ra: .cfa -8 + ^
STACK CFI 33491 $rbp: .cfa -16 + ^ .cfa: $rsp 16 +
STACK CFI 33494 .cfa: $rbp 16 +
STACK CFI 3349d $r12: .cfa -32 + ^ $r13: .cfa -24 + ^ $rbx: .cfa -40 + ^
STACK CFI 33515 .cfa: $rsp 8 +
STACK CFI 33520 .cfa: $rbp 16 +
STACK CFI 33533 .cfa: $rsp 8 +
STACK CFI INIT 33540 232 .cfa: $rsp 8 + .ra: .cfa -8 + ^
STACK CFI 33541 $rbp: .cfa -16 + ^ .cfa: $rsp 16 +
STACK CFI 33544 .cfa: $rbp 16 +
STACK CFI 33546 $r15: .cfa -24 + ^
STACK CFI 3354d $r13: .cfa -40 + ^ $r14: .cfa -32 + ^
STACK CFI 33552 $r12: .cfa -48 + ^
STACK CFI 3355d $rbx: .cfa -56 + ^
STACK CFI 336a7 .cfa: $rsp 8 +
STACK CFI 336b0 .cfa: $rbp 16 +
STACK CFI INIT 33780 258 .cfa: $rsp 8 + .ra: .cfa -8 + ^
STACK CFI 33781 $rbp: .cfa -16 + ^ .cfa: $rsp 16 +
STACK CFI 33784 .cfa: $rbp 16 +
STACK CFI 33794 $r12: .cfa -48 + ^ $r13: .cfa -40 + ^ $r14: .cfa -32 + ^ $r15: .cfa -24 + ^ $rbx: .cfa -56 + ^
STACK CFI 3382f .cfa: $rsp 8 +
STACK CFI 33830 .cfa: $rbp 16 +
STACK CFI INIT 339e0 3a .cfa: $rsp 8 + .ra: .cfa -8 + ^
STACK CFI 339e1 $rbp: .cfa -16 + ^ .cfa: $rsp 16 +
STACK CFI 339e4 .cfa: $rbp 16 +
STACK CFI 339e6 $r12: .cfa -24 + ^
STACK CFI 33a05 .cfa: $rsp 8 +
STACK CFI 33a10 .cfa: $rbp 16 +
STACK CFI 33a19 .cfa: $rsp 8 +
STACK CFI INIT 33a20 84 .cfa: $rsp 8 + .ra: .cfa -8 + ^
STACK CFI 33a21 $rbp: .cfa -16 + ^ .cfa: $rsp 16 +
STACK CFI 33a24 .cfa: $rbp 16 +
STACK CFI 33a26 $r15: .cfa -24 + ^
STACK CFI 33a2b $r14: .cfa -32 + ^
STACK CFI 33a30 $r13: .cfa -40 + ^
STACK CFI 33a35 $r12: .cfa -48 + ^
STACK CFI 33a40 $rbx: .cfa -56 + ^
STACK CFI 33a96 .cfa: $rsp 8 +
STACK CFI 33aa0 .cfa: $rbp 16 +
STACK CFI INIT 33ab0 63 .cfa: $rsp 8 + .ra: .cfa -8 + ^
STACK CFI 33ab9 $rbp: .cfa -16 + ^ .cfa: $rsp 16 +
STACK CFI 33abc .cfa: $rbp 16 +
STACK CFI 33ac1 $r12: .cfa -32 + ^ $r13: .cfa -24 + ^ $rbx: .cfa -40 + ^
STACK CFI 33afc .cfa: $rsp 8 +
STACK CFI 33b00 .cfa: $rbp 16 +
STACK CFI 33b0f .cfa: $rsp 8 +
STACK CFI 33b10 $r12: $r12 $r13: $r13 $rbp: $rbp $rbx: $rbx
STACK CFI INIT 33b20 1c .cfa: $rsp 8 + .ra: .cfa -8 + ^
STACK CFI 33b21 $rbp: .cfa -16 + ^ .cfa: $rsp 16 +
STACK CFI 33b24 .cfa: $rbp 16 +
STACK CFI 33b33 .cfa: $rsp 8 +
STACK CFI 33b38 .cfa: $rbp 16 +
STACK CFI 33b3b .cfa: $rsp 8 +
STACK CFI INIT 33b40 1c .cfa: $rsp 8 + .ra: .cfa -8 + ^
STACK CFI 33b41 $rbp: .cfa -16 + ^ .cfa: $rsp 16 +
STACK CFI 33b44 .cfa: $rbp 16 +
STACK CFI 33b53 .cfa: $rsp 8 +
STACK CFI 33b58 .cfa: $rbp 16 +
STACK CFI 33b5b .cfa: $rsp 8 +
STACK CFI INIT 33b60 1c .cfa: $rsp 8 + .ra: .cfa -8 + ^
STACK CFI 33b61 $rbp: .cfa -16 + ^ .cfa: $rsp 16 +
STACK CFI 33b64 .cfa: $rbp 16 +
STACK CFI 33b73 .cfa: $rsp 8 +
STACK CFI 33b78 .cfa: $rbp 16 +
STACK CFI 33b7b .cfa: $rsp 8 +
STACK CFI INIT 33b80 74 .cfa: $rsp 8 + .ra: .cfa -8 + ^
STACK CFI 33b81 $rbp: .cfa -16 + ^ .cfa: $rsp 16 +
STACK CFI 33b84 .cfa: $rbp 16 +
STACK CFI 33b86 $r13: .cfa -24 + ^
STACK CFI 33b8b $r12: .cfa -32 + ^
STACK CFI 33b8f $rbx: .cfa -40 + ^
STACK CFI 33bd6 .cfa: $rsp 8 +
STACK CFI 33be0 .cfa: $rbp 16 +
STACK CFI 33bf3 .cfa: $rsp 8 +
STACK CFI INIT 33c00 fb .cfa: $rsp 8 + .ra: .cfa -8 + ^
STACK CFI 33c01 $rbp: .cfa -16 + ^ .cfa: $rsp 16 +
STACK CFI 33c04 .cfa: $rbp 16 +
STACK CFI 33c06 $r13: .cfa -24 + ^
STACK CFI 33c0b $r12: .cfa -32 + ^
STACK CFI 33c16 $rbx: .cfa -40 + ^
STACK CFI 33c2e .cfa: $rsp 8 +
STACK CFI 33c30 .cfa: $rbp 16 +
STACK CFI 33c8d .cfa: $rsp 8 +
STACK CFI 33c90 .cfa: $rbp 16 +
STACK CFI 33cdc .cfa: $rsp 8 +
STACK CFI 33ce0 .cfa: $rbp 16 +
STACK CFI INIT 33d00 61 .cfa: $rsp 8 + .ra: .cfa -8 + ^
STACK CFI INIT 33d70 322 .cfa: $rsp 8 + .ra: .cfa -8 + ^
STACK CFI 33d71 $rbp: .cfa -16 + ^ .cfa: $rsp 16 +
STACK CFI 33d74 .cfa: $rbp 16 +
STACK CFI 33d76 $r15: .cfa -24 + ^
STACK CFI 33d7b $r14: .cfa -32 + ^
STACK CFI 33d80 $r13: .cfa -40 + ^
STACK CFI 33d86 $r12: .cfa -48 + ^ $rbx: .cfa -56 + ^
STACK CFI 33de4 .cfa: $rsp 8 +
STACK CFI 33de8 .cfa: $rbp 16 +
STACK CFI INIT 340a0 5b5 .cfa: $rsp 8 + .ra: .cfa -8 + ^
STACK CFI 340a1 $rbp: .cfa -16 + ^ .cfa: $rsp 16 +
STACK CFI 340a4 .cfa: $rbp 16 +
STACK CFI 340b1 $r12: .cfa -48 + ^ $r13: .cfa -40 + ^ $r14: .cfa -32 + ^ $r15: .cfa -24 + ^ $rbx: .cfa -56 + ^
STACK CFI 340ec .cfa: $rsp 8 +
STACK CFI 340f0 .cfa: $rbp 16 +
STACK CFI INIT 34660 15 .cfa: $rsp 8 + .ra: .cfa -8 + ^
STACK CFI INIT 34680 19a .cfa: $rsp 8 + .ra: .cfa -8 + ^
STACK CFI 34681 $rbp: .cfa -16 + ^ .cfa: $rsp 16 +
STACK CFI 34684 .cfa: $rbp 16 +
STACK CFI 34686 $r15: .cfa -24 + ^
STACK CFI 3468b $r14: .cfa -32 + ^
STACK CFI 34690 $r13: .cfa -40 + ^
STACK CFI 34695 $r12: .cfa -48 + ^
STACK CFI 34699 $rbx: .cfa -56 + ^
STACK CFI 3473c .cfa: $rsp 8 +
STACK CFI 34740 .cfa: $rbp 16 +
STACK CFI INIT 34820 19a .cfa: $rsp 8 + .ra: .cfa -8 + ^
STACK CFI 34821 $rbp: .cfa -16 + ^ .cfa: $rsp 16 +
STACK CFI 34824 .cfa: $rbp 16 +
STACK CFI 34826 $r15: .cfa -24 + ^
STACK CFI 3482b $r14: .cfa -32 + ^
STACK CFI 34830 $r13: .cfa -40 + ^
STACK CFI 34835 $r12: .cfa -48 + ^
STACK CFI 34839 $rbx: .cfa -56 + ^
STACK CFI 348df .cfa: $rsp 8 +
STACK CFI 348e0 .cfa: $rbp 16 +
STACK CFI INIT 349c0 2a0 .cfa: $rsp 8 + .ra: .cfa -8 + ^
STACK CFI 349c1 $rbp: .cfa -16 + ^ .cfa: $rsp 16 +
STACK CFI 349c4 .cfa: $rbp 16 +
STACK CFI 349d1 $r12: .cfa -48 + ^ $r13: .cfa -40 + ^ $r14: .cfa -32 + ^ $r15: .cfa -24 + ^ $rbx: .cfa -56 + ^
STACK CFI 34a0c .cfa: $rsp 8 +
STACK CFI 34a10 .cfa: $rbp 16 +
STACK CFI INIT 34c60 5 .cfa: $rsp 8 + .ra: .cfa -8 + ^
STACK CFI INIT 34c70 11e .cfa: $rsp 8 + .ra: .cfa -8 + ^
STACK CFI INIT 34d90 39 .cfa: $rsp 8 + .ra: .cfa -8 + ^
STACK CFI INIT 34dd0 b0 .cfa: $rsp 8 + .ra: .cfa -8 + ^
STACK CFI INIT 34e80 2e3 .cfa: $rsp 8 + .ra: .cfa -8 + ^
STACK CFI 34e81 $rbp: .cfa -16 + ^ .cfa: $rsp 16 +
STACK CFI 34e84 .cfa: $rbp 16 +
STACK CFI 34e88 $r14: .cfa -32 + ^ $r15: .cfa -24 + ^
STACK CFI 34e94 $r12: .cfa -48 + ^ $r13: .cfa -40 + ^ $rbx: .cfa -56 + ^
STACK CFI 350d9 .cfa: $rsp 8 +
STACK CFI 350e0 .cfa: $rbp 16 +
STACK CFI INIT 35170 57 .cfa: $rsp 8 + .ra: .cfa -8 + ^
STACK CFI INIT 351d0 81 .cfa: $rsp 8 + .ra: .cfa -8 + ^
STACK CFI INIT 35260 f3 .cfa: $rsp 8 + .ra: .cfa -8 + ^
STACK CFI INIT 35360 134 .cfa: $rsp 8 + .ra: .cfa -8 + ^
STACK CFI INIT 354a0 81 .cfa: $rsp 8 + .ra: .cfa -8 + ^
STACK CFI INIT 35530 95 .cfa: $rsp 8 + .ra: .cfa -8 + ^
STACK CFI INIT 355d0 8f .cfa: $rsp 8 + .ra: .cfa -8 + ^
STACK CFI INIT 35660 17c .cfa: $rsp 8 + .ra: .cfa -8 + ^
STACK CFI 35661 $rbp: .cfa -16 + ^ .cfa: $rsp 16 +
STACK CFI 35664 .cfa: $rbp 16 +
STACK CFI 35666 $r15: .cfa -24 + ^
STACK CFI 3566f $r12: .cfa -48 + ^ $r13: .cfa -40 + ^ $r14: .cfa -32 + ^
STACK CFI 35673 $rbx: .cfa -56 + ^
STACK CFI 357db .cfa: $rsp 8 +
STACK CFI INIT 357e0 eb .cfa: $rsp 8 + .ra: .cfa -8 + ^
STACK CFI 357e1 $rbp: .cfa -16 + ^ .cfa: $rsp 16 +
STACK CFI 357e4 .cfa: $rbp 16 +
STACK CFI 357e6 $r12: .cfa -24 + ^
STACK CFI 357ea $rbx: .cfa -32 + ^
STACK CFI 35894 .cfa: $rsp 8 +
STACK CFI 35898 .cfa: $rbp 16 +
STACK CFI 358ca .cfa: $rsp 8 +
STACK CFI INIT 358d0 81 .cfa: $rsp 8 + .ra: .cfa -8 + ^
STACK CFI INIT 35960 f1 .cfa: $rsp 8 + .ra: .cfa -8 + ^
STACK CFI INIT 35a60 a7 .cfa: $rsp 8 + .ra: .cfa -8 + ^
STACK CFI 35a61 $rbp: .cfa -16 + ^ .cfa: $rsp 16 +
STACK CFI 35a6d .cfa: $rbp 16 +
STACK CFI 35af9 .cfa: $rsp 8 +
STACK CFI 35b00 .cfa: $rbp 16 +
STACK CFI INIT 35b10 95 .cfa: $rsp 8 + .ra: .cfa -8 + ^
STACK CFI 35b11 $rbp: .cfa -16 + ^ .cfa: $rsp 16 +
STACK CFI 35b17 .cfa: $rbp 16 +
STACK CFI 35b1c $rbx: .cfa -24 + ^
STACK CFI 35b51 .cfa: $rsp 8 +
STACK CFI 35b58 .cfa: $rbp 16 +
STACK CFI INIT 35bb0 95 .cfa: $rsp 8 + .ra: .cfa -8 + ^
STACK CFI 35bb1 $rbp: .cfa -16 + ^ .cfa: $rsp 16 +
STACK CFI 35bb7 .cfa: $rbp 16 +
STACK CFI 35bbc $rbx: .cfa -24 + ^
STACK CFI 35bf1 .cfa: $rsp 8 +
STACK CFI 35bf8 .cfa: $rbp 16 +
STACK CFI INIT 35c50 95 .cfa: $rsp 8 + .ra: .cfa -8 + ^
STACK CFI 35c51 $rbp: .cfa -16 + ^ .cfa: $rsp 16 +
STACK CFI 35c57 .cfa: $rbp 16 +
STACK CFI 35c5c $rbx: .cfa -24 + ^
STACK CFI 35c91 .cfa: $rsp 8 +
STACK CFI 35c98 .cfa: $rbp 16 +
STACK CFI INIT 35cf0 e8 .cfa: $rsp 8 + .ra: .cfa -8 + ^
STACK CFI 35cf1 $rbp: .cfa -16 + ^ .cfa: $rsp 16 +
STACK CFI 35cf7 .cfa: $rbp 16 +
STACK CFI 35cf9 $r13: .cfa -24 + ^
STACK CFI 35cfe $r12: .cfa -32 + ^
STACK CFI 35d06 $rbx: .cfa -40 + ^
STACK CFI 35da3 .cfa: $rsp 8 +
STACK CFI 35da8 .cfa: $rbp 16 +
STACK CFI INIT 35de0 108 .cfa: $rsp 8 + .ra: .cfa -8 + ^
STACK CFI 35de1 $rbp: .cfa -16 + ^ .cfa: $rsp 16 +
STACK CFI 35de7 .cfa: $rbp 16 +
STACK CFI 35de9 $r13: .cfa -24 + ^
STACK CFI 35dee $r12: .cfa -32 + ^
STACK CFI 35df6 $rbx: .cfa -40 + ^
STACK CFI 35eb3 .cfa: $rsp 8 +
STACK CFI 35eb8 .cfa: $rbp 16 +
STACK CFI INIT 35ef0 13d .cfa: $rsp 8 + .ra: .cfa -8 + ^
STACK CFI 35ef1 $rbp: .cfa -16 + ^ .cfa: $rsp 16 +
STACK CFI 35ef4 .cfa: $rbp 16 +
STACK CFI 35ef8 $r13: .cfa -32 + ^ $r14: .cfa -24 + ^
STACK CFI 35f05 $r12: .cfa -40 + ^
STACK CFI 35f0c $rbx: .cfa -48 + ^
STACK CFI 35fba .cfa: $rsp 8 +
STACK CFI 35fc0 .cfa: $rbp 16 +
STACK CFI 36004 .cfa: $rsp 8 +
STACK CFI 36008 .cfa: $rbp 16 +
STACK CFI INIT 36030 13d .cfa: $rsp 8 + .ra: .cfa -8 + ^
STACK CFI 36031 $rbp: .cfa -16 + ^ .cfa: $rsp 16 +
STACK CFI 36034 .cfa: $rbp 16 +
STACK CFI 36038 $r13: .cfa -32 + ^ $r14: .cfa -24 + ^
STACK CFI 36045 $r12: .cfa -40 + ^
STACK CFI 3604c $rbx: .cfa -48 + ^
STACK CFI 360fa .cfa: $rsp 8 +
STACK CFI 36100 .cfa: $rbp 16 +
STACK CFI 36144 .cfa: $rsp 8 +
STACK CFI 36148 .cfa: $rbp 16 +
STACK CFI INIT 36170 18c .cfa: $rsp 8 + .ra: .cfa -8 + ^
STACK CFI 36171 $rbp: .cfa -16 + ^ .cfa: $rsp 16 +
STACK CFI 3617a .cfa: $rbp 16 +
STACK CFI 3617c $r15: .cfa -24 + ^
STACK CFI 36181 $r14: .cfa -32 + ^
STACK CFI 36186 $r13: .cfa -40 + ^
STACK CFI 36190 $r12: .cfa -48 + ^ $rbx: .cfa -56 + ^
STACK CFI 362bf .cfa: $rsp 8 +
STACK CFI 362c0 .cfa: $rbp 16 +
STACK CFI INIT 36300 1d0 .cfa: $rsp 8 + .ra: .cfa -8 + ^
STACK CFI 36301 $rbp: .cfa -16 + ^ .cfa: $rsp 16 +
STACK CFI 36307 .cfa: $rbp 16 +
STACK CFI 3630d $r13: .cfa -40 + ^ $r14: .cfa -32 + ^ $r15: .cfa -24 + ^
STACK CFI 36312 $r12: .cfa -48 + ^
STACK CFI 3631a $rbx: .cfa -56 + ^
STACK CFI 36431 .cfa: $rsp 8 +
STACK CFI 36438 .cfa: $rbp 16 +
STACK CFI 364a4 .cfa: $rsp 8 +
STACK CFI 364a8 .cfa: $rbp 16 +
STACK CFI INIT 364d0 230 .cfa: $rsp 8 + .ra: .cfa -8 + ^
STACK CFI 364d1 $rbp: .cfa -16 + ^ .cfa: $rsp 16 +
STACK CFI 364d7 .cfa: $rbp 16 +
STACK CFI 364db $r14: .cfa -32 + ^ $r15: .cfa -24 + ^
STACK CFI 364e0 $r13: .cfa -40 + ^
STACK CFI 364e5 $r12: .cfa -48 + ^
STACK CFI 364ed $rbx: .cfa -56 + ^
STACK CFI 36637 .cfa: $rsp 8 +
STACK CFI 36640 .cfa: $rbp 16 +
STACK CFI 3669d .cfa: $rsp 8 +
STACK CFI 366a0 .cfa: $rbp 16 +
STACK CFI INIT 36700 60 .cfa: $rsp 8 + .ra: .cfa -8 + ^
STACK CFI 36701 $rbp: .cfa -16 + ^ .cfa: $rsp 16 +
STACK CFI 36709 .cfa: $rbp 16 +
STACK CFI 3670a $rbx: .cfa -24 + ^
STACK CFI 3674b .cfa: $rsp 8 +
STACK CFI 36750 .cfa: $rbp 16 +
STACK CFI INIT 36760 98 .cfa: $rsp 8 + .ra: .cfa -8 + ^
STACK CFI 36761 $rbp: .cfa -16 + ^ .cfa: $rsp 16 +
STACK CFI 36764 .cfa: $rbp 16 +
STACK CFI 36766 $r12: .cfa -24 + ^
STACK CFI 3676b $rbx: .cfa -32 + ^
STACK CFI 367c8 .cfa: $rsp 8 +
STACK CFI 367d0 .cfa: $rbp 16 +
STACK CFI 367f7 .cfa: $rsp 8 +
STACK CFI INIT 36800 10a .cfa: $rsp 8 + .ra: .cfa -8 + ^
STACK CFI 36801 $rbp: .cfa -16 + ^ .cfa: $rsp 16 +
STACK CFI 36804 .cfa: $rbp 16 +
STACK CFI 36806 $r13: .cfa -24 + ^
STACK CFI 36810 $r12: .cfa -32 + ^ $rbx: .cfa -40 + ^
STACK CFI 36897 .cfa: $rsp 8 +
STACK CFI 368a0 .cfa: $rbp 16 +
STACK CFI INIT 36910 ae .cfa: $rsp 8 + .ra: .cfa -8 + ^
STACK CFI 36911 $rbp: .cfa -16 + ^ .cfa: $rsp 16 +
STACK CFI 36914 .cfa: $rbp 16 +
STACK CFI 36916 $r12: .cfa -24 + ^
STACK CFI 3691b $rbx: .cfa -32 + ^
STACK CFI 3695e .cfa: $rsp 8 +
STACK CFI 36960 .cfa: $rbp 16 +
STACK CFI INIT 369c0 b6d .cfa: $rsp 8 + .ra: .cfa -8 + ^
STACK CFI 369c1 $rbp: .cfa -16 + ^ .cfa: $rsp 16 +
STACK CFI 369c4 .cfa: $rbp 16 +
STACK CFI 369c8 $r14: .cfa -32 + ^ $r15: .cfa -24 + ^
STACK CFI 369d0 $r12: .cfa -48 + ^ $r13: .cfa -40 + ^ $rbx: .cfa -56 + ^
STACK CFI 36a66 .cfa: $rsp 8 +
STACK CFI 36a70 .cfa: $rbp 16 +
STACK CFI INIT 37530 50a .cfa: $rsp 8 + .ra: .cfa -8 + ^
STACK CFI 37531 $rbp: .cfa -16 + ^ .cfa: $rsp 16 +
STACK CFI 37537 .cfa: $rbp 16 +
STACK CFI 3753e $r12: .cfa -40 + ^ $r13: .cfa -32 + ^ $r14: .cfa -24 + ^ $rbx: .cfa -48 + ^
STACK CFI 3759a .cfa: $rsp 8 +
STACK CFI 375a0 .cfa: $rbp 16 +
STACK CFI 37624 .cfa: $rsp 8 +
STACK CFI 37625 .cfa: $rbp 16 +
STACK CFI INIT 37a40 76 .cfa: $rsp 8 + .ra: .cfa -8 + ^
STACK CFI 37a41 $rbp: .cfa -16 + ^ .cfa: $rsp 16 +
STACK CFI 37a44 .cfa: $rbp 16 +
STACK CFI 37a46 $r12: .cfa -24 + ^
STACK CFI 37a4a $rbx: .cfa -32 + ^
STACK CFI 37ab0 .cfa: $rsp 8 +
STACK CFI 37ab1 .cfa: $rbp 16 +
STACK CFI INIT 37ac0 5d .cfa: $rsp 8 + .ra: .cfa -8 + ^
STACK CFI 37ac1 $rbp: .cfa -16 + ^ .cfa: $rsp 16 +
STACK CFI 37ac4 .cfa: $rbp 16 +
STACK CFI 37ac6 $r12: .cfa -24 + ^
STACK CFI 37aca $rbx: .cfa -32 + ^
STACK CFI 37b17 .cfa: $rsp 8 +
STACK CFI 37b18 .cfa: $rbp 16 +
STACK CFI INIT 37b20 6e .cfa: $rsp 8 + .ra: .cfa -8 + ^
STACK CFI INIT 37b90 78 .cfa: $rsp 8 + .ra: .cfa -8 + ^
STACK CFI 37b91 $rbp: .cfa -16 + ^ .cfa: $rsp 16 +
STACK CFI 37b94 .cfa: $rbp 16 +
STACK CFI 37b96 $r12: .cfa -24 + ^
STACK CFI 37b9b $rbx: .cfa -32 + ^
STACK CFI 37bdb .cfa: $rsp 8 +
STACK CFI 37be0 .cfa: $rbp 16 +
STACK CFI 37c07 .cfa: $rsp 8 +
STACK CFI INIT 37c10 6f .cfa: $rsp 8 + .ra: .cfa -8 + ^
STACK CFI 37c11 $rbp: .cfa -16 + ^ .cfa: $rsp 16 +
STACK CFI 37c14 .cfa: $rbp 16 +
STACK CFI 37c16 $r12: .cfa -24 + ^
STACK CFI 37c1a $rbx: .cfa -32 + ^
STACK CFI 37c6c .cfa: $rsp 8 +
STACK CFI 37c70 .cfa: $rbp 16 +
STACK CFI INIT 37c80 7f .cfa: $rsp 8 + .ra: .cfa -8 + ^
STACK CFI 37c81 $rbp: .cfa -16 + ^ .cfa: $rsp 16 +
STACK CFI 37c84 .cfa: $rbp 16 +
STACK CFI 37c88 $r12: .cfa -32 + ^ $r13: .cfa -24 + ^
STACK CFI 37c90 $rbx: .cfa -40 + ^
STACK CFI 37cf9 .cfa: $rsp 8 +
STACK CFI 37cfa .cfa: $rbp 16 +
STACK CFI INIT 37d00 7f .cfa: $rsp 8 + .ra: .cfa -8 + ^
STACK CFI 37d01 $rbp: .cfa -16 + ^ .cfa: $rsp 16 +
STACK CFI 37d04 .cfa: $rbp 16 +
STACK CFI 37d08 $r12: .cfa -32 + ^ $r13: .cfa -24 + ^
STACK CFI 37d10 $rbx: .cfa -40 + ^
STACK CFI 37d79 .cfa: $rsp 8 +
STACK CFI 37d7a .cfa: $rbp 16 +
STACK CFI INIT 37d80 7f .cfa: $rsp 8 + .ra: .cfa -8 + ^
STACK CFI 37d81 $rbp: .cfa -16 + ^ .cfa: $rsp 16 +
STACK CFI 37d84 .cfa: $rbp 16 +
STACK CFI 37d88 $r12: .cfa -32 + ^ $r13: .cfa -24 + ^
STACK CFI 37d90 $rbx: .cfa -40 + ^
STACK CFI 37df9 .cfa: $rsp 8 +
STACK CFI 37dfa .cfa: $rbp 16 +
STACK CFI INIT 37e00 7f .cfa: $rsp 8 + .ra: .cfa -8 + ^
STACK CFI 37e01 $rbp: .cfa -16 + ^ .cfa: $rsp 16 +
STACK CFI 37e04 .cfa: $rbp 16 +
STACK CFI 37e08 $r12: .cfa -32 + ^ $r13: .cfa -24 + ^
STACK CFI 37e10 $rbx: .cfa -40 + ^
STACK CFI 37e79 .cfa: $rsp 8 +
STACK CFI 37e7a .cfa: $rbp 16 +
STACK CFI INIT 37e80 7f .cfa: $rsp 8 + .ra: .cfa -8 + ^
STACK CFI 37e81 $rbp: .cfa -16 + ^ .cfa: $rsp 16 +
STACK CFI 37e84 .cfa: $rbp 16 +
STACK CFI 37e88 $r12: .cfa -32 + ^ $r13: .cfa -24 + ^
STACK CFI 37e90 $rbx: .cfa -40 + ^
STACK CFI 37ef9 .cfa: $rsp 8 +
STACK CFI 37efa .cfa: $rbp 16 +
STACK CFI INIT 37f00 7f .cfa: $rsp 8 + .ra: .cfa -8 + ^
STACK CFI 37f01 $rbp: .cfa -16 + ^ .cfa: $rsp 16 +
STACK CFI 37f04 .cfa: $rbp 16 +
STACK CFI 37f08 $r12: .cfa -32 + ^ $r13: .cfa -24 + ^
STACK CFI 37f10 $rbx: .cfa -40 + ^
STACK CFI 37f79 .cfa: $rsp 8 +
STACK CFI 37f7a .cfa: $rbp 16 +
STACK CFI INIT 37f80 57 .cfa: $rsp 8 + .ra: .cfa -8 + ^
STACK CFI 37f81 $rbp: .cfa -16 + ^ .cfa: $rsp 16 +
STACK CFI 37f84 .cfa: $rbp 16 +
STACK CFI 37f86 $r12: .cfa -24 + ^
STACK CFI 37f8a $rbx: .cfa -32 + ^
STACK CFI 37fd1 .cfa: $rsp 8 +
STACK CFI 37fd2 .cfa: $rbp 16 +
STACK CFI INIT 37fe0 116 .cfa: $rsp 8 + .ra: .cfa -8 + ^
STACK CFI 37fe1 $rbp: .cfa -16 + ^ .cfa: $rsp 16 +
STACK CFI 37fe4 .cfa: $rbp 16 +
STACK CFI 37fe6 $r12: .cfa -24 + ^
STACK CFI 37fea $rbx: .cfa -32 + ^
STACK CFI 3803c .cfa: $rsp 8 +
STACK CFI 38040 .cfa: $rbp 16 +
STACK CFI 38069 .cfa: $rsp 8 +
STACK CFI 38070 .cfa: $rbp 16 +
STACK CFI INIT 38100 57 .cfa: $rsp 8 + .ra: .cfa -8 + ^
STACK CFI 38101 $rbp: .cfa -16 + ^ .cfa: $rsp 16 +
STACK CFI 38104 .cfa: $rbp 16 +
STACK CFI 3810b $r12: .cfa -40 + ^ $r13: .cfa -32 + ^ $r14: .cfa -24 + ^ $rbx: .cfa -48 + ^
STACK CFI 38156 .cfa: $rsp 8 +
STACK CFI INIT 38160 ca .cfa: $rsp 8 + .ra: .cfa -8 + ^
STACK CFI 38161 $rbp: .cfa -16 + ^ .cfa: $rsp 16 +
STACK CFI 38164 .cfa: $rbp 16 +
STACK CFI 38166 $r14: .cfa -24 + ^
STACK CFI 3816b $r13: .cfa -32 + ^
STACK CFI 38170 $r12: .cfa -40 + ^
STACK CFI 38174 $rbx: .cfa -48 + ^
STACK CFI 381cf .cfa: $rsp 8 +
STACK CFI 381d0 .cfa: $rbp 16 +
STACK CFI 381e6 .cfa: $rsp 8 +
STACK CFI 381f0 .cfa: $rbp 16 +
STACK CFI 38229 .cfa: $rsp 8 +
STACK CFI INIT 38230 ae .cfa: $rsp 8 + .ra: .cfa -8 + ^
STACK CFI 38231 $rbp: .cfa -16 + ^ .cfa: $rsp 16 +
STACK CFI 38234 .cfa: $rbp 16 +
STACK CFI 3823d $r12: .cfa -32 + ^ $r13: .cfa -24 + ^ $rbx: .cfa -40 + ^
STACK CFI 38285 .cfa: $rsp 8 +
STACK CFI 38290 .cfa: $rbp 16 +
STACK CFI 382a5 .cfa: $rsp 8 +
STACK CFI 382b0 .cfa: $rbp 16 +
STACK CFI 382c7 .cfa: $rsp 8 +
STACK CFI 382d0 .cfa: $rbp 16 +
STACK CFI INIT 382e0 68 .cfa: $rsp 8 + .ra: .cfa -8 + ^
STACK CFI 382e1 $rbp: .cfa -16 + ^ .cfa: $rsp 16 +
STACK CFI 382e4 .cfa: $rbp 16 +
STACK CFI 382ea $r12: .cfa -40 + ^ $r13: .cfa -32 + ^ $r14: .cfa -24 + ^
STACK CFI 382ee $rbx: .cfa -48 + ^
STACK CFI 38347 .cfa: $rsp 8 +
STACK CFI INIT 38350 f0 .cfa: $rsp 8 + .ra: .cfa -8 + ^
STACK CFI 38351 $rbp: .cfa -16 + ^ .cfa: $rsp 16 +
STACK CFI 38354 .cfa: $rbp 16 +
STACK CFI 38356 $r15: .cfa -24 + ^
STACK CFI 3835b $r14: .cfa -32 + ^
STACK CFI 38361 $r13: .cfa -40 + ^
STACK CFI 3836b $r12: .cfa -48 + ^ $rbx: .cfa -56 + ^
STACK CFI 38433 .cfa: $rsp 8 +
STACK CFI 38438 .cfa: $rbp 16 +
STACK CFI INIT 38440 1b .cfa: $rsp 8 + .ra: .cfa -8 + ^
STACK CFI 38441 $rbp: .cfa -16 + ^ .cfa: $rsp 16 +
STACK CFI 3844f .cfa: $rbp 16 +
STACK CFI 3845a .cfa: $rsp 8 +
STACK CFI INIT 38460 8e .cfa: $rsp 8 + .ra: .cfa -8 + ^
STACK CFI 38461 $rbp: .cfa -16 + ^ .cfa: $rsp 16 +
STACK CFI 38464 .cfa: $rbp 16 +
STACK CFI 38468 $r12: .cfa -32 + ^ $r13: .cfa -24 + ^
STACK CFI 38470 $rbx: .cfa -40 + ^
STACK CFI 384b0 .cfa: $rsp 8 +
STACK CFI 384b8 .cfa: $rbp 16 +
STACK CFI 384ed .cfa: $rsp 8 +
STACK CFI INIT 384f0 4a .cfa: $rsp 8 + .ra: .cfa -8 + ^
STACK CFI 384f1 $rbp: .cfa -16 + ^ .cfa: $rsp 16 +
STACK CFI 384f4 .cfa: $rbp 16 +
STACK CFI 384f7 $r12: .cfa -24 + ^ $rbx: .cfa -32 + ^
STACK CFI 3852b .cfa: $rsp 8 +
STACK CFI 38530 .cfa: $rbp 16 +
STACK CFI 38539 .cfa: $rsp 8 +
STACK CFI INIT 38540 1d .cfa: $rsp 8 + .ra: .cfa -8 + ^
STACK CFI INIT 38560 23 .cfa: $rsp 8 + .ra: .cfa -8 + ^
STACK CFI INIT 38590 15 .cfa: $rsp 8 + .ra: .cfa -8 + ^
STACK CFI INIT 385b0 133 .cfa: $rsp 8 + .ra: .cfa -8 + ^
STACK CFI 385c1 $rbp: .cfa -16 + ^ .cfa: $rsp 16 +
STACK CFI 385c9 .cfa: $rbp 16 +
STACK CFI 385d2 $r12: .cfa -32 + ^ $r13: .cfa -24 + ^ $rbx: .cfa -40 + ^
STACK CFI 38659 .cfa: $rsp 8 +
STACK CFI 38660 .cfa: $rbp 16 +
STACK CFI INIT 386f0 ff .cfa: $rsp 8 + .ra: .cfa -8 + ^
STACK CFI 386f1 $rbp: .cfa -16 + ^ .cfa: $rsp 16 +
STACK CFI 386f4 .cfa: $rbp 16 +
STACK CFI 386fd $r12: .cfa -32 + ^ $r13: .cfa -24 + ^ $rbx: .cfa -40 + ^
STACK CFI 387b0 .cfa: $rsp 8 +
STACK CFI 387b8 .cfa: $rbp 16 +
STACK CFI 387ee .cfa: $rsp 8 +
STACK CFI INIT 387f0 378 .cfa: $rsp 8 + .ra: .cfa -8 + ^
STACK CFI 387f1 $rbp: .cfa -16 + ^ .cfa: $rsp 16 +
STACK CFI 387f4 .cfa: $rbp 16 +
STACK CFI 387fd $r12: .cfa -48 + ^ $r13: .cfa -40 + ^ $r14: .cfa -32 + ^ $r15: .cfa -24 + ^ $rbx: .cfa -56 + ^
STACK CFI 389c4 .cfa: $rsp 8 +
STACK CFI 389c8 .cfa: $rbp 16 +
STACK CFI INIT 38b70 7 .cfa: $rsp 8 + .ra: .cfa -8 + ^
STACK CFI INIT 38b80 316 .cfa: $rsp 8 + .ra: .cfa -8 + ^
STACK CFI 38b81 $rbp: .cfa -16 + ^ .cfa: $rsp 16 +
STACK CFI 38b84 .cfa: $rbp 16 +
STACK CFI 38b88 $r14: .cfa -32 + ^ $r15: .cfa -24 + ^
STACK CFI 38b97 $r12: .cfa -48 + ^ $r13: .cfa -40 + ^ $rbx: .cfa -56 + ^
STACK CFI 38c8e .cfa: $rsp 8 +
STACK CFI 38c90 .cfa: $rbp 16 +
STACK CFI INIT 38ea0 7 .cfa: $rsp 8 + .ra: .cfa -8 + ^
STACK CFI INIT 38eb0 d9 .cfa: $rsp 8 + .ra: .cfa -8 + ^
STACK CFI 38eb1 $rbp: .cfa -16 + ^ .cfa: $rsp 16 +
STACK CFI 38eb4 .cfa: $rbp 16 +
STACK CFI 38ebd $r12: .cfa -32 + ^ $r13: .cfa -24 + ^ $rbx: .cfa -40 + ^
STACK CFI 38f5b .cfa: $rsp 8 +
STACK CFI 38f60 .cfa: $rbp 16 +
STACK CFI 38f7f .cfa: $rsp 8 +
STACK CFI 38f80 .cfa: $rbp 16 +
STACK CFI INIT 38f90 30d .cfa: $rsp 8 + .ra: .cfa -8 + ^
STACK CFI 38f91 $rbp: .cfa -16 + ^ .cfa: $rsp 16 +
STACK CFI 38f94 .cfa: $rbp 16 +
STACK CFI 38f96 $r15: .cfa -24 + ^
STACK CFI 38fa7 $r12: .cfa -48 + ^ $r13: .cfa -40 + ^ $r14: .cfa -32 + ^ $rbx: .cfa -56 + ^
STACK CFI 39115 .cfa: $rsp 8 +
STACK CFI 39120 .cfa: $rbp 16 +
STACK CFI INIT 392a0 7 .cfa: $rsp 8 + .ra: .cfa -8 + ^
STACK CFI INIT 392b0 2b7 .cfa: $rsp 8 + .ra: .cfa -8 + ^
STACK CFI 392b1 $rbp: .cfa -16 + ^ .cfa: $rsp 16 +
STACK CFI 392b4 .cfa: $rbp 16 +
STACK CFI 392b8 $r14: .cfa -32 + ^ $r15: .cfa -24 + ^
STACK CFI 392c7 $r12: .cfa -48 + ^ $r13: .cfa -40 + ^ $rbx: .cfa -56 + ^
STACK CFI 39409 .cfa: $rsp 8 +
STACK CFI 39410 .cfa: $rbp 16 +
STACK CFI INIT 39570 7 .cfa: $rsp 8 + .ra: .cfa -8 + ^
STACK CFI INIT 39580 621 .cfa: $rsp 8 + .ra: .cfa -8 + ^
STACK CFI 39581 $rbp: .cfa -16 + ^ .cfa: $rsp 16 +
STACK CFI 39584 .cfa: $rbp 16 +
STACK CFI 3958d $r12: .cfa -48 + ^ $r13: .cfa -40 + ^ $r14: .cfa -32 + ^ $r15: .cfa -24 + ^ $rbx: .cfa -56 + ^
STACK CFI 3993d .cfa: $rsp 8 +
STACK CFI 3993e .cfa: $rbp 16 +
STACK CFI INIT 39bb0 19d .cfa: $rsp 8 + .ra: .cfa -8 + ^
STACK CFI 39bb1 $rbp: .cfa -16 + ^ .cfa: $rsp 16 +
STACK CFI 39bb4 .cfa: $rbp 16 +
STACK CFI 39bb6 $r12: .cfa -24 + ^
STACK CFI 39bee .cfa: $rsp 8 +
STACK CFI 39bef .cfa: $rbp 16 +
STACK CFI 39c03 .cfa: $rsp 8 +
STACK CFI 39c08 .cfa: $rbp 16 +
STACK CFI 39c1c .cfa: $rsp 8 +
STACK CFI 39c21 .cfa: $rbp 16 +
STACK CFI 39c35 .cfa: $rsp 8 +
STACK CFI 39c3a .cfa: $rbp 16 +
STACK CFI 39c4e .cfa: $rsp 8 +
STACK CFI 39c53 .cfa: $rbp 16 +
STACK CFI 39c67 .cfa: $rsp 8 +
STACK CFI 39c6c .cfa: $rbp 16 +
STACK CFI 39c80 .cfa: $rsp 8 +
STACK CFI 39c85 .cfa: $rbp 16 +
STACK CFI 39c99 .cfa: $rsp 8 +
STACK CFI 39c9e .cfa: $rbp 16 +
STACK CFI 39cb2 .cfa: $rsp 8 +
STACK CFI 39cb7 .cfa: $rbp 16 +
STACK CFI 39ccb .cfa: $rsp 8 +
STACK CFI 39cd0 .cfa: $rbp 16 +
STACK CFI 39ce4 .cfa: $rsp 8 +
STACK CFI 39ce9 .cfa: $rbp 16 +
STACK CFI 39cfd .cfa: $rsp 8 +
STACK CFI 39d02 .cfa: $rbp 16 +
STACK CFI 39d16 .cfa: $rsp 8 +
STACK CFI 39d1b .cfa: $rbp 16 +
STACK CFI 39d2f .cfa: $rsp 8 +
STACK CFI 39d34 .cfa: $rbp 16 +
STACK CFI 39d48 .cfa: $rsp 8 +
STACK CFI INIT 39d50 231 .cfa: $rsp 8 + .ra: .cfa -8 + ^
STACK CFI 39d51 $rbp: .cfa -16 + ^ .cfa: $rsp 16 +
STACK CFI 39d54 .cfa: $rbp 16 +
STACK CFI 39d56 $r12: .cfa -24 + ^
STACK CFI 39d5a $rbx: .cfa -32 + ^
STACK CFI 39dfc .cfa: $rsp 8 +
STACK CFI 39e00 .cfa: $rbp 16 +
STACK CFI 39e45 .cfa: $rsp 8 +
STACK CFI 39e50 .cfa: $rbp 16 +
STACK CFI 39ec3 .cfa: $rsp 8 +
STACK CFI 39ec8 .cfa: $rbp 16 +
STACK CFI INIT 39f90 12f .cfa: $rsp 8 + .ra: .cfa -8 + ^
STACK CFI 39f9a $rbp: .cfa -16 + ^ .cfa: $rsp 16 +
STACK CFI 39f9d .cfa: $rbp 16 +
STACK CFI 39f9f $r12: .cfa -24 + ^
STACK CFI 39fb4 .cfa: $rsp 8 +
STACK CFI 39fb8 .cfa: $rbp 16 +
STACK CFI 3a050 $r12: $r12 $rbp: $rbp .cfa: $rsp 8 +
STACK CFI 3a058 $r12: .cfa -24 + ^ $rbp: .cfa -16 + ^ .cfa: $rbp 16 +
STACK CFI 3a0b9 $r12: $r12
STACK CFI 3a0ba $rbp: $rbp .cfa: $rsp 8 +
STACK CFI INIT 3a0c0 40e .cfa: $rsp 8 + .ra: .cfa -8 + ^
STACK CFI 3a0c1 $rbp: .cfa -16 + ^ .cfa: $rsp 16 +
STACK CFI 3a0c4 .cfa: $rbp 16 +
STACK CFI 3a0c6 $r15: .cfa -24 + ^
STACK CFI 3a0d7 $r12: .cfa -48 + ^ $r13: .cfa -40 + ^ $r14: .cfa -32 + ^ $rbx: .cfa -56 + ^
STACK CFI 3a274 .cfa: $rsp 8 +
STACK CFI 3a278 .cfa: $rbp 16 +
STACK CFI INIT 3a4d0 2c3 .cfa: $rsp 8 + .ra: .cfa -8 + ^
STACK CFI 3a4d1 $rbp: .cfa -16 + ^ .cfa: $rsp 16 +
STACK CFI 3a4d9 .cfa: $rbp 16 +
STACK CFI 3a4db $r15: .cfa -24 + ^
STACK CFI 3a4f1 $r12: .cfa -48 + ^ $r13: .cfa -40 + ^ $r14: .cfa -32 + ^ $rbx: .cfa -56 + ^
STACK CFI 3a5cb .cfa: $rsp 8 +
STACK CFI 3a5d0 .cfa: $rbp 16 +
STACK CFI INIT 3a7a0 69 .cfa: $rsp 8 + .ra: .cfa -8 + ^
STACK CFI 3a7a1 $rbp: .cfa -16 + ^ .cfa: $rsp 16 +
STACK CFI 3a7a4 .cfa: $rbp 16 +
STACK CFI 3a7ae $r12: .cfa -40 + ^ $r13: .cfa -32 + ^ $r14: .cfa -24 + ^
STACK CFI 3a7e2 .cfa: $rsp 8 +
STACK CFI 3a7f0 .cfa: $rbp 16 +
STACK CFI 3a808 .cfa: $rsp 8 +
STACK CFI INIT 3a810 1e4 .cfa: $rsp 8 + .ra: .cfa -8 + ^
STACK CFI 3a811 $rbp: .cfa -16 + ^ .cfa: $rsp 16 +
STACK CFI 3a814 .cfa: $rbp 16 +
STACK CFI 3a824 $r12: .cfa -48 + ^ $r13: .cfa -40 + ^ $r14: .cfa -32 + ^ $r15: .cfa -24 + ^ $rbx: .cfa -56 + ^
STACK CFI 3a952 .cfa: $rsp 8 +
STACK CFI 3a958 .cfa: $rbp 16 +
STACK CFI INIT 3aa00 216 .cfa: $rsp 8 + .ra: .cfa -8 + ^
STACK CFI 3aa01 $rbp: .cfa -16 + ^ .cfa: $rsp 16 +
STACK CFI 3aa04 .cfa: $rbp 16 +
STACK CFI 3aa0a $r13: .cfa -40 + ^ $r14: .cfa -32 + ^ $r15: .cfa -24 + ^
STACK CFI 3aa17 $r12: .cfa -48 + ^ $rbx: .cfa -56 + ^
STACK CFI 3aa53 .cfa: $rsp 8 +
STACK CFI 3aa54 .cfa: $rbp 16 +
STACK CFI INIT 1cd8a 10 $r12: .cfa -48 + ^ $r13: .cfa -40 + ^ $r14: .cfa -32 + ^ $r15: .cfa -24 + ^ $rbp: .cfa -16 + ^ $rbx: .cfa -56 + ^ .cfa: $rbp 16 + .ra: .cfa -8 + ^
STACK CFI INIT 3ac20 24c .cfa: $rsp 8 + .ra: .cfa -8 + ^
STACK CFI 3ac21 $rbp: .cfa -16 + ^ .cfa: $rsp 16 +
STACK CFI 3ac24 .cfa: $rbp 16 +
STACK CFI 3ac26 $r12: .cfa -24 + ^
STACK CFI 3ac5e .cfa: $rsp 8 +
STACK CFI 3ac5f .cfa: $rbp 16 +
STACK CFI 3ac73 .cfa: $rsp 8 +
STACK CFI 3ac78 .cfa: $rbp 16 +
STACK CFI 3ac8c .cfa: $rsp 8 +
STACK CFI 3ac91 .cfa: $rbp 16 +
STACK CFI 3aca5 .cfa: $rsp 8 +
STACK CFI 3acaa .cfa: $rbp 16 +
STACK CFI 3acbe .cfa: $rsp 8 +
STACK CFI 3acc3 .cfa: $rbp 16 +
STACK CFI 3acd7 .cfa: $rsp 8 +
STACK CFI 3acdc .cfa: $rbp 16 +
STACK CFI 3acf0 .cfa: $rsp 8 +
STACK CFI 3acf5 .cfa: $rbp 16 +
STACK CFI 3ad09 .cfa: $rsp 8 +
STACK CFI 3ad0e .cfa: $rbp 16 +
STACK CFI 3ad22 .cfa: $rsp 8 +
STACK CFI 3ad27 .cfa: $rbp 16 +
STACK CFI 3ad3b .cfa: $rsp 8 +
STACK CFI 3ad40 .cfa: $rbp 16 +
STACK CFI 3ad54 .cfa: $rsp 8 +
STACK CFI 3ad59 .cfa: $rbp 16 +
STACK CFI 3ad6d .cfa: $rsp 8 +
STACK CFI 3ad72 .cfa: $rbp 16 +
STACK CFI 3ad86 .cfa: $rsp 8 +
STACK CFI 3ad8b .cfa: $rbp 16 +
STACK CFI 3ad9f .cfa: $rsp 8 +
STACK CFI 3ada4 .cfa: $rbp 16 +
STACK CFI 3adb8 .cfa: $rsp 8 +
STACK CFI 3adbd .cfa: $rbp 16 +
STACK CFI 3add1 .cfa: $rsp 8 +
STACK CFI 3add6 .cfa: $rbp 16 +
STACK CFI 3adea .cfa: $rsp 8 +
STACK CFI 3adef .cfa: $rbp 16 +
STACK CFI 3ae03 .cfa: $rsp 8 +
STACK CFI 3ae08 .cfa: $rbp 16 +
STACK CFI 3ae1c .cfa: $rsp 8 +
STACK CFI 3ae21 .cfa: $rbp 16 +
STACK CFI 3ae35 .cfa: $rsp 8 +
STACK CFI 3ae3a .cfa: $rbp 16 +
STACK CFI 3ae4e .cfa: $rsp 8 +
STACK CFI 3ae53 .cfa: $rbp 16 +
STACK CFI 3ae67 .cfa: $rsp 8 +
STACK CFI INIT 3ae70 97 .cfa: $rsp 8 + .ra: .cfa -8 + ^
STACK CFI 3ae71 $rbp: .cfa -16 + ^ .cfa: $rsp 16 +
STACK CFI 3ae74 .cfa: $rbp 16 +
STACK CFI 3ae78 $r12: .cfa -32 + ^ $r13: .cfa -24 + ^
STACK CFI 3ae80 $rbx: .cfa -40 + ^
STACK CFI 3aeaf .cfa: $rsp 8 +
STACK CFI 3aeb0 .cfa: $rbp 16 +
STACK CFI 3aee2 .cfa: $rsp 8 +
STACK CFI 3aee8 .cfa: $rbp 16 +
STACK CFI INIT 3af10 98 .cfa: $rsp 8 + .ra: .cfa -8 + ^
STACK CFI 3af16 $rbp: .cfa -16 + ^ .cfa: $rsp 16 +
STACK CFI 3af19 .cfa: $rbp 16 +
STACK CFI 3af1b $r12: .cfa -24 + ^
STACK CFI 3af1f $rbx: .cfa -32 + ^
STACK CFI 3af76 .cfa: $rsp 8 +
STACK CFI 3af80 $r12: $r12 $rbp: $rbp $rbx: $rbx
STACK CFI 3af88 $r12: .cfa -24 + ^ $rbp: .cfa -16 + ^ $rbx: .cfa -32 + ^ .cfa: $rbp 16 +
STACK CFI 3af89 $rbx: $rbx
STACK CFI 3af8e $r12: $r12
STACK CFI 3af8f $rbp: $rbp .cfa: $rsp 8 +
STACK CFI 3af98 $r12: .cfa -24 + ^ $rbp: .cfa -16 + ^ $rbx: .cfa -32 + ^ .cfa: $rbp 16 +
STACK CFI INIT 3afb0 93 .cfa: $rsp 8 + .ra: .cfa -8 + ^
STACK CFI 3afb1 $rbp: .cfa -16 + ^ .cfa: $rsp 16 +
STACK CFI 3afb4 .cfa: $rbp 16 +
STACK CFI 3afbe $r12: .cfa -40 + ^ $r13: .cfa -32 + ^ $r14: .cfa -24 + ^
STACK CFI 3affe .cfa: $rsp 8 +
STACK CFI 3b008 .cfa: $rbp 16 +
STACK CFI 3b020 .cfa: $rsp 8 +
STACK CFI 3b028 .cfa: $rbp 16 +
STACK CFI 3b03e .cfa: $rsp 8 +
STACK CFI INIT 3b050 258 .cfa: $rsp 8 + .ra: .cfa -8 + ^
STACK CFI 3b051 $rbp: .cfa -16 + ^ .cfa: $rsp 16 +
STACK CFI 3b054 .cfa: $rbp 16 +
STACK CFI 3b058 $r14: .cfa -32 + ^ $r15: .cfa -24 + ^
STACK CFI 3b05d $r13: .cfa -40 + ^
STACK CFI 3b06a $r12: .cfa -48 + ^ $rbx: .cfa -56 + ^
STACK CFI 3b1eb .cfa: $rsp 8 +
STACK CFI 3b1f0 .cfa: $rbp 16 +
STACK CFI INIT 3b2b0 ff .cfa: $rsp 8 + .ra: .cfa -8 + ^
STACK CFI 3b2b1 $rbp: .cfa -16 + ^ .cfa: $rsp 16 +
STACK CFI 3b2b4 .cfa: $rbp 16 +
STACK CFI 3b2bd $r12: .cfa -32 + ^ $r13: .cfa -24 + ^ $rbx: .cfa -40 + ^
STACK CFI 3b370 .cfa: $rsp 8 +
STACK CFI 3b378 .cfa: $rbp 16 +
STACK CFI 3b3ae .cfa: $rsp 8 +
STACK CFI INIT 3b3b0 378 .cfa: $rsp 8 + .ra: .cfa -8 + ^
STACK CFI 3b3b1 $rbp: .cfa -16 + ^ .cfa: $rsp 16 +
STACK CFI 3b3b4 .cfa: $rbp 16 +
STACK CFI 3b3bd $r12: .cfa -48 + ^ $r13: .cfa -40 + ^ $r14: .cfa -32 + ^ $r15: .cfa -24 + ^ $rbx: .cfa -56 + ^
STACK CFI 3b584 .cfa: $rsp 8 +
STACK CFI 3b588 .cfa: $rbp 16 +
STACK CFI INIT 3b730 7 .cfa: $rsp 8 + .ra: .cfa -8 + ^
STACK CFI INIT 3b740 316 .cfa: $rsp 8 + .ra: .cfa -8 + ^
STACK CFI 3b741 $rbp: .cfa -16 + ^ .cfa: $rsp 16 +
STACK CFI 3b744 .cfa: $rbp 16 +
STACK CFI 3b748 $r14: .cfa -32 + ^ $r15: .cfa -24 + ^
STACK CFI 3b757 $r12: .cfa -48 + ^ $r13: .cfa -40 + ^ $rbx: .cfa -56 + ^
STACK CFI 3b84e .cfa: $rsp 8 +
STACK CFI 3b850 .cfa: $rbp 16 +
STACK CFI INIT 3ba60 7 .cfa: $rsp 8 + .ra: .cfa -8 + ^
STACK CFI INIT 3ba70 2aa .cfa: $rsp 8 + .ra: .cfa -8 + ^
STACK CFI 3ba71 $rbp: .cfa -16 + ^ .cfa: $rsp 16 +
STACK CFI 3ba74 .cfa: $rbp 16 +
STACK CFI 3ba7a $r13: .cfa -40 + ^ $r14: .cfa -32 + ^ $r15: .cfa -24 + ^
STACK CFI 3ba7f $r12: .cfa -48 + ^
STACK CFI 3ba8a $rbx: .cfa -56 + ^
STACK CFI 3bb49 .cfa: $rsp 8 +
STACK CFI 3bb4a .cfa: $rbp 16 +
STACK CFI INIT 3bd20 23b .cfa: $rsp 8 + .ra: .cfa -8 + ^
STACK CFI 3bd21 $rbp: .cfa -16 + ^ .cfa: $rsp 16 +
STACK CFI 3bd24 .cfa: $rbp 16 +
STACK CFI 3bd28 $r14: .cfa -32 + ^ $r15: .cfa -24 + ^
STACK CFI 3bd37 $r12: .cfa -48 + ^ $r13: .cfa -40 + ^ $rbx: .cfa -56 + ^
STACK CFI 3beb2 .cfa: $rsp 8 +
STACK CFI 3beb8 .cfa: $rbp 16 +
STACK CFI INIT 3bf60 bd .cfa: $rsp 8 + .ra: .cfa -8 + ^
STACK CFI 3bf61 $rbp: .cfa -16 + ^ .cfa: $rsp 16 +
STACK CFI 3bf64 .cfa: $rbp 16 +
STACK CFI 3bf68 $r12: .cfa -32 + ^ $r13: .cfa -24 + ^
STACK CFI 3bf70 $rbx: .cfa -40 + ^
STACK CFI 3bffe .cfa: $rsp 8 +
STACK CFI 3c000 .cfa: $rbp 16 +
STACK CFI 3c01c .cfa: $rsp 8 +
STACK CFI INIT 3c020 13 .cfa: $rsp 8 + .ra: .cfa -8 + ^
STACK CFI INIT 3c040 61 .cfa: $rsp 8 + .ra: .cfa -8 + ^
STACK CFI 3c041 $rbp: .cfa -16 + ^ .cfa: $rsp 16 +
STACK CFI 3c044 .cfa: $rbp 16 +
STACK CFI 3c04e $r12: .cfa -40 + ^ $r13: .cfa -32 + ^ $r14: .cfa -24 + ^
STACK CFI 3c07e .cfa: $rsp 8 +
STACK CFI 3c088 .cfa: $rbp 16 +
STACK CFI 3c0a0 .cfa: $rsp 8 +
STACK CFI INIT 3c0b0 226 .cfa: $rsp 8 + .ra: .cfa -8 + ^
STACK CFI 3c0b1 $rbp: .cfa -16 + ^ .cfa: $rsp 16 +
STACK CFI 3c0b4 .cfa: $rbp 16 +
STACK CFI 3c0ba $r13: .cfa -40 + ^ $r14: .cfa -32 + ^ $r15: .cfa -24 + ^
STACK CFI 3c0c7 $r12: .cfa -48 + ^ $rbx: .cfa -56 + ^
STACK CFI 3c103 .cfa: $rsp 8 +
STACK CFI 3c104 .cfa: $rbp 16 +
STACK CFI INIT 1cd9a 10 $r12: .cfa -48 + ^ $r13: .cfa -40 + ^ $r14: .cfa -32 + ^ $r15: .cfa -24 + ^ $rbp: .cfa -16 + ^ $rbx: .cfa -56 + ^ .cfa: $rbp 16 + .ra: .cfa -8 + ^
STACK CFI INIT 3c2e0 27e .cfa: $rsp 8 + .ra: .cfa -8 + ^
STACK CFI 3c2e1 $rbp: .cfa -16 + ^ .cfa: $rsp 16 +
STACK CFI 3c2e4 .cfa: $rbp 16 +
STACK CFI 3c2e6 $r12: .cfa -24 + ^
STACK CFI 3c31e .cfa: $rsp 8 +
STACK CFI 3c31f .cfa: $rbp 16 +
STACK CFI 3c333 .cfa: $rsp 8 +
STACK CFI 3c338 .cfa: $rbp 16 +
STACK CFI 3c34c .cfa: $rsp 8 +
STACK CFI 3c351 .cfa: $rbp 16 +
STACK CFI 3c365 .cfa: $rsp 8 +
STACK CFI 3c36a .cfa: $rbp 16 +
STACK CFI 3c37e .cfa: $rsp 8 +
STACK CFI 3c383 .cfa: $rbp 16 +
STACK CFI 3c397 .cfa: $rsp 8 +
STACK CFI 3c39c .cfa: $rbp 16 +
STACK CFI 3c3b0 .cfa: $rsp 8 +
STACK CFI 3c3b5 .cfa: $rbp 16 +
STACK CFI 3c3c9 .cfa: $rsp 8 +
STACK CFI 3c3ce .cfa: $rbp 16 +
STACK CFI 3c3e2 .cfa: $rsp 8 +
STACK CFI 3c3e7 .cfa: $rbp 16 +
STACK CFI 3c3fb .cfa: $rsp 8 +
STACK CFI 3c400 .cfa: $rbp 16 +
STACK CFI 3c414 .cfa: $rsp 8 +
STACK CFI 3c419 .cfa: $rbp 16 +
STACK CFI 3c42d .cfa: $rsp 8 +
STACK CFI 3c432 .cfa: $rbp 16 +
STACK CFI 3c446 .cfa: $rsp 8 +
STACK CFI 3c44b .cfa: $rbp 16 +
STACK CFI 3c45f .cfa: $rsp 8 +
STACK CFI 3c464 .cfa: $rbp 16 +
STACK CFI 3c478 .cfa: $rsp 8 +
STACK CFI 3c47d .cfa: $rbp 16 +
STACK CFI 3c491 .cfa: $rsp 8 +
STACK CFI 3c496 .cfa: $rbp 16 +
STACK CFI 3c4aa .cfa: $rsp 8 +
STACK CFI 3c4af .cfa: $rbp 16 +
STACK CFI 3c4c3 .cfa: $rsp 8 +
STACK CFI 3c4c8 .cfa: $rbp 16 +
STACK CFI 3c4dc .cfa: $rsp 8 +
STACK CFI 3c4e1 .cfa: $rbp 16 +
STACK CFI 3c4f5 .cfa: $rsp 8 +
STACK CFI 3c4fa .cfa: $rbp 16 +
STACK CFI 3c50e .cfa: $rsp 8 +
STACK CFI 3c513 .cfa: $rbp 16 +
STACK CFI 3c527 .cfa: $rsp 8 +
STACK CFI 3c52c .cfa: $rbp 16 +
STACK CFI 3c540 .cfa: $rsp 8 +
STACK CFI 3c545 .cfa: $rbp 16 +
STACK CFI 3c559 .cfa: $rsp 8 +
STACK CFI INIT 3c560 1e4 .cfa: $rsp 8 + .ra: .cfa -8 + ^
STACK CFI 3c561 $rbp: .cfa -16 + ^ .cfa: $rsp 16 +
STACK CFI 3c564 .cfa: $rbp 16 +
STACK CFI 3c574 $r12: .cfa -48 + ^ $r13: .cfa -40 + ^ $r14: .cfa -32 + ^ $r15: .cfa -24 + ^ $rbx: .cfa -56 + ^
STACK CFI 3c6a2 .cfa: $rsp 8 +
STACK CFI 3c6a8 .cfa: $rbp 16 +
STACK CFI INIT 3c750 216 .cfa: $rsp 8 + .ra: .cfa -8 + ^
STACK CFI 3c751 $rbp: .cfa -16 + ^ .cfa: $rsp 16 +
STACK CFI 3c754 .cfa: $rbp 16 +
STACK CFI 3c75a $r13: .cfa -40 + ^ $r14: .cfa -32 + ^ $r15: .cfa -24 + ^
STACK CFI 3c767 $r12: .cfa -48 + ^ $rbx: .cfa -56 + ^
STACK CFI 3c79b .cfa: $rsp 8 +
STACK CFI 3c79c .cfa: $rbp 16 +
STACK CFI INIT 3c970 24c .cfa: $rsp 8 + .ra: .cfa -8 + ^
STACK CFI 3c971 $rbp: .cfa -16 + ^ .cfa: $rsp 16 +
STACK CFI 3c974 .cfa: $rbp 16 +
STACK CFI 3c976 $r12: .cfa -24 + ^
STACK CFI 3c9ae .cfa: $rsp 8 +
STACK CFI 3c9af .cfa: $rbp 16 +
STACK CFI 3c9c3 .cfa: $rsp 8 +
STACK CFI 3c9c8 .cfa: $rbp 16 +
STACK CFI 3c9dc .cfa: $rsp 8 +
STACK CFI 3c9e1 .cfa: $rbp 16 +
STACK CFI 3c9f5 .cfa: $rsp 8 +
STACK CFI 3c9fa .cfa: $rbp 16 +
STACK CFI 3ca0e .cfa: $rsp 8 +
STACK CFI 3ca13 .cfa: $rbp 16 +
STACK CFI 3ca27 .cfa: $rsp 8 +
STACK CFI 3ca2c .cfa: $rbp 16 +
STACK CFI 3ca40 .cfa: $rsp 8 +
STACK CFI 3ca45 .cfa: $rbp 16 +
STACK CFI 3ca59 .cfa: $rsp 8 +
STACK CFI 3ca5e .cfa: $rbp 16 +
STACK CFI 3ca72 .cfa: $rsp 8 +
STACK CFI 3ca77 .cfa: $rbp 16 +
STACK CFI 3ca8b .cfa: $rsp 8 +
STACK CFI 3ca90 .cfa: $rbp 16 +
STACK CFI 3caa4 .cfa: $rsp 8 +
STACK CFI 3caa9 .cfa: $rbp 16 +
STACK CFI 3cabd .cfa: $rsp 8 +
STACK CFI 3cac2 .cfa: $rbp 16 +
STACK CFI 3cad6 .cfa: $rsp 8 +
STACK CFI 3cadb .cfa: $rbp 16 +
STACK CFI 3caef .cfa: $rsp 8 +
STACK CFI 3caf4 .cfa: $rbp 16 +
STACK CFI 3cb08 .cfa: $rsp 8 +
STACK CFI 3cb0d .cfa: $rbp 16 +
STACK CFI 3cb21 .cfa: $rsp 8 +
STACK CFI 3cb26 .cfa: $rbp 16 +
STACK CFI 3cb3a .cfa: $rsp 8 +
STACK CFI 3cb3f .cfa: $rbp 16 +
STACK CFI 3cb53 .cfa: $rsp 8 +
STACK CFI 3cb58 .cfa: $rbp 16 +
STACK CFI 3cb6c .cfa: $rsp 8 +
STACK CFI 3cb71 .cfa: $rbp 16 +
STACK CFI 3cb85 .cfa: $rsp 8 +
STACK CFI 3cb8a .cfa: $rbp 16 +
STACK CFI 3cb9e .cfa: $rsp 8 +
STACK CFI 3cba3 .cfa: $rbp 16 +
STACK CFI 3cbb7 .cfa: $rsp 8 +
STACK CFI INIT 3cbc0 9f .cfa: $rsp 8 + .ra: .cfa -8 + ^
STACK CFI 3cbc1 $rbp: .cfa -16 + ^ .cfa: $rsp 16 +
STACK CFI 3cbc4 .cfa: $rbp 16 +
STACK CFI 3cbc8 $r12: .cfa -32 + ^ $r13: .cfa -24 + ^
STACK CFI 3cbd0 $rbx: .cfa -40 + ^
STACK CFI 3cbff .cfa: $rsp 8 +
STACK CFI 3cc00 .cfa: $rbp 16 +
STACK CFI 3cc36 .cfa: $rsp 8 +
STACK CFI 3cc40 .cfa: $rbp 16 +
STACK CFI INIT 3cc60 98 .cfa: $rsp 8 + .ra: .cfa -8 + ^
STACK CFI 3cc66 $rbp: .cfa -16 + ^ .cfa: $rsp 16 +
STACK CFI 3cc69 .cfa: $rbp 16 +
STACK CFI 3cc6b $r12: .cfa -24 + ^
STACK CFI 3cc6f $rbx: .cfa -32 + ^
STACK CFI 3ccc6 .cfa: $rsp 8 +
STACK CFI 3ccd0 $r12: $r12 $rbp: $rbp $rbx: $rbx
STACK CFI 3ccd8 $r12: .cfa -24 + ^ $rbp: .cfa -16 + ^ $rbx: .cfa -32 + ^ .cfa: $rbp 16 +
STACK CFI 3ccd9 $rbx: $rbx
STACK CFI 3ccde $r12: $r12
STACK CFI 3ccdf $rbp: $rbp .cfa: $rsp 8 +
STACK CFI 3cce8 $r12: .cfa -24 + ^ $rbp: .cfa -16 + ^ $rbx: .cfa -32 + ^ .cfa: $rbp 16 +
STACK CFI INIT 3cd00 93 .cfa: $rsp 8 + .ra: .cfa -8 + ^
STACK CFI 3cd01 $rbp: .cfa -16 + ^ .cfa: $rsp 16 +
STACK CFI 3cd04 .cfa: $rbp 16 +
STACK CFI 3cd0e $r12: .cfa -40 + ^ $r13: .cfa -32 + ^ $r14: .cfa -24 + ^
STACK CFI 3cd4e .cfa: $rsp 8 +
STACK CFI 3cd58 .cfa: $rbp 16 +
STACK CFI 3cd70 .cfa: $rsp 8 +
STACK CFI 3cd78 .cfa: $rbp 16 +
STACK CFI 3cd8e .cfa: $rsp 8 +
STACK CFI INIT 3cda0 258 .cfa: $rsp 8 + .ra: .cfa -8 + ^
STACK CFI 3cda1 $rbp: .cfa -16 + ^ .cfa: $rsp 16 +
STACK CFI 3cda4 .cfa: $rbp 16 +
STACK CFI 3cda8 $r14: .cfa -32 + ^ $r15: .cfa -24 + ^
STACK CFI 3cdad $r13: .cfa -40 + ^
STACK CFI 3cdba $r12: .cfa -48 + ^ $rbx: .cfa -56 + ^
STACK CFI 3cf3b .cfa: $rsp 8 +
STACK CFI 3cf40 .cfa: $rbp 16 +
STACK CFI INIT 3d000 1e4 .cfa: $rsp 8 + .ra: .cfa -8 + ^
STACK CFI 3d001 $rbp: .cfa -16 + ^ .cfa: $rsp 16 +
STACK CFI 3d004 .cfa: $rbp 16 +
STACK CFI 3d014 $r12: .cfa -48 + ^ $r13: .cfa -40 + ^ $r14: .cfa -32 + ^ $r15: .cfa -24 + ^ $rbx: .cfa -56 + ^
STACK CFI 3d142 .cfa: $rsp 8 +
STACK CFI 3d148 .cfa: $rbp 16 +
STACK CFI INIT 3d1f0 226 .cfa: $rsp 8 + .ra: .cfa -8 + ^
STACK CFI 3d1f1 $rbp: .cfa -16 + ^ .cfa: $rsp 16 +
STACK CFI 3d1f4 .cfa: $rbp 16 +
STACK CFI 3d1fa $r13: .cfa -40 + ^ $r14: .cfa -32 + ^ $r15: .cfa -24 + ^
STACK CFI 3d207 $r12: .cfa -48 + ^ $rbx: .cfa -56 + ^
STACK CFI 3d243 .cfa: $rsp 8 +
STACK CFI 3d244 .cfa: $rbp 16 +
STACK CFI INIT 1cdaa 10 $r12: .cfa -48 + ^ $r13: .cfa -40 + ^ $r14: .cfa -32 + ^ $r15: .cfa -24 + ^ $rbp: .cfa -16 + ^ $rbx: .cfa -56 + ^ .cfa: $rbp 16 + .ra: .cfa -8 + ^
STACK CFI INIT 3d420 27e .cfa: $rsp 8 + .ra: .cfa -8 + ^
STACK CFI 3d421 $rbp: .cfa -16 + ^ .cfa: $rsp 16 +
STACK CFI 3d424 .cfa: $rbp 16 +
STACK CFI 3d426 $r12: .cfa -24 + ^
STACK CFI 3d45e .cfa: $rsp 8 +
STACK CFI 3d45f .cfa: $rbp 16 +
STACK CFI 3d473 .cfa: $rsp 8 +
STACK CFI 3d478 .cfa: $rbp 16 +
STACK CFI 3d48c .cfa: $rsp 8 +
STACK CFI 3d491 .cfa: $rbp 16 +
STACK CFI 3d4a5 .cfa: $rsp 8 +
STACK CFI 3d4aa .cfa: $rbp 16 +
STACK CFI 3d4be .cfa: $rsp 8 +
STACK CFI 3d4c3 .cfa: $rbp 16 +
STACK CFI 3d4d7 .cfa: $rsp 8 +
STACK CFI 3d4dc .cfa: $rbp 16 +
STACK CFI 3d4f0 .cfa: $rsp 8 +
STACK CFI 3d4f5 .cfa: $rbp 16 +
STACK CFI 3d509 .cfa: $rsp 8 +
STACK CFI 3d50e .cfa: $rbp 16 +
STACK CFI 3d522 .cfa: $rsp 8 +
STACK CFI 3d527 .cfa: $rbp 16 +
STACK CFI 3d53b .cfa: $rsp 8 +
STACK CFI 3d540 .cfa: $rbp 16 +
STACK CFI 3d554 .cfa: $rsp 8 +
STACK CFI 3d559 .cfa: $rbp 16 +
STACK CFI 3d56d .cfa: $rsp 8 +
STACK CFI 3d572 .cfa: $rbp 16 +
STACK CFI 3d586 .cfa: $rsp 8 +
STACK CFI 3d58b .cfa: $rbp 16 +
STACK CFI 3d59f .cfa: $rsp 8 +
STACK CFI 3d5a4 .cfa: $rbp 16 +
STACK CFI 3d5b8 .cfa: $rsp 8 +
STACK CFI 3d5bd .cfa: $rbp 16 +
STACK CFI 3d5d1 .cfa: $rsp 8 +
STACK CFI 3d5d6 .cfa: $rbp 16 +
STACK CFI 3d5ea .cfa: $rsp 8 +
STACK CFI 3d5ef .cfa: $rbp 16 +
STACK CFI 3d603 .cfa: $rsp 8 +
STACK CFI 3d608 .cfa: $rbp 16 +
STACK CFI 3d61c .cfa: $rsp 8 +
STACK CFI 3d621 .cfa: $rbp 16 +
STACK CFI 3d635 .cfa: $rsp 8 +
STACK CFI 3d63a .cfa: $rbp 16 +
STACK CFI 3d64e .cfa: $rsp 8 +
STACK CFI 3d653 .cfa: $rbp 16 +
STACK CFI 3d667 .cfa: $rsp 8 +
STACK CFI 3d66c .cfa: $rbp 16 +
STACK CFI 3d680 .cfa: $rsp 8 +
STACK CFI 3d685 .cfa: $rbp 16 +
STACK CFI 3d699 .cfa: $rsp 8 +
STACK CFI INIT 3d6a0 9f .cfa: $rsp 8 + .ra: .cfa -8 + ^
STACK CFI 3d6a1 $rbp: .cfa -16 + ^ .cfa: $rsp 16 +
STACK CFI 3d6a4 .cfa: $rbp 16 +
STACK CFI 3d6a8 $r12: .cfa -32 + ^ $r13: .cfa -24 + ^
STACK CFI 3d6b0 $rbx: .cfa -40 + ^
STACK CFI 3d6df .cfa: $rsp 8 +
STACK CFI 3d6e0 .cfa: $rbp 16 +
STACK CFI 3d716 .cfa: $rsp 8 +
STACK CFI 3d720 .cfa: $rbp 16 +
STACK CFI INIT 3d740 98 .cfa: $rsp 8 + .ra: .cfa -8 + ^
STACK CFI 3d746 $rbp: .cfa -16 + ^ .cfa: $rsp 16 +
STACK CFI 3d749 .cfa: $rbp 16 +
STACK CFI 3d74b $r12: .cfa -24 + ^
STACK CFI 3d74f $rbx: .cfa -32 + ^
STACK CFI 3d7a6 .cfa: $rsp 8 +
STACK CFI 3d7b0 $r12: $r12 $rbp: $rbp $rbx: $rbx
STACK CFI 3d7b8 $r12: .cfa -24 + ^ $rbp: .cfa -16 + ^ $rbx: .cfa -32 + ^ .cfa: $rbp 16 +
STACK CFI 3d7b9 $rbx: $rbx
STACK CFI 3d7be $r12: $r12
STACK CFI 3d7bf $rbp: $rbp .cfa: $rsp 8 +
STACK CFI 3d7c8 $r12: .cfa -24 + ^ $rbp: .cfa -16 + ^ $rbx: .cfa -32 + ^ .cfa: $rbp 16 +
STACK CFI INIT 3d7e0 93 .cfa: $rsp 8 + .ra: .cfa -8 + ^
STACK CFI 3d7e1 $rbp: .cfa -16 + ^ .cfa: $rsp 16 +
STACK CFI 3d7e4 .cfa: $rbp 16 +
STACK CFI 3d7ee $r12: .cfa -40 + ^ $r13: .cfa -32 + ^ $r14: .cfa -24 + ^
STACK CFI 3d82e .cfa: $rsp 8 +
STACK CFI 3d838 .cfa: $rbp 16 +
STACK CFI 3d850 .cfa: $rsp 8 +
STACK CFI 3d858 .cfa: $rbp 16 +
STACK CFI 3d86e .cfa: $rsp 8 +
STACK CFI INIT 3d880 258 .cfa: $rsp 8 + .ra: .cfa -8 + ^
STACK CFI 3d881 $rbp: .cfa -16 + ^ .cfa: $rsp 16 +
STACK CFI 3d884 .cfa: $rbp 16 +
STACK CFI 3d888 $r14: .cfa -32 + ^ $r15: .cfa -24 + ^
STACK CFI 3d88d $r13: .cfa -40 + ^
STACK CFI 3d89a $r12: .cfa -48 + ^ $rbx: .cfa -56 + ^
STACK CFI 3da1b .cfa: $rsp 8 +
STACK CFI 3da20 .cfa: $rbp 16 +
STACK CFI INIT 3dae0 206 .cfa: $rsp 8 + .ra: .cfa -8 + ^
STACK CFI 3dae1 $rbp: .cfa -16 + ^ .cfa: $rsp 16 +
STACK CFI 3dae4 .cfa: $rbp 16 +
STACK CFI 3daea $r13: .cfa -40 + ^ $r14: .cfa -32 + ^ $r15: .cfa -24 + ^
STACK CFI 3daf7 $r12: .cfa -48 + ^ $rbx: .cfa -56 + ^
STACK CFI 3db2b .cfa: $rsp 8 +
STACK CFI 3db2c .cfa: $rbp 16 +
STACK CFI INIT 3dcf0 7 .cfa: $rsp 8 + .ra: .cfa -8 + ^
STACK CFI INIT 3dd00 368 .cfa: $rsp 8 + .ra: .cfa -8 + ^
STACK CFI 3dd01 $rbp: .cfa -16 + ^ .cfa: $rsp 16 +
STACK CFI 3dd07 .cfa: $rbp 16 +
STACK CFI 3ddb8 .cfa: $rsp 8 +
STACK CFI 3ddc0 .cfa: $rbp 16 +
STACK CFI 3ddc1 .cfa: $rsp 8 +
STACK CFI 3ddc8 .cfa: $rbp 16 +
STACK CFI 3de07 .cfa: $rsp 8 +
STACK CFI 3de10 .cfa: $rbp 16 +
STACK CFI 3de27 .cfa: $rsp 8 +
STACK CFI 3de30 .cfa: $rbp 16 +
STACK CFI 3de47 .cfa: $rsp 8 +
STACK CFI 3de50 .cfa: $rbp 16 +
STACK CFI 3de67 .cfa: $rsp 8 +
STACK CFI 3de70 .cfa: $rbp 16 +
STACK CFI 3de87 .cfa: $rsp 8 +
STACK CFI 3de90 .cfa: $rbp 16 +
STACK CFI 3dea7 .cfa: $rsp 8 +
STACK CFI 3deb0 .cfa: $rbp 16 +
STACK CFI 3dec7 .cfa: $rsp 8 +
STACK CFI 3ded0 .cfa: $rbp 16 +
STACK CFI 3dee7 .cfa: $rsp 8 +
STACK CFI 3def0 .cfa: $rbp 16 +
STACK CFI 3df07 .cfa: $rsp 8 +
STACK CFI 3df10 .cfa: $rbp 16 +
STACK CFI 3df27 .cfa: $rsp 8 +
STACK CFI 3df30 .cfa: $rbp 16 +
STACK CFI 3df47 .cfa: $rsp 8 +
STACK CFI 3df50 .cfa: $rbp 16 +
STACK CFI 3df67 .cfa: $rsp 8 +
STACK CFI 3df70 .cfa: $rbp 16 +
STACK CFI 3df87 .cfa: $rsp 8 +
STACK CFI 3df90 .cfa: $rbp 16 +
STACK CFI 3dfa7 .cfa: $rsp 8 +
STACK CFI 3dfb0 .cfa: $rbp 16 +
STACK CFI 3dfc7 .cfa: $rsp 8 +
STACK CFI 3dfd0 .cfa: $rbp 16 +
STACK CFI 3dfe7 .cfa: $rsp 8 +
STACK CFI 3dff0 .cfa: $rbp 16 +
STACK CFI 3e007 .cfa: $rsp 8 +
STACK CFI 3e010 .cfa: $rbp 16 +
STACK CFI 3e027 .cfa: $rsp 8 +
STACK CFI 3e030 .cfa: $rbp 16 +
STACK CFI 3e047 .cfa: $rsp 8 +
STACK CFI 3e050 .cfa: $rbp 16 +
STACK CFI 3e067 .cfa: $rsp 8 +
STACK CFI INIT 3e070 b3 .cfa: $rsp 8 + .ra: .cfa -8 + ^
STACK CFI 3e071 $rbp: .cfa -16 + ^ .cfa: $rsp 16 +
STACK CFI 3e074 .cfa: $rbp 16 +
STACK CFI 3e078 $r12: .cfa -32 + ^ $r13: .cfa -24 + ^
STACK CFI 3e080 $rbx: .cfa -40 + ^
STACK CFI 3e0a8 .cfa: $rsp 8 +
STACK CFI 3e0b0 .cfa: $rbp 16 +
STACK CFI 3e0e3 .cfa: $rsp 8 +
STACK CFI 3e0e8 .cfa: $rbp 16 +
STACK CFI INIT 3e130 d0 .cfa: $rsp 8 + .ra: .cfa -8 + ^
STACK CFI 3e131 $rbp: .cfa -16 + ^ .cfa: $rsp 16 +
STACK CFI 3e134 .cfa: $rbp 16 +
STACK CFI 3e13b $r12: .cfa -40 + ^ $r13: .cfa -32 + ^ $r14: .cfa -24 + ^ $rbx: .cfa -48 + ^
STACK CFI 3e1b6 .cfa: $rsp 8 +
STACK CFI 3e1c0 .cfa: $rbp 16 +
STACK CFI 3e1fb .cfa: $rsp 8 +
STACK CFI INIT 3e200 35e .cfa: $rsp 8 + .ra: .cfa -8 + ^
STACK CFI 3e201 $rbp: .cfa -16 + ^ .cfa: $rsp 16 +
STACK CFI 3e204 .cfa: $rbp 16 +
STACK CFI 3e20a $r13: .cfa -40 + ^ $r14: .cfa -32 + ^ $r15: .cfa -24 + ^
STACK CFI 3e20f $r12: .cfa -48 + ^
STACK CFI 3e213 $rbx: .cfa -56 + ^
STACK CFI 3e460 .cfa: $rsp 8 +
STACK CFI 3e468 .cfa: $rbp 16 +
STACK CFI INIT 3e560 2d9 .cfa: $rsp 8 + .ra: .cfa -8 + ^
STACK CFI 3e561 $rbp: .cfa -16 + ^ .cfa: $rsp 16 +
STACK CFI 3e564 .cfa: $rbp 16 +
STACK CFI 3e566 $r15: .cfa -24 + ^
STACK CFI 3e56b $r14: .cfa -32 + ^
STACK CFI 3e573 $r12: .cfa -48 + ^ $r13: .cfa -40 + ^ $rbx: .cfa -56 + ^
STACK CFI 3e5d7 .cfa: $rsp 8 +
STACK CFI 3e5e0 .cfa: $rbp 16 +
STACK CFI INIT 3e840 69 .cfa: $rsp 8 + .ra: .cfa -8 + ^
STACK CFI 3e841 $rbp: .cfa -16 + ^ .cfa: $rsp 16 +
STACK CFI 3e844 .cfa: $rbp 16 +
STACK CFI 3e84e $r12: .cfa -40 + ^ $r13: .cfa -32 + ^ $r14: .cfa -24 + ^
STACK CFI 3e882 .cfa: $rsp 8 +
STACK CFI 3e890 .cfa: $rbp 16 +
STACK CFI 3e8a8 .cfa: $rsp 8 +
STACK CFI INIT 3e8b0 206 .cfa: $rsp 8 + .ra: .cfa -8 + ^
STACK CFI 3e8b1 $rbp: .cfa -16 + ^ .cfa: $rsp 16 +
STACK CFI 3e8b4 .cfa: $rbp 16 +
STACK CFI 3e8ba $r13: .cfa -40 + ^ $r14: .cfa -32 + ^ $r15: .cfa -24 + ^
STACK CFI 3e8c7 $r12: .cfa -48 + ^ $rbx: .cfa -56 + ^
STACK CFI 3e8fb .cfa: $rsp 8 +
STACK CFI 3e8fc .cfa: $rbp 16 +
STACK CFI INIT 3eac0 2b8 .cfa: $rsp 8 + .ra: .cfa -8 + ^
STACK CFI 3eac1 $rbp: .cfa -16 + ^ .cfa: $rsp 16 +
STACK CFI 3eac7 .cfa: $rbp 16 +
STACK CFI 3eaf9 .cfa: $rsp 8 +
STACK CFI 3eb00 .cfa: $rbp 16 +
STACK CFI 3eb17 .cfa: $rsp 8 +
STACK CFI 3eb20 .cfa: $rbp 16 +
STACK CFI 3eb37 .cfa: $rsp 8 +
STACK CFI 3eb40 .cfa: $rbp 16 +
STACK CFI 3eb57 .cfa: $rsp 8 +
STACK CFI 3eb60 .cfa: $rbp 16 +
STACK CFI 3eb77 .cfa: $rsp 8 +
STACK CFI 3eb80 .cfa: $rbp 16 +
STACK CFI 3eb97 .cfa: $rsp 8 +
STACK CFI 3eba0 .cfa: $rbp 16 +
STACK CFI 3ebb7 .cfa: $rsp 8 +
STACK CFI 3ebc0 .cfa: $rbp 16 +
STACK CFI 3ebd7 .cfa: $rsp 8 +
STACK CFI 3ebe0 .cfa: $rbp 16 +
STACK CFI 3ebf7 .cfa: $rsp 8 +
STACK CFI 3ec00 .cfa: $rbp 16 +
STACK CFI 3ec17 .cfa: $rsp 8 +
STACK CFI 3ec20 .cfa: $rbp 16 +
STACK CFI 3ec37 .cfa: $rsp 8 +
STACK CFI 3ec40 .cfa: $rbp 16 +
STACK CFI 3ec57 .cfa: $rsp 8 +
STACK CFI 3ec60 .cfa: $rbp 16 +
STACK CFI 3ec77 .cfa: $rsp 8 +
STACK CFI 3ec80 .cfa: $rbp 16 +
STACK CFI 3ec97 .cfa: $rsp 8 +
STACK CFI 3eca0 .cfa: $rbp 16 +
STACK CFI 3ecb7 .cfa: $rsp 8 +
STACK CFI 3ecc0 .cfa: $rbp 16 +
STACK CFI 3ecd7 .cfa: $rsp 8 +
STACK CFI 3ece0 .cfa: $rbp 16 +
STACK CFI 3ecf7 .cfa: $rsp 8 +
STACK CFI 3ed00 .cfa: $rbp 16 +
STACK CFI 3ed17 .cfa: $rsp 8 +
STACK CFI 3ed20 .cfa: $rbp 16 +
STACK CFI 3ed37 .cfa: $rsp 8 +
STACK CFI 3ed40 .cfa: $rbp 16 +
STACK CFI 3ed57 .cfa: $rsp 8 +
STACK CFI 3ed60 .cfa: $rbp 16 +
STACK CFI 3ed77 .cfa: $rsp 8 +
STACK CFI INIT 3ed80 b3 .cfa: $rsp 8 + .ra: .cfa -8 + ^
STACK CFI 3ed81 $rbp: .cfa -16 + ^ .cfa: $rsp 16 +
STACK CFI 3ed84 .cfa: $rbp 16 +
STACK CFI 3ed88 $r12: .cfa -32 + ^ $r13: .cfa -24 + ^
STACK CFI 3ed90 $rbx: .cfa -40 + ^
STACK CFI 3edb8 .cfa: $rsp 8 +
STACK CFI 3edc0 .cfa: $rbp 16 +
STACK CFI 3edf3 .cfa: $rsp 8 +
STACK CFI 3edf8 .cfa: $rbp 16 +
STACK CFI INIT 3ee40 d0 .cfa: $rsp 8 + .ra: .cfa -8 + ^
STACK CFI 3ee41 $rbp: .cfa -16 + ^ .cfa: $rsp 16 +
STACK CFI 3ee44 .cfa: $rbp 16 +
STACK CFI 3ee4b $r12: .cfa -40 + ^ $r13: .cfa -32 + ^ $r14: .cfa -24 + ^ $rbx: .cfa -48 + ^
STACK CFI 3eec6 .cfa: $rsp 8 +
STACK CFI 3eed0 .cfa: $rbp 16 +
STACK CFI 3ef0b .cfa: $rsp 8 +
STACK CFI INIT 3ef10 35e .cfa: $rsp 8 + .ra: .cfa -8 + ^
STACK CFI 3ef11 $rbp: .cfa -16 + ^ .cfa: $rsp 16 +
STACK CFI 3ef14 .cfa: $rbp 16 +
STACK CFI 3ef1a $r13: .cfa -40 + ^ $r14: .cfa -32 + ^ $r15: .cfa -24 + ^
STACK CFI 3ef1f $r12: .cfa -48 + ^
STACK CFI 3ef23 $rbx: .cfa -56 + ^
STACK CFI 3f170 .cfa: $rsp 8 +
STACK CFI 3f178 .cfa: $rbp 16 +
STACK CFI INIT 3f270 2d9 .cfa: $rsp 8 + .ra: .cfa -8 + ^
STACK CFI 3f271 $rbp: .cfa -16 + ^ .cfa: $rsp 16 +
STACK CFI 3f274 .cfa: $rbp 16 +
STACK CFI 3f276 $r15: .cfa -24 + ^
STACK CFI 3f27b $r14: .cfa -32 + ^
STACK CFI 3f283 $r12: .cfa -48 + ^ $r13: .cfa -40 + ^ $rbx: .cfa -56 + ^
STACK CFI 3f2e7 .cfa: $rsp 8 +
STACK CFI 3f2f0 .cfa: $rbp 16 +
STACK CFI INIT 3f550 69 .cfa: $rsp 8 + .ra: .cfa -8 + ^
STACK CFI 3f551 $rbp: .cfa -16 + ^ .cfa: $rsp 16 +
STACK CFI 3f554 .cfa: $rbp 16 +
STACK CFI 3f55e $r12: .cfa -40 + ^ $r13: .cfa -32 + ^ $r14: .cfa -24 + ^
STACK CFI 3f592 .cfa: $rsp 8 +
STACK CFI 3f5a0 .cfa: $rbp 16 +
STACK CFI 3f5b8 .cfa: $rsp 8 +
STACK CFI INIT 3f5c0 216 .cfa: $rsp 8 + .ra: .cfa -8 + ^
STACK CFI 3f5c1 $rbp: .cfa -16 + ^ .cfa: $rsp 16 +
STACK CFI 3f5c4 .cfa: $rbp 16 +
STACK CFI 3f5ca $r13: .cfa -40 + ^ $r14: .cfa -32 + ^ $r15: .cfa -24 + ^
STACK CFI 3f5d7 $r12: .cfa -48 + ^ $rbx: .cfa -56 + ^
STACK CFI 3f60b .cfa: $rsp 8 +
STACK CFI 3f60c .cfa: $rbp 16 +
STACK CFI INIT 3f7e0 2d8 .cfa: $rsp 8 + .ra: .cfa -8 + ^
STACK CFI 3f7e1 $rbp: .cfa -16 + ^ .cfa: $rsp 16 +
STACK CFI 3f7e7 .cfa: $rbp 16 +
STACK CFI 3f819 .cfa: $rsp 8 +
STACK CFI 3f820 .cfa: $rbp 16 +
STACK CFI 3f837 .cfa: $rsp 8 +
STACK CFI 3f840 .cfa: $rbp 16 +
STACK CFI 3f857 .cfa: $rsp 8 +
STACK CFI 3f860 .cfa: $rbp 16 +
STACK CFI 3f877 .cfa: $rsp 8 +
STACK CFI 3f880 .cfa: $rbp 16 +
STACK CFI 3f897 .cfa: $rsp 8 +
STACK CFI 3f8a0 .cfa: $rbp 16 +
STACK CFI 3f8b7 .cfa: $rsp 8 +
STACK CFI 3f8c0 .cfa: $rbp 16 +
STACK CFI 3f8d7 .cfa: $rsp 8 +
STACK CFI 3f8e0 .cfa: $rbp 16 +
STACK CFI 3f8f7 .cfa: $rsp 8 +
STACK CFI 3f900 .cfa: $rbp 16 +
STACK CFI 3f917 .cfa: $rsp 8 +
STACK CFI 3f920 .cfa: $rbp 16 +
STACK CFI 3f937 .cfa: $rsp 8 +
STACK CFI 3f940 .cfa: $rbp 16 +
STACK CFI 3f957 .cfa: $rsp 8 +
STACK CFI 3f960 .cfa: $rbp 16 +
STACK CFI 3f977 .cfa: $rsp 8 +
STACK CFI 3f980 .cfa: $rbp 16 +
STACK CFI 3f997 .cfa: $rsp 8 +
STACK CFI 3f9a0 .cfa: $rbp 16 +
STACK CFI 3f9b7 .cfa: $rsp 8 +
STACK CFI 3f9c0 .cfa: $rbp 16 +
STACK CFI 3f9d7 .cfa: $rsp 8 +
STACK CFI 3f9e0 .cfa: $rbp 16 +
STACK CFI 3f9f7 .cfa: $rsp 8 +
STACK CFI 3fa00 .cfa: $rbp 16 +
STACK CFI 3fa17 .cfa: $rsp 8 +
STACK CFI 3fa20 .cfa: $rbp 16 +
STACK CFI 3fa37 .cfa: $rsp 8 +
STACK CFI 3fa40 .cfa: $rbp 16 +
STACK CFI 3fa57 .cfa: $rsp 8 +
STACK CFI 3fa60 .cfa: $rbp 16 +
STACK CFI 3fa77 .cfa: $rsp 8 +
STACK CFI 3fa80 .cfa: $rbp 16 +
STACK CFI 3fa97 .cfa: $rsp 8 +
STACK CFI 3faa0 .cfa: $rbp 16 +
STACK CFI 3fab7 .cfa: $rsp 8 +
STACK CFI INIT 3fac0 b3 .cfa: $rsp 8 + .ra: .cfa -8 + ^
STACK CFI 3fac1 $rbp: .cfa -16 + ^ .cfa: $rsp 16 +
STACK CFI 3fac4 .cfa: $rbp 16 +
STACK CFI 3fac8 $r12: .cfa -32 + ^ $r13: .cfa -24 + ^
STACK CFI 3fad0 $rbx: .cfa -40 + ^
STACK CFI 3faf8 .cfa: $rsp 8 +
STACK CFI 3fb00 .cfa: $rbp 16 +
STACK CFI 3fb33 .cfa: $rsp 8 +
STACK CFI 3fb38 .cfa: $rbp 16 +
STACK CFI INIT 3fb80 d0 .cfa: $rsp 8 + .ra: .cfa -8 + ^
STACK CFI 3fb81 $rbp: .cfa -16 + ^ .cfa: $rsp 16 +
STACK CFI 3fb84 .cfa: $rbp 16 +
STACK CFI 3fb8b $r12: .cfa -40 + ^ $r13: .cfa -32 + ^ $r14: .cfa -24 + ^ $rbx: .cfa -48 + ^
STACK CFI 3fc06 .cfa: $rsp 8 +
STACK CFI 3fc10 .cfa: $rbp 16 +
STACK CFI 3fc4b .cfa: $rsp 8 +
STACK CFI INIT 3fc50 35e .cfa: $rsp 8 + .ra: .cfa -8 + ^
STACK CFI 3fc51 $rbp: .cfa -16 + ^ .cfa: $rsp 16 +
STACK CFI 3fc54 .cfa: $rbp 16 +
STACK CFI 3fc5a $r13: .cfa -40 + ^ $r14: .cfa -32 + ^ $r15: .cfa -24 + ^
STACK CFI 3fc5f $r12: .cfa -48 + ^
STACK CFI 3fc63 $rbx: .cfa -56 + ^
STACK CFI 3feb0 .cfa: $rsp 8 +
STACK CFI 3feb8 .cfa: $rbp 16 +
STACK CFI INIT 3ffb0 2d9 .cfa: $rsp 8 + .ra: .cfa -8 + ^
STACK CFI 3ffb1 $rbp: .cfa -16 + ^ .cfa: $rsp 16 +
STACK CFI 3ffb4 .cfa: $rbp 16 +
STACK CFI 3ffb6 $r15: .cfa -24 + ^
STACK CFI 3ffbb $r14: .cfa -32 + ^
STACK CFI 3ffc3 $r12: .cfa -48 + ^ $r13: .cfa -40 + ^ $rbx: .cfa -56 + ^
STACK CFI 40027 .cfa: $rsp 8 +
STACK CFI 40030 .cfa: $rbp 16 +
STACK CFI INIT 40290 69 .cfa: $rsp 8 + .ra: .cfa -8 + ^
STACK CFI 40291 $rbp: .cfa -16 + ^ .cfa: $rsp 16 +
STACK CFI 40294 .cfa: $rbp 16 +
STACK CFI 4029e $r12: .cfa -40 + ^ $r13: .cfa -32 + ^ $r14: .cfa -24 + ^
STACK CFI 402d2 .cfa: $rsp 8 +
STACK CFI 402e0 .cfa: $rbp 16 +
STACK CFI 402f8 .cfa: $rsp 8 +
STACK CFI INIT 40300 c0 .cfa: $rsp 8 + .ra: .cfa -8 + ^
STACK CFI 40301 $rbp: .cfa -16 + ^ .cfa: $rsp 16 +
STACK CFI 40304 .cfa: $rbp 16 +
STACK CFI 4030d $r12: .cfa -32 + ^ $r13: .cfa -24 + ^ $rbx: .cfa -40 + ^
STACK CFI 4035d .cfa: $rsp 8 +
STACK CFI 40360 .cfa: $rbp 16 +
STACK CFI 403bf .cfa: $rsp 8 +
STACK CFI INIT 403c0 4b .cfa: $rsp 8 + .ra: .cfa -8 + ^
STACK CFI 403c6 $rbp: .cfa -16 + ^ .cfa: $rsp 16 +
STACK CFI 403c9 .cfa: $rbp 16 +
STACK CFI 403cb $r12: .cfa -24 + ^
STACK CFI 403ed $r12: $r12
STACK CFI 403ee $rbp: $rbp .cfa: $rsp 8 +
STACK CFI 403f8 $r12: .cfa -24 + ^ $rbp: .cfa -16 + ^ .cfa: $rbp 16 +
STACK CFI 40401 .cfa: $rsp 8 +
STACK CFI 40408 $r12: $r12 $rbp: $rbp
STACK CFI INIT 40410 28c .cfa: $rsp 8 + .ra: .cfa -8 + ^
STACK CFI 40411 $rbp: .cfa -16 + ^ .cfa: $rsp 16 +
STACK CFI 40414 .cfa: $rbp 16 +
STACK CFI 40418 $r14: .cfa -32 + ^ $r15: .cfa -24 + ^
STACK CFI 40420 $r12: .cfa -48 + ^ $r13: .cfa -40 + ^ $rbx: .cfa -56 + ^
STACK CFI 405b0 .cfa: $rsp 8 +
STACK CFI 405b8 .cfa: $rbp 16 +
STACK CFI INIT 406a0 b0 .cfa: $rsp 8 + .ra: .cfa -8 + ^
STACK CFI 406a1 $rbp: .cfa -16 + ^ .cfa: $rsp 16 +
STACK CFI 406a4 .cfa: $rbp 16 +
STACK CFI 406ab $r12: .cfa -40 + ^ $r13: .cfa -32 + ^ $r14: .cfa -24 + ^ $rbx: .cfa -48 + ^
STACK CFI 40726 .cfa: $rsp 8 +
STACK CFI 40730 .cfa: $rbp 16 +
STACK CFI 4074b .cfa: $rsp 8 +
STACK CFI INIT 40750 296 .cfa: $rsp 8 + .ra: .cfa -8 + ^
STACK CFI 40751 $rbp: .cfa -16 + ^ .cfa: $rsp 16 +
STACK CFI 40754 .cfa: $rbp 16 +
STACK CFI 4075c $r12: .cfa -48 + ^ $r13: .cfa -40 + ^ $r14: .cfa -32 + ^ $r15: .cfa -24 + ^
STACK CFI 40767 $rbx: .cfa -56 + ^
STACK CFI 40864 .cfa: $rsp 8 +
STACK CFI 40865 .cfa: $rbp 16 +
STACK CFI INIT 409f0 1e7 .cfa: $rsp 8 + .ra: .cfa -8 + ^
STACK CFI 409f1 $rbp: .cfa -16 + ^ .cfa: $rsp 16 +
STACK CFI 409f4 .cfa: $rbp 16 +
STACK CFI 40a04 $r12: .cfa -48 + ^ $r13: .cfa -40 + ^ $r14: .cfa -32 + ^ $r15: .cfa -24 + ^ $rbx: .cfa -56 + ^
STACK CFI 40b73 .cfa: $rsp 8 +
STACK CFI 40b74 .cfa: $rbp 16 +
STACK CFI INIT 40be0 348 .cfa: $rsp 8 + .ra: .cfa -8 + ^
STACK CFI 40be1 $rbp: .cfa -16 + ^ .cfa: $rsp 16 +
STACK CFI 40be4 .cfa: $rbp 16 +
STACK CFI 40bf4 $r12: .cfa -48 + ^ $r13: .cfa -40 + ^ $r14: .cfa -32 + ^ $r15: .cfa -24 + ^ $rbx: .cfa -56 + ^
STACK CFI 40d3e .cfa: $rsp 8 +
STACK CFI 40d40 .cfa: $rbp 16 +
STACK CFI INIT 40f30 4b .cfa: $rsp 8 + .ra: .cfa -8 + ^
STACK CFI 40f36 $rbp: .cfa -16 + ^ .cfa: $rsp 16 +
STACK CFI 40f39 .cfa: $rbp 16 +
STACK CFI 40f3b $r12: .cfa -24 + ^
STACK CFI 40f5d $r12: $r12
STACK CFI 40f5e $rbp: $rbp .cfa: $rsp 8 +
STACK CFI 40f68 $r12: .cfa -24 + ^ $rbp: .cfa -16 + ^ .cfa: $rbp 16 +
STACK CFI 40f71 .cfa: $rsp 8 +
STACK CFI 40f78 $r12: $r12 $rbp: $rbp
STACK CFI INIT 40f80 5 .cfa: $rsp 8 + .ra: .cfa -8 + ^
STACK CFI INIT 40f90 5 .cfa: $rsp 8 + .ra: .cfa -8 + ^
STACK CFI INIT 40fa0 23f .cfa: $rsp 8 + .ra: .cfa -8 + ^
STACK CFI 40fa1 $rbp: .cfa -16 + ^ .cfa: $rsp 16 +
STACK CFI 40fa4 .cfa: $rbp 16 +
STACK CFI 40fab $r12: .cfa -40 + ^ $r13: .cfa -32 + ^ $r14: .cfa -24 + ^ $rbx: .cfa -48 + ^
STACK CFI 4106c .cfa: $rsp 8 +
STACK CFI 41070 .cfa: $rbp 16 +
STACK CFI INIT 411e0 f6 .cfa: $rsp 8 + .ra: .cfa -8 + ^
STACK CFI 411e1 $rbp: .cfa -16 + ^ .cfa: $rsp 16 +
STACK CFI 411e4 .cfa: $rbp 16 +
STACK CFI 411e5 $rbx: .cfa -24 + ^
STACK CFI 41245 .cfa: $rsp 8 +
STACK CFI 41246 .cfa: $rbp 16 +
STACK CFI INIT 412e0 f4 .cfa: $rsp 8 + .ra: .cfa -8 + ^
STACK CFI 412e1 $rbp: .cfa -16 + ^ .cfa: $rsp 16 +
STACK CFI 412e4 .cfa: $rbp 16 +
STACK CFI 412eb $r12: .cfa -40 + ^ $r13: .cfa -32 + ^ $r14: .cfa -24 + ^ $rbx: .cfa -48 + ^
STACK CFI 413a6 .cfa: $rsp 8 +
STACK CFI 413b0 .cfa: $rbp 16 +
STACK CFI 413d3 .cfa: $rsp 8 +
STACK CFI INIT 413e0 216 .cfa: $rsp 8 + .ra: .cfa -8 + ^
STACK CFI 413e1 $rbp: .cfa -16 + ^ .cfa: $rsp 16 +
STACK CFI 413e4 .cfa: $rbp 16 +
STACK CFI 413ea $r13: .cfa -40 + ^ $r14: .cfa -32 + ^ $r15: .cfa -24 + ^
STACK CFI 413f7 $r12: .cfa -48 + ^ $rbx: .cfa -56 + ^
STACK CFI 4142b .cfa: $rsp 8 +
STACK CFI 4142c .cfa: $rbp 16 +
STACK CFI INIT 41600 2d8 .cfa: $rsp 8 + .ra: .cfa -8 + ^
STACK CFI 41601 $rbp: .cfa -16 + ^ .cfa: $rsp 16 +
STACK CFI 41607 .cfa: $rbp 16 +
STACK CFI 41639 .cfa: $rsp 8 +
STACK CFI 41640 .cfa: $rbp 16 +
STACK CFI 41657 .cfa: $rsp 8 +
STACK CFI 41660 .cfa: $rbp 16 +
STACK CFI 41677 .cfa: $rsp 8 +
STACK CFI 41680 .cfa: $rbp 16 +
STACK CFI 41697 .cfa: $rsp 8 +
STACK CFI 416a0 .cfa: $rbp 16 +
STACK CFI 416b7 .cfa: $rsp 8 +
STACK CFI 416c0 .cfa: $rbp 16 +
STACK CFI 416d7 .cfa: $rsp 8 +
STACK CFI 416e0 .cfa: $rbp 16 +
STACK CFI 416f7 .cfa: $rsp 8 +
STACK CFI 41700 .cfa: $rbp 16 +
STACK CFI 41717 .cfa: $rsp 8 +
STACK CFI 41720 .cfa: $rbp 16 +
STACK CFI 41737 .cfa: $rsp 8 +
STACK CFI 41740 .cfa: $rbp 16 +
STACK CFI 41757 .cfa: $rsp 8 +
STACK CFI 41760 .cfa: $rbp 16 +
STACK CFI 41777 .cfa: $rsp 8 +
STACK CFI 41780 .cfa: $rbp 16 +
STACK CFI 41797 .cfa: $rsp 8 +
STACK CFI 417a0 .cfa: $rbp 16 +
STACK CFI 417b7 .cfa: $rsp 8 +
STACK CFI 417c0 .cfa: $rbp 16 +
STACK CFI 417d7 .cfa: $rsp 8 +
STACK CFI 417e0 .cfa: $rbp 16 +
STACK CFI 417f7 .cfa: $rsp 8 +
STACK CFI 41800 .cfa: $rbp 16 +
STACK CFI 41817 .cfa: $rsp 8 +
STACK CFI 41820 .cfa: $rbp 16 +
STACK CFI 41837 .cfa: $rsp 8 +
STACK CFI 41840 .cfa: $rbp 16 +
STACK CFI 41857 .cfa: $rsp 8 +
STACK CFI 41860 .cfa: $rbp 16 +
STACK CFI 41877 .cfa: $rsp 8 +
STACK CFI 41880 .cfa: $rbp 16 +
STACK CFI 41897 .cfa: $rsp 8 +
STACK CFI 418a0 .cfa: $rbp 16 +
STACK CFI 418b7 .cfa: $rsp 8 +
STACK CFI 418c0 .cfa: $rbp 16 +
STACK CFI 418d7 .cfa: $rsp 8 +
STACK CFI INIT 418e0 3dd .cfa: $rsp 8 + .ra: .cfa -8 + ^
STACK CFI 418e1 $rbp: .cfa -16 + ^ .cfa: $rsp 16 +
STACK CFI 418e4 .cfa: $rbp 16 +
STACK CFI 418e6 $r15: .cfa -24 + ^
STACK CFI 418f7 $r12: .cfa -48 + ^ $r13: .cfa -40 + ^ $r14: .cfa -32 + ^ $rbx: .cfa -56 + ^
STACK CFI 41a4f .cfa: $rsp 8 +
STACK CFI 41a50 .cfa: $rbp 16 +
STACK CFI INIT 41cc0 7 .cfa: $rsp 8 + .ra: .cfa -8 + ^
STACK CFI INIT 41cd0 35f .cfa: $rsp 8 + .ra: .cfa -8 + ^
STACK CFI 41cd1 $rbp: .cfa -16 + ^ .cfa: $rsp 16 +
STACK CFI 41cd4 .cfa: $rbp 16 +
STACK CFI 41cd6 $r15: .cfa -24 + ^
STACK CFI 41ce7 $r12: .cfa -48 + ^ $r13: .cfa -40 + ^ $r14: .cfa -32 + ^ $rbx: .cfa -56 + ^
STACK CFI 41e01 .cfa: $rsp 8 +
STACK CFI 41e08 .cfa: $rbp 16 +
STACK CFI INIT 42030 7 .cfa: $rsp 8 + .ra: .cfa -8 + ^
STACK CFI INIT 42040 c1 .cfa: $rsp 8 + .ra: .cfa -8 + ^
STACK CFI 42041 $rbp: .cfa -16 + ^ .cfa: $rsp 16 +
STACK CFI 42044 .cfa: $rbp 16 +
STACK CFI 4204d $r12: .cfa -32 + ^ $r13: .cfa -24 + ^ $rbx: .cfa -40 + ^
STACK CFI 4207d .cfa: $rsp 8 +
STACK CFI 42080 .cfa: $rbp 16 +
STACK CFI 420e9 .cfa: $rsp 8 +
STACK CFI 420f0 .cfa: $rbp 16 +
STACK CFI 42100 .cfa: $rsp 8 +
STACK CFI INIT 42110 238 .cfa: $rsp 8 + .ra: .cfa -8 + ^
STACK CFI 42111 $rbp: .cfa -16 + ^ .cfa: $rsp 16 +
STACK CFI 42114 .cfa: $rbp 16 +
STACK CFI 42124 $r12: .cfa -48 + ^ $r13: .cfa -40 + ^ $r14: .cfa -32 + ^ $r15: .cfa -24 + ^ $rbx: .cfa -56 + ^
STACK CFI 4224a .cfa: $rsp 8 +
STACK CFI 42250 .cfa: $rbp 16 +
STACK CFI INIT 42350 292 .cfa: $rsp 8 + .ra: .cfa -8 + ^
STACK CFI 42351 $rbp: .cfa -16 + ^ .cfa: $rsp 16 +
STACK CFI 42354 .cfa: $rbp 16 +
STACK CFI 42358 $r14: .cfa -32 + ^ $r15: .cfa -24 + ^
STACK CFI 42367 $r12: .cfa -48 + ^ $r13: .cfa -40 + ^ $rbx: .cfa -56 + ^
STACK CFI 424b0 .cfa: $rsp 8 +
STACK CFI 424b8 .cfa: $rbp 16 +
STACK CFI INIT 425f0 ff .cfa: $rsp 8 + .ra: .cfa -8 + ^
STACK CFI 425f1 $rbp: .cfa -16 + ^ .cfa: $rsp 16 +
STACK CFI 425f4 .cfa: $rbp 16 +
STACK CFI 425fd $r12: .cfa -32 + ^ $r13: .cfa -24 + ^ $rbx: .cfa -40 + ^
STACK CFI 426b0 .cfa: $rsp 8 +
STACK CFI 426b8 .cfa: $rbp 16 +
STACK CFI 426ee .cfa: $rsp 8 +
STACK CFI INIT 426f0 358 .cfa: $rsp 8 + .ra: .cfa -8 + ^
STACK CFI 426f1 $rbp: .cfa -16 + ^ .cfa: $rsp 16 +
STACK CFI 426f4 .cfa: $rbp 16 +
STACK CFI 426fd $r12: .cfa -48 + ^ $r13: .cfa -40 + ^ $r14: .cfa -32 + ^ $r15: .cfa -24 + ^ $rbx: .cfa -56 + ^
STACK CFI 428b4 .cfa: $rsp 8 +
STACK CFI 428b8 .cfa: $rbp 16 +
STACK CFI INIT 42a50 7 .cfa: $rsp 8 + .ra: .cfa -8 + ^
STACK CFI INIT 42a60 300 .cfa: $rsp 8 + .ra: .cfa -8 + ^
STACK CFI 42a61 $rbp: .cfa -16 + ^ .cfa: $rsp 16 +
STACK CFI 42a64 .cfa: $rbp 16 +
STACK CFI 42a68 $r14: .cfa -32 + ^ $r15: .cfa -24 + ^
STACK CFI 42a77 $r12: .cfa -48 + ^ $r13: .cfa -40 + ^ $rbx: .cfa -56 + ^
STACK CFI 42b68 .cfa: $rsp 8 +
STACK CFI 42b70 .cfa: $rbp 16 +
STACK CFI INIT 42d60 7 .cfa: $rsp 8 + .ra: .cfa -8 + ^
STACK CFI INIT 42d70 6 .cfa: $rsp 8 + .ra: .cfa -8 + ^
STACK CFI INIT 42d80 6 .cfa: $rsp 8 + .ra: .cfa -8 + ^
STACK CFI INIT 42d90 35c .cfa: $rsp 8 + .ra: .cfa -8 + ^
STACK CFI 42d9e $rbp: .cfa -16 + ^ .cfa: $rsp 16 +
STACK CFI 42da6 .cfa: $rbp 16 +
STACK CFI 42dfb .cfa: $rsp 8 +
STACK CFI 42e00 $rbp: $rbp
STACK CFI 42e08 $rbp: .cfa -16 + ^ .cfa: $rbp 16 +
STACK CFI 42e57 .cfa: $rsp 8 +
STACK CFI 42e60 .cfa: $rbp 16 +
STACK CFI 42e68 .cfa: $rsp 8 +
STACK CFI 42e70 .cfa: $rbp 16 +
STACK CFI 42e8c .cfa: $rsp 8 +
STACK CFI 42e90 .cfa: $rbp 16 +
STACK CFI 42e98 .cfa: $rsp 8 +
STACK CFI 42ea0 .cfa: $rbp 16 +
STACK CFI 42ea8 .cfa: $rsp 8 +
STACK CFI 42eb0 .cfa: $rbp 16 +
STACK CFI 42ecc .cfa: $rsp 8 +
STACK CFI 42ed0 .cfa: $rbp 16 +
STACK CFI 42eec .cfa: $rsp 8 +
STACK CFI 42ef0 .cfa: $rbp 16 +
STACK CFI 42f0c .cfa: $rsp 8 +
STACK CFI 42f10 .cfa: $rbp 16 +
STACK CFI 42f18 .cfa: $rsp 8 +
STACK CFI 42f20 .cfa: $rbp 16 +
STACK CFI 42f7b .cfa: $rsp 8 +
STACK CFI 42f80 .cfa: $rbp 16 +
STACK CFI 42f88 .cfa: $rsp 8 +
STACK CFI 42f90 .cfa: $rbp 16 +
STACK CFI 42f98 .cfa: $rsp 8 +
STACK CFI 42fa0 .cfa: $rbp 16 +
STACK CFI 42fc0 .cfa: $rsp 8 +
STACK CFI 42fc8 .cfa: $rbp 16 +
STACK CFI 42ff9 .cfa: $rsp 8 +
STACK CFI 43000 .cfa: $rbp 16 +
STACK CFI 43020 .cfa: $rsp 8 +
STACK CFI 43021 .cfa: $rbp 16 +
STACK CFI 43029 .cfa: $rsp 8 +
STACK CFI 4302a .cfa: $rbp 16 +
STACK CFI 43032 .cfa: $rsp 8 +
STACK CFI 43033 .cfa: $rbp 16 +
STACK CFI 4303b .cfa: $rsp 8 +
STACK CFI 4303c .cfa: $rbp 16 +
STACK CFI 43044 .cfa: $rsp 8 +
STACK CFI 43045 .cfa: $rbp 16 +
STACK CFI 4304d .cfa: $rsp 8 +
STACK CFI 4304e .cfa: $rbp 16 +
STACK CFI 43056 .cfa: $rsp 8 +
STACK CFI 43057 .cfa: $rbp 16 +
STACK CFI 43069 .cfa: $rsp 8 +
STACK CFI 4306a .cfa: $rbp 16 +
STACK CFI 43072 .cfa: $rsp 8 +
STACK CFI 43073 .cfa: $rbp 16 +
STACK CFI 4307b .cfa: $rsp 8 +
STACK CFI 4307c .cfa: $rbp 16 +
STACK CFI 43097 .cfa: $rsp 8 +
STACK CFI 43098 .cfa: $rbp 16 +
STACK CFI 430a0 .cfa: $rsp 8 +
STACK CFI 430a1 .cfa: $rbp 16 +
STACK CFI 430a9 .cfa: $rsp 8 +
STACK CFI 430aa .cfa: $rbp 16 +
STACK CFI 430b2 .cfa: $rsp 8 +
STACK CFI 430b3 .cfa: $rbp 16 +
STACK CFI 430bb .cfa: $rsp 8 +
STACK CFI 430bc .cfa: $rbp 16 +
STACK CFI 430e2 .cfa: $rsp 8 +
STACK CFI 430e3 .cfa: $rbp 16 +
STACK CFI 430eb .cfa: $rsp 8 +
STACK CFI INIT 430f0 222 .cfa: $rsp 8 + .ra: .cfa -8 + ^
STACK CFI 430f1 $rbp: .cfa -16 + ^ .cfa: $rsp 16 +
STACK CFI 430f4 .cfa: $rbp 16 +
STACK CFI 430f6 $r15: .cfa -24 + ^
STACK CFI 43107 $r12: .cfa -48 + ^ $r13: .cfa -40 + ^ $r14: .cfa -32 + ^ $rbx: .cfa -56 + ^
STACK CFI 43260 .cfa: $rsp 8 +
STACK CFI 43268 .cfa: $rbp 16 +
STACK CFI INIT 43320 e4 .cfa: $rsp 8 + .ra: .cfa -8 + ^
STACK CFI 43321 $rbp: .cfa -16 + ^ .cfa: $rsp 16 +
STACK CFI 43324 .cfa: $rbp 16 +
STACK CFI 4332b $r12: .cfa -40 + ^ $r13: .cfa -32 + ^ $r14: .cfa -24 + ^ $rbx: .cfa -48 + ^
STACK CFI 433da .cfa: $rsp 8 +
STACK CFI 433e0 .cfa: $rbp 16 +
STACK CFI 43403 .cfa: $rsp 8 +
STACK CFI INIT 43410 1fa .cfa: $rsp 8 + .ra: .cfa -8 + ^
STACK CFI 43411 $rbp: .cfa -16 + ^ .cfa: $rsp 16 +
STACK CFI 43414 .cfa: $rbp 16 +
STACK CFI 43424 $r12: .cfa -48 + ^ $r13: .cfa -40 + ^ $r14: .cfa -32 + ^ $r15: .cfa -24 + ^ $rbx: .cfa -56 + ^
STACK CFI 435b1 .cfa: $rsp 8 +
STACK CFI 435b8 .cfa: $rbp 16 +
STACK CFI INIT 43610 2c .cfa: $rsp 8 + .ra: .cfa -8 + ^
STACK CFI INIT 43640 5 .cfa: $rsp 8 + .ra: .cfa -8 + ^
STACK CFI INIT 43650 167 .cfa: $rsp 8 + .ra: .cfa -8 + ^
STACK CFI 43651 $rbp: .cfa -16 + ^ .cfa: $rsp 16 +
STACK CFI 43654 .cfa: $rbp 16 +
STACK CFI 43661 $r12: .cfa -48 + ^ $r13: .cfa -40 + ^ $r14: .cfa -32 + ^ $r15: .cfa -24 + ^ $rbx: .cfa -56 + ^
STACK CFI 43794 .cfa: $rsp 8 +
STACK CFI 43798 .cfa: $rbp 16 +
STACK CFI INIT 437c0 226 .cfa: $rsp 8 + .ra: .cfa -8 + ^
STACK CFI 437c1 $rbp: .cfa -16 + ^ .cfa: $rsp 16 +
STACK CFI 437c4 .cfa: $rbp 16 +
STACK CFI 437ca $r13: .cfa -40 + ^ $r14: .cfa -32 + ^ $r15: .cfa -24 + ^
STACK CFI 437d7 $r12: .cfa -48 + ^ $rbx: .cfa -56 + ^
STACK CFI 4380b .cfa: $rsp 8 +
STACK CFI 4380c .cfa: $rbp 16 +
STACK CFI INIT 439f0 2f8 .cfa: $rsp 8 + .ra: .cfa -8 + ^
STACK CFI 439f1 $rbp: .cfa -16 + ^ .cfa: $rsp 16 +
STACK CFI 439f7 .cfa: $rbp 16 +
STACK CFI 43a29 .cfa: $rsp 8 +
STACK CFI 43a30 .cfa: $rbp 16 +
STACK CFI 43a47 .cfa: $rsp 8 +
STACK CFI 43a50 .cfa: $rbp 16 +
STACK CFI 43a67 .cfa: $rsp 8 +
STACK CFI 43a70 .cfa: $rbp 16 +
STACK CFI 43a87 .cfa: $rsp 8 +
STACK CFI 43a90 .cfa: $rbp 16 +
STACK CFI 43aa7 .cfa: $rsp 8 +
STACK CFI 43ab0 .cfa: $rbp 16 +
STACK CFI 43ac7 .cfa: $rsp 8 +
STACK CFI 43ad0 .cfa: $rbp 16 +
STACK CFI 43ae7 .cfa: $rsp 8 +
STACK CFI 43af0 .cfa: $rbp 16 +
STACK CFI 43b07 .cfa: $rsp 8 +
STACK CFI 43b10 .cfa: $rbp 16 +
STACK CFI 43b27 .cfa: $rsp 8 +
STACK CFI 43b30 .cfa: $rbp 16 +
STACK CFI 43b47 .cfa: $rsp 8 +
STACK CFI 43b50 .cfa: $rbp 16 +
STACK CFI 43b67 .cfa: $rsp 8 +
STACK CFI 43b70 .cfa: $rbp 16 +
STACK CFI 43b87 .cfa: $rsp 8 +
STACK CFI 43b90 .cfa: $rbp 16 +
STACK CFI 43ba7 .cfa: $rsp 8 +
STACK CFI 43bb0 .cfa: $rbp 16 +
STACK CFI 43bc7 .cfa: $rsp 8 +
STACK CFI 43bd0 .cfa: $rbp 16 +
STACK CFI 43be7 .cfa: $rsp 8 +
STACK CFI 43bf0 .cfa: $rbp 16 +
STACK CFI 43c07 .cfa: $rsp 8 +
STACK CFI 43c10 .cfa: $rbp 16 +
STACK CFI 43c27 .cfa: $rsp 8 +
STACK CFI 43c30 .cfa: $rbp 16 +
STACK CFI 43c47 .cfa: $rsp 8 +
STACK CFI 43c50 .cfa: $rbp 16 +
STACK CFI 43c67 .cfa: $rsp 8 +
STACK CFI 43c70 .cfa: $rbp 16 +
STACK CFI 43c87 .cfa: $rsp 8 +
STACK CFI 43c90 .cfa: $rbp 16 +
STACK CFI 43ca7 .cfa: $rsp 8 +
STACK CFI 43cb0 .cfa: $rbp 16 +
STACK CFI 43cc7 .cfa: $rsp 8 +
STACK CFI 43cd0 .cfa: $rbp 16 +
STACK CFI 43ce7 .cfa: $rsp 8 +
STACK CFI INIT 43cf0 3dd .cfa: $rsp 8 + .ra: .cfa -8 + ^
STACK CFI 43cf1 $rbp: .cfa -16 + ^ .cfa: $rsp 16 +
STACK CFI 43cf4 .cfa: $rbp 16 +
STACK CFI 43cf6 $r15: .cfa -24 + ^
STACK CFI 43d07 $r12: .cfa -48 + ^ $r13: .cfa -40 + ^ $r14: .cfa -32 + ^ $rbx: .cfa -56 + ^
STACK CFI 43e5f .cfa: $rsp 8 +
STACK CFI 43e60 .cfa: $rbp 16 +
STACK CFI INIT 440d0 7 .cfa: $rsp 8 + .ra: .cfa -8 + ^
STACK CFI INIT 440e0 35f .cfa: $rsp 8 + .ra: .cfa -8 + ^
STACK CFI 440e1 $rbp: .cfa -16 + ^ .cfa: $rsp 16 +
STACK CFI 440e4 .cfa: $rbp 16 +
STACK CFI 440e6 $r15: .cfa -24 + ^
STACK CFI 440f7 $r12: .cfa -48 + ^ $r13: .cfa -40 + ^ $r14: .cfa -32 + ^ $rbx: .cfa -56 + ^
STACK CFI 44211 .cfa: $rsp 8 +
STACK CFI 44218 .cfa: $rbp 16 +
STACK CFI INIT 44440 7 .cfa: $rsp 8 + .ra: .cfa -8 + ^
STACK CFI INIT 44450 174 .cfa: $rsp 8 + .ra: .cfa -8 + ^
STACK CFI 44451 $rbp: .cfa -16 + ^ .cfa: $rsp 16 +
STACK CFI 44454 .cfa: $rbp 16 +
STACK CFI 4445c $r12: .cfa -48 + ^ $r13: .cfa -40 + ^ $r14: .cfa -32 + ^ $r15: .cfa -24 + ^
STACK CFI 44464 $rbx: .cfa -56 + ^
STACK CFI 44520 .cfa: $rsp 8 +
STACK CFI 44528 .cfa: $rbp 16 +
STACK CFI 44564 .cfa: $rsp 8 +
STACK CFI 44568 .cfa: $rbp 16 +
STACK CFI INIT 445d0 10e .cfa: $rsp 8 + .ra: .cfa -8 + ^
STACK CFI 445d1 $rbp: .cfa -16 + ^ .cfa: $rsp 16 +
STACK CFI 445d4 .cfa: $rbp 16 +
STACK CFI 445db $r12: .cfa -40 + ^ $r13: .cfa -32 + ^ $r14: .cfa -24 + ^ $rbx: .cfa -48 + ^
STACK CFI 446a5 .cfa: $rsp 8 +
STACK CFI 446b0 .cfa: $rbp 16 +
STACK CFI 446be .cfa: $rsp 8 +
STACK CFI 446c0 .cfa: $rbp 16 +
STACK CFI 446d9 .cfa: $rsp 8 +
STACK CFI INIT 446e0 2ae .cfa: $rsp 8 + .ra: .cfa -8 + ^
STACK CFI 446e1 $rbp: .cfa -16 + ^ .cfa: $rsp 16 +
STACK CFI 446e4 .cfa: $rbp 16 +
STACK CFI 446e6 $r15: .cfa -24 + ^
STACK CFI 446ed $r13: .cfa -40 + ^ $r14: .cfa -32 + ^
STACK CFI 446fa $r12: .cfa -48 + ^ $rbx: .cfa -56 + ^
STACK CFI 4479b .cfa: $rsp 8 +
STACK CFI 447a0 .cfa: $rbp 16 +
STACK CFI INIT 44990 2ad .cfa: $rsp 8 + .ra: .cfa -8 + ^
STACK CFI 44991 $rbp: .cfa -16 + ^ .cfa: $rsp 16 +
STACK CFI 44994 .cfa: $rbp 16 +
STACK CFI 449a4 $r12: .cfa -48 + ^ $r13: .cfa -40 + ^ $r14: .cfa -32 + ^ $r15: .cfa -24 + ^ $rbx: .cfa -56 + ^
STACK CFI 44af4 .cfa: $rsp 8 +
STACK CFI 44af8 .cfa: $rbp 16 +
STACK CFI INIT 44c40 85 .cfa: $rsp 8 + .ra: .cfa -8 + ^
STACK CFI 44c41 $rbp: .cfa -16 + ^ .cfa: $rsp 16 +
STACK CFI 44c44 .cfa: $rbp 16 +
STACK CFI 44c4b $r12: .cfa -40 + ^ $r13: .cfa -32 + ^ $r14: .cfa -24 + ^ $rbx: .cfa -48 + ^
STACK CFI 44c7f .cfa: $rsp 8 +
STACK CFI 44c88 .cfa: $rbp 16 +
STACK CFI 44c9d .cfa: $rsp 8 +
STACK CFI 44ca0 .cfa: $rbp 16 +
STACK CFI 44cc0 .cfa: $rsp 8 +
STACK CFI INIT 44cd0 d0 .cfa: $rsp 8 + .ra: .cfa -8 + ^
STACK CFI 44cd1 $rbp: .cfa -16 + ^ .cfa: $rsp 16 +
STACK CFI 44cd4 .cfa: $rbp 16 +
STACK CFI 44cd6 $r13: .cfa -24 + ^
STACK CFI 44cdb $r12: .cfa -32 + ^
STACK CFI 44ce3 $rbx: .cfa -40 + ^
STACK CFI 44d45 .cfa: $rsp 8 +
STACK CFI 44d50 .cfa: $rbp 16 +
STACK CFI 44d9f .cfa: $rsp 8 +
STACK CFI INIT 44da0 1229 .cfa: $rsp 8 + .ra: .cfa -8 + ^
STACK CFI 44da1 $rbp: .cfa -16 + ^ .cfa: $rsp 16 +
STACK CFI 44da7 .cfa: $rbp 16 +
STACK CFI 44da9 $r15: .cfa -24 + ^
STACK CFI 44db1 $r14: .cfa -32 + ^
STACK CFI 44db9 $r12: .cfa -48 + ^ $r13: .cfa -40 + ^ $rbx: .cfa -56 + ^
STACK CFI 44efd .cfa: $rsp 8 +
STACK CFI 44efe .cfa: $rbp 16 +
STACK CFI INIT 45fd0 fdd .cfa: $rsp 8 + .ra: .cfa -8 + ^
STACK CFI 45fd1 $rbp: .cfa -16 + ^ .cfa: $rsp 16 +
STACK CFI 45fd4 .cfa: $rbp 16 +
STACK CFI 45fd6 $r15: .cfa -24 + ^
STACK CFI 45fde $r14: .cfa -32 + ^
STACK CFI 45fe3 $r13: .cfa -40 + ^
STACK CFI 45fec $r12: .cfa -48 + ^ $rbx: .cfa -56 + ^
STACK CFI 462e5 .cfa: $rsp 8 +
STACK CFI 462f0 .cfa: $rbp 16 +
STACK CFI INIT 46fb0 10 .cfa: $rsp 8 + .ra: .cfa -8 + ^
STACK CFI INIT 46fc0 13 .cfa: $rsp 8 + .ra: .cfa -8 + ^
STACK CFI INIT 46fe0 13 .cfa: $rsp 8 + .ra: .cfa -8 + ^
STACK CFI INIT 47000 97d .cfa: $rsp 8 + .ra: .cfa -8 + ^
STACK CFI 47001 $rbp: .cfa -16 + ^ .cfa: $rsp 16 +
STACK CFI 47004 .cfa: $rbp 16 +
STACK CFI 47006 $r15: .cfa -24 + ^
STACK CFI 4700b $r14: .cfa -32 + ^
STACK CFI 47010 $r13: .cfa -40 + ^
STACK CFI 47019 $r12: .cfa -48 + ^ $rbx: .cfa -56 + ^
STACK CFI 47271 .cfa: $rsp 8 +
STACK CFI 47278 .cfa: $rbp 16 +
STACK CFI INIT 47980 10 .cfa: $rsp 8 + .ra: .cfa -8 + ^
STACK CFI INIT 47990 13 .cfa: $rsp 8 + .ra: .cfa -8 + ^
STACK CFI INIT 479b0 96d .cfa: $rsp 8 + .ra: .cfa -8 + ^
STACK CFI 479b1 $rbp: .cfa -16 + ^ .cfa: $rsp 16 +
STACK CFI 479b7 .cfa: $rbp 16 +
STACK CFI 479b9 $r15: .cfa -24 + ^
STACK CFI 479be $r14: .cfa -32 + ^
STACK CFI 479c6 $r12: .cfa -48 + ^ $r13: .cfa -40 + ^ $rbx: .cfa -56 + ^
STACK CFI 47c11 .cfa: $rsp 8 +
STACK CFI 47c18 .cfa: $rbp 16 +
STACK CFI INIT 48320 96d .cfa: $rsp 8 + .ra: .cfa -8 + ^
STACK CFI 48321 $rbp: .cfa -16 + ^ .cfa: $rsp 16 +
STACK CFI 48327 .cfa: $rbp 16 +
STACK CFI 48329 $r15: .cfa -24 + ^
STACK CFI 4832e $r14: .cfa -32 + ^
STACK CFI 48336 $r12: .cfa -48 + ^ $r13: .cfa -40 + ^ $rbx: .cfa -56 + ^
STACK CFI 48581 .cfa: $rsp 8 +
STACK CFI 48588 .cfa: $rbp 16 +
STACK CFI INIT 48c90 5bb .cfa: $rsp 8 + .ra: .cfa -8 + ^
STACK CFI 48c91 $rbp: .cfa -16 + ^ .cfa: $rsp 16 +
STACK CFI 48c97 .cfa: $rbp 16 +
STACK CFI 48c9b $r14: .cfa -32 + ^ $r15: .cfa -24 + ^
STACK CFI 48ca0 $r13: .cfa -40 + ^
STACK CFI 48ca6 $r12: .cfa -48 + ^ $rbx: .cfa -56 + ^
STACK CFI 48d9e .cfa: $rsp 8 +
STACK CFI 48da0 .cfa: $rbp 16 +
STACK CFI INIT 49250 6be .cfa: $rsp 8 + .ra: .cfa -8 + ^
STACK CFI 49251 $rbp: .cfa -16 + ^ .cfa: $rsp 16 +
STACK CFI 49257 .cfa: $rbp 16 +
STACK CFI 49259 $r15: .cfa -24 + ^
STACK CFI 49260 $r13: .cfa -40 + ^ $r14: .cfa -32 + ^
STACK CFI 49266 $r12: .cfa -48 + ^ $rbx: .cfa -56 + ^
STACK CFI 4936f .cfa: $rsp 8 +
STACK CFI 49370 .cfa: $rbp 16 +
STACK CFI INIT 49910 722 .cfa: $rsp 8 + .ra: .cfa -8 + ^
STACK CFI 49911 $rbp: .cfa -16 + ^ .cfa: $rsp 16 +
STACK CFI 49914 .cfa: $rbp 16 +
STACK CFI 49916 $r15: .cfa -24 + ^
STACK CFI 4991b $r14: .cfa -32 + ^
STACK CFI 49920 $r13: .cfa -40 + ^
STACK CFI 49929 $r12: .cfa -48 + ^ $rbx: .cfa -56 + ^
STACK CFI 49a4c .cfa: $rsp 8 +
STACK CFI 49a50 .cfa: $rbp 16 +
STACK CFI INIT 4a040 722 .cfa: $rsp 8 + .ra: .cfa -8 + ^
STACK CFI 4a041 $rbp: .cfa -16 + ^ .cfa: $rsp 16 +
STACK CFI 4a044 .cfa: $rbp 16 +
STACK CFI 4a046 $r15: .cfa -24 + ^
STACK CFI 4a04b $r14: .cfa -32 + ^
STACK CFI 4a050 $r13: .cfa -40 + ^
STACK CFI 4a059 $r12: .cfa -48 + ^ $rbx: .cfa -56 + ^
STACK CFI 4a17c .cfa: $rsp 8 +
STACK CFI 4a180 .cfa: $rbp 16 +
STACK CFI INIT 4a770 69f .cfa: $rsp 8 + .ra: .cfa -8 + ^
STACK CFI 4a771 $rbp: .cfa -16 + ^ .cfa: $rsp 16 +
STACK CFI 4a774 .cfa: $rbp 16 +
STACK CFI 4a776 $r15: .cfa -24 + ^
STACK CFI 4a77b $r14: .cfa -32 + ^
STACK CFI 4a780 $r13: .cfa -40 + ^
STACK CFI 4a789 $r12: .cfa -48 + ^ $rbx: .cfa -56 + ^
STACK CFI 4a897 .cfa: $rsp 8 +
STACK CFI 4a8a0 .cfa: $rbp 16 +
STACK CFI INIT 4ae10 69f .cfa: $rsp 8 + .ra: .cfa -8 + ^
STACK CFI 4ae11 $rbp: .cfa -16 + ^ .cfa: $rsp 16 +
STACK CFI 4ae14 .cfa: $rbp 16 +
STACK CFI 4ae16 $r15: .cfa -24 + ^
STACK CFI 4ae1b $r14: .cfa -32 + ^
STACK CFI 4ae20 $r13: .cfa -40 + ^
STACK CFI 4ae29 $r12: .cfa -48 + ^ $rbx: .cfa -56 + ^
STACK CFI 4af37 .cfa: $rsp 8 +
STACK CFI 4af40 .cfa: $rbp 16 +
STACK CFI INIT 4b4b0 69f .cfa: $rsp 8 + .ra: .cfa -8 + ^
STACK CFI 4b4b1 $rbp: .cfa -16 + ^ .cfa: $rsp 16 +
STACK CFI 4b4b4 .cfa: $rbp 16 +
STACK CFI 4b4b6 $r15: .cfa -24 + ^
STACK CFI 4b4bb $r14: .cfa -32 + ^
STACK CFI 4b4c0 $r13: .cfa -40 + ^
STACK CFI 4b4c9 $r12: .cfa -48 + ^ $rbx: .cfa -56 + ^
STACK CFI 4b5d7 .cfa: $rsp 8 +
STACK CFI 4b5e0 .cfa: $rbp 16 +
STACK CFI INIT 4bb50 69f .cfa: $rsp 8 + .ra: .cfa -8 + ^
STACK CFI 4bb51 $rbp: .cfa -16 + ^ .cfa: $rsp 16 +
STACK CFI 4bb54 .cfa: $rbp 16 +
STACK CFI 4bb56 $r15: .cfa -24 + ^
STACK CFI 4bb5b $r14: .cfa -32 + ^
STACK CFI 4bb60 $r13: .cfa -40 + ^
STACK CFI 4bb69 $r12: .cfa -48 + ^ $rbx: .cfa -56 + ^
STACK CFI 4bc77 .cfa: $rsp 8 +
STACK CFI 4bc80 .cfa: $rbp 16 +
STACK CFI INIT 4c1f0 543 .cfa: $rsp 8 + .ra: .cfa -8 + ^
STACK CFI 4c1f1 $rbp: .cfa -16 + ^ .cfa: $rsp 16 +
STACK CFI 4c1f7 .cfa: $rbp 16 +
STACK CFI 4c1fb $r14: .cfa -32 + ^ $r15: .cfa -24 + ^
STACK CFI 4c203 $r12: .cfa -48 + ^ $r13: .cfa -40 + ^ $rbx: .cfa -56 + ^
STACK CFI 4c30a .cfa: $rsp 8 +
STACK CFI 4c310 .cfa: $rbp 16 +
STACK CFI INIT 4c740 3c3 .cfa: $rsp 8 + .ra: .cfa -8 + ^
STACK CFI 4c741 $rbp: .cfa -16 + ^ .cfa: $rsp 16 +
STACK CFI 4c744 .cfa: $rbp 16 +
STACK CFI 4c747 $r12: .cfa -24 + ^ $rbx: .cfa -32 + ^
STACK CFI 4c848 .cfa: $rsp 8 +
STACK CFI 4c850 .cfa: $rbp 16 +
STACK CFI 4c8f1 .cfa: $rsp 8 +
STACK CFI 4c8f8 .cfa: $rbp 16 +
STACK CFI INIT 4cb10 45e .cfa: $rsp 8 + .ra: .cfa -8 + ^
STACK CFI 4cb11 $rbp: .cfa -16 + ^ .cfa: $rsp 16 +
STACK CFI 4cb14 .cfa: $rbp 16 +
STACK CFI 4cb1a $r13: .cfa -40 + ^ $r14: .cfa -32 + ^ $r15: .cfa -24 + ^
STACK CFI 4cb24 $r12: .cfa -48 + ^ $rbx: .cfa -56 + ^
STACK CFI 4cda6 .cfa: $rsp 8 +
STACK CFI 4cdb0 .cfa: $rbp 16 +
STACK CFI INIT 4cf70 2c1 .cfa: $rsp 8 + .ra: .cfa -8 + ^
STACK CFI 4cf71 $rbp: .cfa -16 + ^ .cfa: $rsp 16 +
STACK CFI 4cf74 .cfa: $rbp 16 +
STACK CFI 4cf7a $r13: .cfa -40 + ^ $r14: .cfa -32 + ^ $r15: .cfa -24 + ^
STACK CFI 4cf7f $r12: .cfa -48 + ^
STACK CFI 4cf83 $rbx: .cfa -56 + ^
STACK CFI 4d1c3 .cfa: $rsp 8 +
STACK CFI 4d1c8 .cfa: $rbp 16 +
STACK CFI INIT 4d240 215 .cfa: $rsp 8 + .ra: .cfa -8 + ^
STACK CFI 4d241 $rbp: .cfa -16 + ^ .cfa: $rsp 16 +
STACK CFI 4d244 .cfa: $rbp 16 +
STACK CFI 4d248 $r14: .cfa -32 + ^ $r15: .cfa -24 + ^
STACK CFI 4d250 $r12: .cfa -48 + ^ $r13: .cfa -40 + ^ $rbx: .cfa -56 + ^
STACK CFI 4d3b6 .cfa: $rsp 8 +
STACK CFI 4d3c0 .cfa: $rbp 16 +
STACK CFI INIT 4d460 3ff .cfa: $rsp 8 + .ra: .cfa -8 + ^
STACK CFI 4d461 $rbp: .cfa -16 + ^ .cfa: $rsp 16 +
STACK CFI 4d464 .cfa: $rbp 16 +
STACK CFI 4d466 $r15: .cfa -24 + ^
STACK CFI 4d46d $r13: .cfa -40 + ^ $r14: .cfa -32 + ^
STACK CFI 4d477 $r12: .cfa -48 + ^ $rbx: .cfa -56 + ^
STACK CFI 4d7bd .cfa: $rsp 8 +
STACK CFI 4d7c0 .cfa: $rbp 16 +
STACK CFI INIT 4d860 4dc .cfa: $rsp 8 + .ra: .cfa -8 + ^
STACK CFI 4d861 $rbp: .cfa -16 + ^ .cfa: $rsp 16 +
STACK CFI 4d864 .cfa: $rbp 16 +
STACK CFI 4d871 $r12: .cfa -48 + ^ $r13: .cfa -40 + ^ $r14: .cfa -32 + ^ $r15: .cfa -24 + ^ $rbx: .cfa -56 + ^
STACK CFI 4d989 .cfa: $rsp 8 +
STACK CFI 4d990 .cfa: $rbp 16 +
STACK CFI INIT 4dd40 771 .cfa: $rsp 8 + .ra: .cfa -8 + ^
STACK CFI 4dd41 $rbp: .cfa -16 + ^ .cfa: $rsp 16 +
STACK CFI 4dd44 .cfa: $rbp 16 +
STACK CFI 4dd4a $r13: .cfa -40 + ^ $r14: .cfa -32 + ^ $r15: .cfa -24 + ^
STACK CFI 4dd50 $r12: .cfa -48 + ^ $rbx: .cfa -56 + ^
STACK CFI 4df47 .cfa: $rsp 8 +
STACK CFI 4df50 .cfa: $rbp 16 +
STACK CFI INIT 4e4c0 62f .cfa: $rsp 8 + .ra: .cfa -8 + ^
STACK CFI 4e4c1 $rbp: .cfa -16 + ^ .cfa: $rsp 16 +
STACK CFI 4e4c4 .cfa: $rbp 16 +
STACK CFI 4e4c7 $r12: .cfa -24 + ^ $rbx: .cfa -32 + ^
STACK CFI 4e51e .cfa: $rsp 8 +
STACK CFI 4e520 .cfa: $rbp 16 +
STACK CFI 4e547 .cfa: $rsp 8 +
STACK CFI 4e550 .cfa: $rbp 16 +
STACK CFI 4e58e .cfa: $rsp 8 +
STACK CFI 4e590 .cfa: $rbp 16 +
STACK CFI 4e5c3 .cfa: $rsp 8 +
STACK CFI 4e5c8 .cfa: $rbp 16 +
STACK CFI INIT 4eaf0 414 .cfa: $rsp 8 + .ra: .cfa -8 + ^
STACK CFI 4eaf1 $rbp: .cfa -16 + ^ .cfa: $rsp 16 +
STACK CFI 4eaf4 .cfa: $rbp 16 +
STACK CFI 4eaf6 $r15: .cfa -24 + ^
STACK CFI 4eb00 $r13: .cfa -40 + ^ $r14: .cfa -32 + ^
STACK CFI 4eb05 $r12: .cfa -48 + ^
STACK CFI 4eb09 $rbx: .cfa -56 + ^
STACK CFI 4ebac .cfa: $rsp 8 +
STACK CFI 4ebb0 .cfa: $rbp 16 +
STACK CFI INIT 4ef10 3d4 .cfa: $rsp 8 + .ra: .cfa -8 + ^
STACK CFI 4ef11 $rbp: .cfa -16 + ^ .cfa: $rsp 16 +
STACK CFI 4ef14 .cfa: $rbp 16 +
STACK CFI 4ef19 $r12: .cfa -32 + ^ $r13: .cfa -24 + ^ $rbx: .cfa -40 + ^
STACK CFI 4ef70 .cfa: $rsp 8 +
STACK CFI 4ef78 .cfa: $rbp 16 +
STACK CFI 4ef8c .cfa: $rsp 8 +
STACK CFI 4ef90 .cfa: $rbp 16 +
STACK CFI 4efa8 .cfa: $rsp 8 +
STACK CFI 4efb0 .cfa: $rbp 16 +
STACK CFI INIT 4f2f0 3d4 .cfa: $rsp 8 + .ra: .cfa -8 + ^
STACK CFI 4f2f1 $rbp: .cfa -16 + ^ .cfa: $rsp 16 +
STACK CFI 4f2f4 .cfa: $rbp 16 +
STACK CFI 4f2f9 $r12: .cfa -32 + ^ $r13: .cfa -24 + ^ $rbx: .cfa -40 + ^
STACK CFI 4f350 .cfa: $rsp 8 +
STACK CFI 4f358 .cfa: $rbp 16 +
STACK CFI 4f36c .cfa: $rsp 8 +
STACK CFI 4f370 .cfa: $rbp 16 +
STACK CFI 4f388 .cfa: $rsp 8 +
STACK CFI 4f390 .cfa: $rbp 16 +
STACK CFI INIT 4f6d0 404 .cfa: $rsp 8 + .ra: .cfa -8 + ^
STACK CFI 4f6d1 $rbp: .cfa -16 + ^ .cfa: $rsp 16 +
STACK CFI 4f6d4 .cfa: $rbp 16 +
STACK CFI 4f6db $r12: .cfa -40 + ^ $r13: .cfa -32 + ^ $r14: .cfa -24 + ^ $rbx: .cfa -48 + ^
STACK CFI 4f72e .cfa: $rsp 8 +
STACK CFI 4f730 .cfa: $rbp 16 +
STACK CFI 4f742 .cfa: $rsp 8 +
STACK CFI 4f748 .cfa: $rbp 16 +
STACK CFI 4f75e .cfa: $rsp 8 +
STACK CFI 4f760 .cfa: $rbp 16 +
STACK CFI INIT 4fae0 404 .cfa: $rsp 8 + .ra: .cfa -8 + ^
STACK CFI 4fae1 $rbp: .cfa -16 + ^ .cfa: $rsp 16 +
STACK CFI 4fae4 .cfa: $rbp 16 +
STACK CFI 4faeb $r12: .cfa -40 + ^ $r13: .cfa -32 + ^ $r14: .cfa -24 + ^ $rbx: .cfa -48 + ^
STACK CFI 4fb3e .cfa: $rsp 8 +
STACK CFI 4fb40 .cfa: $rbp 16 +
STACK CFI 4fb52 .cfa: $rsp 8 +
STACK CFI 4fb58 .cfa: $rbp 16 +
STACK CFI 4fb6e .cfa: $rsp 8 +
STACK CFI 4fb70 .cfa: $rbp 16 +
STACK CFI INIT 4fef0 404 .cfa: $rsp 8 + .ra: .cfa -8 + ^
STACK CFI 4fef1 $rbp: .cfa -16 + ^ .cfa: $rsp 16 +
STACK CFI 4fef4 .cfa: $rbp 16 +
STACK CFI 4fefb $r12: .cfa -40 + ^ $r13: .cfa -32 + ^ $r14: .cfa -24 + ^ $rbx: .cfa -48 + ^
STACK CFI 4ff4e .cfa: $rsp 8 +
STACK CFI 4ff50 .cfa: $rbp 16 +
STACK CFI 4ff62 .cfa: $rsp 8 +
STACK CFI 4ff68 .cfa: $rbp 16 +
STACK CFI 4ff7e .cfa: $rsp 8 +
STACK CFI 4ff80 .cfa: $rbp 16 +
STACK CFI INIT 50300 404 .cfa: $rsp 8 + .ra: .cfa -8 + ^
STACK CFI 50301 $rbp: .cfa -16 + ^ .cfa: $rsp 16 +
STACK CFI 50304 .cfa: $rbp 16 +
STACK CFI 5030b $r12: .cfa -40 + ^ $r13: .cfa -32 + ^ $r14: .cfa -24 + ^ $rbx: .cfa -48 + ^
STACK CFI 5035e .cfa: $rsp 8 +
STACK CFI 50360 .cfa: $rbp 16 +
STACK CFI 50372 .cfa: $rsp 8 +
STACK CFI 50378 .cfa: $rbp 16 +
STACK CFI 5038e .cfa: $rsp 8 +
STACK CFI 50390 .cfa: $rbp 16 +
STACK CFI INIT 50710 404 .cfa: $rsp 8 + .ra: .cfa -8 + ^
STACK CFI 50711 $rbp: .cfa -16 + ^ .cfa: $rsp 16 +
STACK CFI 50714 .cfa: $rbp 16 +
STACK CFI 5071b $r12: .cfa -40 + ^ $r13: .cfa -32 + ^ $r14: .cfa -24 + ^ $rbx: .cfa -48 + ^
STACK CFI 5076e .cfa: $rsp 8 +
STACK CFI 50770 .cfa: $rbp 16 +
STACK CFI 50782 .cfa: $rsp 8 +
STACK CFI 50788 .cfa: $rbp 16 +
STACK CFI 5079e .cfa: $rsp 8 +
STACK CFI 507a0 .cfa: $rbp 16 +
STACK CFI INIT 50b20 404 .cfa: $rsp 8 + .ra: .cfa -8 + ^
STACK CFI 50b21 $rbp: .cfa -16 + ^ .cfa: $rsp 16 +
STACK CFI 50b24 .cfa: $rbp 16 +
STACK CFI 50b2b $r12: .cfa -40 + ^ $r13: .cfa -32 + ^ $r14: .cfa -24 + ^ $rbx: .cfa -48 + ^
STACK CFI 50b7e .cfa: $rsp 8 +
STACK CFI 50b80 .cfa: $rbp 16 +
STACK CFI 50b92 .cfa: $rsp 8 +
STACK CFI 50b98 .cfa: $rbp 16 +
STACK CFI 50bae .cfa: $rsp 8 +
STACK CFI 50bb0 .cfa: $rbp 16 +
STACK CFI INIT 50f30 384 .cfa: $rsp 8 + .ra: .cfa -8 + ^
STACK CFI 50f31 $rbp: .cfa -16 + ^ .cfa: $rsp 16 +
STACK CFI 50f34 .cfa: $rbp 16 +
STACK CFI 50f37 $r12: .cfa -24 + ^ $rbx: .cfa -32 + ^
STACK CFI 50f77 .cfa: $rsp 8 +
STACK CFI 50f80 .cfa: $rbp 16 +
STACK CFI 50fab .cfa: $rsp 8 +
STACK CFI 50fb0 .cfa: $rbp 16 +
STACK CFI 50fbf .cfa: $rsp 8 +
STACK CFI 50fc0 .cfa: $rbp 16 +
STACK CFI INIT 512c0 3f2 .cfa: $rsp 8 + .ra: .cfa -8 + ^
STACK CFI 512c1 $rbp: .cfa -16 + ^ .cfa: $rsp 16 +
STACK CFI 512c4 .cfa: $rbp 16 +
STACK CFI 512c8 $r12: .cfa -32 + ^ $r13: .cfa -24 + ^
STACK CFI 512cc $rbx: .cfa -40 + ^
STACK CFI 51325 .cfa: $rsp 8 +
STACK CFI 51330 .cfa: $rbp 16 +
STACK CFI 51386 .cfa: $rsp 8 +
STACK CFI 51390 .cfa: $rbp 16 +
STACK CFI 513a5 .cfa: $rsp 8 +
STACK CFI 513b0 .cfa: $rbp 16 +
STACK CFI 51443 .cfa: $rsp 8 +
STACK CFI 51448 .cfa: $rbp 16 +
STACK CFI INIT 516c0 394 .cfa: $rsp 8 + .ra: .cfa -8 + ^
STACK CFI 516c1 $rbp: .cfa -16 + ^ .cfa: $rsp 16 +
STACK CFI 516c4 .cfa: $rbp 16 +
STACK CFI 516c6 $r12: .cfa -24 + ^
STACK CFI 516ca $rbx: .cfa -32 + ^
STACK CFI 5170f .cfa: $rsp 8 +
STACK CFI 51710 .cfa: $rbp 16 +
STACK CFI 51760 .cfa: $rsp 8 +
STACK CFI 51768 .cfa: $rbp 16 +
STACK CFI 51777 .cfa: $rsp 8 +
STACK CFI 51780 .cfa: $rbp 16 +
STACK CFI INIT 51a60 394 .cfa: $rsp 8 + .ra: .cfa -8 + ^
STACK CFI 51a61 $rbp: .cfa -16 + ^ .cfa: $rsp 16 +
STACK CFI 51a64 .cfa: $rbp 16 +
STACK CFI 51a66 $r12: .cfa -24 + ^
STACK CFI 51a6a $rbx: .cfa -32 + ^
STACK CFI 51aaf .cfa: $rsp 8 +
STACK CFI 51ab0 .cfa: $rbp 16 +
STACK CFI 51b00 .cfa: $rsp 8 +
STACK CFI 51b08 .cfa: $rbp 16 +
STACK CFI 51b17 .cfa: $rsp 8 +
STACK CFI 51b20 .cfa: $rbp 16 +
STACK CFI INIT 51e00 cc0 .cfa: $rsp 8 + .ra: .cfa -8 + ^
STACK CFI 51e01 $rbp: .cfa -16 + ^ .cfa: $rsp 16 +
STACK CFI 51e09 .cfa: $rbp 16 +
STACK CFI 51e12 $r12: .cfa -48 + ^ $r13: .cfa -40 + ^ $r14: .cfa -32 + ^ $r15: .cfa -24 + ^ $rbx: .cfa -56 + ^
STACK CFI 52008 .cfa: $rsp 8 +
STACK CFI 52010 .cfa: $rbp 16 +
STACK CFI INIT 52ac0 a .cfa: $rsp 8 + .ra: .cfa -8 + ^
STACK CFI INIT 52ad0 96e .cfa: $rsp 8 + .ra: .cfa -8 + ^
STACK CFI 52ad1 $rbp: .cfa -16 + ^ .cfa: $rsp 16 +
STACK CFI 52ad4 .cfa: $rbp 16 +
STACK CFI 52ad8 $r14: .cfa -32 + ^ $r15: .cfa -24 + ^
STACK CFI 52ae7 $r12: .cfa -48 + ^ $r13: .cfa -40 + ^ $rbx: .cfa -56 + ^
STACK CFI 52ce8 .cfa: $rsp 8 +
STACK CFI 52cf0 .cfa: $rbp 16 +
STACK CFI INIT 53440 a .cfa: $rsp 8 + .ra: .cfa -8 + ^
STACK CFI INIT 53450 942 .cfa: $rsp 8 + .ra: .cfa -8 + ^
STACK CFI 53451 $rbp: .cfa -16 + ^ .cfa: $rsp 16 +
STACK CFI 53454 .cfa: $rbp 16 +
STACK CFI 5345d $r12: .cfa -48 + ^ $r13: .cfa -40 + ^ $r14: .cfa -32 + ^ $r15: .cfa -24 + ^ $rbx: .cfa -56 + ^
STACK CFI 53658 .cfa: $rsp 8 +
STACK CFI 53660 .cfa: $rbp 16 +
STACK CFI INIT 53da0 a .cfa: $rsp 8 + .ra: .cfa -8 + ^
STACK CFI INIT 53db0 942 .cfa: $rsp 8 + .ra: .cfa -8 + ^
STACK CFI 53db1 $rbp: .cfa -16 + ^ .cfa: $rsp 16 +
STACK CFI 53db4 .cfa: $rbp 16 +
STACK CFI 53dbd $r12: .cfa -48 + ^ $r13: .cfa -40 + ^ $r14: .cfa -32 + ^ $r15: .cfa -24 + ^ $rbx: .cfa -56 + ^
STACK CFI 53fb8 .cfa: $rsp 8 +
STACK CFI 53fc0 .cfa: $rbp 16 +
STACK CFI INIT 54700 a .cfa: $rsp 8 + .ra: .cfa -8 + ^
STACK CFI INIT 54710 a00 .cfa: $rsp 8 + .ra: .cfa -8 + ^
STACK CFI 54711 $rbp: .cfa -16 + ^ .cfa: $rsp 16 +
STACK CFI 54714 .cfa: $rbp 16 +
STACK CFI 5471d $r12: .cfa -48 + ^ $r13: .cfa -40 + ^ $r14: .cfa -32 + ^ $r15: .cfa -24 + ^ $rbx: .cfa -56 + ^
STACK CFI 54926 .cfa: $rsp 8 +
STACK CFI 54930 .cfa: $rbp 16 +
STACK CFI INIT 55110 a .cfa: $rsp 8 + .ra: .cfa -8 + ^
STACK CFI INIT 55120 a00 .cfa: $rsp 8 + .ra: .cfa -8 + ^
STACK CFI 55121 $rbp: .cfa -16 + ^ .cfa: $rsp 16 +
STACK CFI 55124 .cfa: $rbp 16 +
STACK CFI 5512d $r12: .cfa -48 + ^ $r13: .cfa -40 + ^ $r14: .cfa -32 + ^ $r15: .cfa -24 + ^ $rbx: .cfa -56 + ^
STACK CFI 55336 .cfa: $rsp 8 +
STACK CFI 55340 .cfa: $rbp 16 +
STACK CFI INIT 55b20 a .cfa: $rsp 8 + .ra: .cfa -8 + ^
STACK CFI INIT 55b30 9a8 .cfa: $rsp 8 + .ra: .cfa -8 + ^
STACK CFI 55b31 $rbp: .cfa -16 + ^ .cfa: $rsp 16 +
STACK CFI 55b34 .cfa: $rbp 16 +
STACK CFI 55b38 $r14: .cfa -32 + ^ $r15: .cfa -24 + ^
STACK CFI 55b40 $r12: .cfa -48 + ^ $r13: .cfa -40 + ^ $rbx: .cfa -56 + ^
STACK CFI 55d36 .cfa: $rsp 8 +
STACK CFI 55d40 .cfa: $rbp 16 +
STACK CFI INIT 564e0 a .cfa: $rsp 8 + .ra: .cfa -8 + ^
STACK CFI INIT 564f0 9a8 .cfa: $rsp 8 + .ra: .cfa -8 + ^
STACK CFI 564f1 $rbp: .cfa -16 + ^ .cfa: $rsp 16 +
STACK CFI 564f4 .cfa: $rbp 16 +
STACK CFI 564f8 $r14: .cfa -32 + ^ $r15: .cfa -24 + ^
STACK CFI 56500 $r12: .cfa -48 + ^ $r13: .cfa -40 + ^ $rbx: .cfa -56 + ^
STACK CFI 566f6 .cfa: $rsp 8 +
STACK CFI 56700 .cfa: $rbp 16 +
STACK CFI INIT 56ea0 a .cfa: $rsp 8 + .ra: .cfa -8 + ^
STACK CFI INIT 56eb0 9a8 .cfa: $rsp 8 + .ra: .cfa -8 + ^
STACK CFI 56eb1 $rbp: .cfa -16 + ^ .cfa: $rsp 16 +
STACK CFI 56eb4 .cfa: $rbp 16 +
STACK CFI 56eb8 $r14: .cfa -32 + ^ $r15: .cfa -24 + ^
STACK CFI 56ec0 $r12: .cfa -48 + ^ $r13: .cfa -40 + ^ $rbx: .cfa -56 + ^
STACK CFI 570b6 .cfa: $rsp 8 +
STACK CFI 570c0 .cfa: $rbp 16 +
STACK CFI INIT 57860 a .cfa: $rsp 8 + .ra: .cfa -8 + ^
STACK CFI INIT 57870 9a8 .cfa: $rsp 8 + .ra: .cfa -8 + ^
STACK CFI 57871 $rbp: .cfa -16 + ^ .cfa: $rsp 16 +
STACK CFI 57874 .cfa: $rbp 16 +
STACK CFI 57878 $r14: .cfa -32 + ^ $r15: .cfa -24 + ^
STACK CFI 57880 $r12: .cfa -48 + ^ $r13: .cfa -40 + ^ $rbx: .cfa -56 + ^
STACK CFI 57a76 .cfa: $rsp 8 +
STACK CFI 57a80 .cfa: $rbp 16 +
STACK CFI INIT 58220 a .cfa: $rsp 8 + .ra: .cfa -8 + ^
STACK CFI INIT 58230 91d .cfa: $rsp 8 + .ra: .cfa -8 + ^
STACK CFI 58231 $rbp: .cfa -16 + ^ .cfa: $rsp 16 +
STACK CFI 58234 .cfa: $rbp 16 +
STACK CFI 5823d $r12: .cfa -48 + ^ $r13: .cfa -40 + ^ $r14: .cfa -32 + ^ $r15: .cfa -24 + ^ $rbx: .cfa -56 + ^
STACK CFI 58428 .cfa: $rsp 8 +
STACK CFI 58430 .cfa: $rbp 16 +
STACK CFI INIT 58b50 a .cfa: $rsp 8 + .ra: .cfa -8 + ^
STACK CFI INIT 58b60 985 .cfa: $rsp 8 + .ra: .cfa -8 + ^
STACK CFI 58b61 $rbp: .cfa -16 + ^ .cfa: $rsp 16 +
STACK CFI 58b64 .cfa: $rbp 16 +
STACK CFI 58b6c $r12: .cfa -48 + ^ $r13: .cfa -40 + ^ $r14: .cfa -32 + ^ $r15: .cfa -24 + ^
STACK CFI 58b70 $rbx: .cfa -56 + ^
STACK CFI 58d78 .cfa: $rsp 8 +
STACK CFI 58d80 .cfa: $rbp 16 +
STACK CFI INIT 594f0 a .cfa: $rsp 8 + .ra: .cfa -8 + ^
STACK CFI INIT 59500 92d .cfa: $rsp 8 + .ra: .cfa -8 + ^
STACK CFI 59501 $rbp: .cfa -16 + ^ .cfa: $rsp 16 +
STACK CFI 59504 .cfa: $rbp 16 +
STACK CFI 5950d $r12: .cfa -48 + ^ $r13: .cfa -40 + ^ $r14: .cfa -32 + ^ $r15: .cfa -24 + ^ $rbx: .cfa -56 + ^
STACK CFI 59708 .cfa: $rsp 8 +
STACK CFI 59710 .cfa: $rbp 16 +
STACK CFI INIT 59e30 a .cfa: $rsp 8 + .ra: .cfa -8 + ^
STACK CFI INIT 59e40 92d .cfa: $rsp 8 + .ra: .cfa -8 + ^
STACK CFI 59e41 $rbp: .cfa -16 + ^ .cfa: $rsp 16 +
STACK CFI 59e44 .cfa: $rbp 16 +
STACK CFI 59e4d $r12: .cfa -48 + ^ $r13: .cfa -40 + ^ $r14: .cfa -32 + ^ $r15: .cfa -24 + ^ $rbx: .cfa -56 + ^
STACK CFI 5a048 .cfa: $rsp 8 +
STACK CFI 5a050 .cfa: $rbp 16 +
STACK CFI INIT 5a770 a .cfa: $rsp 8 + .ra: .cfa -8 + ^
STACK CFI INIT 5a780 1f2 .cfa: $rsp 8 + .ra: .cfa -8 + ^
STACK CFI 5a781 $rbp: .cfa -16 + ^ .cfa: $rsp 16 +
STACK CFI 5a784 .cfa: $rbp 16 +
STACK CFI 5a786 $r15: .cfa -24 + ^
STACK CFI 5a797 $r12: .cfa -48 + ^ $r13: .cfa -40 + ^ $r14: .cfa -32 + ^ $rbx: .cfa -56 + ^
STACK CFI 5a8b1 .cfa: $rsp 8 +
STACK CFI 5a8b8 .cfa: $rbp 16 +
STACK CFI INIT 5a980 84 .cfa: $rsp 8 + .ra: .cfa -8 + ^
STACK CFI 5a981 $rbp: .cfa -16 + ^ .cfa: $rsp 16 +
STACK CFI 5a984 .cfa: $rbp 16 +
STACK CFI 5a98d $r12: .cfa -32 + ^ $r13: .cfa -24 + ^ $rbx: .cfa -40 + ^
STACK CFI 5a9e5 .cfa: $rsp 8 +
STACK CFI 5a9f0 .cfa: $rbp 16 +
STACK CFI 5aa03 .cfa: $rsp 8 +
STACK CFI INIT 5aa10 1ca .cfa: $rsp 8 + .ra: .cfa -8 + ^
STACK CFI 5aa11 $rbp: .cfa -16 + ^ .cfa: $rsp 16 +
STACK CFI 5aa14 .cfa: $rbp 16 +
STACK CFI 5aa24 $r12: .cfa -48 + ^ $r13: .cfa -40 + ^ $r14: .cfa -32 + ^ $r15: .cfa -24 + ^ $rbx: .cfa -56 + ^
STACK CFI 5aa9e .cfa: $rsp 8 +
STACK CFI 5aaa0 .cfa: $rbp 16 +
STACK CFI INIT 5abe0 1d8 .cfa: $rsp 8 + .ra: .cfa -8 + ^
STACK CFI 5abe1 $rbp: .cfa -16 + ^ .cfa: $rsp 16 +
STACK CFI 5abe4 .cfa: $rbp 16 +
STACK CFI 5abea $r13: .cfa -40 + ^ $r14: .cfa -32 + ^ $r15: .cfa -24 + ^
STACK CFI 5abef $r12: .cfa -48 + ^
STACK CFI 5abfa $rbx: .cfa -56 + ^
STACK CFI 5acba .cfa: $rsp 8 +
STACK CFI 5acc0 .cfa: $rbp 16 +
STACK CFI INIT 5adc0 8c .cfa: $rsp 8 + .ra: .cfa -8 + ^
STACK CFI 5adc1 $rbp: .cfa -16 + ^ .cfa: $rsp 16 +
STACK CFI 5adc4 .cfa: $rbp 16 +
STACK CFI 5adcd $r12: .cfa -32 + ^ $r13: .cfa -24 + ^ $rbx: .cfa -40 + ^
STACK CFI 5adfa .cfa: $rsp 8 +
STACK CFI 5ae00 .cfa: $rbp 16 +
STACK CFI 5ae31 .cfa: $rsp 8 +
STACK CFI 5ae38 .cfa: $rbp 16 +
STACK CFI 5ae4b .cfa: $rsp 8 +
STACK CFI INIT 5ae50 1dc .cfa: $rsp 8 + .ra: .cfa -8 + ^
STACK CFI 5ae51 $rbp: .cfa -16 + ^ .cfa: $rsp 16 +
STACK CFI 5ae54 .cfa: $rbp 16 +
STACK CFI 5ae64 $r12: .cfa -48 + ^ $r13: .cfa -40 + ^ $r14: .cfa -32 + ^ $r15: .cfa -24 + ^ $rbx: .cfa -56 + ^
STACK CFI 5aeee .cfa: $rsp 8 +
STACK CFI 5aef0 .cfa: $rbp 16 +
STACK CFI INIT 5b030 1e4 .cfa: $rsp 8 + .ra: .cfa -8 + ^
STACK CFI 5b031 $rbp: .cfa -16 + ^ .cfa: $rsp 16 +
STACK CFI 5b034 .cfa: $rbp 16 +
STACK CFI 5b044 $r12: .cfa -48 + ^ $r13: .cfa -40 + ^ $r14: .cfa -32 + ^ $r15: .cfa -24 + ^ $rbx: .cfa -56 + ^
STACK CFI 5b172 .cfa: $rsp 8 +
STACK CFI 5b178 .cfa: $rbp 16 +
STACK CFI INIT 5b220 216 .cfa: $rsp 8 + .ra: .cfa -8 + ^
STACK CFI 5b221 $rbp: .cfa -16 + ^ .cfa: $rsp 16 +
STACK CFI 5b224 .cfa: $rbp 16 +
STACK CFI 5b22a $r13: .cfa -40 + ^ $r14: .cfa -32 + ^ $r15: .cfa -24 + ^
STACK CFI 5b237 $r12: .cfa -48 + ^ $rbx: .cfa -56 + ^
STACK CFI 5b273 .cfa: $rsp 8 +
STACK CFI 5b274 .cfa: $rbp 16 +
STACK CFI INIT 1cdba 10 $r12: .cfa -48 + ^ $r13: .cfa -40 + ^ $r14: .cfa -32 + ^ $r15: .cfa -24 + ^ $rbp: .cfa -16 + ^ $rbx: .cfa -56 + ^ .cfa: $rbp 16 + .ra: .cfa -8 + ^
STACK CFI INIT 5b440 265 .cfa: $rsp 8 + .ra: .cfa -8 + ^
STACK CFI 5b441 $rbp: .cfa -16 + ^ .cfa: $rsp 16 +
STACK CFI 5b444 .cfa: $rbp 16 +
STACK CFI 5b446 $r12: .cfa -24 + ^
STACK CFI 5b47e .cfa: $rsp 8 +
STACK CFI 5b47f .cfa: $rbp 16 +
STACK CFI 5b493 .cfa: $rsp 8 +
STACK CFI 5b498 .cfa: $rbp 16 +
STACK CFI 5b4ac .cfa: $rsp 8 +
STACK CFI 5b4b1 .cfa: $rbp 16 +
STACK CFI 5b4c5 .cfa: $rsp 8 +
STACK CFI 5b4ca .cfa: $rbp 16 +
STACK CFI 5b4de .cfa: $rsp 8 +
STACK CFI 5b4e3 .cfa: $rbp 16 +
STACK CFI 5b4f7 .cfa: $rsp 8 +
STACK CFI 5b4fc .cfa: $rbp 16 +
STACK CFI 5b510 .cfa: $rsp 8 +
STACK CFI 5b515 .cfa: $rbp 16 +
STACK CFI 5b529 .cfa: $rsp 8 +
STACK CFI 5b52e .cfa: $rbp 16 +
STACK CFI 5b542 .cfa: $rsp 8 +
STACK CFI 5b547 .cfa: $rbp 16 +
STACK CFI 5b55b .cfa: $rsp 8 +
STACK CFI 5b560 .cfa: $rbp 16 +
STACK CFI 5b574 .cfa: $rsp 8 +
STACK CFI 5b579 .cfa: $rbp 16 +
STACK CFI 5b58d .cfa: $rsp 8 +
STACK CFI 5b592 .cfa: $rbp 16 +
STACK CFI 5b5a6 .cfa: $rsp 8 +
STACK CFI 5b5ab .cfa: $rbp 16 +
STACK CFI 5b5bf .cfa: $rsp 8 +
STACK CFI 5b5c4 .cfa: $rbp 16 +
STACK CFI 5b5d8 .cfa: $rsp 8 +
STACK CFI 5b5dd .cfa: $rbp 16 +
STACK CFI 5b5f1 .cfa: $rsp 8 +
STACK CFI 5b5f6 .cfa: $rbp 16 +
STACK CFI 5b60a .cfa: $rsp 8 +
STACK CFI 5b60f .cfa: $rbp 16 +
STACK CFI 5b623 .cfa: $rsp 8 +
STACK CFI 5b628 .cfa: $rbp 16 +
STACK CFI 5b63c .cfa: $rsp 8 +
STACK CFI 5b641 .cfa: $rbp 16 +
STACK CFI 5b655 .cfa: $rsp 8 +
STACK CFI 5b65a .cfa: $rbp 16 +
STACK CFI 5b66e .cfa: $rsp 8 +
STACK CFI 5b673 .cfa: $rbp 16 +
STACK CFI 5b687 .cfa: $rsp 8 +
STACK CFI 5b68c .cfa: $rbp 16 +
STACK CFI 5b6a0 .cfa: $rsp 8 +
STACK CFI INIT 5b6b0 9f .cfa: $rsp 8 + .ra: .cfa -8 + ^
STACK CFI 5b6b1 $rbp: .cfa -16 + ^ .cfa: $rsp 16 +
STACK CFI 5b6b4 .cfa: $rbp 16 +
STACK CFI 5b6b8 $r12: .cfa -32 + ^ $r13: .cfa -24 + ^
STACK CFI 5b6c0 $rbx: .cfa -40 + ^
STACK CFI 5b6ef .cfa: $rsp 8 +
STACK CFI 5b6f0 .cfa: $rbp 16 +
STACK CFI 5b726 .cfa: $rsp 8 +
STACK CFI 5b730 .cfa: $rbp 16 +
STACK CFI INIT 5b750 98 .cfa: $rsp 8 + .ra: .cfa -8 + ^
STACK CFI 5b756 $rbp: .cfa -16 + ^ .cfa: $rsp 16 +
STACK CFI 5b759 .cfa: $rbp 16 +
STACK CFI 5b75b $r12: .cfa -24 + ^
STACK CFI 5b75f $rbx: .cfa -32 + ^
STACK CFI 5b7b6 .cfa: $rsp 8 +
STACK CFI 5b7c0 $r12: $r12 $rbp: $rbp $rbx: $rbx
STACK CFI 5b7c8 $r12: .cfa -24 + ^ $rbp: .cfa -16 + ^ $rbx: .cfa -32 + ^ .cfa: $rbp 16 +
STACK CFI 5b7c9 $rbx: $rbx
STACK CFI 5b7ce $r12: $r12
STACK CFI 5b7cf $rbp: $rbp .cfa: $rsp 8 +
STACK CFI 5b7d8 $r12: .cfa -24 + ^ $rbp: .cfa -16 + ^ $rbx: .cfa -32 + ^ .cfa: $rbp 16 +
STACK CFI INIT 5b7f0 93 .cfa: $rsp 8 + .ra: .cfa -8 + ^
STACK CFI 5b7f1 $rbp: .cfa -16 + ^ .cfa: $rsp 16 +
STACK CFI 5b7f4 .cfa: $rbp 16 +
STACK CFI 5b7fe $r12: .cfa -40 + ^ $r13: .cfa -32 + ^ $r14: .cfa -24 + ^
STACK CFI 5b83e .cfa: $rsp 8 +
STACK CFI 5b848 .cfa: $rbp 16 +
STACK CFI 5b860 .cfa: $rsp 8 +
STACK CFI 5b868 .cfa: $rbp 16 +
STACK CFI 5b87e .cfa: $rsp 8 +
STACK CFI INIT 5b890 258 .cfa: $rsp 8 + .ra: .cfa -8 + ^
STACK CFI 5b891 $rbp: .cfa -16 + ^ .cfa: $rsp 16 +
STACK CFI 5b894 .cfa: $rbp 16 +
STACK CFI 5b898 $r14: .cfa -32 + ^ $r15: .cfa -24 + ^
STACK CFI 5b89d $r13: .cfa -40 + ^
STACK CFI 5b8aa $r12: .cfa -48 + ^ $rbx: .cfa -56 + ^
STACK CFI 5ba2b .cfa: $rsp 8 +
STACK CFI 5ba30 .cfa: $rbp 16 +
STACK CFI INIT 5baf0 1e4 .cfa: $rsp 8 + .ra: .cfa -8 + ^
STACK CFI 5baf1 $rbp: .cfa -16 + ^ .cfa: $rsp 16 +
STACK CFI 5baf4 .cfa: $rbp 16 +
STACK CFI 5bb04 $r12: .cfa -48 + ^ $r13: .cfa -40 + ^ $r14: .cfa -32 + ^ $r15: .cfa -24 + ^ $rbx: .cfa -56 + ^
STACK CFI 5bc32 .cfa: $rsp 8 +
STACK CFI 5bc38 .cfa: $rbp 16 +
STACK CFI INIT 5bce0 226 .cfa: $rsp 8 + .ra: .cfa -8 + ^
STACK CFI 5bce1 $rbp: .cfa -16 + ^ .cfa: $rsp 16 +
STACK CFI 5bce4 .cfa: $rbp 16 +
STACK CFI 5bcea $r13: .cfa -40 + ^ $r14: .cfa -32 + ^ $r15: .cfa -24 + ^
STACK CFI 5bcf7 $r12: .cfa -48 + ^ $rbx: .cfa -56 + ^
STACK CFI 5bd33 .cfa: $rsp 8 +
STACK CFI 5bd34 .cfa: $rbp 16 +
STACK CFI INIT 1cdca 10 $r12: .cfa -48 + ^ $r13: .cfa -40 + ^ $r14: .cfa -32 + ^ $r15: .cfa -24 + ^ $rbp: .cfa -16 + ^ $rbx: .cfa -56 + ^ .cfa: $rbp 16 + .ra: .cfa -8 + ^
STACK CFI INIT 5bf10 27e .cfa: $rsp 8 + .ra: .cfa -8 + ^
STACK CFI 5bf11 $rbp: .cfa -16 + ^ .cfa: $rsp 16 +
STACK CFI 5bf14 .cfa: $rbp 16 +
STACK CFI 5bf16 $r12: .cfa -24 + ^
STACK CFI 5bf4e .cfa: $rsp 8 +
STACK CFI 5bf4f .cfa: $rbp 16 +
STACK CFI 5bf63 .cfa: $rsp 8 +
STACK CFI 5bf68 .cfa: $rbp 16 +
STACK CFI 5bf7c .cfa: $rsp 8 +
STACK CFI 5bf81 .cfa: $rbp 16 +
STACK CFI 5bf95 .cfa: $rsp 8 +
STACK CFI 5bf9a .cfa: $rbp 16 +
STACK CFI 5bfae .cfa: $rsp 8 +
STACK CFI 5bfb3 .cfa: $rbp 16 +
STACK CFI 5bfc7 .cfa: $rsp 8 +
STACK CFI 5bfcc .cfa: $rbp 16 +
STACK CFI 5bfe0 .cfa: $rsp 8 +
STACK CFI 5bfe5 .cfa: $rbp 16 +
STACK CFI 5bff9 .cfa: $rsp 8 +
STACK CFI 5bffe .cfa: $rbp 16 +
STACK CFI 5c012 .cfa: $rsp 8 +
STACK CFI 5c017 .cfa: $rbp 16 +
STACK CFI 5c02b .cfa: $rsp 8 +
STACK CFI 5c030 .cfa: $rbp 16 +
STACK CFI 5c044 .cfa: $rsp 8 +
STACK CFI 5c049 .cfa: $rbp 16 +
STACK CFI 5c05d .cfa: $rsp 8 +
STACK CFI 5c062 .cfa: $rbp 16 +
STACK CFI 5c076 .cfa: $rsp 8 +
STACK CFI 5c07b .cfa: $rbp 16 +
STACK CFI 5c08f .cfa: $rsp 8 +
STACK CFI 5c094 .cfa: $rbp 16 +
STACK CFI 5c0a8 .cfa: $rsp 8 +
STACK CFI 5c0ad .cfa: $rbp 16 +
STACK CFI 5c0c1 .cfa: $rsp 8 +
STACK CFI 5c0c6 .cfa: $rbp 16 +
STACK CFI 5c0da .cfa: $rsp 8 +
STACK CFI 5c0df .cfa: $rbp 16 +
STACK CFI 5c0f3 .cfa: $rsp 8 +
STACK CFI 5c0f8 .cfa: $rbp 16 +
STACK CFI 5c10c .cfa: $rsp 8 +
STACK CFI 5c111 .cfa: $rbp 16 +
STACK CFI 5c125 .cfa: $rsp 8 +
STACK CFI 5c12a .cfa: $rbp 16 +
STACK CFI 5c13e .cfa: $rsp 8 +
STACK CFI 5c143 .cfa: $rbp 16 +
STACK CFI 5c157 .cfa: $rsp 8 +
STACK CFI 5c15c .cfa: $rbp 16 +
STACK CFI 5c170 .cfa: $rsp 8 +
STACK CFI 5c175 .cfa: $rbp 16 +
STACK CFI 5c189 .cfa: $rsp 8 +
STACK CFI INIT 5c190 9f .cfa: $rsp 8 + .ra: .cfa -8 + ^
STACK CFI 5c191 $rbp: .cfa -16 + ^ .cfa: $rsp 16 +
STACK CFI 5c194 .cfa: $rbp 16 +
STACK CFI 5c198 $r12: .cfa -32 + ^ $r13: .cfa -24 + ^
STACK CFI 5c1a0 $rbx: .cfa -40 + ^
STACK CFI 5c1cf .cfa: $rsp 8 +
STACK CFI 5c1d0 .cfa: $rbp 16 +
STACK CFI 5c206 .cfa: $rsp 8 +
STACK CFI 5c210 .cfa: $rbp 16 +
STACK CFI INIT 5c230 98 .cfa: $rsp 8 + .ra: .cfa -8 + ^
STACK CFI 5c236 $rbp: .cfa -16 + ^ .cfa: $rsp 16 +
STACK CFI 5c239 .cfa: $rbp 16 +
STACK CFI 5c23b $r12: .cfa -24 + ^
STACK CFI 5c23f $rbx: .cfa -32 + ^
STACK CFI 5c296 .cfa: $rsp 8 +
STACK CFI 5c2a0 $r12: $r12 $rbp: $rbp $rbx: $rbx
STACK CFI 5c2a8 $r12: .cfa -24 + ^ $rbp: .cfa -16 + ^ $rbx: .cfa -32 + ^ .cfa: $rbp 16 +
STACK CFI 5c2a9 $rbx: $rbx
STACK CFI 5c2ae $r12: $r12
STACK CFI 5c2af $rbp: $rbp .cfa: $rsp 8 +
STACK CFI 5c2b8 $r12: .cfa -24 + ^ $rbp: .cfa -16 + ^ $rbx: .cfa -32 + ^ .cfa: $rbp 16 +
STACK CFI INIT 5c2d0 93 .cfa: $rsp 8 + .ra: .cfa -8 + ^
STACK CFI 5c2d1 $rbp: .cfa -16 + ^ .cfa: $rsp 16 +
STACK CFI 5c2d4 .cfa: $rbp 16 +
STACK CFI 5c2de $r12: .cfa -40 + ^ $r13: .cfa -32 + ^ $r14: .cfa -24 + ^
STACK CFI 5c31e .cfa: $rsp 8 +
STACK CFI 5c328 .cfa: $rbp 16 +
STACK CFI 5c340 .cfa: $rsp 8 +
STACK CFI 5c348 .cfa: $rbp 16 +
STACK CFI 5c35e .cfa: $rsp 8 +
STACK CFI INIT 5c370 258 .cfa: $rsp 8 + .ra: .cfa -8 + ^
STACK CFI 5c371 $rbp: .cfa -16 + ^ .cfa: $rsp 16 +
STACK CFI 5c374 .cfa: $rbp 16 +
STACK CFI 5c378 $r14: .cfa -32 + ^ $r15: .cfa -24 + ^
STACK CFI 5c37d $r13: .cfa -40 + ^
STACK CFI 5c38a $r12: .cfa -48 + ^ $rbx: .cfa -56 + ^
STACK CFI 5c50b .cfa: $rsp 8 +
STACK CFI 5c510 .cfa: $rbp 16 +
STACK CFI INIT 5c5d0 172 .cfa: $rsp 8 + .ra: .cfa -8 + ^
STACK CFI 5c5d1 $rbp: .cfa -16 + ^ .cfa: $rsp 16 +
STACK CFI 5c5d4 .cfa: $rbp 16 +
STACK CFI 5c5d6 $r15: .cfa -24 + ^
STACK CFI 5c5dd $r13: .cfa -40 + ^ $r14: .cfa -32 + ^
STACK CFI 5c5e2 $r12: .cfa -48 + ^
STACK CFI 5c5ed $rbx: .cfa -56 + ^
STACK CFI 5c686 .cfa: $rsp 8 +
STACK CFI 5c690 .cfa: $rbp 16 +
STACK CFI INIT 5c750 7c .cfa: $rsp 8 + .ra: .cfa -8 + ^
STACK CFI 5c751 $rbp: .cfa -16 + ^ .cfa: $rsp 16 +
STACK CFI 5c754 .cfa: $rbp 16 +
STACK CFI 5c75d $r12: .cfa -32 + ^ $r13: .cfa -24 + ^ $rbx: .cfa -40 + ^
STACK CFI 5c78b .cfa: $rsp 8 +
STACK CFI 5c790 .cfa: $rbp 16 +
STACK CFI 5c7b3 .cfa: $rsp 8 +
STACK CFI 5c7b8 .cfa: $rbp 16 +
STACK CFI 5c7cb .cfa: $rsp 8 +
STACK CFI INIT 5c7d0 192 .cfa: $rsp 8 + .ra: .cfa -8 + ^
STACK CFI 5c7d1 $rbp: .cfa -16 + ^ .cfa: $rsp 16 +
STACK CFI 5c7d4 .cfa: $rbp 16 +
STACK CFI 5c7e4 $r12: .cfa -48 + ^ $r13: .cfa -40 + ^ $r14: .cfa -32 + ^ $r15: .cfa -24 + ^ $rbx: .cfa -56 + ^
STACK CFI 5c84e .cfa: $rsp 8 +
STACK CFI 5c850 .cfa: $rbp 16 +
STACK CFI INIT 5c970 4ec .cfa: $rsp 8 + .ra: .cfa -8 + ^
STACK CFI 5c971 $rbp: .cfa -16 + ^ .cfa: $rsp 16 +
STACK CFI 5c974 .cfa: $rbp 16 +
STACK CFI 5c976 $r15: .cfa -24 + ^
STACK CFI 5c987 $r12: .cfa -48 + ^ $r13: .cfa -40 + ^ $r14: .cfa -32 + ^ $rbx: .cfa -56 + ^
STACK CFI 5cb2a .cfa: $rsp 8 +
STACK CFI 5cb30 .cfa: $rbp 16 +
STACK CFI INIT 5ce60 18d .cfa: $rsp 8 + .ra: .cfa -8 + ^
STACK CFI 5ce61 $rbp: .cfa -16 + ^ .cfa: $rsp 16 +
STACK CFI 5ce64 .cfa: $rbp 16 +
STACK CFI 5ce71 $r12: .cfa -48 + ^ $r13: .cfa -40 + ^ $r14: .cfa -32 + ^ $r15: .cfa -24 + ^ $rbx: .cfa -56 + ^
STACK CFI 5cf36 .cfa: $rsp 8 +
STACK CFI 5cf40 .cfa: $rbp 16 +
STACK CFI INIT 5cff0 44c .cfa: $rsp 8 + .ra: .cfa -8 + ^
STACK CFI 5cff1 $rbp: .cfa -16 + ^ .cfa: $rsp 16 +
STACK CFI 5cff4 .cfa: $rbp 16 +
STACK CFI 5cffd $r12: .cfa -48 + ^ $r13: .cfa -40 + ^ $r14: .cfa -32 + ^ $r15: .cfa -24 + ^ $rbx: .cfa -56 + ^
STACK CFI 5d109 .cfa: $rsp 8 +
STACK CFI 5d110 .cfa: $rbp 16 +
STACK CFI INIT 5d440 1c5 .cfa: $rsp 8 + .ra: .cfa -8 + ^
STACK CFI 5d441 $rbp: .cfa -16 + ^ .cfa: $rsp 16 +
STACK CFI 5d444 .cfa: $rbp 16 +
STACK CFI 5d44a $r13: .cfa -40 + ^ $r14: .cfa -32 + ^ $r15: .cfa -24 + ^
STACK CFI 5d44f $r12: .cfa -48 + ^
STACK CFI 5d45a $rbx: .cfa -56 + ^
STACK CFI 5d557 .cfa: $rsp 8 +
STACK CFI 5d560 .cfa: $rbp 16 +
STACK CFI INIT 5d610 6e .cfa: $rsp 8 + .ra: .cfa -8 + ^
STACK CFI 5d611 $rbp: .cfa -16 + ^ .cfa: $rsp 16 +
STACK CFI 5d614 .cfa: $rbp 16 +
STACK CFI 5d61d $r12: .cfa -32 + ^ $r13: .cfa -24 + ^ $rbx: .cfa -40 + ^
STACK CFI 5d663 .cfa: $rsp 8 +
STACK CFI 5d668 .cfa: $rbp 16 +
STACK CFI INIT 5d680 1c6 .cfa: $rsp 8 + .ra: .cfa -8 + ^
STACK CFI 5d681 $rbp: .cfa -16 + ^ .cfa: $rsp 16 +
STACK CFI 5d684 .cfa: $rbp 16 +
STACK CFI 5d694 $r12: .cfa -48 + ^ $r13: .cfa -40 + ^ $r14: .cfa -32 + ^ $r15: .cfa -24 + ^ $rbx: .cfa -56 + ^
STACK CFI 5d6fd .cfa: $rsp 8 +
STACK CFI 5d700 .cfa: $rbp 16 +
STACK CFI INIT 5d850 1c5 .cfa: $rsp 8 + .ra: .cfa -8 + ^
STACK CFI 5d851 $rbp: .cfa -16 + ^ .cfa: $rsp 16 +
STACK CFI 5d854 .cfa: $rbp 16 +
STACK CFI 5d85a $r13: .cfa -40 + ^ $r14: .cfa -32 + ^ $r15: .cfa -24 + ^
STACK CFI 5d85f $r12: .cfa -48 + ^
STACK CFI 5d86a $rbx: .cfa -56 + ^
STACK CFI 5d967 .cfa: $rsp 8 +
STACK CFI 5d970 .cfa: $rbp 16 +
STACK CFI INIT 5da20 6e .cfa: $rsp 8 + .ra: .cfa -8 + ^
STACK CFI 5da21 $rbp: .cfa -16 + ^ .cfa: $rsp 16 +
STACK CFI 5da24 .cfa: $rbp 16 +
STACK CFI 5da2d $r12: .cfa -32 + ^ $r13: .cfa -24 + ^ $rbx: .cfa -40 + ^
STACK CFI 5da73 .cfa: $rsp 8 +
STACK CFI 5da78 .cfa: $rbp 16 +
STACK CFI INIT 5da90 1c6 .cfa: $rsp 8 + .ra: .cfa -8 + ^
STACK CFI 5da91 $rbp: .cfa -16 + ^ .cfa: $rsp 16 +
STACK CFI 5da94 .cfa: $rbp 16 +
STACK CFI 5daa4 $r12: .cfa -48 + ^ $r13: .cfa -40 + ^ $r14: .cfa -32 + ^ $r15: .cfa -24 + ^ $rbx: .cfa -56 + ^
STACK CFI 5db0d .cfa: $rsp 8 +
STACK CFI 5db10 .cfa: $rbp 16 +
STACK CFI INIT 5dc60 13a .cfa: $rsp 8 + .ra: .cfa -8 + ^
STACK CFI 5dc61 $rbp: .cfa -16 + ^ .cfa: $rsp 16 +
STACK CFI 5dc64 .cfa: $rbp 16 +
STACK CFI 5dc6b $r12: .cfa -24 + ^ $rbx: .cfa -32 + ^
STACK CFI 5dd23 .cfa: $rsp 8 +
STACK CFI 5dd30 .cfa: $rbp 16 +
STACK CFI 5dd78 .cfa: $rsp 8 +
STACK CFI 5dd80 .cfa: $rbp 16 +
STACK CFI INIT 5dda0 51 .cfa: $rsp 8 + .ra: .cfa -8 + ^
STACK CFI 5dda6 $rbp: .cfa -16 + ^ .cfa: $rsp 16 +
STACK CFI 5dda9 .cfa: $rbp 16 +
STACK CFI 5ddaa $rbx: .cfa -24 + ^
STACK CFI 5dde7 .cfa: $rsp 8 +
STACK CFI 5ddf0 $rbp: $rbp $rbx: $rbx
STACK CFI INIT 5de00 1f .cfa: $rsp 8 + .ra: .cfa -8 + ^
STACK CFI INIT 5de20 eb .cfa: $rsp 8 + .ra: .cfa -8 + ^
STACK CFI 5de2a $rbp: .cfa -16 + ^ .cfa: $rsp 16 +
STACK CFI 5de2d .cfa: $rbp 16 +
STACK CFI 5de36 $r12: .cfa -48 + ^ $r13: .cfa -40 + ^ $r14: .cfa -32 + ^ $r15: .cfa -24 + ^ $rbx: .cfa -56 + ^
STACK CFI 5dee9 .cfa: $rsp 8 +
STACK CFI 5def0 .cfa: $rbp 16 +
STACK CFI 5df00 .cfa: $rsp 8 +
STACK CFI 5df08 $r12: $r12 $r13: $r13 $r14: $r14 $r15: $r15 $rbp: $rbp $rbx: $rbx
STACK CFI INIT 5df10 95 .cfa: $rsp 8 + .ra: .cfa -8 + ^
STACK CFI 5df11 $rbp: .cfa -16 + ^ .cfa: $rsp 16 +
STACK CFI 5df14 .cfa: $rbp 16 +
STACK CFI 5df21 $r12: .cfa -48 + ^ $r13: .cfa -40 + ^ $r14: .cfa -32 + ^ $r15: .cfa -24 + ^ $rbx: .cfa -56 + ^
STACK CFI 5dfa4 .cfa: $rsp 8 +
STACK CFI INIT 5dfb0 14f .cfa: $rsp 8 + .ra: .cfa -8 + ^
STACK CFI 5dfb1 $rbp: .cfa -16 + ^ .cfa: $rsp 16 +
STACK CFI 5dfb4 .cfa: $rbp 16 +
STACK CFI 5dfc1 $r12: .cfa -48 + ^ $r13: .cfa -40 + ^ $r14: .cfa -32 + ^ $r15: .cfa -24 + ^ $rbx: .cfa -56 + ^
STACK CFI 5e0df .cfa: $rsp 8 +
STACK CFI 5e0e4 .cfa: $rbp 16 +
STACK CFI 5e0fe .cfa: $rsp 8 +
STACK CFI INIT 5e100 eb .cfa: $rsp 8 + .ra: .cfa -8 + ^
STACK CFI 5e10a $rbp: .cfa -16 + ^ .cfa: $rsp 16 +
STACK CFI 5e10d .cfa: $rbp 16 +
STACK CFI 5e115 $r12: .cfa -48 + ^ $r13: .cfa -40 + ^ $r14: .cfa -32 + ^ $r15: .cfa -24 + ^
STACK CFI 5e11d $rbx: .cfa -56 + ^
STACK CFI 5e192 .cfa: $rsp 8 +
STACK CFI 5e198 .cfa: $rbp 16 +
STACK CFI 5e1dc .cfa: $rsp 8 +
STACK CFI 5e1dd .cfa: $rbp 16 +
STACK CFI 5e1e8 $r12: $r12 $r13: $r13 $r14: $r14 $r15: $r15 $rbp: $rbp $rbx: $rbx .cfa: $rsp 8 +
STACK CFI INIT 5e1f0 143 .cfa: $rsp 8 + .ra: .cfa -8 + ^
STACK CFI 5e1fa $rbp: .cfa -16 + ^ .cfa: $rsp 16 +
STACK CFI 5e1fd .cfa: $rbp 16 +
STACK CFI 5e205 $r12: .cfa -48 + ^ $r13: .cfa -40 + ^ $r14: .cfa -32 + ^ $r15: .cfa -24 + ^
STACK CFI 5e20d $rbx: .cfa -56 + ^
STACK CFI 5e2d3 .cfa: $rsp 8 +
STACK CFI 5e2d8 .cfa: $rbp 16 +
STACK CFI 5e31c .cfa: $rsp 8 +
STACK CFI 5e31d .cfa: $rbp 16 +
STACK CFI 5e330 $r12: $r12 $r13: $r13 $r14: $r14 $r15: $r15 $rbp: $rbp $rbx: $rbx .cfa: $rsp 8 +
STACK CFI INIT 5e340 54 .cfa: $rsp 8 + .ra: .cfa -8 + ^
STACK CFI 5e381 $rbp: .cfa -16 + ^ .cfa: $rsp 16 +
STACK CFI 5e384 .cfa: $rbp 16 +
STACK CFI 5e38c .cfa: $rsp 8 +
STACK CFI 5e390 $rbp: $rbp
STACK CFI INIT 5e3a0 43 .cfa: $rsp 8 + .ra: .cfa -8 + ^
STACK CFI 5e3a6 $rbp: .cfa -16 + ^ .cfa: $rsp 16 +
STACK CFI 5e3a9 .cfa: $rbp 16 +
STACK CFI 5e3aa $rbx: .cfa -24 + ^
STACK CFI 5e3da .cfa: $rsp 8 +
STACK CFI 5e3e0 $rbp: $rbp $rbx: $rbx
STACK CFI INIT 5e3f0 73 .cfa: $rsp 8 + .ra: .cfa -8 + ^
STACK CFI INIT 5e470 19 .cfa: $rsp 8 + .ra: .cfa -8 + ^
STACK CFI INIT 5e490 24 .cfa: $rsp 8 + .ra: .cfa -8 + ^
STACK CFI 5e491 $rbp: .cfa -16 + ^ .cfa: $rsp 16 +
STACK CFI 5e494 .cfa: $rbp 16 +
STACK CFI 5e496 $r12: .cfa -24 + ^
STACK CFI 5e4af .cfa: $rsp 8 +
STACK CFI INIT 5e4c0 24 .cfa: $rsp 8 + .ra: .cfa -8 + ^
STACK CFI 5e4c1 $rbp: .cfa -16 + ^ .cfa: $rsp 16 +
STACK CFI 5e4c4 .cfa: $rbp 16 +
STACK CFI 5e4c6 $r12: .cfa -24 + ^
STACK CFI 5e4df .cfa: $rsp 8 +
STACK CFI INIT 5e4f0 548 .cfa: $rsp 8 + .ra: .cfa -8 + ^
STACK CFI 5e4f1 $rbp: .cfa -16 + ^ .cfa: $rsp 16 +
STACK CFI 5e4f4 .cfa: $rbp 16 +
STACK CFI 5e4f6 $r13: .cfa -24 + ^
STACK CFI 5e4fb $r12: .cfa -32 + ^
STACK CFI 5e4ff $rbx: .cfa -40 + ^
STACK CFI 5e751 .cfa: $rsp 8 +
STACK CFI 5e800 .cfa: $rbp 16 +
STACK CFI INIT 5ea40 11c .cfa: $rsp 8 + .ra: .cfa -8 + ^
STACK CFI 5ea41 $rbp: .cfa -16 + ^ .cfa: $rsp 16 +
STACK CFI 5ea44 .cfa: $rbp 16 +
STACK CFI 5ea4c $rbx: .cfa -24 + ^
STACK CFI 5eb43 .cfa: $rsp 8 +
STACK CFI 5eb48 .cfa: $rbp 16 +
STACK CFI 5eb5b .cfa: $rsp 8 +
STACK CFI INIT 5eb60 e .cfa: $rsp 8 + .ra: .cfa -8 + ^
STACK CFI INIT 5eb70 64 .cfa: $rsp 8 + .ra: .cfa -8 + ^
STACK CFI 5eb92 $rbp: .cfa -16 + ^ .cfa: $rsp 16 +
STACK CFI 5eb9f .cfa: $rbp 16 +
STACK CFI 5ebae .cfa: $rsp 8 +
STACK CFI 5ebc0 $rbp: $rbp
STACK CFI INIT 5ebe0 63 .cfa: $rsp 8 + .ra: .cfa -8 + ^
STACK CFI 5ec19 $rbp: .cfa -16 + ^ .cfa: $rsp 16 +
STACK CFI 5ec29 .cfa: $rbp 16 +
STACK CFI 5ec38 .cfa: $rsp 8 +
STACK CFI INIT 5ec50 15 .cfa: $rsp 8 + .ra: .cfa -8 + ^
STACK CFI INIT 5ec70 7 .cfa: $rsp 8 + .ra: .cfa -8 + ^
STACK CFI INIT 5ec80 7 .cfa: $rsp 8 + .ra: .cfa -8 + ^
STACK CFI INIT 5ec90 59 .cfa: $rsp 8 + .ra: .cfa -8 + ^
STACK CFI 5ecd0 $rbp: .cfa -16 + ^ .cfa: $rsp 16 +
STACK CFI 5ecd6 .cfa: $rbp 16 +
STACK CFI 5ece8 $rbp: $rbp .cfa: $rsp 8 +
STACK CFI INIT 5ecf0 6 .cfa: $rsp 8 + .ra: .cfa -8 + ^
STACK CFI INIT 5ed00 105 .cfa: $rsp 8 + .ra: .cfa -8 + ^
STACK CFI 5ed01 $rbp: .cfa -16 + ^ .cfa: $rsp 16 +
STACK CFI 5ed04 .cfa: $rbp 16 +
STACK CFI 5ed0d $r12: .cfa -32 + ^ $r13: .cfa -24 + ^ $rbx: .cfa -40 + ^
STACK CFI 5ed2b .cfa: $rsp 8 +
STACK CFI 5ed30 .cfa: $rbp 16 +
STACK CFI 5eddc .cfa: $rsp 8 +
STACK CFI 5ede0 .cfa: $rbp 16 +
STACK CFI INIT 5ee10 175 .cfa: $rsp 8 + .ra: .cfa -8 + ^
STACK CFI 5ee11 $rbp: .cfa -16 + ^ .cfa: $rsp 16 +
STACK CFI 5ee14 .cfa: $rbp 16 +
STACK CFI 5ee1c $r12: .cfa -48 + ^ $r13: .cfa -40 + ^ $r14: .cfa -32 + ^ $r15: .cfa -24 + ^
STACK CFI 5ee20 $rbx: .cfa -56 + ^
STACK CFI 5ee87 .cfa: $rsp 8 +
STACK CFI 5ee90 .cfa: $rbp 16 +
STACK CFI INIT 5ef90 3c3 .cfa: $rsp 8 + .ra: .cfa -8 + ^
STACK CFI 5ef91 $rbp: .cfa -16 + ^ .cfa: $rsp 16 +
STACK CFI 5ef94 .cfa: $rbp 16 +
STACK CFI 5ef98 $r14: .cfa -32 + ^ $r15: .cfa -24 + ^
STACK CFI 5ef9d $r13: .cfa -40 + ^
STACK CFI 5efa2 $r12: .cfa -48 + ^
STACK CFI 5efa6 $rbx: .cfa -56 + ^
STACK CFI 5f00f .cfa: $rsp 8 +
STACK CFI 5f010 .cfa: $rbp 16 +
STACK CFI INIT 5f360 153 .cfa: $rsp 8 + .ra: .cfa -8 + ^
STACK CFI 5f361 $rbp: .cfa -16 + ^ .cfa: $rsp 16 +
STACK CFI 5f364 .cfa: $rbp 16 +
STACK CFI 5f368 $r14: .cfa -32 + ^ $r15: .cfa -24 + ^
STACK CFI 5f370 $r12: .cfa -48 + ^ $r13: .cfa -40 + ^ $rbx: .cfa -56 + ^
STACK CFI 5f487 .cfa: $rsp 8 +
STACK CFI 5f490 .cfa: $rbp 16 +
STACK CFI INIT 5f4c0 101 .cfa: $rsp 8 + .ra: .cfa -8 + ^
STACK CFI 5f4c1 $rbp: .cfa -16 + ^ .cfa: $rsp 16 +
STACK CFI 5f4c4 .cfa: $rbp 16 +
STACK CFI 5f4c6 $r15: .cfa -24 + ^
STACK CFI 5f4cc $r14: .cfa -32 + ^
STACK CFI 5f4d1 $r13: .cfa -40 + ^
STACK CFI 5f4d6 $r12: .cfa -48 + ^
STACK CFI 5f4da $rbx: .cfa -56 + ^
STACK CFI 5f581 .cfa: $rsp 8 +
STACK CFI 5f588 .cfa: $rbp 16 +
STACK CFI INIT 5f5d0 2cb .cfa: $rsp 8 + .ra: .cfa -8 + ^
STACK CFI 5f5d1 $rbp: .cfa -16 + ^ .cfa: $rsp 16 +
STACK CFI 5f5d4 .cfa: $rbp 16 +
STACK CFI 5f5d8 $r14: .cfa -32 + ^ $r15: .cfa -24 + ^
STACK CFI 5f5e1 $r13: .cfa -40 + ^
STACK CFI 5f5f3 $r12: .cfa -48 + ^ $rbx: .cfa -56 + ^
STACK CFI 5f780 .cfa: $rsp 8 +
STACK CFI 5f788 .cfa: $rbp 16 +
STACK CFI INIT 5f8a0 155 .cfa: $rsp 8 + .ra: .cfa -8 + ^
STACK CFI 5f8a1 $rbp: .cfa -16 + ^ .cfa: $rsp 16 +
STACK CFI 5f8a6 .cfa: $rbp 16 +
STACK CFI 5f8b3 $r12: .cfa -48 + ^ $r13: .cfa -40 + ^ $r14: .cfa -32 + ^ $r15: .cfa -24 + ^ $rbx: .cfa -56 + ^
STACK CFI 5f8cd .cfa: $rsp 8 +
STACK CFI 5f8d0 .cfa: $rbp 16 +
STACK CFI 5f936 .cfa: $rsp 8 +
STACK CFI 5f940 .cfa: $rbp 16 +
STACK CFI 5f9b7 .cfa: $rsp 8 +
STACK CFI 5f9c0 .cfa: $rbp 16 +
STACK CFI INIT 5fa00 ea .cfa: $rsp 8 + .ra: .cfa -8 + ^
STACK CFI 5fa01 $rbp: .cfa -16 + ^ .cfa: $rsp 16 +
STACK CFI 5fa07 .cfa: $rbp 16 +
STACK CFI 5fa0b $r13: .cfa -32 + ^ $r14: .cfa -24 + ^
STACK CFI 5fa1a $r12: .cfa -40 + ^ $rbx: .cfa -48 + ^
STACK CFI 5fa46 .cfa: $rsp 8 +
STACK CFI 5fa50 .cfa: $rbp 16 +
STACK CFI 5fa90 .cfa: $rsp 8 +
STACK CFI 5fa98 .cfa: $rbp 16 +
STACK CFI INIT 5faf0 10 .cfa: $rsp 8 + .ra: .cfa -8 + ^
STACK CFI INIT 5fb00 13 .cfa: $rsp 8 + .ra: .cfa -8 + ^
STACK CFI INIT 5fb20 230 .cfa: $rsp 8 + .ra: .cfa -8 + ^
STACK CFI 5fb21 $rbp: .cfa -16 + ^ .cfa: $rsp 16 +
STACK CFI 5fb24 .cfa: $rbp 16 +
STACK CFI 5fb34 $r12: .cfa -48 + ^ $r13: .cfa -40 + ^ $r14: .cfa -32 + ^ $r15: .cfa -24 + ^ $rbx: .cfa -56 + ^
STACK CFI 5fce7 .cfa: $rsp 8 +
STACK CFI 5fce8 .cfa: $rbp 16 +
STACK CFI INIT 5fd50 216 .cfa: $rsp 8 + .ra: .cfa -8 + ^
STACK CFI 5fd51 $rbp: .cfa -16 + ^ .cfa: $rsp 16 +
STACK CFI 5fd54 .cfa: $rbp 16 +
STACK CFI 5fd64 $r12: .cfa -48 + ^ $r13: .cfa -40 + ^ $r14: .cfa -32 + ^ $r15: .cfa -24 + ^ $rbx: .cfa -56 + ^
STACK CFI 5fe84 .cfa: $rsp 8 +
STACK CFI 5fe88 .cfa: $rbp 16 +
STACK CFI INIT 5ff70 f0 .cfa: $rsp 8 + .ra: .cfa -8 + ^
STACK CFI 5ff71 $rbp: .cfa -16 + ^ .cfa: $rsp 16 +
STACK CFI 5ff74 .cfa: $rbp 16 +
STACK CFI 5ff7f $r12: .cfa -32 + ^ $r13: .cfa -24 + ^
STACK CFI 6004d .cfa: $rsp 8 +
STACK CFI 60050 .cfa: $rbp 16 +
STACK CFI 6005f .cfa: $rsp 8 +
STACK CFI INIT 60060 155 .cfa: $rsp 8 + .ra: .cfa -8 + ^
STACK CFI 60061 $rbp: .cfa -16 + ^ .cfa: $rsp 16 +
STACK CFI 60064 .cfa: $rbp 16 +
STACK CFI 60066 $r13: .cfa -24 + ^
STACK CFI 60070 $r12: .cfa -32 + ^
STACK CFI 6007f $rbx: .cfa -40 + ^
STACK CFI 6018f .cfa: $rsp 8 +
STACK CFI 60190 .cfa: $rbp 16 +
STACK CFI 601a0 .cfa: $rsp 8 +
STACK CFI 601a8 .cfa: $rbp 16 +
STACK CFI INIT 601c0 77 .cfa: $rsp 8 + .ra: .cfa -8 + ^
STACK CFI 601c1 $rbp: .cfa -16 + ^ .cfa: $rsp 16 +
STACK CFI 601c4 .cfa: $rbp 16 +
STACK CFI 601d0 .cfa: $rsp 8 +
STACK CFI 601d8 .cfa: $rbp 16 +
STACK CFI 6020f .cfa: $rsp 8 +
STACK CFI 60218 .cfa: $rbp 16 +
STACK CFI INIT 60240 c8 .cfa: $rsp 8 + .ra: .cfa -8 + ^
STACK CFI 60241 $rbp: .cfa -16 + ^ .cfa: $rsp 16 +
STACK CFI 60244 .cfa: $rbp 16 +
STACK CFI 6024a $r12: .cfa -24 + ^
STACK CFI 60260 .cfa: $rsp 8 +
STACK CFI 60268 .cfa: $rbp 16 +
STACK CFI 602bc .cfa: $rsp 8 +
STACK CFI 602c0 .cfa: $rbp 16 +
STACK CFI INIT 60310 b0 .cfa: $rsp 8 + .ra: .cfa -8 + ^
STACK CFI 60311 $rbp: .cfa -16 + ^ .cfa: $rsp 16 +
STACK CFI 60314 .cfa: $rbp 16 +
STACK CFI 60316 $r12: .cfa -24 + ^
STACK CFI 6031a $rbx: .cfa -32 + ^
STACK CFI 6032c .cfa: $rsp 8 +
STACK CFI 60330 .cfa: $rbp 16 +
STACK CFI 60375 .cfa: $rsp 8 +
STACK CFI 60380 .cfa: $rbp 16 +
STACK CFI INIT 603c0 186 .cfa: $rsp 8 + .ra: .cfa -8 + ^
STACK CFI 603c1 $rbp: .cfa -16 + ^ .cfa: $rsp 16 +
STACK CFI 603c4 .cfa: $rbp 16 +
STACK CFI 603c8 $r12: .cfa -32 + ^ $r13: .cfa -24 + ^
STACK CFI 603d3 $rbx: .cfa -40 + ^
STACK CFI 603f2 .cfa: $rsp 8 +
STACK CFI 603f8 .cfa: $rbp 16 +
STACK CFI 60493 .cfa: $rsp 8 +
STACK CFI 60498 .cfa: $rbp 16 +
STACK CFI INIT 60550 150 .cfa: $rsp 8 + .ra: .cfa -8 + ^
STACK CFI 60551 $rbp: .cfa -16 + ^ .cfa: $rsp 16 +
STACK CFI 60554 .cfa: $rbp 16 +
STACK CFI 6055a $r13: .cfa -40 + ^ $r14: .cfa -32 + ^ $r15: .cfa -24 + ^
STACK CFI 6055f $r12: .cfa -48 + ^
STACK CFI 60563 $rbx: .cfa -56 + ^
STACK CFI 6058a .cfa: $rsp 8 +
STACK CFI 60590 .cfa: $rbp 16 +
STACK CFI INIT 606a0 d0 .cfa: $rsp 8 + .ra: .cfa -8 + ^
STACK CFI 606a1 $rbp: .cfa -16 + ^ .cfa: $rsp 16 +
STACK CFI 606a4 .cfa: $rbp 16 +
STACK CFI 606a6 $r12: .cfa -24 + ^
STACK CFI 606c5 .cfa: $rsp 8 +
STACK CFI 606d0 .cfa: $rbp 16 +
STACK CFI 60720 .cfa: $rsp 8 +
STACK CFI 60728 .cfa: $rbp 16 +
STACK CFI INIT 60770 b0 .cfa: $rsp 8 + .ra: .cfa -8 + ^
STACK CFI 60771 $rbp: .cfa -16 + ^ .cfa: $rsp 16 +
STACK CFI 60774 .cfa: $rbp 16 +
STACK CFI 60776 $r14: .cfa -24 + ^
STACK CFI 6077b $r13: .cfa -32 + ^
STACK CFI 60780 $r12: .cfa -40 + ^
STACK CFI 6079d .cfa: $rsp 8 +
STACK CFI 607a0 .cfa: $rbp 16 +
STACK CFI 607d6 .cfa: $rsp 8 +
STACK CFI 607e0 .cfa: $rbp 16 +
STACK CFI INIT 60820 14c .cfa: $rsp 8 + .ra: .cfa -8 + ^
STACK CFI 60821 $rbp: .cfa -16 + ^ .cfa: $rsp 16 +
STACK CFI 60824 .cfa: $rbp 16 +
STACK CFI 60828 $r13: .cfa -32 + ^ $r14: .cfa -24 + ^
STACK CFI 6082d $r12: .cfa -40 + ^
STACK CFI 60831 $rbx: .cfa -48 + ^
STACK CFI 60863 .cfa: $rsp 8 +
STACK CFI 60868 .cfa: $rbp 16 +
STACK CFI INIT 60970 2cf .cfa: $rsp 8 + .ra: .cfa -8 + ^
STACK CFI 60971 $rbp: .cfa -16 + ^ .cfa: $rsp 16 +
STACK CFI 60974 .cfa: $rbp 16 +
STACK CFI 6097d $r12: .cfa -48 + ^ $r13: .cfa -40 + ^ $r14: .cfa -32 + ^ $r15: .cfa -24 + ^ $rbx: .cfa -56 + ^
STACK CFI 609df .cfa: $rsp 8 +
STACK CFI 609e0 .cfa: $rbp 16 +
STACK CFI INIT 60c40 27 .cfa: $rsp 8 + .ra: .cfa -8 + ^
STACK CFI 60c41 $rbp: .cfa -16 + ^ .cfa: $rsp 16 +
STACK CFI 60c44 .cfa: $rbp 16 +
STACK CFI 60c59 .cfa: $rsp 8 +
STACK CFI 60c60 .cfa: $rbp 16 +
STACK CFI 60c61 .cfa: $rsp 8 +
STACK CFI INIT 60c70 2a .cfa: $rsp 8 + .ra: .cfa -8 + ^
STACK CFI 60c71 $rbp: .cfa -16 + ^ .cfa: $rsp 16 +
STACK CFI 60c76 .cfa: $rbp 16 +
STACK CFI 60c78 $r12: .cfa -24 + ^
STACK CFI 60c99 .cfa: $rsp 8 +
STACK CFI INIT 60ca0 c6 .cfa: $rsp 8 + .ra: .cfa -8 + ^
STACK CFI 60ca1 $rbp: .cfa -16 + ^ .cfa: $rsp 16 +
STACK CFI 60ca4 .cfa: $rbp 16 +
STACK CFI 60cad $r12: .cfa -48 + ^ $r13: .cfa -40 + ^ $r14: .cfa -32 + ^ $r15: .cfa -24 + ^ $rbx: .cfa -56 + ^
STACK CFI 60d4c .cfa: $rsp 8 +
STACK CFI 60d50 .cfa: $rbp 16 +
STACK CFI INIT 60d70 1 .cfa: $rsp 8 + .ra: .cfa -8 + ^
STACK CFI INIT 60d80 9 .cfa: $rsp 8 + .ra: .cfa -8 + ^
STACK CFI INIT 60d90 5b .cfa: $rsp 8 + .ra: .cfa -8 + ^
STACK CFI INIT 60df0 3 .cfa: $rsp 8 + .ra: .cfa -8 + ^
STACK CFI INIT 60e00 59 .cfa: $rsp 8 + .ra: .cfa -8 + ^
STACK CFI 60e01 $rbp: .cfa -16 + ^ .cfa: $rsp 16 +
STACK CFI 60e04 .cfa: $rbp 16 +
STACK CFI 60e06 $r14: .cfa -24 + ^
STACK CFI 60e0b $r13: .cfa -32 + ^
STACK CFI 60e10 $r12: .cfa -40 + ^
STACK CFI 60e3c .cfa: $rsp 8 +
STACK CFI 60e40 .cfa: $rbp 16 +
STACK CFI 60e54 .cfa: $rsp 8 +
STACK CFI INIT 60e60 fc .cfa: $rsp 8 + .ra: .cfa -8 + ^
STACK CFI 60e61 $rbp: .cfa -16 + ^ .cfa: $rsp 16 +
STACK CFI 60e64 .cfa: $rbp 16 +
STACK CFI 60e66 $r15: .cfa -24 + ^
STACK CFI 60e6b $r14: .cfa -32 + ^
STACK CFI 60e70 $r13: .cfa -40 + ^
STACK CFI 60e7a $r12: .cfa -48 + ^ $rbx: .cfa -56 + ^
STACK CFI 60ede .cfa: $rsp 8 +
STACK CFI 60ee0 .cfa: $rbp 16 +
STACK CFI INIT 60f60 22e .cfa: $rsp 8 + .ra: .cfa -8 + ^
STACK CFI 60f61 $rbp: .cfa -16 + ^ .cfa: $rsp 16 +
STACK CFI 60f64 .cfa: $rbp 16 +
STACK CFI 60f6a $r13: .cfa -40 + ^ $r14: .cfa -32 + ^ $r15: .cfa -24 + ^
STACK CFI 60f6f $r12: .cfa -48 + ^
STACK CFI 60f7a $rbx: .cfa -56 + ^
STACK CFI 6104e .cfa: $rsp 8 +
STACK CFI 61050 .cfa: $rbp 16 +
STACK CFI INIT 61190 d4 .cfa: $rsp 8 + .ra: .cfa -8 + ^
STACK CFI 61191 $rbp: .cfa -16 + ^ .cfa: $rsp 16 +
STACK CFI 61194 .cfa: $rbp 16 +
STACK CFI 61196 $r13: .cfa -24 + ^
STACK CFI 611a0 $r12: .cfa -32 + ^ $rbx: .cfa -40 + ^
STACK CFI 61215 .cfa: $rsp 8 +
STACK CFI 61220 .cfa: $rbp 16 +
STACK CFI 6123d .cfa: $rsp 8 +
STACK CFI 61240 .cfa: $rbp 16 +
STACK CFI INIT 61270 3a .cfa: $rsp 8 + .ra: .cfa -8 + ^
STACK CFI 61271 $rbp: .cfa -16 + ^ .cfa: $rsp 16 +
STACK CFI 61274 .cfa: $rbp 16 +
STACK CFI 61277 $r12: .cfa -24 + ^ $rbx: .cfa -32 + ^
STACK CFI 612a9 .cfa: $rsp 8 +
STACK CFI INIT 612b0 6e .cfa: $rsp 8 + .ra: .cfa -8 + ^
STACK CFI 612b1 $rbp: .cfa -16 + ^ .cfa: $rsp 16 +
STACK CFI 612b4 .cfa: $rbp 16 +
STACK CFI 612b6 $r12: .cfa -24 + ^
STACK CFI 612e9 .cfa: $rsp 8 +
STACK CFI 612f0 .cfa: $rbp 16 +
STACK CFI 61308 .cfa: $rsp 8 +
STACK CFI 61310 .cfa: $rbp 16 +
STACK CFI 6131d .cfa: $rsp 8 +
STACK CFI INIT 61320 30 .cfa: $rsp 8 + .ra: .cfa -8 + ^
STACK CFI 61321 $rbp: .cfa -16 + ^ .cfa: $rsp 16 +
STACK CFI 61329 .cfa: $rbp 16 +
STACK CFI 6133a .cfa: $rsp 8 +
STACK CFI 61340 .cfa: $rbp 16 +
STACK CFI 6134f .cfa: $rsp 8 +
STACK CFI INIT 61350 264 .cfa: $rsp 8 + .ra: .cfa -8 + ^
STACK CFI 61351 $rbp: .cfa -16 + ^ .cfa: $rsp 16 +
STACK CFI 61357 .cfa: $rbp 16 +
STACK CFI 61369 $r12: .cfa -32 + ^ $r13: .cfa -24 + ^
STACK CFI 613e2 .cfa: $rsp 8 +
STACK CFI 613e8 .cfa: $rbp 16 +
STACK CFI INIT 615c0 3e .cfa: $rsp 8 + .ra: .cfa -8 + ^
STACK CFI 615c1 $rbp: .cfa -16 + ^ .cfa: $rsp 16 +
STACK CFI 615cc .cfa: $rbp 16 +
STACK CFI 615fd .cfa: $rsp 8 +
STACK CFI INIT 61600 29 .cfa: $rsp 8 + .ra: .cfa -8 + ^
STACK CFI 61601 $rbp: .cfa -16 + ^ .cfa: $rsp 16 +
STACK CFI 6160c .cfa: $rbp 16 +
STACK CFI 61620 .cfa: $rsp 8 +
STACK CFI INIT 61630 f1 .cfa: $rsp 8 + .ra: .cfa -8 + ^
STACK CFI 6163a $rbp: .cfa -16 + ^ .cfa: $rsp 16 +
STACK CFI 6163d .cfa: $rbp 16 +
STACK CFI 61643 $r12: .cfa -40 + ^ $r13: .cfa -32 + ^ $r14: .cfa -24 + ^
STACK CFI 6164e $rbx: .cfa -48 + ^
STACK CFI 6171f .cfa: $rsp 8 +
STACK CFI 61720 $r12: $r12 $r13: $r13 $r14: $r14 $rbp: $rbp $rbx: $rbx
STACK CFI INIT 61730 2e0 .cfa: $rsp 8 + .ra: .cfa -8 + ^
STACK CFI 61731 $rbp: .cfa -16 + ^ .cfa: $rsp 16 +
STACK CFI 61737 .cfa: $rbp 16 +
STACK CFI 61740 $r12: .cfa -48 + ^ $r13: .cfa -40 + ^ $r14: .cfa -32 + ^ $r15: .cfa -24 + ^ $rbx: .cfa -56 + ^
STACK CFI 61863 .cfa: $rsp 8 +
STACK CFI 61868 .cfa: $rbp 16 +
STACK CFI INIT 61a10 f9 .cfa: $rsp 8 + .ra: .cfa -8 + ^
STACK CFI 61a1a $rbp: .cfa -16 + ^ .cfa: $rsp 16 +
STACK CFI 61a1d .cfa: $rbp 16 +
STACK CFI 61a1f $r12: .cfa -24 + ^
STACK CFI 61a3a .cfa: $rsp 8 +
STACK CFI 61a40 .cfa: $rbp 16 +
STACK CFI 61a9a .cfa: $rsp 8 +
STACK CFI 61aa0 $r12: $r12 $rbp: $rbp
STACK CFI 61aa8 $r12: .cfa -24 + ^ $rbp: .cfa -16 + ^ .cfa: $rbp 16 +
STACK CFI INIT 61b10 9 .cfa: $rsp 8 + .ra: .cfa -8 + ^
STACK CFI INIT 61b20 8 .cfa: $rsp 8 + .ra: .cfa -8 + ^
STACK CFI INIT 61b30 76 .cfa: $rsp 8 + .ra: .cfa -8 + ^
STACK CFI INIT 61bb0 17f .cfa: $rsp 8 + .ra: .cfa -8 + ^
STACK CFI 61bb1 $rbp: .cfa -16 + ^ .cfa: $rsp 16 +
STACK CFI 61bb4 .cfa: $rbp 16 +
STACK CFI 61bba $r12: .cfa -40 + ^ $r13: .cfa -32 + ^ $r14: .cfa -24 + ^
STACK CFI 61bc5 $rbx: .cfa -48 + ^
STACK CFI 61c3e .cfa: $rsp 8 +
STACK CFI 61c40 .cfa: $rbp 16 +
STACK CFI 61d03 .cfa: $rsp 8 +
STACK CFI 61d08 .cfa: $rbp 16 +
STACK CFI INIT 61d30 6c8 .cfa: $rsp 8 + .ra: .cfa -8 + ^
STACK CFI 61d31 $rbp: .cfa -16 + ^ .cfa: $rsp 16 +
STACK CFI 61d38 .cfa: $rbp 16 +
STACK CFI 61d3a $r15: .cfa -24 + ^
STACK CFI 61d43 $r12: .cfa -48 + ^ $r13: .cfa -40 + ^ $r14: .cfa -32 + ^
STACK CFI 61d4e $rbx: .cfa -56 + ^
STACK CFI 620b5 .cfa: $rsp 8 +
STACK CFI 620c0 .cfa: $rbp 16 +
STACK CFI INIT 62400 e6 .cfa: $rsp 8 + .ra: .cfa -8 + ^
STACK CFI 62401 $rbp: .cfa -16 + ^ .cfa: $rsp 16 +
STACK CFI 6240d .cfa: $rbp 16 +
STACK CFI 62411 $r14: .cfa -32 + ^ $r15: .cfa -24 + ^
STACK CFI 62416 $r13: .cfa -40 + ^
STACK CFI 6241b $r12: .cfa -48 + ^
STACK CFI 62423 $rbx: .cfa -56 + ^
STACK CFI 624ad .cfa: $rsp 8 +
STACK CFI 624b0 .cfa: $rbp 16 +
STACK CFI INIT 624f0 19 .cfa: $rsp 8 + .ra: .cfa -8 + ^
STACK CFI 624f1 $rbp: .cfa -16 + ^ .cfa: $rsp 16 +
STACK CFI 624f9 .cfa: $rbp 16 +
STACK CFI 624ff .cfa: $rsp 8 +
STACK CFI INIT 62510 1b .cfa: $rsp 8 + .ra: .cfa -8 + ^
STACK CFI 62511 $rbp: .cfa -16 + ^ .cfa: $rsp 16 +
STACK CFI 6251c .cfa: $rbp 16 +
STACK CFI 62522 .cfa: $rsp 8 +
STACK CFI INIT 62530 96 .cfa: $rsp 8 + .ra: .cfa -8 + ^
STACK CFI 62531 $rbp: .cfa -16 + ^ .cfa: $rsp 16 +
STACK CFI 62534 .cfa: $rbp 16 +
STACK CFI 625c5 .cfa: $rsp 8 +
STACK CFI INIT 625d0 e0 .cfa: $rsp 8 + .ra: .cfa -8 + ^
STACK CFI 625d1 $rbp: .cfa -16 + ^ .cfa: $rsp 16 +
STACK CFI 625d7 .cfa: $rbp 16 +
STACK CFI 625db $r12: .cfa -32 + ^ $r13: .cfa -24 + ^
STACK CFI 62634 .cfa: $rsp 8 +
STACK CFI 62638 .cfa: $rbp 16 +
STACK CFI INIT 626b0 9 .cfa: $rsp 8 + .ra: .cfa -8 + ^
STACK CFI INIT 626c0 b3 .cfa: $rsp 8 + .ra: .cfa -8 + ^
STACK CFI 626c1 $rbp: .cfa -16 + ^ .cfa: $rsp 16 +
STACK CFI 626c4 .cfa: $rbp 16 +
STACK CFI 626c6 $r14: .cfa -24 + ^
STACK CFI 626ce $r13: .cfa -32 + ^
STACK CFI 626d3 $r12: .cfa -40 + ^
STACK CFI 626d7 $rbx: .cfa -48 + ^
STACK CFI 6274f .cfa: $rsp 8 +
STACK CFI 62750 .cfa: $rbp 16 +
STACK CFI INIT 62780 25c .cfa: $rsp 8 + .ra: .cfa -8 + ^
STACK CFI 62781 $rbp: .cfa -16 + ^ .cfa: $rsp 16 +
STACK CFI 62784 .cfa: $rbp 16 +
STACK CFI 62786 $r15: .cfa -24 + ^
STACK CFI 6278b $r14: .cfa -32 + ^
STACK CFI 62790 $r13: .cfa -40 + ^
STACK CFI 62795 $r12: .cfa -48 + ^
STACK CFI 6279d $rbx: .cfa -56 + ^
STACK CFI 628ed .cfa: $rsp 8 +
STACK CFI 628f0 .cfa: $rbp 16 +
STACK CFI INIT 629e0 e8 .cfa: $rsp 8 + .ra: .cfa -8 + ^
STACK CFI 629e1 $rbp: .cfa -16 + ^ .cfa: $rsp 16 +
STACK CFI 629e7 .cfa: $rbp 16 +
STACK CFI 629e9 $r13: .cfa -24 + ^
STACK CFI 62a02 $r12: .cfa -32 + ^ $rbx: .cfa -40 + ^
STACK CFI 62a6a .cfa: $rsp 8 +
STACK CFI 62a70 .cfa: $rbp 16 +
STACK CFI INIT 62ad0 13e .cfa: $rsp 8 + .ra: .cfa -8 + ^
STACK CFI 62ad1 $rbp: .cfa -16 + ^ .cfa: $rsp 16 +
STACK CFI 62ad4 .cfa: $rbp 16 +
STACK CFI 62ad8 $r13: .cfa -32 + ^ $r14: .cfa -24 + ^
STACK CFI 62add $r12: .cfa -40 + ^
STACK CFI 62ae1 $rbx: .cfa -48 + ^
STACK CFI 62b82 .cfa: $rsp 8 +
STACK CFI 62b88 .cfa: $rbp 16 +
STACK CFI 62bbd .cfa: $rsp 8 +
STACK CFI 62bc0 .cfa: $rbp 16 +
STACK CFI 62bd1 .cfa: $rsp 8 +
STACK CFI 62bd8 .cfa: $rbp 16 +
STACK CFI 62c0d .cfa: $rsp 8 +
STACK CFI INIT 62c10 83 .cfa: $rsp 8 + .ra: .cfa -8 + ^
STACK CFI 62c11 $rbp: .cfa -16 + ^ .cfa: $rsp 16 +
STACK CFI 62c14 .cfa: $rbp 16 +
STACK CFI 62c1b $r12: .cfa -40 + ^ $r13: .cfa -32 + ^ $r14: .cfa -24 + ^ $rbx: .cfa -48 + ^
STACK CFI 62c92 .cfa: $rsp 8 +
STACK CFI INIT 62ca0 206 .cfa: $rsp 8 + .ra: .cfa -8 + ^
STACK CFI 62ca1 $rbp: .cfa -16 + ^ .cfa: $rsp 16 +
STACK CFI 62ca4 .cfa: $rbp 16 +
STACK CFI 62ca8 $r14: .cfa -32 + ^ $r15: .cfa -24 + ^
STACK CFI 62cad $r13: .cfa -40 + ^
STACK CFI 62cb2 $r12: .cfa -48 + ^
STACK CFI 62cba $rbx: .cfa -56 + ^
STACK CFI 62e35 .cfa: $rsp 8 +
STACK CFI 62e40 .cfa: $rbp 16 +
STACK CFI INIT 62eb0 168 .cfa: $rsp 8 + .ra: .cfa -8 + ^
STACK CFI 62eb1 $rbp: .cfa -16 + ^ .cfa: $rsp 16 +
STACK CFI 62ebb .cfa: $rbp 16 +
STACK CFI 62ec1 $r13: .cfa -40 + ^ $r14: .cfa -32 + ^ $r15: .cfa -24 + ^
STACK CFI 62ed2 $r12: .cfa -48 + ^ $rbx: .cfa -56 + ^
STACK CFI 63009 .cfa: $rsp 8 +
STACK CFI 6300a .cfa: $rbp 16 +
STACK CFI INIT 63020 ce .cfa: $rsp 8 + .ra: .cfa -8 + ^
STACK CFI 63021 $rbp: .cfa -16 + ^ .cfa: $rsp 16 +
STACK CFI 63024 .cfa: $rbp 16 +
STACK CFI 6302c $r12: .cfa -48 + ^ $r13: .cfa -40 + ^ $r14: .cfa -32 + ^ $r15: .cfa -24 + ^
STACK CFI 63030 $rbx: .cfa -56 + ^
STACK CFI 63072 .cfa: $rsp 8 +
STACK CFI 63080 .cfa: $rbp 16 +
STACK CFI INIT 630f0 576 .cfa: $rsp 8 + .ra: .cfa -8 + ^
STACK CFI 630f1 $rbp: .cfa -16 + ^ .cfa: $rsp 16 +
STACK CFI 630f4 .cfa: $rbp 16 +
STACK CFI 63104 $r12: .cfa -48 + ^ $r13: .cfa -40 + ^ $r14: .cfa -32 + ^ $r15: .cfa -24 + ^ $rbx: .cfa -56 + ^
STACK CFI 63148 .cfa: $rsp 8 +
STACK CFI 63150 .cfa: $rbp 16 +
STACK CFI INIT 63670 57 .cfa: $rsp 8 + .ra: .cfa -8 + ^
STACK CFI 63671 $rbp: .cfa -16 + ^ .cfa: $rsp 16 +
STACK CFI 63674 .cfa: $rbp 16 +
STACK CFI 63676 $r12: .cfa -24 + ^
STACK CFI 636ac .cfa: $rsp 8 +
STACK CFI 636b0 .cfa: $rbp 16 +
STACK CFI 636c6 .cfa: $rsp 8 +
STACK CFI INIT 636d0 1f9 .cfa: $rsp 8 + .ra: .cfa -8 + ^
STACK CFI 636d1 $rbp: .cfa -16 + ^ .cfa: $rsp 16 +
STACK CFI 636d4 .cfa: $rbp 16 +
STACK CFI 636d8 $r14: .cfa -32 + ^ $r15: .cfa -24 + ^
STACK CFI 636e0 $r12: .cfa -48 + ^ $r13: .cfa -40 + ^ $rbx: .cfa -56 + ^
STACK CFI 6389b .cfa: $rsp 8 +
STACK CFI 638a0 .cfa: $rbp 16 +
STACK CFI INIT 638d0 f4 .cfa: $rsp 8 + .ra: .cfa -8 + ^
STACK CFI 638d1 $rbp: .cfa -16 + ^ .cfa: $rsp 16 +
STACK CFI 638d4 .cfa: $rbp 16 +
STACK CFI 638dc $r12: .cfa -48 + ^ $r13: .cfa -40 + ^ $r14: .cfa -32 + ^ $r15: .cfa -24 + ^
STACK CFI 638e4 $rbx: .cfa -56 + ^
STACK CFI 63989 .cfa: $rsp 8 +
STACK CFI 63990 .cfa: $rbp 16 +
STACK CFI INIT 639d0 176 .cfa: $rsp 8 + .ra: .cfa -8 + ^
STACK CFI 639d1 $rbp: .cfa -16 + ^ .cfa: $rsp 16 +
STACK CFI 639d4 .cfa: $rbp 16 +
STACK CFI 639d6 $r15: .cfa -24 + ^
STACK CFI 639db $r14: .cfa -32 + ^
STACK CFI 639e0 $r13: .cfa -40 + ^
STACK CFI 639e5 $r12: .cfa -48 + ^
STACK CFI 639e9 $rbx: .cfa -56 + ^
STACK CFI 63aa7 .cfa: $rsp 8 +
STACK CFI 63ab0 .cfa: $rbp 16 +
STACK CFI 63b27 .cfa: $rsp 8 +
STACK CFI 63b30 .cfa: $rbp 16 +
STACK CFI INIT 63b50 14b .cfa: $rsp 8 + .ra: .cfa -8 + ^
STACK CFI 63b51 $rbp: .cfa -16 + ^ .cfa: $rsp 16 +
STACK CFI 63b54 .cfa: $rbp 16 +
STACK CFI 63b56 $r15: .cfa -24 + ^
STACK CFI 63b5e $r14: .cfa -32 + ^
STACK CFI 63b63 $r13: .cfa -40 + ^
STACK CFI 63b68 $r12: .cfa -48 + ^
STACK CFI 63b6c $rbx: .cfa -56 + ^
STACK CFI 63c50 .cfa: $rsp 8 +
STACK CFI 63c58 .cfa: $rbp 16 +
STACK CFI INIT 63ca0 19e .cfa: $rsp 8 + .ra: .cfa -8 + ^
STACK CFI 63ca1 $rbp: .cfa -16 + ^ .cfa: $rsp 16 +
STACK CFI 63ca7 .cfa: $rbp 16 +
STACK CFI 63ca9 $r15: .cfa -24 + ^
STACK CFI 63cae $r14: .cfa -32 + ^
STACK CFI 63cb3 $r13: .cfa -40 + ^
STACK CFI 63cb8 $r12: .cfa -48 + ^
STACK CFI 63cbc $rbx: .cfa -56 + ^
STACK CFI 63d55 .cfa: $rsp 8 +
STACK CFI 63d60 .cfa: $rbp 16 +
STACK CFI 63e03 .cfa: $rsp 8 +
STACK CFI 63e08 .cfa: $rbp 16 +
STACK CFI INIT 63e40 94 .cfa: $rsp 8 + .ra: .cfa -8 + ^
STACK CFI 63e41 $rbp: .cfa -16 + ^ .cfa: $rsp 16 +
STACK CFI 63e44 .cfa: $rbp 16 +
STACK CFI 63e46 $r13: .cfa -24 + ^
STACK CFI 63e4b $r12: .cfa -32 + ^
STACK CFI 63e52 $rbx: .cfa -40 + ^
STACK CFI 63e88 .cfa: $rsp 8 +
STACK CFI 63e90 .cfa: $rbp 16 +
STACK CFI INIT 63ee0 ea .cfa: $rsp 8 + .ra: .cfa -8 + ^
STACK CFI 63ee1 $rbp: .cfa -16 + ^ .cfa: $rsp 16 +
STACK CFI 63ee4 .cfa: $rbp 16 +
STACK CFI 63ee6 $r15: .cfa -24 + ^
STACK CFI 63eed $r13: .cfa -40 + ^ $r14: .cfa -32 + ^
STACK CFI 63ef2 $r12: .cfa -48 + ^
STACK CFI 63ef6 $rbx: .cfa -56 + ^
STACK CFI 63f81 .cfa: $rsp 8 +
STACK CFI 63f88 .cfa: $rbp 16 +
STACK CFI 63f9b .cfa: $rsp 8 +
STACK CFI 63fa0 .cfa: $rbp 16 +
STACK CFI INIT 63fd0 209 .cfa: $rsp 8 + .ra: .cfa -8 + ^
STACK CFI 63fd1 $rbp: .cfa -16 + ^ .cfa: $rsp 16 +
STACK CFI 63fd4 .cfa: $rbp 16 +
STACK CFI 63fd6 $r15: .cfa -24 + ^
STACK CFI 63fdf $r12: .cfa -48 + ^ $r13: .cfa -40 + ^ $r14: .cfa -32 + ^
STACK CFI 63fea $rbx: .cfa -56 + ^
STACK CFI 64116 .cfa: $rsp 8 +
STACK CFI 64120 .cfa: $rbp 16 +
STACK CFI INIT 641e0 88 .cfa: $rsp 8 + .ra: .cfa -8 + ^
STACK CFI 641e1 $rbp: .cfa -16 + ^ .cfa: $rsp 16 +
STACK CFI 641ed .cfa: $rbp 16 +
STACK CFI 64222 .cfa: $rsp 8 +
STACK CFI 64228 .cfa: $rbp 16 +
STACK CFI 64267 .cfa: $rsp 8 +
STACK CFI INIT 64270 112 .cfa: $rsp 8 + .ra: .cfa -8 + ^
STACK CFI 64271 $rbp: .cfa -16 + ^ .cfa: $rsp 16 +
STACK CFI 64274 .cfa: $rbp 16 +
STACK CFI 6427c $r12: .cfa -48 + ^ $r13: .cfa -40 + ^ $r14: .cfa -32 + ^ $r15: .cfa -24 + ^
STACK CFI 64281 $rbx: .cfa -56 + ^
STACK CFI 642d1 .cfa: $rsp 8 +
STACK CFI 642d8 .cfa: $rbp 16 +
STACK CFI INIT 64390 15 .cfa: $rsp 8 + .ra: .cfa -8 + ^
STACK CFI INIT 643b0 f .cfa: $rsp 8 + .ra: .cfa -8 + ^
STACK CFI INIT 643c0 2b8 .cfa: $rsp 8 + .ra: .cfa -8 + ^
STACK CFI 643c1 $rbp: .cfa -16 + ^ .cfa: $rsp 16 +
STACK CFI 643c4 .cfa: $rbp 16 +
STACK CFI 643c6 $r15: .cfa -24 + ^
STACK CFI 643cf $r12: .cfa -48 + ^ $r13: .cfa -40 + ^ $r14: .cfa -32 + ^
STACK CFI 643da $rbx: .cfa -56 + ^
STACK CFI 644f4 .cfa: $rsp 8 +
STACK CFI 644f8 .cfa: $rbp 16 +
STACK CFI INIT 64680 d .cfa: $rsp 8 + .ra: .cfa -8 + ^
STACK CFI INIT 64690 115 .cfa: $rsp 8 + .ra: .cfa -8 + ^
STACK CFI 64691 $rbp: .cfa -16 + ^ .cfa: $rsp 16 +
STACK CFI 64694 .cfa: $rbp 16 +
STACK CFI 6469a $r13: .cfa -40 + ^ $r14: .cfa -32 + ^ $r15: .cfa -24 + ^
STACK CFI 6469f $r12: .cfa -48 + ^
STACK CFI 646a3 $rbx: .cfa -56 + ^
STACK CFI 64725 .cfa: $rsp 8 +
STACK CFI 64730 .cfa: $rbp 16 +
STACK CFI 6478c .cfa: $rsp 8 +
STACK CFI 64798 .cfa: $rbp 16 +
STACK CFI INIT 647b0 788 .cfa: $rsp 8 + .ra: .cfa -8 + ^
STACK CFI 647b1 $rbp: .cfa -16 + ^ .cfa: $rsp 16 +
STACK CFI 647b4 .cfa: $rbp 16 +
STACK CFI 647b8 $r14: .cfa -32 + ^ $r15: .cfa -24 + ^
STACK CFI 647bf $r12: .cfa -48 + ^ $r13: .cfa -40 + ^
STACK CFI 647c7 $rbx: .cfa -56 + ^
STACK CFI 64aa3 .cfa: $rsp 8 +
STACK CFI 64aa4 .cfa: $rbp 16 +
STACK CFI 64bb1 .cfa: $rsp 8 +
STACK CFI 64bb2 .cfa: $rbp 16 +
STACK CFI 64d52 .cfa: $rsp 8 +
STACK CFI 64d57 .cfa: $rbp 16 +
STACK CFI INIT 64f40 1c6 .cfa: $rsp 8 + .ra: .cfa -8 + ^
STACK CFI 64f41 $rbp: .cfa -16 + ^ .cfa: $rsp 16 +
STACK CFI 64f44 .cfa: $rbp 16 +
STACK CFI 64f48 $r14: .cfa -32 + ^ $r15: .cfa -24 + ^
STACK CFI 64f50 $r12: .cfa -48 + ^ $r13: .cfa -40 + ^
STACK CFI 64f54 $rbx: .cfa -56 + ^
STACK CFI 64ff9 .cfa: $rsp 8 +
STACK CFI 65000 .cfa: $rbp 16 +
STACK CFI INIT 65110 8d .cfa: $rsp 8 + .ra: .cfa -8 + ^
STACK CFI 65111 $rbp: .cfa -16 + ^ .cfa: $rsp 16 +
STACK CFI 65114 .cfa: $rbp 16 +
STACK CFI 65116 $r13: .cfa -24 + ^
STACK CFI 65120 $r12: .cfa -32 + ^ $rbx: .cfa -40 + ^
STACK CFI 65182 .cfa: $rsp 8 +
STACK CFI 65188 .cfa: $rbp 16 +
STACK CFI 6519c .cfa: $rsp 8 +
STACK CFI INIT 651a0 ad .cfa: $rsp 8 + .ra: .cfa -8 + ^
STACK CFI 651a1 $rbp: .cfa -16 + ^ .cfa: $rsp 16 +
STACK CFI 651a4 .cfa: $rbp 16 +
STACK CFI 651a9 $r12: .cfa -32 + ^ $r13: .cfa -24 + ^ $rbx: .cfa -40 + ^
STACK CFI 65217 .cfa: $rsp 8 +
STACK CFI 65220 .cfa: $rbp 16 +
STACK CFI 6524c .cfa: $rsp 8 +
STACK CFI INIT 65250 ad .cfa: $rsp 8 + .ra: .cfa -8 + ^
STACK CFI 65251 $rbp: .cfa -16 + ^ .cfa: $rsp 16 +
STACK CFI 65254 .cfa: $rbp 16 +
STACK CFI 65259 $r12: .cfa -32 + ^ $r13: .cfa -24 + ^ $rbx: .cfa -40 + ^
STACK CFI 652cb .cfa: $rsp 8 +
STACK CFI 652d0 .cfa: $rbp 16 +
STACK CFI 652fc .cfa: $rsp 8 +
STACK CFI INIT 65300 95 .cfa: $rsp 8 + .ra: .cfa -8 + ^
STACK CFI 65301 $rbp: .cfa -16 + ^ .cfa: $rsp 16 +
STACK CFI 65304 .cfa: $rbp 16 +
STACK CFI 65306 $r13: .cfa -24 + ^
STACK CFI 65310 $r12: .cfa -32 + ^ $rbx: .cfa -40 + ^
STACK CFI 65376 .cfa: $rsp 8 +
STACK CFI 65380 .cfa: $rbp 16 +
STACK CFI 65394 .cfa: $rsp 8 +
STACK CFI INIT 653a0 1 .cfa: $rsp 8 + .ra: .cfa -8 + ^
STACK CFI INIT 653b0 7d .cfa: $rsp 8 + .ra: .cfa -8 + ^
STACK CFI INIT 65430 f .cfa: $rsp 8 + .ra: .cfa -8 + ^
STACK CFI INIT 65440 6 .cfa: $rsp 8 + .ra: .cfa -8 + ^
STACK CFI INIT 65450 d .cfa: $rsp 8 + .ra: .cfa -8 + ^
STACK CFI INIT 65460 7 .cfa: $rsp 8 + .ra: .cfa -8 + ^
STACK CFI INIT 65470 1c .cfa: $rsp 8 + .ra: .cfa -8 + ^
STACK CFI INIT 65490 f .cfa: $rsp 8 + .ra: .cfa -8 + ^
STACK CFI INIT 654a0 1a .cfa: $rsp 8 + .ra: .cfa -8 + ^
STACK CFI INIT 654c0 19 .cfa: $rsp 8 + .ra: .cfa -8 + ^
STACK CFI INIT 654e0 18c .cfa: $rsp 8 + .ra: .cfa -8 + ^
STACK CFI 654e1 $rbp: .cfa -16 + ^ .cfa: $rsp 16 +
STACK CFI 654e4 .cfa: $rbp 16 +
STACK CFI 654e8 $r14: .cfa -32 + ^ $r15: .cfa -24 + ^
STACK CFI 654f2 $r13: .cfa -40 + ^
STACK CFI 654f8 $r12: .cfa -48 + ^ $rbx: .cfa -56 + ^
STACK CFI 655ca .cfa: $rsp 8 +
STACK CFI 655d0 .cfa: $rbp 16 +
STACK CFI INIT 65670 8a .cfa: $rsp 8 + .ra: .cfa -8 + ^
STACK CFI 6567d $rbp: .cfa -16 + ^ .cfa: $rsp 16 +
STACK CFI 65680 .cfa: $rbp 16 +
STACK CFI 65682 $r12: .cfa -24 + ^
STACK CFI 656ac .cfa: $rsp 8 +
STACK CFI 656ad .cfa: $rbp 16 +
STACK CFI 656e1 .cfa: $rsp 8 +
STACK CFI 656e8 .cfa: $rbp 16 +
STACK CFI 656f4 $r12: $r12 $rbp: $rbp .cfa: $rsp 8 +
STACK CFI INIT 65700 1b .cfa: $rsp 8 + .ra: .cfa -8 + ^
STACK CFI INIT 65720 d .cfa: $rsp 8 + .ra: .cfa -8 + ^
STACK CFI INIT 65730 a6 .cfa: $rsp 8 + .ra: .cfa -8 + ^
STACK CFI 65731 $rbp: .cfa -16 + ^ .cfa: $rsp 16 +
STACK CFI 65734 .cfa: $rbp 16 +
STACK CFI 65736 $r14: .cfa -24 + ^
STACK CFI 6573b $r13: .cfa -32 + ^
STACK CFI 65740 $r12: .cfa -40 + ^
STACK CFI 65744 $rbx: .cfa -48 + ^
STACK CFI 65796 .cfa: $rsp 8 +
STACK CFI 657a0 .cfa: $rbp 16 +
STACK CFI INIT 657e0 b1 .cfa: $rsp 8 + .ra: .cfa -8 + ^
STACK CFI 657e1 $rbp: .cfa -16 + ^ .cfa: $rsp 16 +
STACK CFI 657e4 .cfa: $rbp 16 +
STACK CFI 657e6 $r14: .cfa -24 + ^
STACK CFI 657eb $r13: .cfa -32 + ^
STACK CFI 657f0 $r12: .cfa -40 + ^
STACK CFI 657f4 $rbx: .cfa -48 + ^
STACK CFI 65846 .cfa: $rsp 8 +
STACK CFI 65850 .cfa: $rbp 16 +
STACK CFI INIT 658a0 9a .cfa: $rsp 8 + .ra: .cfa -8 + ^
STACK CFI 658a1 $rbp: .cfa -16 + ^ .cfa: $rsp 16 +
STACK CFI 658a4 .cfa: $rbp 16 +
STACK CFI 658a6 $r14: .cfa -24 + ^
STACK CFI 658ab $r13: .cfa -32 + ^
STACK CFI 658b0 $r12: .cfa -40 + ^
STACK CFI 658b4 $rbx: .cfa -48 + ^
STACK CFI INIT 65940 7b .cfa: $rsp 8 + .ra: .cfa -8 + ^
STACK CFI 65941 $rbp: .cfa -16 + ^ .cfa: $rsp 16 +
STACK CFI 65944 .cfa: $rbp 16 +
STACK CFI 65946 $r14: .cfa -24 + ^
STACK CFI 6594b $r13: .cfa -32 + ^
STACK CFI 65952 $r12: .cfa -40 + ^
STACK CFI 65991 .cfa: $rsp 8 +
STACK CFI 659a0 .cfa: $rbp 16 +
STACK CFI INIT 659c0 64 .cfa: $rsp 8 + .ra: .cfa -8 + ^
STACK CFI 659c1 $rbp: .cfa -16 + ^ .cfa: $rsp 16 +
STACK CFI 659c4 .cfa: $rbp 16 +
STACK CFI 659c6 $r14: .cfa -24 + ^
STACK CFI 659cb $r13: .cfa -32 + ^
STACK CFI 659d0 $r12: .cfa -40 + ^
STACK CFI 659f0 .cfa: $rsp 8 +
STACK CFI 659f8 .cfa: $rbp 16 +
STACK CFI 65a0c .cfa: $rsp 8 +
STACK CFI 65a11 .cfa: $rbp 16 +
STACK CFI INIT 65a30 d8 .cfa: $rsp 8 + .ra: .cfa -8 + ^
STACK CFI 65a31 $rbp: .cfa -16 + ^ .cfa: $rsp 16 +
STACK CFI 65a34 .cfa: $rbp 16 +
STACK CFI 65a38 $r14: .cfa -32 + ^ $r15: .cfa -24 + ^
STACK CFI 65a3d $r13: .cfa -40 + ^
STACK CFI 65a43 $r12: .cfa -48 + ^ $rbx: .cfa -56 + ^
STACK CFI 65ac9 .cfa: $rsp 8 +
STACK CFI 65ad0 .cfa: $rbp 16 +
STACK CFI INIT 65b10 9c8 .cfa: $rsp 8 + .ra: .cfa -8 + ^
STACK CFI 65b11 $rbp: .cfa -16 + ^ .cfa: $rsp 16 +
STACK CFI 65b14 .cfa: $rbp 16 +
STACK CFI 65b18 $r14: .cfa -32 + ^ $r15: .cfa -24 + ^
STACK CFI 65b1d $r13: .cfa -40 + ^
STACK CFI 65b22 $r12: .cfa -48 + ^
STACK CFI 65b26 $rbx: .cfa -56 + ^
STACK CFI 65c4c .cfa: $rsp 8 +
STACK CFI 65c58 .cfa: $rbp 16 +
STACK CFI 65dc0 .cfa: $rsp 8 +
STACK CFI 65dc8 .cfa: $rbp 16 +
STACK CFI INIT 664e0 283 .cfa: $rsp 8 + .ra: .cfa -8 + ^
STACK CFI 664e1 $rbp: .cfa -16 + ^ .cfa: $rsp 16 +
STACK CFI 664e4 .cfa: $rbp 16 +
STACK CFI 664e8 $r14: .cfa -32 + ^ $r15: .cfa -24 + ^
STACK CFI 664ef $r12: .cfa -48 + ^ $r13: .cfa -40 + ^
STACK CFI 664f3 $rbx: .cfa -56 + ^
STACK CFI 666ab .cfa: $rsp 8 +
STACK CFI 666b0 .cfa: $rbp 16 +
STACK CFI 66724 .cfa: $rsp 8 +
STACK CFI 66725 .cfa: $rbp 16 +
STACK CFI INIT 66770 287 .cfa: $rsp 8 + .ra: .cfa -8 + ^
STACK CFI 66771 $rbp: .cfa -16 + ^ .cfa: $rsp 16 +
STACK CFI 66774 .cfa: $rbp 16 +
STACK CFI 66776 $r15: .cfa -24 + ^
STACK CFI 6677b $r14: .cfa -32 + ^
STACK CFI 66780 $r13: .cfa -40 + ^
STACK CFI 66785 $r12: .cfa -48 + ^
STACK CFI 66789 $rbx: .cfa -56 + ^
STACK CFI 66949 .cfa: $rsp 8 +
STACK CFI 66950 .cfa: $rbp 16 +
STACK CFI INIT 66a00 f8 .cfa: $rsp 8 + .ra: .cfa -8 + ^
STACK CFI 66a01 $rbp: .cfa -16 + ^ .cfa: $rsp 16 +
STACK CFI 66a04 .cfa: $rbp 16 +
STACK CFI 66a08 $r12: .cfa -32 + ^ $r13: .cfa -24 + ^
STACK CFI 66aad .cfa: $rsp 8 +
STACK CFI 66ab0 .cfa: $rbp 16 +
STACK CFI INIT 66b00 1a4 .cfa: $rsp 8 + .ra: .cfa -8 + ^
STACK CFI 66b01 $rbp: .cfa -16 + ^ .cfa: $rsp 16 +
STACK CFI 66b04 .cfa: $rbp 16 +
STACK CFI 66b08 $r14: .cfa -32 + ^ $r15: .cfa -24 + ^
STACK CFI 66b0d $r13: .cfa -40 + ^
STACK CFI 66b12 $r12: .cfa -48 + ^
STACK CFI 66b19 $rbx: .cfa -56 + ^
STACK CFI 66c51 .cfa: $rsp 8 +
STACK CFI 66c58 .cfa: $rbp 16 +
STACK CFI 66c8f .cfa: $rsp 8 +
STACK CFI 66c90 .cfa: $rbp 16 +
STACK CFI INIT 66cb0 a73 .cfa: $rsp 8 + .ra: .cfa -8 + ^
STACK CFI 66cb1 $rbp: .cfa -16 + ^ .cfa: $rsp 16 +
STACK CFI 66cb4 .cfa: $rbp 16 +
STACK CFI 66cbb $r12: .cfa -40 + ^ $r13: .cfa -32 + ^ $r14: .cfa -24 + ^ $rbx: .cfa -48 + ^
STACK CFI 66ce6 .cfa: $rsp 8 +
STACK CFI 66cf0 .cfa: $rbp 16 +
STACK CFI 66ee5 .cfa: $rsp 8 +
STACK CFI 66ee6 .cfa: $rbp 16 +
STACK CFI INIT 67730 36b .cfa: $rsp 8 + .ra: .cfa -8 + ^
STACK CFI 67731 $rbp: .cfa -16 + ^ .cfa: $rsp 16 +
STACK CFI 67734 .cfa: $rbp 16 +
STACK CFI 67741 $r12: .cfa -48 + ^ $r13: .cfa -40 + ^ $r14: .cfa -32 + ^ $r15: .cfa -24 + ^ $rbx: .cfa -56 + ^
STACK CFI 67986 .cfa: $rsp 8 +
STACK CFI 67990 .cfa: $rbp 16 +
STACK CFI INIT 67aa0 a .cfa: $rsp 8 + .ra: .cfa -8 + ^
STACK CFI INIT 67ab0 49 .cfa: $rsp 8 + .ra: .cfa -8 + ^
STACK CFI 67ab7 $rbp: .cfa -16 + ^ .cfa: $rsp 16 +
STACK CFI 67abc .cfa: $rbp 16 +
STACK CFI 67abe $r13: .cfa -24 + ^
STACK CFI 67ac8 $r12: .cfa -32 + ^
STACK CFI 67af0 .cfa: $rsp 8 +
STACK CFI 67af8 $r12: $r12 $r13: $r13 $rbp: $rbp
STACK CFI INIT 67b00 a7 .cfa: $rsp 8 + .ra: .cfa -8 + ^
STACK CFI 67b0a $rbp: .cfa -16 + ^ .cfa: $rsp 16 +
STACK CFI 67b0d .cfa: $rbp 16 +
STACK CFI 67b13 $r12: .cfa -40 + ^ $r13: .cfa -32 + ^ $r14: .cfa -24 + ^
STACK CFI 67b3f $r12: $r12
STACK CFI 67b41 $r13: $r13
STACK CFI 67b43 $r14: $r14
STACK CFI 67b44 $rbp: $rbp .cfa: $rsp 8 +
STACK CFI 67b50 $r12: .cfa -40 + ^ $r13: .cfa -32 + ^ $r14: .cfa -24 + ^ $rbp: .cfa -16 + ^ .cfa: $rbp 16 +
STACK CFI 67ba0 .cfa: $rsp 8 +
STACK CFI 67ba1 $r12: $r12 $r13: $r13 $r14: $r14 $rbp: $rbp
STACK CFI INIT 67bb0 890 .cfa: $rsp 8 + .ra: .cfa -8 + ^
STACK CFI 67bba $rbp: .cfa -16 + ^ .cfa: $rsp 16 +
STACK CFI 67bbd .cfa: $rbp 16 +
STACK CFI 67bc6 $r12: .cfa -48 + ^ $r13: .cfa -40 + ^ $r14: .cfa -32 + ^ $r15: .cfa -24 + ^ $rbx: .cfa -56 + ^
STACK CFI 67c41 .cfa: $rsp 8 +
STACK CFI 67c48 .cfa: $rbp 16 +
STACK CFI 68303 $r12: $r12 $r13: $r13 $r14: $r14 $r15: $r15 $rbp: $rbp $rbx: $rbx .cfa: $rsp 8 +
STACK CFI 6830d $r12: .cfa -48 + ^ $r13: .cfa -40 + ^ $r14: .cfa -32 + ^ $r15: .cfa -24 + ^ $rbp: .cfa -16 + ^ $rbx: .cfa -56 + ^ .cfa: $rbp 16 +
STACK CFI INIT 68440 8b8 .cfa: $rsp 8 + .ra: .cfa -8 + ^
STACK CFI 6844a $rbp: .cfa -16 + ^ .cfa: $rsp 16 +
STACK CFI 6844d .cfa: $rbp 16 +
STACK CFI 68456 $r12: .cfa -48 + ^ $r13: .cfa -40 + ^ $r14: .cfa -32 + ^ $r15: .cfa -24 + ^ $rbx: .cfa -56 + ^
STACK CFI 68522 .cfa: $rsp 8 +
STACK CFI 68528 .cfa: $rbp 16 +
STACK CFI 68932 .cfa: $rsp 8 +
STACK CFI 68938 .cfa: $rbp 16 +
STACK CFI 6894d .cfa: $rsp 8 +
STACK CFI 68950 .cfa: $rbp 16 +
STACK CFI 68c4e $r12: $r12 $r13: $r13 $r14: $r14 $r15: $r15 $rbp: $rbp $rbx: $rbx .cfa: $rsp 8 +
STACK CFI 68c54 $r12: .cfa -48 + ^ $r13: .cfa -40 + ^ $r14: .cfa -32 + ^ $r15: .cfa -24 + ^ $rbp: .cfa -16 + ^ $rbx: .cfa -56 + ^ .cfa: $rbp 16 +
STACK CFI INIT 68d00 56 .cfa: $rsp 8 + .ra: .cfa -8 + ^
STACK CFI INIT 68d60 9a8 .cfa: $rsp 8 + .ra: .cfa -8 + ^
STACK CFI 68d61 $rbp: .cfa -16 + ^ .cfa: $rsp 16 +
STACK CFI 68d64 .cfa: $rbp 16 +
STACK CFI 68d71 $r12: .cfa -48 + ^ $r13: .cfa -40 + ^ $r14: .cfa -32 + ^ $r15: .cfa -24 + ^ $rbx: .cfa -56 + ^
STACK CFI 6909f .cfa: $rsp 8 +
STACK CFI 690a0 .cfa: $rbp 16 +
STACK CFI 69570 .cfa: $rsp 8 +
STACK CFI 69578 .cfa: $rbp 16 +
STACK CFI 6958d .cfa: $rsp 8 +
STACK CFI 69590 .cfa: $rbp 16 +
STACK CFI INIT 69710 10e .cfa: $rsp 8 + .ra: .cfa -8 + ^
STACK CFI 6971a $rbp: .cfa -16 + ^ .cfa: $rsp 16 +
STACK CFI 6971d .cfa: $rbp 16 +
STACK CFI 69722 $r12: .cfa -32 + ^ $r13: .cfa -24 + ^ $rbx: .cfa -40 + ^
STACK CFI 69803 .cfa: $rsp 8 +
STACK CFI 69808 .cfa: $rbp 16 +
STACK CFI 69818 $r12: $r12 $r13: $r13 $rbp: $rbp $rbx: $rbx .cfa: $rsp 8 +
STACK CFI INIT 69820 1c7 .cfa: $rsp 8 + .ra: .cfa -8 + ^
STACK CFI 69821 $rbp: .cfa -16 + ^ .cfa: $rsp 16 +
STACK CFI 69827 .cfa: $rbp 16 +
STACK CFI 6982a $r12: .cfa -24 + ^ $rbx: .cfa -32 + ^
STACK CFI 699cf .cfa: $rsp 8 +
STACK CFI 699d0 .cfa: $rbp 16 +
STACK CFI INIT 699f0 117 .cfa: $rsp 8 + .ra: .cfa -8 + ^
STACK CFI 699f1 $rbp: .cfa -16 + ^ .cfa: $rsp 16 +
STACK CFI 699f4 .cfa: $rbp 16 +
STACK CFI 699fb $r12: .cfa -24 + ^ $rbx: .cfa -32 + ^
STACK CFI 69ae7 .cfa: $rsp 8 +
STACK CFI 69af0 .cfa: $rbp 16 +
STACK CFI INIT 69b10 117 .cfa: $rsp 8 + .ra: .cfa -8 + ^
STACK CFI 69b11 $rbp: .cfa -16 + ^ .cfa: $rsp 16 +
STACK CFI 69b14 .cfa: $rbp 16 +
STACK CFI 69b16 $r13: .cfa -24 + ^
STACK CFI 69b1c $r12: .cfa -32 + ^ $rbx: .cfa -40 + ^
STACK CFI 69c0b .cfa: $rsp 8 +
STACK CFI 69c10 .cfa: $rbp 16 +
STACK CFI INIT 69c30 60 .cfa: $rsp 8 + .ra: .cfa -8 + ^
STACK CFI 69c31 $rbp: .cfa -16 + ^ .cfa: $rsp 16 +
STACK CFI 69c34 .cfa: $rbp 16 +
STACK CFI 69c37 $r12: .cfa -24 + ^ $rbx: .cfa -32 + ^
STACK CFI 69c62 .cfa: $rsp 8 +
STACK CFI 69c68 .cfa: $rbp 16 +
STACK CFI 69c82 .cfa: $rsp 8 +
STACK CFI 69c88 .cfa: $rbp 16 +
STACK CFI INIT 69c90 40a .cfa: $rsp 8 + .ra: .cfa -8 + ^
STACK CFI 69ca3 $rbp: .cfa -16 + ^ .cfa: $rsp 16 +
STACK CFI 69ca6 .cfa: $rbp 16 +
STACK CFI 69caf $r12: .cfa -48 + ^ $r13: .cfa -40 + ^ $r14: .cfa -32 + ^ $r15: .cfa -24 + ^ $rbx: .cfa -56 + ^
STACK CFI 69d21 .cfa: $rsp 8 +
STACK CFI 69d28 .cfa: $rbp 16 +
STACK CFI 69d8a .cfa: $rsp 8 +
STACK CFI 69d90 .cfa: $rbp 16 +
STACK CFI 69e3c .cfa: $rsp 8 +
STACK CFI 69e40 .cfa: $rbp 16 +
STACK CFI 69fc5 .cfa: $rsp 8 +
STACK CFI 69fd0 .cfa: $rbp 16 +
STACK CFI 6a092 $r12: $r12 $r13: $r13 $r14: $r14 $r15: $r15 $rbp: $rbp $rbx: $rbx .cfa: $rsp 8 +
STACK CFI INIT 6a0a0 a0 .cfa: $rsp 8 + .ra: .cfa -8 + ^
STACK CFI 6a0aa $rbp: .cfa -16 + ^ .cfa: $rsp 16 +
STACK CFI 6a0ad .cfa: $rbp 16 +
STACK CFI 6a0ae $rbx: .cfa -24 + ^
STACK CFI 6a11a $rbx: $rbx
STACK CFI 6a11b $rbp: $rbp .cfa: $rsp 8 +
STACK CFI 6a120 $rbp: .cfa -16 + ^ $rbx: .cfa -24 + ^ .cfa: $rbp 16 +
STACK CFI 6a13b .cfa: $rsp 8 +
STACK CFI 6a13c $rbp: $rbp $rbx: $rbx
STACK CFI INIT 6a140 c .cfa: $rsp 8 + .ra: .cfa -8 + ^
STACK CFI INIT 6a150 31 .cfa: $rsp 8 + .ra: .cfa -8 + ^
STACK CFI INIT 6a190 1f .cfa: $rsp 8 + .ra: .cfa -8 + ^
STACK CFI INIT 6a1b0 a9 .cfa: $rsp 8 + .ra: .cfa -8 + ^
STACK CFI 6a1ba $rbp: .cfa -16 + ^ .cfa: $rsp 16 +
STACK CFI 6a1bd .cfa: $rbp 16 +
STACK CFI 6a1c3 $r12: .cfa -40 + ^ $r13: .cfa -32 + ^ $r14: .cfa -24 + ^
STACK CFI 6a1c7 $rbx: .cfa -48 + ^
STACK CFI 6a1d1 $rbx: $rbx
STACK CFI 6a1d6 $r12: $r12
STACK CFI 6a1d8 $r13: $r13
STACK CFI 6a1da $r14: $r14
STACK CFI 6a1db $rbp: $rbp .cfa: $rsp 8 +
STACK CFI 6a1e0 $r12: .cfa -40 + ^ $r13: .cfa -32 + ^ $r14: .cfa -24 + ^ $rbp: .cfa -16 + ^ $rbx: .cfa -48 + ^ .cfa: $rbp 16 +
STACK CFI 6a244 $rbx: $rbx
STACK CFI 6a249 $r12: $r12
STACK CFI 6a24b $r13: $r13
STACK CFI 6a24d $r14: $r14
STACK CFI 6a24e $rbp: $rbp .cfa: $rsp 8 +
STACK CFI INIT 6a260 10a .cfa: $rsp 8 + .ra: .cfa -8 + ^
STACK CFI 6a261 $rbp: .cfa -16 + ^ .cfa: $rsp 16 +
STACK CFI 6a264 .cfa: $rbp 16 +
STACK CFI 6a26b $r12: .cfa -40 + ^ $r13: .cfa -32 + ^ $r14: .cfa -24 + ^ $rbx: .cfa -48 + ^
STACK CFI 6a30d .cfa: $rsp 8 +
STACK CFI 6a310 .cfa: $rbp 16 +
STACK CFI 6a360 .cfa: $rsp 8 +
STACK CFI 6a361 .cfa: $rbp 16 +
STACK CFI INIT 6a370 29 .cfa: $rsp 8 + .ra: .cfa -8 + ^
STACK CFI INIT 6a3a0 132 .cfa: $rsp 8 + .ra: .cfa -8 + ^
STACK CFI 6a3a1 $rbp: .cfa -16 + ^ .cfa: $rsp 16 +
STACK CFI 6a3a4 .cfa: $rbp 16 +
STACK CFI 6a3a6 $r14: .cfa -24 + ^
STACK CFI 6a3ad $r12: .cfa -40 + ^ $r13: .cfa -32 + ^
STACK CFI 6a3b1 $rbx: .cfa -48 + ^
STACK CFI 6a410 .cfa: $rsp 8 +
STACK CFI 6a418 .cfa: $rbp 16 +
STACK CFI 6a468 .cfa: $rsp 8 +
STACK CFI 6a470 .cfa: $rbp 16 +
STACK CFI 6a4d1 .cfa: $rsp 8 +
STACK CFI INIT 6a4e0 9d .cfa: $rsp 8 + .ra: .cfa -8 + ^
STACK CFI INIT 6a580 46 .cfa: $rsp 8 + .ra: .cfa -8 + ^
STACK CFI INIT 6a5d0 1a7 .cfa: $rsp 8 + .ra: .cfa -8 + ^
STACK CFI 6a5ec $rbp: .cfa -16 + ^ .cfa: $rsp 16 +
STACK CFI 6a5ef .cfa: $rbp 16 +
STACK CFI 6a5f2 $r12: .cfa -24 + ^ $rbx: .cfa -32 + ^
STACK CFI 6a6ff .cfa: $rsp 8 +
STACK CFI 6a700 .cfa: $rbp 16 +
STACK CFI 6a740 $r12: $r12 $rbp: $rbp $rbx: $rbx .cfa: $rsp 8 +
STACK CFI 6a750 $r12: .cfa -24 + ^ $rbp: .cfa -16 + ^ $rbx: .cfa -32 + ^ .cfa: $rbp 16 +
STACK CFI INIT 6a780 154 .cfa: $rsp 8 + .ra: .cfa -8 + ^
STACK CFI 6a79c $rbp: .cfa -16 + ^ .cfa: $rsp 16 +
STACK CFI 6a79f .cfa: $rbp 16 +
STACK CFI 6a7a0 $rbx: .cfa -24 + ^
STACK CFI 6a889 .cfa: $rsp 8 +
STACK CFI 6a890 .cfa: $rbp 16 +
STACK CFI 6a8c0 $rbp: $rbp $rbx: $rbx .cfa: $rsp 8 +
STACK CFI 6a8c6 $rbp: .cfa -16 + ^ $rbx: .cfa -24 + ^ .cfa: $rbp 16 +
STACK CFI INIT 6a8e0 202b .cfa: $rsp 8 + .ra: .cfa -8 + ^
STACK CFI 6a8e1 $rbp: .cfa -16 + ^ .cfa: $rsp 16 +
STACK CFI 6a8e4 .cfa: $rbp 16 +
STACK CFI 6a8f1 $r12: .cfa -48 + ^ $r13: .cfa -40 + ^ $r14: .cfa -32 + ^ $r15: .cfa -24 + ^ $rbx: .cfa -56 + ^
STACK CFI 6b4ac .cfa: $rsp 8 +
STACK CFI 6b4b0 .cfa: $rbp 16 +
STACK CFI INIT 6c910 61 .cfa: $rsp 8 + .ra: .cfa -8 + ^
STACK CFI 6c916 $rbp: .cfa -16 + ^ .cfa: $rsp 16 +
STACK CFI 6c919 .cfa: $rbp 16 +
STACK CFI 6c91a $rbx: .cfa -24 + ^
STACK CFI 6c963 .cfa: $rsp 8 +
STACK CFI 6c964 .cfa: $rbp 16 +
STACK CFI 6c96b $rbp: $rbp $rbx: $rbx .cfa: $rsp 8 +
STACK CFI INIT 6c980 f1 .cfa: $rsp 8 + .ra: .cfa -8 + ^
STACK CFI 6c981 $rbp: .cfa -16 + ^ .cfa: $rsp 16 +
STACK CFI 6c984 .cfa: $rbp 16 +
STACK CFI 6c98b $r12: .cfa -40 + ^ $r13: .cfa -32 + ^ $r14: .cfa -24 + ^ $rbx: .cfa -48 + ^
STACK CFI 6ca04 .cfa: $rsp 8 +
STACK CFI 6ca08 .cfa: $rbp 16 +
STACK CFI INIT 6ca80 2e .cfa: $rsp 8 + .ra: .cfa -8 + ^
STACK CFI INIT 6cab0 2dc .cfa: $rsp 8 + .ra: .cfa -8 + ^
STACK CFI 6cac7 $rbp: .cfa -16 + ^ .cfa: $rsp 16 +
STACK CFI 6caca .cfa: $rbp 16 +
STACK CFI 6cacb $rbx: .cfa -24 + ^
STACK CFI 6cd21 .cfa: $rsp 8 +
STACK CFI 6cd28 .cfa: $rbp 16 +
STACK CFI 6cd76 $rbp: $rbp $rbx: $rbx .cfa: $rsp 8 +
STACK CFI 6cd7c $rbp: .cfa -16 + ^ $rbx: .cfa -24 + ^ .cfa: $rbp 16 +
STACK CFI INIT 6cd90 2e .cfa: $rsp 8 + .ra: .cfa -8 + ^
STACK CFI INIT 6cdc0 25e .cfa: $rsp 8 + .ra: .cfa -8 + ^
STACK CFI 6cdca $rbp: .cfa -16 + ^ .cfa: $rsp 16 +
STACK CFI 6cdcd .cfa: $rbp 16 +
STACK CFI 6cdd6 $r12: .cfa -48 + ^ $r13: .cfa -40 + ^ $r14: .cfa -32 + ^ $r15: .cfa -24 + ^ $rbx: .cfa -56 + ^
STACK CFI 6cf22 .cfa: $rsp 8 +
STACK CFI 6cf28 .cfa: $rbp 16 +
STACK CFI 6d018 $r12: $r12 $r13: $r13 $r14: $r14 $r15: $r15 $rbp: $rbp $rbx: $rbx .cfa: $rsp 8 +
STACK CFI INIT 6d020 af0 .cfa: $rsp 8 + .ra: .cfa -8 + ^
STACK CFI 6d021 $rbp: .cfa -16 + ^ .cfa: $rsp 16 +
STACK CFI 6d028 .cfa: $rbp 16 +
STACK CFI 6d035 $r12: .cfa -48 + ^ $r13: .cfa -40 + ^ $r14: .cfa -32 + ^ $r15: .cfa -24 + ^ $rbx: .cfa -56 + ^
STACK CFI 6d160 .cfa: $rsp 8 +
STACK CFI 6d161 .cfa: $rbp 16 +
STACK CFI INIT 6db10 6 .cfa: $rsp 8 + .ra: .cfa -8 + ^
STACK CFI INIT 6db20 6 .cfa: $rsp 8 + .ra: .cfa -8 + ^
STACK CFI INIT 6db30 12 .cfa: $rsp 8 + .ra: .cfa -8 + ^
STACK CFI INIT 6db50 a .cfa: $rsp 8 + .ra: .cfa -8 + ^
STACK CFI INIT 6db60 8 .cfa: $rsp 8 + .ra: .cfa -8 + ^
STACK CFI INIT 6db70 67b .cfa: $rsp 8 + .ra: .cfa -8 + ^
STACK CFI 6db71 $rbp: .cfa -16 + ^ .cfa: $rsp 16 +
STACK CFI 6db81 .cfa: $rbp 16 +
STACK CFI 6db83 $r15: .cfa -24 + ^
STACK CFI 6db8e $r12: .cfa -48 + ^ $r13: .cfa -40 + ^ $r14: .cfa -32 + ^ $rbx: .cfa -56 + ^
STACK CFI 6dd42 .cfa: $rsp 8 +
STACK CFI 6dd43 .cfa: $rbp 16 +
STACK CFI 6dee7 .cfa: $rsp 8 +
STACK CFI 6dee8 .cfa: $rbp 16 +
STACK CFI 6df22 .cfa: $rsp 8 +
STACK CFI 6df2a .cfa: $rbp 16 +
STACK CFI 6e1d9 .cfa: $rsp 8 +
STACK CFI 6e1da .cfa: $rbp 16 +
STACK CFI INIT 6e1f0 d1 .cfa: $rsp 8 + .ra: .cfa -8 + ^
STACK CFI INIT 6e2d0 6 .cfa: $rsp 8 + .ra: .cfa -8 + ^
STACK CFI INIT 6e2e0 475 .cfa: $rsp 8 + .ra: .cfa -8 + ^
STACK CFI 6e326 $rbp: .cfa -16 + ^ .cfa: $rsp 16 +
STACK CFI 6e329 .cfa: $rbp 16 +
STACK CFI 6e32a $rbx: .cfa -24 + ^
STACK CFI 6e74b .cfa: $rsp 8 +
STACK CFI 6e750 $rbp: $rbp $rbx: $rbx
STACK CFI INIT 6e760 1fe .cfa: $rsp 8 + .ra: .cfa -8 + ^
STACK CFI 6e76a $rbp: .cfa -16 + ^ .cfa: $rsp 16 +
STACK CFI 6e77d .cfa: $rbp 16 +
STACK CFI 6e90c .cfa: $rsp 8 +
STACK CFI 6e90d .cfa: $rbp 16 +
STACK CFI 6e95a $rbp: $rbp .cfa: $rsp 8 +
STACK CFI INIT 6e960 224 .cfa: $rsp 8 + .ra: .cfa -8 + ^
STACK CFI 6e961 $rbp: .cfa -16 + ^ .cfa: $rsp 16 +
STACK CFI 6e969 .cfa: $rbp 16 +
STACK CFI 6e971 $r12: .cfa -48 + ^ $r13: .cfa -40 + ^ $r14: .cfa -32 + ^ $r15: .cfa -24 + ^
STACK CFI 6e975 $rbx: .cfa -56 + ^
STACK CFI 6eb3a .cfa: $rsp 8 +
STACK CFI 6eb3b .cfa: $rbp 16 +
STACK CFI INIT 6eb90 159 .cfa: $rsp 8 + .ra: .cfa -8 + ^
STACK CFI INIT 6ecf0 270 .cfa: $rsp 8 + .ra: .cfa -8 + ^
STACK CFI 6ecf1 $rbp: .cfa -16 + ^ .cfa: $rsp 16 +
STACK CFI 6ecf4 .cfa: $rbp 16 +
STACK CFI 6ecfd $r12: .cfa -48 + ^ $r13: .cfa -40 + ^ $r14: .cfa -32 + ^ $r15: .cfa -24 + ^ $rbx: .cfa -56 + ^
STACK CFI 6eed8 .cfa: $rsp 8 +
STACK CFI 6eee0 .cfa: $rbp 16 +
STACK CFI INIT 6ef60 2f6 .cfa: $rsp 8 + .ra: .cfa -8 + ^
STACK CFI 6ef61 $rbp: .cfa -16 + ^ .cfa: $rsp 16 +
STACK CFI 6ef64 .cfa: $rbp 16 +
STACK CFI 6ef6d $r12: .cfa -48 + ^ $r13: .cfa -40 + ^ $r14: .cfa -32 + ^ $r15: .cfa -24 + ^ $rbx: .cfa -56 + ^
STACK CFI 6f136 .cfa: $rsp 8 +
STACK CFI 6f140 .cfa: $rbp 16 +
STACK CFI 6f1a8 .cfa: $rsp 8 +
STACK CFI 6f1b0 .cfa: $rbp 16 +
STACK CFI INIT 6f260 4d8 .cfa: $rsp 8 + .ra: .cfa -8 + ^
STACK CFI 6f261 $rbp: .cfa -16 + ^ .cfa: $rsp 16 +
STACK CFI 6f264 .cfa: $rbp 16 +
STACK CFI 6f26c $r12: .cfa -48 + ^ $r13: .cfa -40 + ^ $r14: .cfa -32 + ^ $r15: .cfa -24 + ^
STACK CFI 6f270 $rbx: .cfa -56 + ^
STACK CFI 6f650 .cfa: $rsp 8 +
STACK CFI 6f658 .cfa: $rbp 16 +
STACK CFI 6f6d6 .cfa: $rsp 8 +
STACK CFI 6f6d7 .cfa: $rbp 16 +
STACK CFI INIT 6f740 65f .cfa: $rsp 8 + .ra: .cfa -8 + ^
STACK CFI 6f741 $rbp: .cfa -16 + ^ .cfa: $rsp 16 +
STACK CFI 6f744 .cfa: $rbp 16 +
STACK CFI 6f74a $r13: .cfa -40 + ^ $r14: .cfa -32 + ^ $r15: .cfa -24 + ^
STACK CFI 6f74f $r12: .cfa -48 + ^
STACK CFI 6f753 $rbx: .cfa -56 + ^
STACK CFI 6f8c1 .cfa: $rsp 8 +
STACK CFI 6f8c8 .cfa: $rbp 16 +
STACK CFI 6fd30 .cfa: $rsp 8 +
STACK CFI 6fd31 .cfa: $rbp 16 +
STACK CFI INIT 6fda0 150 .cfa: $rsp 8 + .ra: .cfa -8 + ^
STACK CFI 6fdaa $rbp: .cfa -16 + ^ .cfa: $rsp 16 +
STACK CFI 6fdad .cfa: $rbp 16 +
STACK CFI 6fdb1 $r13: .cfa -32 + ^ $r14: .cfa -24 + ^
STACK CFI 6fdbb $r12: .cfa -40 + ^ $rbx: .cfa -48 + ^
STACK CFI 6fea0 .cfa: $rsp 8 +
STACK CFI 6fea8 .cfa: $rbp 16 +
STACK CFI 6feea $r12: $r12 $r13: $r13 $r14: $r14 $rbp: $rbp $rbx: $rbx .cfa: $rsp 8 +
STACK CFI INIT 6fef0 175 .cfa: $rsp 8 + .ra: .cfa -8 + ^
STACK CFI 6fefa $rbp: .cfa -16 + ^ .cfa: $rsp 16 +
STACK CFI 6fefd .cfa: $rbp 16 +
STACK CFI 6feff $r12: .cfa -24 + ^
STACK CFI 6ff03 $rbx: .cfa -32 + ^
STACK CFI 7002d .cfa: $rsp 8 +
STACK CFI 70030 .cfa: $rbp 16 +
STACK CFI 7005f $r12: $r12 $rbp: $rbp $rbx: $rbx .cfa: $rsp 8 +
STACK CFI INIT 70070 26 .cfa: $rsp 8 + .ra: .cfa -8 + ^
STACK CFI INIT 700a0 34 .cfa: $rsp 8 + .ra: .cfa -8 + ^
STACK CFI INIT 700e0 30 .cfa: $rsp 8 + .ra: .cfa -8 + ^
STACK CFI INIT 70110 3e .cfa: $rsp 8 + .ra: .cfa -8 + ^
STACK CFI INIT 70150 f36 .cfa: $rsp 8 + .ra: .cfa -8 + ^
STACK CFI 7015a $rbp: .cfa -16 + ^ .cfa: $rsp 16 +
STACK CFI 7015d .cfa: $rbp 16 +
STACK CFI 70165 $r12: .cfa -48 + ^ $r13: .cfa -40 + ^ $r14: .cfa -32 + ^ $r15: .cfa -24 + ^
STACK CFI 7016d $rbx: .cfa -56 + ^
STACK CFI 703ed .cfa: $rsp 8 +
STACK CFI 703f0 .cfa: $rbp 16 +
STACK CFI 70469 .cfa: $rsp 8 +
STACK CFI 70470 .cfa: $rbp 16 +
STACK CFI 71080 $r12: $r12 $r13: $r13 $r14: $r14 $r15: $r15 $rbp: $rbp $rbx: $rbx .cfa: $rsp 8 +
STACK CFI INIT 71090 115 .cfa: $rsp 8 + .ra: .cfa -8 + ^
STACK CFI 7109a $rbp: .cfa -16 + ^ .cfa: $rsp 16 +
STACK CFI 7109d .cfa: $rbp 16 +
STACK CFI 710a3 $r12: .cfa -40 + ^ $r13: .cfa -32 + ^ $r14: .cfa -24 + ^
STACK CFI 710a8 $rbx: .cfa -48 + ^
STACK CFI 71168 .cfa: $rsp 8 +
STACK CFI 71170 .cfa: $rbp 16 +
STACK CFI 7119f $r12: $r12 $r13: $r13 $r14: $r14 $rbp: $rbp $rbx: $rbx .cfa: $rsp 8 +
STACK CFI INIT 711b0 fc .cfa: $rsp 8 + .ra: .cfa -8 + ^
STACK CFI 711ba $rbp: .cfa -16 + ^ .cfa: $rsp 16 +
STACK CFI 711bd .cfa: $rbp 16 +
STACK CFI 711c0 $r12: .cfa -24 + ^ $rbx: .cfa -32 + ^
STACK CFI 71280 .cfa: $rsp 8 +
STACK CFI 71288 .cfa: $rbp 16 +
STACK CFI 712a5 .cfa: $rsp 8 +
STACK CFI 712a6 $r12: $r12 $rbp: $rbp $rbx: $rbx
STACK CFI INIT 712b0 2d9 .cfa: $rsp 8 + .ra: .cfa -8 + ^
STACK CFI 712b1 $rbp: .cfa -16 + ^ .cfa: $rsp 16 +
STACK CFI 712b4 .cfa: $rbp 16 +
STACK CFI 712b6 $r15: .cfa -24 + ^
STACK CFI 712c4 $r12: .cfa -48 + ^ $r13: .cfa -40 + ^ $r14: .cfa -32 + ^ $rbx: .cfa -56 + ^
STACK CFI 714e4 .cfa: $rsp 8 +
STACK CFI 714f0 .cfa: $rbp 16 +
STACK CFI 71553 .cfa: $rsp 8 +
STACK CFI 71558 .cfa: $rbp 16 +
STACK CFI INIT 71590 239 .cfa: $rsp 8 + .ra: .cfa -8 + ^
STACK CFI 715ac $rbp: .cfa -16 + ^ .cfa: $rsp 16 +
STACK CFI 715af .cfa: $rbp 16 +
STACK CFI 715b3 $r12: .cfa -32 + ^ $r13: .cfa -24 + ^
STACK CFI 715bb $rbx: .cfa -40 + ^
STACK CFI 7172e $rbx: $rbx
STACK CFI 71730 $r12: $r12
STACK CFI 71732 $r13: $r13
STACK CFI 71733 $rbp: $rbp .cfa: $rsp 8 +
STACK CFI 71740 $r12: .cfa -32 + ^ $r13: .cfa -24 + ^ $rbp: .cfa -16 + ^ $rbx: .cfa -40 + ^ .cfa: $rbp 16 +
STACK CFI 71780 $r12: $r12 $r13: $r13 $rbp: $rbp $rbx: $rbx .cfa: $rsp 8 +
STACK CFI 71790 $r12: .cfa -32 + ^ $r13: .cfa -24 + ^ $rbp: .cfa -16 + ^ $rbx: .cfa -40 + ^ .cfa: $rbp 16 +
STACK CFI 7179f .cfa: $rsp 8 +
STACK CFI 717a0 .cfa: $rbp 16 +
STACK CFI INIT 717d0 224 .cfa: $rsp 8 + .ra: .cfa -8 + ^
STACK CFI 717da $rbp: .cfa -16 + ^ .cfa: $rsp 16 +
STACK CFI 717dd .cfa: $rbp 16 +
STACK CFI 717e3 $r12: .cfa -40 + ^ $r13: .cfa -32 + ^ $r14: .cfa -24 + ^
STACK CFI 717e7 $rbx: .cfa -48 + ^
STACK CFI 719cf .cfa: $rsp 8 +
STACK CFI 719d0 .cfa: $rbp 16 +
STACK CFI 719ee $r12: $r12 $r13: $r13 $r14: $r14 $rbp: $rbp $rbx: $rbx .cfa: $rsp 8 +
STACK CFI INIT 71a00 dfa .cfa: $rsp 8 + .ra: .cfa -8 + ^
STACK CFI 71a01 $rbp: .cfa -16 + ^ .cfa: $rsp 16 +
STACK CFI 71a0c .cfa: $rbp 16 +
STACK CFI 71a10 $r14: .cfa -32 + ^ $r15: .cfa -24 + ^
STACK CFI 71a1c $r12: .cfa -48 + ^ $r13: .cfa -40 + ^ $rbx: .cfa -56 + ^
STACK CFI 71c61 .cfa: $rsp 8 +
STACK CFI 71c68 .cfa: $rbp 16 +
STACK CFI INIT 72800 115 .cfa: $rsp 8 + .ra: .cfa -8 + ^
STACK CFI INIT 72920 6c6 .cfa: $rsp 8 + .ra: .cfa -8 + ^
STACK CFI 72921 $rbp: .cfa -16 + ^ .cfa: $rsp 16 +
STACK CFI 72924 .cfa: $rbp 16 +
STACK CFI 7292d $r12: .cfa -48 + ^ $r13: .cfa -40 + ^ $r14: .cfa -32 + ^ $r15: .cfa -24 + ^ $rbx: .cfa -56 + ^
STACK CFI 72c8c .cfa: $rsp 8 +
STACK CFI 72c90 .cfa: $rbp 16 +
STACK CFI INIT 72ff0 478 .cfa: $rsp 8 + .ra: .cfa -8 + ^
STACK CFI 72ffd $rbp: .cfa -16 + ^ .cfa: $rsp 16 +
STACK CFI 73008 .cfa: $rbp 16 +
STACK CFI 73011 $r12: .cfa -48 + ^ $r13: .cfa -40 + ^ $r14: .cfa -32 + ^ $r15: .cfa -24 + ^ $rbx: .cfa -56 + ^
STACK CFI 733ca .cfa: $rsp 8 +
STACK CFI 733d0 .cfa: $rbp 16 +
STACK CFI INIT 73470 f1 .cfa: $rsp 8 + .ra: .cfa -8 + ^
STACK CFI 73471 $rbp: .cfa -16 + ^ .cfa: $rsp 16 +
STACK CFI 73474 .cfa: $rbp 16 +
STACK CFI 7347d $r12: .cfa -48 + ^ $r13: .cfa -40 + ^ $r14: .cfa -32 + ^ $r15: .cfa -24 + ^ $rbx: .cfa -56 + ^
STACK CFI 73531 .cfa: $rsp 8 +
STACK CFI 73538 .cfa: $rbp 16 +
STACK CFI INIT 73570 997 .cfa: $rsp 8 + .ra: .cfa -8 + ^
STACK CFI 73571 $rbp: .cfa -16 + ^ .cfa: $rsp 16 +
STACK CFI 73574 .cfa: $rbp 16 +
STACK CFI 7357d $r12: .cfa -48 + ^ $r13: .cfa -40 + ^ $r14: .cfa -32 + ^ $r15: .cfa -24 + ^ $rbx: .cfa -56 + ^
STACK CFI 73ce3 .cfa: $rsp 8 +
STACK CFI 73ce8 .cfa: $rbp 16 +
STACK CFI INIT 73f10 f3 .cfa: $rsp 8 + .ra: .cfa -8 + ^
STACK CFI INIT 74010 19e .cfa: $rsp 8 + .ra: .cfa -8 + ^
STACK CFI INIT 741b0 2d6 .cfa: $rsp 8 + .ra: .cfa -8 + ^
STACK CFI INIT 74490 821 .cfa: $rsp 8 + .ra: .cfa -8 + ^
STACK CFI 74491 $rbp: .cfa -16 + ^ .cfa: $rsp 16 +
STACK CFI 74497 .cfa: $rbp 16 +
STACK CFI 74499 $r15: .cfa -24 + ^
STACK CFI 7449e $r14: .cfa -32 + ^
STACK CFI 744a7 $r13: .cfa -40 + ^
STACK CFI 744b1 $r12: .cfa -48 + ^ $rbx: .cfa -56 + ^
STACK CFI 74b01 .cfa: $rsp 8 +
STACK CFI 74b02 .cfa: $rbp 16 +
STACK CFI 74b65 .cfa: $rsp 8 +
STACK CFI 74b66 .cfa: $rbp 16 +
STACK CFI INIT 74cc0 ab .cfa: $rsp 8 + .ra: .cfa -8 + ^
STACK CFI INIT 74d70 bf .cfa: $rsp 8 + .ra: .cfa -8 + ^
STACK CFI 74d71 $rbp: .cfa -16 + ^ .cfa: $rsp 16 +
STACK CFI 74d74 .cfa: $rbp 16 +
STACK CFI 74d77 $r12: .cfa -24 + ^ $rbx: .cfa -32 + ^
STACK CFI 74dce .cfa: $rsp 8 +
STACK CFI 74dd0 .cfa: $rbp 16 +
STACK CFI 74e05 .cfa: $rsp 8 +
STACK CFI 74e10 .cfa: $rbp 16 +
STACK CFI 74e2e .cfa: $rsp 8 +
STACK CFI INIT 74e30 bf .cfa: $rsp 8 + .ra: .cfa -8 + ^
STACK CFI 74e31 $rbp: .cfa -16 + ^ .cfa: $rsp 16 +
STACK CFI 74e34 .cfa: $rbp 16 +
STACK CFI 74e3b $r12: .cfa -24 + ^ $rbx: .cfa -32 + ^
STACK CFI 74e90 .cfa: $rsp 8 +
STACK CFI 74e98 .cfa: $rbp 16 +
STACK CFI 74ecd .cfa: $rsp 8 +
STACK CFI 74ed0 .cfa: $rbp 16 +
STACK CFI 74eee .cfa: $rsp 8 +
STACK CFI INIT 74ef0 14 .cfa: $rsp 8 + .ra: .cfa -8 + ^
STACK CFI INIT 74f10 79 .cfa: $rsp 8 + .ra: .cfa -8 + ^
STACK CFI 74f12 $r13: .cfa -16 + ^ .cfa: $rsp 16 +
STACK CFI 74f17 $r12: .cfa -24 + ^ .cfa: $rsp 24 +
STACK CFI 74f18 $rbp: .cfa -32 + ^ .cfa: $rsp 32 +
STACK CFI 74f1c $rbx: .cfa -40 + ^ .cfa: $rsp 40 +
STACK CFI 74f23 .cfa: $rsp 48 +
STACK CFI 74f66 .cfa: $rsp 40 +
STACK CFI 74f6a .cfa: $rsp 32 +
STACK CFI 74f6b .cfa: $rsp 24 +
STACK CFI 74f6d .cfa: $rsp 16 +
STACK CFI 74f6f .cfa: $rsp 8 +
STACK CFI 74f70 .cfa: $rsp 48 +
STACK CFI INIT 74f90 b .cfa: $rsp 8 + .ra: .cfa -8 + ^
STACK CFI INIT 74fa0 f .cfa: $rsp 8 + .ra: .cfa -8 + ^
STACK CFI INIT 74fb0 1d .cfa: $rsp 8 + .ra: .cfa -8 + ^
STACK CFI 74fb1 $rbp: .cfa -16 + ^ .cfa: $rsp 16 +
STACK CFI 74fcb .cfa: $rsp 8 +
STACK CFI INIT 74fd0 99 .cfa: $rsp 8 + .ra: .cfa -8 + ^
STACK CFI 74fd2 $r14: .cfa -16 + ^ .cfa: $rsp 16 +
STACK CFI 74fd4 $r13: .cfa -24 + ^ .cfa: $rsp 24 +
STACK CFI 74fd6 $r12: .cfa -32 + ^ .cfa: $rsp 32 +
STACK CFI 74fda $rbp: .cfa -40 + ^ .cfa: $rsp 40 +
STACK CFI 74fdb $rbx: .cfa -48 + ^ .cfa: $rsp 48 +
STACK CFI 75016 .cfa: $rsp 40 +
STACK CFI 7501a .cfa: $rsp 32 +
STACK CFI 7501c .cfa: $rsp 24 +
STACK CFI 7501e .cfa: $rsp 16 +
STACK CFI 75020 .cfa: $rsp 8 +
STACK CFI 75028 .cfa: $rsp 48 +
STACK CFI INIT 75070 ad .cfa: $rsp 8 + .ra: .cfa -8 + ^
STACK CFI 75072 $r15: .cfa -16 + ^ .cfa: $rsp 16 +
STACK CFI 75074 $r14: .cfa -24 + ^ .cfa: $rsp 24 +
STACK CFI 75076 $r13: .cfa -32 + ^ .cfa: $rsp 32 +
STACK CFI 75078 $r12: .cfa -40 + ^ .cfa: $rsp 40 +
STACK CFI 7507c $rbp: .cfa -48 + ^ .cfa: $rsp 48 +
STACK CFI 7507d $rbx: .cfa -56 + ^ .cfa: $rsp 56 +
STACK CFI 75081 .cfa: $rsp 64 +
STACK CFI 750d0 .cfa: $rsp 56 +
STACK CFI 750d4 .cfa: $rsp 48 +
STACK CFI 750d5 .cfa: $rsp 40 +
STACK CFI 750d7 .cfa: $rsp 32 +
STACK CFI 750d9 .cfa: $rsp 24 +
STACK CFI 750db .cfa: $rsp 16 +
STACK CFI 750dd .cfa: $rsp 8 +
STACK CFI 750e0 .cfa: $rsp 64 +
STACK CFI INIT 75120 c .cfa: $rsp 8 + .ra: .cfa -8 + ^
STACK CFI INIT 75130 5 .cfa: $rsp 8 + .ra: .cfa -8 + ^
STACK CFI INIT 75140 3e .cfa: $rsp 8 + .ra: .cfa -8 + ^
STACK CFI 75142 $r12: .cfa -16 + ^ .cfa: $rsp 16 +
STACK CFI 7515e .cfa: $rsp 8 +
STACK CFI 7515f .cfa: $rsp 16 +
STACK CFI INIT 75180 b .cfa: $rsp 8 + .ra: .cfa -8 + ^
STACK CFI INIT 75190 8a .cfa: $rsp 8 + .ra: .cfa -8 + ^
STACK CFI 75192 $r13: .cfa -16 + ^ .cfa: $rsp 16 +
STACK CFI 75194 $r12: .cfa -24 + ^ .cfa: $rsp 24 +
STACK CFI 75195 $rbp: .cfa -32 + ^ .cfa: $rsp 32 +
STACK CFI 75198 $rbx: .cfa -40 + ^ .cfa: $rsp 40 +
STACK CFI 7519f .cfa: $rsp 48 +
STACK CFI 751f7 .cfa: $rsp 40 +
STACK CFI 751fb .cfa: $rsp 32 +
STACK CFI 751fc .cfa: $rsp 24 +
STACK CFI 751fe .cfa: $rsp 16 +
STACK CFI 75200 .cfa: $rsp 8 +
STACK CFI 75201 .cfa: $rsp 48 +
STACK CFI 7520d .cfa: $rsp 40 +
STACK CFI 75211 .cfa: $rsp 32 +
STACK CFI 75215 .cfa: $rsp 24 +
STACK CFI 75217 .cfa: $rsp 16 +
STACK CFI 75219 .cfa: $rsp 8 +
STACK CFI INIT 75220 23 .cfa: $rsp 8 + .ra: .cfa -8 + ^
STACK CFI INIT 75250 d7 .cfa: $rsp 8 + .ra: .cfa -8 + ^
STACK CFI 75252 $r14: .cfa -16 + ^ .cfa: $rsp 16 +
STACK CFI 75254 $r13: .cfa -24 + ^ .cfa: $rsp 24 +
STACK CFI 75256 $r12: .cfa -32 + ^ .cfa: $rsp 32 +
STACK CFI 75257 $rbp: .cfa -40 + ^ .cfa: $rsp 40 +
STACK CFI 7525b $rbx: .cfa -48 + ^ .cfa: $rsp 48 +
STACK CFI 75282 .cfa: $rsp 40 +
STACK CFI 75283 .cfa: $rsp 32 +
STACK CFI 75285 .cfa: $rsp 24 +
STACK CFI 75287 .cfa: $rsp 16 +
STACK CFI 75289 .cfa: $rsp 8 +
STACK CFI 75290 .cfa: $rsp 48 +
STACK CFI INIT 75330 4 .cfa: $rsp 8 + .ra: .cfa -8 + ^
STACK CFI INIT 75340 4 .cfa: $rsp 8 + .ra: .cfa -8 + ^
STACK CFI INIT 75350 4 .cfa: $rsp 8 + .ra: .cfa -8 + ^
STACK CFI INIT 75360 1d .cfa: $rsp 8 + .ra: .cfa -8 + ^
STACK CFI INIT 75380 21 .cfa: $rsp 8 + .ra: .cfa -8 + ^
STACK CFI 75386 $rbp: .cfa -16 + ^ .cfa: $rsp 16 +
STACK CFI 7539a $rbp: $rbp .cfa: $rsp 8 +
STACK CFI INIT 753b0 23 .cfa: $rsp 8 + .ra: .cfa -8 + ^
STACK CFI INIT 753e0 5 .cfa: $rsp 8 + .ra: .cfa -8 + ^
STACK CFI INIT 753f0 9 .cfa: $rsp 8 + .ra: .cfa -8 + ^
STACK CFI INIT 75400 17 .cfa: $rsp 8 + .ra: .cfa -8 + ^
STACK CFI 75404 .cfa: $rsp 16 +
STACK CFI 75413 .cfa: $rsp 8 +
STACK CFI INIT 75420 c8 .cfa: $rsp 8 + .ra: .cfa -8 + ^
STACK CFI 75422 $r15: .cfa -16 + ^ .cfa: $rsp 16 +
STACK CFI 75424 $r14: .cfa -24 + ^ .cfa: $rsp 24 +
STACK CFI 75426 $r13: .cfa -32 + ^ .cfa: $rsp 32 +
STACK CFI 75428 $r12: .cfa -40 + ^ .cfa: $rsp 40 +
STACK CFI 75429 $rbp: .cfa -48 + ^ .cfa: $rsp 48 +
STACK CFI 7542a $rbx: .cfa -56 + ^ .cfa: $rsp 56 +
STACK CFI 7542e .cfa: $rsp 64 +
STACK CFI 754b4 .cfa: $rsp 56 +
STACK CFI 754b5 .cfa: $rsp 48 +
STACK CFI 754b6 .cfa: $rsp 40 +
STACK CFI 754b8 .cfa: $rsp 32 +
STACK CFI 754ba .cfa: $rsp 24 +
STACK CFI 754bc .cfa: $rsp 16 +
STACK CFI 754be .cfa: $rsp 8 +
STACK CFI 754c0 .cfa: $rsp 64 +
STACK CFI INIT 754f0 e .cfa: $rsp 8 + .ra: .cfa -8 + ^
STACK CFI INIT 75500 63 .cfa: $rsp 8 + .ra: .cfa -8 + ^
STACK CFI 75502 $r12: .cfa -16 + ^ .cfa: $rsp 16 +
STACK CFI 75503 $rbp: .cfa -24 + ^ .cfa: $rsp 24 +
STACK CFI 75507 $rbx: .cfa -32 + ^ .cfa: $rsp 32 +
STACK CFI 75515 .cfa: $rsp 24 +
STACK CFI 75516 .cfa: $rsp 16 +
STACK CFI 75518 .cfa: $rsp 8 +
STACK CFI 75520 .cfa: $rsp 32 +
STACK CFI 7555f .cfa: $rsp 24 +
STACK CFI 75560 .cfa: $rsp 16 +
STACK CFI 75562 .cfa: $rsp 8 +
STACK CFI INIT 75570 8e .cfa: $rsp 8 + .ra: .cfa -8 + ^
STACK CFI 75572 $r13: .cfa -16 + ^ .cfa: $rsp 16 +
STACK CFI 75574 $r12: .cfa -24 + ^ .cfa: $rsp 24 +
STACK CFI 75575 $rbp: .cfa -32 + ^ .cfa: $rsp 32 +
STACK CFI 75579 $rbx: .cfa -40 + ^ .cfa: $rsp 40 +
STACK CFI 75580 .cfa: $rsp 48 +
STACK CFI 755ab .cfa: $rsp 40 +
STACK CFI 755ac .cfa: $rsp 32 +
STACK CFI 755ad .cfa: $rsp 24 +
STACK CFI 755af .cfa: $rsp 16 +
STACK CFI 755b1 .cfa: $rsp 8 +
STACK CFI 755b8 .cfa: $rsp 48 +
STACK CFI INIT 75600 44 .cfa: $rsp 8 + .ra: .cfa -8 + ^
STACK CFI 75601 $rbp: .cfa -16 + ^ .cfa: $rsp 16 +
STACK CFI 75605 $rbx: .cfa -24 + ^ .cfa: $rsp 24 +
STACK CFI 7560c .cfa: $rsp 32 +
STACK CFI 75622 .cfa: $rsp 24 +
STACK CFI 75623 .cfa: $rsp 16 +
STACK CFI 75624 .cfa: $rsp 8 +
STACK CFI 75625 .cfa: $rsp 32 +
STACK CFI INIT 75650 46 .cfa: $rsp 8 + .ra: .cfa -8 + ^
STACK CFI 75651 $rbp: .cfa -16 + ^ .cfa: $rsp 16 +
STACK CFI 75655 $rbx: .cfa -24 + ^ .cfa: $rsp 24 +
STACK CFI 7565b .cfa: $rsp 32 +
STACK CFI 75693 .cfa: $rsp 24 +
STACK CFI 75694 .cfa: $rsp 16 +
STACK CFI 75695 .cfa: $rsp 8 +
STACK CFI INIT 756a0 c .cfa: $rsp 8 + .ra: .cfa -8 + ^
STACK CFI INIT 756b0 42 .cfa: $rsp 8 + .ra: .cfa -8 + ^
STACK CFI 756b2 $r12: .cfa -16 + ^ .cfa: $rsp 16 +
STACK CFI 756b6 $rbp: .cfa -24 + ^ .cfa: $rsp 24 +
STACK CFI 756ba $rbx: .cfa -32 + ^ .cfa: $rsp 32 +
STACK CFI 756df .cfa: $rsp 24 +
STACK CFI 756e2 .cfa: $rsp 16 +
STACK CFI 756e4 .cfa: $rsp 8 +
STACK CFI 756e8 .cfa: $rsp 32 +
STACK CFI 756e9 .cfa: $rsp 24 +
STACK CFI 756ef .cfa: $rsp 16 +
STACK CFI 756f1 .cfa: $rsp 8 +
STACK CFI INIT 75700 43 .cfa: $rsp 8 + .ra: .cfa -8 + ^
STACK CFI 75702 $r12: .cfa -16 + ^ .cfa: $rsp 16 +
STACK CFI 75706 $rbp: .cfa -24 + ^ .cfa: $rsp 24 +
STACK CFI 7570a $rbx: .cfa -32 + ^ .cfa: $rsp 32 +
STACK CFI 75720 .cfa: $rsp 24 +
STACK CFI 75721 .cfa: $rsp 16 +
STACK CFI 75723 .cfa: $rsp 8 +
STACK CFI 75724 .cfa: $rsp 32 +
STACK CFI INIT 75750 c9 .cfa: $rsp 8 + .ra: .cfa -8 + ^
STACK CFI 75752 $r13: .cfa -16 + ^ .cfa: $rsp 16 +
STACK CFI 75754 $r12: .cfa -24 + ^ .cfa: $rsp 24 +
STACK CFI 75755 $rbp: .cfa -32 + ^ .cfa: $rsp 32 +
STACK CFI 75759 $rbx: .cfa -40 + ^ .cfa: $rsp 40 +
STACK CFI 75760 .cfa: $rsp 48 +
STACK CFI 757b9 .cfa: $rsp 40 +
STACK CFI 757c0 .cfa: $rsp 32 +
STACK CFI 757c1 .cfa: $rsp 24 +
STACK CFI 757c3 .cfa: $rsp 16 +
STACK CFI 757c5 .cfa: $rsp 8 +
STACK CFI 757d0 .cfa: $rsp 48 +
STACK CFI 757d4 .cfa: $rsp 40 +
STACK CFI 757d5 .cfa: $rsp 32 +
STACK CFI 757d6 .cfa: $rsp 24 +
STACK CFI 757d8 .cfa: $rsp 16 +
STACK CFI 757da .cfa: $rsp 8 +
STACK CFI 757db .cfa: $rsp 48 +
STACK CFI INIT 75820 59 .cfa: $rsp 8 + .ra: .cfa -8 + ^
STACK CFI 75821 $rbx: .cfa -16 + ^ .cfa: $rsp 16 +
STACK CFI 75850 .cfa: $rsp 8 +
STACK CFI 75858 .cfa: $rsp 16 +
STACK CFI 75859 .cfa: $rsp 8 +
STACK CFI 7585a .cfa: $rsp 16 +
STACK CFI INIT 75880 51 .cfa: $rsp 8 + .ra: .cfa -8 + ^
STACK CFI 75887 $r12: .cfa -16 + ^ .cfa: $rsp 16 +
STACK CFI 75888 $rbp: .cfa -24 + ^ .cfa: $rsp 24 +
STACK CFI 7588c $rbx: .cfa -32 + ^ .cfa: $rsp 32 +
STACK CFI 758cb $rbx: $rbx .cfa: $rsp 24 +
STACK CFI 758cc $rbp: $rbp .cfa: $rsp 16 +
STACK CFI 758ce $r12: $r12 .cfa: $rsp 8 +
STACK CFI INIT 758e0 f1 .cfa: $rsp 8 + .ra: .cfa -8 + ^
STACK CFI 758e2 $r13: .cfa -16 + ^ .cfa: $rsp 16 +
STACK CFI 758e7 $r12: .cfa -24 + ^ .cfa: $rsp 24 +
STACK CFI 758eb $rbp: .cfa -32 + ^ .cfa: $rsp 32 +
STACK CFI 758ef $rbx: .cfa -40 + ^ .cfa: $rsp 40 +
STACK CFI 758f3 .cfa: $rsp 48 +
STACK CFI 75944 .cfa: $rsp 40 +
STACK CFI 75945 .cfa: $rsp 32 +
STACK CFI 75946 .cfa: $rsp 24 +
STACK CFI 75948 .cfa: $rsp 16 +
STACK CFI 7594a .cfa: $rsp 8 +
STACK CFI 75950 .cfa: $rsp 48 +
STACK CFI 759ca .cfa: $rsp 40 +
STACK CFI 759cb .cfa: $rsp 32 +
STACK CFI 759cc .cfa: $rsp 24 +
STACK CFI 759ce .cfa: $rsp 16 +
STACK CFI 759d0 .cfa: $rsp 8 +
STACK CFI INIT 759e0 108 .cfa: $rsp 8 + .ra: .cfa -8 + ^
STACK CFI 759e2 $r14: .cfa -16 + ^ .cfa: $rsp 16 +
STACK CFI 759e4 $r13: .cfa -24 + ^ .cfa: $rsp 24 +
STACK CFI 759e6 $r12: .cfa -32 + ^ .cfa: $rsp 32 +
STACK CFI 759ea $rbp: .cfa -40 + ^ .cfa: $rsp 40 +
STACK CFI 759ee $rbx: .cfa -48 + ^ .cfa: $rsp 48 +
STACK CFI 75a37 .cfa: $rsp 40 +
STACK CFI 75a38 .cfa: $rsp 32 +
STACK CFI 75a3a .cfa: $rsp 24 +
STACK CFI 75a3c .cfa: $rsp 16 +
STACK CFI 75a3e .cfa: $rsp 8 +
STACK CFI 75a40 .cfa: $rsp 48 +
STACK CFI 75a77 .cfa: $rsp 40 +
STACK CFI 75a78 .cfa: $rsp 32 +
STACK CFI 75a7a .cfa: $rsp 24 +
STACK CFI 75a7c .cfa: $rsp 16 +
STACK CFI 75a7e .cfa: $rsp 8 +
STACK CFI 75a80 .cfa: $rsp 48 +
STACK CFI INIT 75af0 3a .cfa: $rsp 8 + .ra: .cfa -8 + ^
STACK CFI 75af2 $r12: .cfa -16 + ^ .cfa: $rsp 16 +
STACK CFI 75af6 $rbx: .cfa -24 + ^ .cfa: $rsp 24 +
STACK CFI 75afd .cfa: $rsp 32 +
STACK CFI 75b0b .cfa: $rsp 24 +
STACK CFI 75b0c .cfa: $rsp 16 +
STACK CFI 75b0e .cfa: $rsp 8 +
STACK CFI 75b10 .cfa: $rsp 32 +
STACK CFI 75b17 .cfa: $rsp 24 +
STACK CFI 75b20 .cfa: $rsp 16 +
STACK CFI 75b25 .cfa: $rsp 8 +
STACK CFI INIT 75b30 6c .cfa: $rsp 8 + .ra: .cfa -8 + ^
STACK CFI 75b32 $r14: .cfa -16 + ^ .cfa: $rsp 16 +
STACK CFI 75b34 $r13: .cfa -24 + ^ .cfa: $rsp 24 +
STACK CFI 75b39 $r12: .cfa -32 + ^ .cfa: $rsp 32 +
STACK CFI 75b3d $rbp: .cfa -40 + ^ .cfa: $rsp 40 +
STACK CFI 75b41 $rbx: .cfa -48 + ^ .cfa: $rsp 48 +
STACK CFI 75b61 .cfa: $rsp 40 +
STACK CFI 75b65 .cfa: $rsp 32 +
STACK CFI 75b67 .cfa: $rsp 24 +
STACK CFI 75b69 .cfa: $rsp 16 +
STACK CFI 75b6b .cfa: $rsp 8 +
STACK CFI 75b70 .cfa: $rsp 48 +
STACK CFI 75b89 .cfa: $rsp 40 +
STACK CFI 75b8d .cfa: $rsp 32 +
STACK CFI 75b8f .cfa: $rsp 24 +
STACK CFI 75b91 .cfa: $rsp 16 +
STACK CFI 75b93 .cfa: $rsp 8 +
STACK CFI 75b94 .cfa: $rsp 48 +
STACK CFI INIT 75ba0 59 .cfa: $rsp 8 + .ra: .cfa -8 + ^
STACK CFI 75ba4 .cfa: $rsp 16 +
STACK CFI 75bba .cfa: $rsp 8 +
STACK CFI 75bbb .cfa: $rsp 16 +
STACK CFI INIT 75c00 2d .cfa: $rsp 8 + .ra: .cfa -8 + ^
STACK CFI 75c0e .cfa: $rsp 16 +
STACK CFI INIT 75c30 11b .cfa: $rsp 8 + .ra: .cfa -8 + ^
STACK CFI 75c32 $r12: .cfa -16 + ^ .cfa: $rsp 16 +
STACK CFI 75c33 $rbp: .cfa -24 + ^ .cfa: $rsp 24 +
STACK CFI 75c3a .cfa: $rsp 304 +
STACK CFI 75ca4 .cfa: $rsp 24 +
STACK CFI 75ca5 .cfa: $rsp 16 +
STACK CFI 75ca7 .cfa: $rsp 8 +
STACK CFI 75cb0 .cfa: $rsp 304 +
STACK CFI 75cdc .cfa: $rsp 24 +
STACK CFI 75cdd .cfa: $rsp 16 +
STACK CFI 75cdf .cfa: $rsp 8 +
STACK CFI 75ce0 .cfa: $rsp 304 +
STACK CFI 75d0e .cfa: $rsp 24 +
STACK CFI 75d0f .cfa: $rsp 16 +
STACK CFI 75d11 .cfa: $rsp 8 +
STACK CFI 75d18 .cfa: $rsp 304 +
STACK CFI INIT 75d50 e8 .cfa: $rsp 8 + .ra: .cfa -8 + ^
STACK CFI 75d52 $r13: .cfa -16 + ^ .cfa: $rsp 16 +
STACK CFI 75d5f $r12: .cfa -24 + ^ .cfa: $rsp 24 +
STACK CFI 75d6a $rbp: .cfa -32 + ^ .cfa: $rsp 32 +
STACK CFI 75d71 .cfa: $rsp 304 +
STACK CFI 75df0 .cfa: $rsp 32 +
STACK CFI 75df1 .cfa: $rsp 24 +
STACK CFI 75df3 .cfa: $rsp 16 +
STACK CFI 75df5 .cfa: $rsp 8 +
STACK CFI 75e00 .cfa: $rsp 304 +
STACK CFI 75e0b .cfa: $rsp 32 +
STACK CFI 75e0c .cfa: $rsp 24 +
STACK CFI 75e0e .cfa: $rsp 16 +
STACK CFI 75e10 .cfa: $rsp 8 +
STACK CFI 75e18 .cfa: $rsp 304 +
STACK CFI 75e30 .cfa: $rsp 32 +
STACK CFI 75e33 .cfa: $rsp 24 +
STACK CFI 75e35 .cfa: $rsp 16 +
STACK CFI 75e37 .cfa: $rsp 8 +
STACK CFI INIT 75e40 9 .cfa: $rsp 8 + .ra: .cfa -8 + ^
STACK CFI INIT 75e50 2b .cfa: $rsp 8 + .ra: .cfa -8 + ^
STACK CFI INIT 75e80 35c .cfa: $rsp 8 + .ra: .cfa -8 + ^
STACK CFI 75e82 $r14: .cfa -16 + ^ .cfa: $rsp 16 +
STACK CFI 75e84 $r13: .cfa -24 + ^ .cfa: $rsp 24 +
STACK CFI 75e86 $r12: .cfa -32 + ^ .cfa: $rsp 32 +
STACK CFI 75e8d $rbp: .cfa -40 + ^ .cfa: $rsp 40 +
STACK CFI 75e8e $rbx: .cfa -48 + ^ .cfa: $rsp 48 +
STACK CFI 75e9d .cfa: $rsp 464 +
STACK CFI 75eb4 .cfa: $rsp 472 +
STACK CFI 75ec5 .cfa: $rsp 480 +
STACK CFI 75ee7 .cfa: $rsp 472 +
STACK CFI 75ee8 .cfa: $rsp 464 +
STACK CFI 76059 .cfa: $rsp 48 +
STACK CFI 7605a .cfa: $rsp 40 +
STACK CFI 7605b .cfa: $rsp 32 +
STACK CFI 7605d .cfa: $rsp 24 +
STACK CFI 7605f .cfa: $rsp 16 +
STACK CFI 76061 .cfa: $rsp 8 +
STACK CFI 76068 .cfa: $rsp 464 +
STACK CFI INIT 761e0 128 .cfa: $rsp 8 + .ra: .cfa -8 + ^
STACK CFI 761ed $r13: .cfa -16 + ^ .cfa: $rsp 16 +
STACK CFI 761ef $r12: .cfa -24 + ^ .cfa: $rsp 24 +
STACK CFI 761f0 $rbp: .cfa -32 + ^ .cfa: $rsp 32 +
STACK CFI 761fe $rbx: .cfa -40 + ^ .cfa: $rsp 40 +
STACK CFI 76202 .cfa: $rsp 48 +
STACK CFI 7620c .cfa: $rsp 40 +
STACK CFI 7620d .cfa: $rsp 32 +
STACK CFI 7620e .cfa: $rsp 24 +
STACK CFI 76210 .cfa: $rsp 16 +
STACK CFI 76212 .cfa: $rsp 8 +
STACK CFI 76213 .cfa: $rsp 48 +
STACK CFI 76286 .cfa: $rsp 40 +
STACK CFI 76287 .cfa: $rsp 32 +
STACK CFI 76288 .cfa: $rsp 24 +
STACK CFI 7628a .cfa: $rsp 16 +
STACK CFI 7628c .cfa: $rsp 8 +
STACK CFI 76290 $r12: $r12 $r13: $r13 $rbp: $rbp $rbx: $rbx
STACK CFI 76298 $r12: .cfa -24 + ^ $r13: .cfa -16 + ^ $rbp: .cfa -32 + ^ $rbx: .cfa -40 + ^ .cfa: $rsp 48 +
STACK CFI INIT 76310 f1 .cfa: $rsp 8 + .ra: .cfa -8 + ^
STACK CFI 76312 $r13: .cfa -16 + ^ .cfa: $rsp 16 +
STACK CFI 76317 $r12: .cfa -24 + ^ .cfa: $rsp 24 +
STACK CFI 7631b $rbp: .cfa -32 + ^ .cfa: $rsp 32 +
STACK CFI 7631f $rbx: .cfa -40 + ^ .cfa: $rsp 40 +
STACK CFI 76328 .cfa: $rsp 48 +
STACK CFI 763ce .cfa: $rsp 40 +
STACK CFI 763cf .cfa: $rsp 32 +
STACK CFI 763d0 .cfa: $rsp 24 +
STACK CFI 763d2 .cfa: $rsp 16 +
STACK CFI 763d4 .cfa: $rsp 8 +
STACK CFI 763d8 .cfa: $rsp 48 +
STACK CFI INIT 76410 10d .cfa: $rsp 8 + .ra: .cfa -8 + ^
STACK CFI 76412 $r13: .cfa -16 + ^ .cfa: $rsp 16 +
STACK CFI 76414 $r12: .cfa -24 + ^ .cfa: $rsp 24 +
STACK CFI 76418 $rbp: .cfa -32 + ^ .cfa: $rsp 32 +
STACK CFI 76419 $rbx: .cfa -40 + ^ .cfa: $rsp 40 +
STACK CFI 7641d .cfa: $rsp 48 +
STACK CFI 764dc .cfa: $rsp 40 +
STACK CFI 764df .cfa: $rsp 32 +
STACK CFI 764e0 .cfa: $rsp 24 +
STACK CFI 764e2 .cfa: $rsp 16 +
STACK CFI 764e4 .cfa: $rsp 8 +
STACK CFI 764e8 .cfa: $rsp 48 +
STACK CFI 764ec .cfa: $rsp 40 +
STACK CFI 764f2 .cfa: $rsp 32 +
STACK CFI 764f3 .cfa: $rsp 24 +
STACK CFI 764f5 .cfa: $rsp 16 +
STACK CFI 764f7 .cfa: $rsp 8 +
STACK CFI 76500 .cfa: $rsp 48 +
STACK CFI INIT 76520 a0 .cfa: $rsp 8 + .ra: .cfa -8 + ^
STACK CFI 76522 $r14: .cfa -16 + ^ .cfa: $rsp 16 +
STACK CFI 76527 $r13: .cfa -24 + ^ .cfa: $rsp 24 +
STACK CFI 7652c $r12: .cfa -32 + ^ .cfa: $rsp 32 +
STACK CFI 7652d $rbp: .cfa -40 + ^ .cfa: $rsp 40 +
STACK CFI 76537 .cfa: $rsp 4144 +
STACK CFI 7659b .cfa: $rsp 40 +
STACK CFI 7659f .cfa: $rsp 32 +
STACK CFI 765a1 .cfa: $rsp 24 +
STACK CFI 765a3 .cfa: $rsp 16 +
STACK CFI 765a5 .cfa: $rsp 8 +
STACK CFI 765b0 .cfa: $rsp 4144 +
STACK CFI INIT 765c0 13 .cfa: $rsp 8 + .ra: .cfa -8 + ^
STACK CFI INIT 765e0 b .cfa: $rsp 8 + .ra: .cfa -8 + ^
STACK CFI INIT 765f0 82 .cfa: $rsp 8 + .ra: .cfa -8 + ^
STACK CFI 765f2 $r12: .cfa -16 + ^ .cfa: $rsp 16 +
STACK CFI 765fe .cfa: $rsp 2064 +
STACK CFI 76612 .cfa: $rsp 16 +
STACK CFI 76617 .cfa: $rsp 8 +
STACK CFI 76620 .cfa: $rsp 2064 +
STACK CFI 7663c .cfa: $rsp 16 +
STACK CFI 76641 .cfa: $rsp 8 +
STACK CFI 76648 .cfa: $rsp 2064 +
STACK CFI INIT 76680 b .cfa: $rsp 8 + .ra: .cfa -8 + ^
STACK CFI INIT 76690 1b .cfa: $rsp 8 + .ra: .cfa -8 + ^
STACK CFI INIT 766b0 14e .cfa: $rsp 8 + .ra: .cfa -8 + ^
STACK CFI 766b2 $r15: .cfa -16 + ^ .cfa: $rsp 16 +
STACK CFI 766b4 $r14: .cfa -24 + ^ .cfa: $rsp 24 +
STACK CFI 766b6 $r13: .cfa -32 + ^ .cfa: $rsp 32 +
STACK CFI 766b8 $r12: .cfa -40 + ^ .cfa: $rsp 40 +
STACK CFI 766b9 $rbp: .cfa -48 + ^ .cfa: $rsp 48 +
STACK CFI 766ba $rbx: .cfa -56 + ^ .cfa: $rsp 56 +
STACK CFI 766be .cfa: $rsp 64 +
STACK CFI 7670e .cfa: $rsp 56 +
STACK CFI 76712 .cfa: $rsp 48 +
STACK CFI 76713 .cfa: $rsp 40 +
STACK CFI 76715 .cfa: $rsp 32 +
STACK CFI 76717 .cfa: $rsp 24 +
STACK CFI 76719 .cfa: $rsp 16 +
STACK CFI 7671b .cfa: $rsp 8 +
STACK CFI 76720 .cfa: $rsp 64 +
STACK CFI INIT 76800 198 .cfa: $rsp 8 + .ra: .cfa -8 + ^
STACK CFI 76802 $r13: .cfa -16 + ^ .cfa: $rsp 16 +
STACK CFI 76804 $r12: .cfa -24 + ^ .cfa: $rsp 24 +
STACK CFI 76805 $rbp: .cfa -32 + ^ .cfa: $rsp 32 +
STACK CFI 76806 $rbx: .cfa -40 + ^ .cfa: $rsp 40 +
STACK CFI 7680a .cfa: $rsp 64 +
STACK CFI 76884 .cfa: $rsp 40 +
STACK CFI 76885 .cfa: $rsp 32 +
STACK CFI 76886 .cfa: $rsp 24 +
STACK CFI 76888 .cfa: $rsp 16 +
STACK CFI 7688a .cfa: $rsp 8 +
STACK CFI 76890 .cfa: $rsp 64 +
STACK CFI 768c9 .cfa: $rsp 40 +
STACK CFI 768cf .cfa: $rsp 32 +
STACK CFI 768d0 .cfa: $rsp 24 +
STACK CFI 768d2 .cfa: $rsp 16 +
STACK CFI 768d4 .cfa: $rsp 8 +
STACK CFI 768d8 .cfa: $rsp 64 +
STACK CFI 768f1 .cfa: $rsp 40 +
STACK CFI 768f7 .cfa: $rsp 32 +
STACK CFI 768f8 .cfa: $rsp 24 +
STACK CFI 768fa .cfa: $rsp 16 +
STACK CFI 768fc .cfa: $rsp 8 +
STACK CFI 76900 .cfa: $rsp 64 +
STACK CFI 76914 .cfa: $rsp 40 +
STACK CFI 76915 .cfa: $rsp 32 +
STACK CFI 76916 .cfa: $rsp 24 +
STACK CFI 76918 .cfa: $rsp 16 +
STACK CFI 7691a .cfa: $rsp 8 +
STACK CFI 76920 .cfa: $rsp 64 +
STACK CFI INIT 769a0 1b8 .cfa: $rsp 8 + .ra: .cfa -8 + ^
STACK CFI 769a2 $r15: .cfa -16 + ^ .cfa: $rsp 16 +
STACK CFI 769a7 $r14: .cfa -24 + ^ .cfa: $rsp 24 +
STACK CFI 769ac $r13: .cfa -32 + ^ .cfa: $rsp 32 +
STACK CFI 769b1 $r12: .cfa -40 + ^ .cfa: $rsp 40 +
STACK CFI 769b2 $rbp: .cfa -48 + ^ .cfa: $rsp 48 +
STACK CFI 769b6 $rbx: .cfa -56 + ^ .cfa: $rsp 56 +
STACK CFI 769c0 .cfa: $rsp 240 +
STACK CFI 76a19 .cfa: $rsp 56 +
STACK CFI 76a1d .cfa: $rsp 48 +
STACK CFI 76a1e .cfa: $rsp 40 +
STACK CFI 76a20 .cfa: $rsp 32 +
STACK CFI 76a22 .cfa: $rsp 24 +
STACK CFI 76a24 .cfa: $rsp 16 +
STACK CFI 76a26 .cfa: $rsp 8 +
STACK CFI 76a30 .cfa: $rsp 240 +
STACK CFI INIT 76b60 1e1 .cfa: $rsp 8 + .ra: .cfa -8 + ^
STACK CFI 76b62 $r13: .cfa -16 + ^ .cfa: $rsp 16 +
STACK CFI 76b64 $r12: .cfa -24 + ^ .cfa: $rsp 24 +
STACK CFI 76b65 $rbp: .cfa -32 + ^ .cfa: $rsp 32 +
STACK CFI 76b66 $rbx: .cfa -40 + ^ .cfa: $rsp 40 +
STACK CFI 76b6d .cfa: $rsp 5376 +
STACK CFI 76b83 .cfa: $rsp 40 +
STACK CFI 76b84 .cfa: $rsp 32 +
STACK CFI 76b85 .cfa: $rsp 24 +
STACK CFI 76b87 .cfa: $rsp 16 +
STACK CFI 76b89 .cfa: $rsp 8 +
STACK CFI 76b90 .cfa: $rsp 5376 +
STACK CFI INIT 76d50 cf .cfa: $rsp 8 + .ra: .cfa -8 + ^
STACK CFI 76d52 $r13: .cfa -16 + ^ .cfa: $rsp 16 +
STACK CFI 76d57 $r12: .cfa -24 + ^ .cfa: $rsp 24 +
STACK CFI 76d5b $rbp: .cfa -32 + ^ .cfa: $rsp 32 +
STACK CFI 76d5f $rbx: .cfa -40 + ^ .cfa: $rsp 40 +
STACK CFI 76d69 .cfa: $rsp 224 +
STACK CFI 76dad .cfa: $rsp 40 +
STACK CFI 76dae .cfa: $rsp 32 +
STACK CFI 76daf .cfa: $rsp 24 +
STACK CFI 76db1 .cfa: $rsp 16 +
STACK CFI 76db3 .cfa: $rsp 8 +
STACK CFI 76db8 .cfa: $rsp 224 +
STACK CFI 76e08 .cfa: $rsp 40 +
STACK CFI 76e0b .cfa: $rsp 32 +
STACK CFI 76e0c .cfa: $rsp 24 +
STACK CFI 76e0e .cfa: $rsp 16 +
STACK CFI 76e10 .cfa: $rsp 8 +
STACK CFI 76e18 .cfa: $rsp 224 +
STACK CFI INIT 76e20 77 .cfa: $rsp 8 + .ra: .cfa -8 + ^
STACK CFI 76e24 .cfa: $rsp 64 +
STACK CFI 76e5d .cfa: $rsp 8 +
STACK CFI 76e60 .cfa: $rsp 64 +
STACK CFI 76e78 .cfa: $rsp 8 +
STACK CFI 76e80 .cfa: $rsp 64 +
STACK CFI 76e96 .cfa: $rsp 8 +
STACK CFI INIT 76ea0 4 .cfa: $rsp 8 + .ra: .cfa -8 + ^
STACK CFI INIT 76eb0 34d .cfa: $rsp 8 + .ra: .cfa -8 + ^
STACK CFI 76eb2 $r15: .cfa -16 + ^ .cfa: $rsp 16 +
STACK CFI 76eb7 $r14: .cfa -24 + ^ .cfa: $rsp 24 +
STACK CFI 76ebc $r13: .cfa -32 + ^ .cfa: $rsp 32 +
STACK CFI 76ebe $r12: .cfa -40 + ^ .cfa: $rsp 40 +
STACK CFI 76ec2 $rbp: .cfa -48 + ^ .cfa: $rsp 48 +
STACK CFI 76ec6 $rbx: .cfa -56 + ^ .cfa: $rsp 56 +
STACK CFI 76ed5 .cfa: $rsp 9296 +
STACK CFI 76f7b .cfa: $rsp 9304 +
STACK CFI 76f88 .cfa: $rsp 9312 +
STACK CFI 76f93 .cfa: $rsp 9320 +
STACK CFI 76f94 .cfa: $rsp 9328 +
STACK CFI 76f95 .cfa: $rsp 9336 +
STACK CFI 76f96 .cfa: $rsp 9344 +
STACK CFI 76fa7 .cfa: $rsp 9296 +
STACK CFI 76fb4 .cfa: $rsp 9304 +
STACK CFI 76fc1 .cfa: $rsp 9312 +
STACK CFI 76fd0 .cfa: $rsp 9320 +
STACK CFI 76fd1 .cfa: $rsp 9328 +
STACK CFI 76fd2 .cfa: $rsp 9336 +
STACK CFI 76fd7 .cfa: $rsp 9344 +
STACK CFI 76fd8 .cfa: $rsp 9352 +
STACK CFI 76fdd .cfa: $rsp 9360 +
STACK CFI 76fde .cfa: $rsp 9368 +
STACK CFI 76fe3 .cfa: $rsp 9376 +
STACK CFI 76fe4 .cfa: $rsp 9384 +
STACK CFI 76fe5 .cfa: $rsp 9392 +
STACK CFI 76fea .cfa: $rsp 9400 +
STACK CFI 76feb .cfa: $rsp 9408 +
STACK CFI 76ff0 .cfa: $rsp 9416 +
STACK CFI 76ff5 .cfa: $rsp 9424 +
STACK CFI 76ff6 .cfa: $rsp 9432 +
STACK CFI 76ff7 .cfa: $rsp 9440 +
STACK CFI 76ffc .cfa: $rsp 9448 +
STACK CFI 76ffd .cfa: $rsp 9456 +
STACK CFI 76ffe .cfa: $rsp 9464 +
STACK CFI 77003 .cfa: $rsp 9472 +
STACK CFI 77017 .cfa: $rsp 9296 +
STACK CFI 7708f .cfa: $rsp 56 +
STACK CFI 77093 .cfa: $rsp 48 +
STACK CFI 77094 .cfa: $rsp 40 +
STACK CFI 77096 .cfa: $rsp 32 +
STACK CFI 77098 .cfa: $rsp 24 +
STACK CFI 7709a .cfa: $rsp 16 +
STACK CFI 7709c .cfa: $rsp 8 +
STACK CFI 770a0 .cfa: $rsp 9296 +
STACK CFI 770a4 .cfa: $rsp 9304 +
STACK CFI 770b1 .cfa: $rsp 9312 +
STACK CFI 770c0 .cfa: $rsp 9320 +
STACK CFI 770c1 .cfa: $rsp 9328 +
STACK CFI 770c2 .cfa: $rsp 9336 +
STACK CFI 770c7 .cfa: $rsp 9344 +
STACK CFI 770c8 .cfa: $rsp 9352 +
STACK CFI 770cd .cfa: $rsp 9360 +
STACK CFI 770de .cfa: $rsp 9296 +
STACK CFI INIT 77200 1ee .cfa: $rsp 8 + .ra: .cfa -8 + ^
STACK CFI 77202 $r13: .cfa -16 + ^ .cfa: $rsp 16 +
STACK CFI 77207 $r12: .cfa -24 + ^ .cfa: $rsp 24 +
STACK CFI 7720b $rbp: .cfa -32 + ^ .cfa: $rsp 32 +
STACK CFI 7720c $rbx: .cfa -40 + ^ .cfa: $rsp 40 +
STACK CFI 77216 .cfa: $rsp 5184 +
STACK CFI 77260 .cfa: $rsp 5192 +
STACK CFI 77271 .cfa: $rsp 5200 +
STACK CFI 77286 .cfa: $rsp 5192 +
STACK CFI 77287 .cfa: $rsp 5184 +
STACK CFI 772bf .cfa: $rsp 40 +
STACK CFI 772c3 .cfa: $rsp 32 +
STACK CFI 772c4 .cfa: $rsp 24 +
STACK CFI 772c6 .cfa: $rsp 16 +
STACK CFI 772c8 .cfa: $rsp 8 +
STACK CFI 772d0 .cfa: $rsp 5184 +
STACK CFI 7736c .cfa: $rsp 5192 +
STACK CFI 77379 .cfa: $rsp 5200 +
STACK CFI 77390 .cfa: $rsp 5192 +
STACK CFI 77391 .cfa: $rsp 5184 +
STACK CFI INIT 773f0 25 .cfa: $rsp 8 + .ra: .cfa -8 + ^
STACK CFI 77404 .cfa: $rsp 16 +
STACK CFI 77414 .cfa: $rsp 8 +
STACK CFI INIT 77420 8 .cfa: $rsp 8 + .ra: .cfa -8 + ^
STACK CFI INIT 77430 117 .cfa: $rsp 8 + .ra: .cfa -8 + ^
STACK CFI 77432 $r14: .cfa -16 + ^ .cfa: $rsp 16 +
STACK CFI 77433 $rbx: .cfa -24 + ^ .cfa: $rsp 24 +
STACK CFI 77437 .cfa: $rsp 64 +
STACK CFI 77495 .cfa: $rsp 24 +
STACK CFI 77496 .cfa: $rsp 16 +
STACK CFI 77498 .cfa: $rsp 8 +
STACK CFI 774a0 .cfa: $rsp 64 +
STACK CFI 774ff .cfa: $rsp 24 +
STACK CFI 77500 .cfa: $rsp 16 +
STACK CFI 77502 .cfa: $rsp 8 +
STACK CFI 77508 .cfa: $rsp 64 +
STACK CFI 77518 .cfa: $rsp 24 +
STACK CFI 77519 .cfa: $rsp 16 +
STACK CFI 7751b .cfa: $rsp 8 +
STACK CFI 77520 .cfa: $rsp 64 +
STACK CFI INIT 77550 2a1 .cfa: $rsp 8 + .ra: .cfa -8 + ^
STACK CFI 7756a $r15: .cfa -16 + ^ .cfa: $rsp 16 +
STACK CFI 7756c $r14: .cfa -24 + ^ .cfa: $rsp 24 +
STACK CFI 7756e $r13: .cfa -32 + ^ .cfa: $rsp 32 +
STACK CFI 77570 $r12: .cfa -40 + ^ .cfa: $rsp 40 +
STACK CFI 77571 $rbp: .cfa -48 + ^ .cfa: $rsp 48 +
STACK CFI 77572 $rbx: .cfa -56 + ^ .cfa: $rsp 56 +
STACK CFI 77576 .cfa: $rsp 96 +
STACK CFI 7778a .cfa: $rsp 56 +
STACK CFI 7778b .cfa: $rsp 48 +
STACK CFI 7778c .cfa: $rsp 40 +
STACK CFI 7778e .cfa: $rsp 32 +
STACK CFI 77790 .cfa: $rsp 24 +
STACK CFI 77792 .cfa: $rsp 16 +
STACK CFI 77794 .cfa: $rsp 8 +
STACK CFI 77798 .cfa: $rsp 96 +
STACK CFI INIT 77800 312 .cfa: $rsp 8 + .ra: .cfa -8 + ^
STACK CFI 77802 $r14: .cfa -16 + ^ .cfa: $rsp 16 +
STACK CFI 77804 $r13: .cfa -24 + ^ .cfa: $rsp 24 +
STACK CFI 77809 $r12: .cfa -32 + ^ .cfa: $rsp 32 +
STACK CFI 7780a $rbp: .cfa -40 + ^ .cfa: $rsp 40 +
STACK CFI 7780e $rbx: .cfa -48 + ^ .cfa: $rsp 48 +
STACK CFI 7781a .cfa: $rsp 112 +
STACK CFI 7799d .cfa: $rsp 48 +
STACK CFI 779a1 .cfa: $rsp 40 +
STACK CFI 779a2 .cfa: $rsp 32 +
STACK CFI 779a4 .cfa: $rsp 24 +
STACK CFI 779a6 .cfa: $rsp 16 +
STACK CFI 779a8 .cfa: $rsp 8 +
STACK CFI 779b0 .cfa: $rsp 112 +
STACK CFI 779e4 .cfa: $rsp 48 +
STACK CFI 779ed .cfa: $rsp 40 +
STACK CFI 779ee .cfa: $rsp 32 +
STACK CFI 779f0 .cfa: $rsp 24 +
STACK CFI 779f2 .cfa: $rsp 16 +
STACK CFI 779f4 .cfa: $rsp 8 +
STACK CFI 77a00 .cfa: $rsp 112 +
STACK CFI 77a04 .cfa: $rsp 48 +
STACK CFI 77a05 .cfa: $rsp 40 +
STACK CFI 77a06 .cfa: $rsp 32 +
STACK CFI 77a08 .cfa: $rsp 24 +
STACK CFI 77a0a .cfa: $rsp 16 +
STACK CFI 77a0c .cfa: $rsp 8 +
STACK CFI 77a0d .cfa: $rsp 112 +
STACK CFI INIT 77b20 233 .cfa: $rsp 8 + .ra: .cfa -8 + ^
STACK CFI 77b22 $r14: .cfa -16 + ^ .cfa: $rsp 16 +
STACK CFI 77b27 $r13: .cfa -24 + ^ .cfa: $rsp 24 +
STACK CFI 77b2c $r12: .cfa -32 + ^ .cfa: $rsp 32 +
STACK CFI 77b2d $rbp: .cfa -40 + ^ .cfa: $rsp 40 +
STACK CFI 77b31 $rbx: .cfa -48 + ^ .cfa: $rsp 48 +
STACK CFI 77b38 .cfa: $rsp 272 +
STACK CFI 77b67 .cfa: $rsp 48 +
STACK CFI 77b6b .cfa: $rsp 40 +
STACK CFI 77b6c .cfa: $rsp 32 +
STACK CFI 77b6e .cfa: $rsp 24 +
STACK CFI 77b70 .cfa: $rsp 16 +
STACK CFI 77b72 .cfa: $rsp 8 +
STACK CFI 77b78 .cfa: $rsp 272 +
STACK CFI INIT 77d60 1ad .cfa: $rsp 8 + .ra: .cfa -8 + ^
STACK CFI 77db2 $r12: .cfa -16 + ^ .cfa: $rsp 16 +
STACK CFI 77db3 $rbp: .cfa -24 + ^ .cfa: $rsp 24 +
STACK CFI 77dbb $rbx: .cfa -32 + ^ .cfa: $rsp 32 +
STACK CFI 77e7c .cfa: $rsp 24 +
STACK CFI 77e7d .cfa: $rsp 16 +
STACK CFI 77e7f .cfa: $rsp 8 +
STACK CFI 77e80 .cfa: $rsp 32 +
STACK CFI 77ec6 .cfa: $rsp 24 +
STACK CFI 77ec9 .cfa: $rsp 16 +
STACK CFI 77ecb .cfa: $rsp 8 +
STACK CFI 77ed0 .cfa: $rsp 32 +
STACK CFI 77f00 $r12: $r12 $rbp: $rbp $rbx: $rbx .cfa: $rsp 8 +
STACK CFI 77f03 $r12: .cfa -16 + ^ $rbp: .cfa -24 + ^ $rbx: .cfa -32 + ^ .cfa: $rsp 32 +
STACK CFI INIT 77f10 43c .cfa: $rsp 8 + .ra: .cfa -8 + ^
STACK CFI 77f12 $r15: .cfa -16 + ^ .cfa: $rsp 16 +
STACK CFI 77f14 $r14: .cfa -24 + ^ .cfa: $rsp 24 +
STACK CFI 77f16 $r13: .cfa -32 + ^ .cfa: $rsp 32 +
STACK CFI 77f18 $r12: .cfa -40 + ^ .cfa: $rsp 40 +
STACK CFI 77f19 $rbp: .cfa -48 + ^ .cfa: $rsp 48 +
STACK CFI 77f1a $rbx: .cfa -56 + ^ .cfa: $rsp 56 +
STACK CFI 77f21 .cfa: $rsp 1216 +
STACK CFI 780d1 .cfa: $rsp 56 +
STACK CFI 780d2 .cfa: $rsp 48 +
STACK CFI 780d3 .cfa: $rsp 40 +
STACK CFI 780d5 .cfa: $rsp 32 +
STACK CFI 780d7 .cfa: $rsp 24 +
STACK CFI 780d9 .cfa: $rsp 16 +
STACK CFI 780db .cfa: $rsp 8 +
STACK CFI 780e0 .cfa: $rsp 1216 +
STACK CFI INIT 78350 577 .cfa: $rsp 8 + .ra: .cfa -8 + ^
STACK CFI 78352 $r15: .cfa -16 + ^ .cfa: $rsp 16 +
STACK CFI 7835c $r14: .cfa -24 + ^ .cfa: $rsp 24 +
STACK CFI 7835e $r13: .cfa -32 + ^ .cfa: $rsp 32 +
STACK CFI 78360 $r12: .cfa -40 + ^ .cfa: $rsp 40 +
STACK CFI 78361 $rbp: .cfa -48 + ^ .cfa: $rsp 48 +
STACK CFI 78365 $rbx: .cfa -56 + ^ .cfa: $rsp 56 +
STACK CFI 7836c .cfa: $rsp 10160 +
STACK CFI 785e1 .cfa: $rsp 56 +
STACK CFI 785e2 .cfa: $rsp 48 +
STACK CFI 785e3 .cfa: $rsp 40 +
STACK CFI 785e5 .cfa: $rsp 32 +
STACK CFI 785e7 .cfa: $rsp 24 +
STACK CFI 785e9 .cfa: $rsp 16 +
STACK CFI 785eb .cfa: $rsp 8 +
STACK CFI 785f0 .cfa: $rsp 10160 +
STACK CFI INIT 788d0 527 .cfa: $rsp 8 + .ra: .cfa -8 + ^
STACK CFI 788d2 $r13: .cfa -16 + ^ .cfa: $rsp 16 +
STACK CFI 788de $r12: .cfa -24 + ^ .cfa: $rsp 24 +
STACK CFI 788e9 $rbp: .cfa -32 + ^ .cfa: $rsp 32 +
STACK CFI 788f3 $rbx: .cfa -40 + ^ .cfa: $rsp 40 +
STACK CFI 788f7 .cfa: $rsp 48 +
STACK CFI 78955 .cfa: $rsp 40 +
STACK CFI 7895e .cfa: $rsp 32 +
STACK CFI 7895f .cfa: $rsp 24 +
STACK CFI 78961 .cfa: $rsp 16 +
STACK CFI 78963 .cfa: $rsp 8 +
STACK CFI 78970 .cfa: $rsp 48 +
STACK CFI 78b0d .cfa: $rsp 40 +
STACK CFI 78b0e .cfa: $rsp 32 +
STACK CFI 78b0f .cfa: $rsp 24 +
STACK CFI 78b11 .cfa: $rsp 16 +
STACK CFI 78b13 .cfa: $rsp 8 +
STACK CFI 78b18 .cfa: $rsp 48 +
STACK CFI INIT 78e00 8d .cfa: $rsp 8 + .ra: .cfa -8 + ^
STACK CFI 78e02 $r12: .cfa -16 + ^ .cfa: $rsp 16 +
STACK CFI 78e10 $rbp: .cfa -24 + ^ .cfa: $rsp 24 +
STACK CFI 78e19 $rbx: .cfa -32 + ^ .cfa: $rsp 32 +
STACK CFI 78e89 .cfa: $rsp 24 +
STACK CFI 78e8a .cfa: $rsp 16 +
STACK CFI 78e8c .cfa: $rsp 8 +
STACK CFI INIT 78e90 88 .cfa: $rsp 8 + .ra: .cfa -8 + ^
STACK CFI 78e9b $rbp: .cfa -16 + ^ .cfa: $rsp 16 +
STACK CFI 78e9f $rbx: .cfa -24 + ^ .cfa: $rsp 24 +
STACK CFI 78ea3 .cfa: $rsp 32 +
STACK CFI 78ef4 .cfa: $rsp 24 +
STACK CFI 78ef5 .cfa: $rsp 16 +
STACK CFI 78ef6 .cfa: $rsp 8 +
STACK CFI 78f00 $rbp: $rbp $rbx: $rbx
STACK CFI 78f08 $rbp: .cfa -16 + ^ $rbx: .cfa -24 + ^ .cfa: $rsp 32 +
STACK CFI INIT 78f20 43f .cfa: $rsp 8 + .ra: .cfa -8 + ^
STACK CFI 78f22 $r15: .cfa -16 + ^ .cfa: $rsp 16 +
STACK CFI 78f2c $r14: .cfa -24 + ^ .cfa: $rsp 24 +
STACK CFI 78f36 $r13: .cfa -32 + ^ .cfa: $rsp 32 +
STACK CFI 78f38 $r12: .cfa -40 + ^ .cfa: $rsp 40 +
STACK CFI 78f3c $rbp: .cfa -48 + ^ .cfa: $rsp 48 +
STACK CFI 78f43 $rbx: .cfa -56 + ^ .cfa: $rsp 56 +
STACK CFI 78f52 .cfa: $rsp 304 +
STACK CFI 792df .cfa: $rsp 56 +
STACK CFI 792e0 .cfa: $rsp 48 +
STACK CFI 792e1 .cfa: $rsp 40 +
STACK CFI 792e3 .cfa: $rsp 32 +
STACK CFI 792e5 .cfa: $rsp 24 +
STACK CFI 792e7 .cfa: $rsp 16 +
STACK CFI 792e9 .cfa: $rsp 8 +
STACK CFI 792f0 .cfa: $rsp 304 +
STACK CFI INIT 79360 1fe .cfa: $rsp 8 + .ra: .cfa -8 + ^
STACK CFI 79362 $r15: .cfa -16 + ^ .cfa: $rsp 16 +
STACK CFI 79367 $r14: .cfa -24 + ^ .cfa: $rsp 24 +
STACK CFI 7936c $r13: .cfa -32 + ^ .cfa: $rsp 32 +
STACK CFI 79371 $r12: .cfa -40 + ^ .cfa: $rsp 40 +
STACK CFI 79375 $rbp: .cfa -48 + ^ .cfa: $rsp 48 +
STACK CFI 79379 $rbx: .cfa -56 + ^ .cfa: $rsp 56 +
STACK CFI 79380 .cfa: $rsp 8288 +
STACK CFI 794c3 .cfa: $rsp 56 +
STACK CFI 794c4 .cfa: $rsp 48 +
STACK CFI 794c5 .cfa: $rsp 40 +
STACK CFI 794c7 .cfa: $rsp 32 +
STACK CFI 794c9 .cfa: $rsp 24 +
STACK CFI 794cb .cfa: $rsp 16 +
STACK CFI 794cd .cfa: $rsp 8 +
STACK CFI 794d0 .cfa: $rsp 8288 +
STACK CFI INIT 79560 14e .cfa: $rsp 8 + .ra: .cfa -8 + ^
STACK CFI 7956a $r14: .cfa -16 + ^ .cfa: $rsp 16 +
STACK CFI 7956c $r13: .cfa -24 + ^ .cfa: $rsp 24 +
STACK CFI 7956e $r12: .cfa -32 + ^ .cfa: $rsp 32 +
STACK CFI 7956f $rbp: .cfa -40 + ^ .cfa: $rsp 40 +
STACK CFI 79570 $rbx: .cfa -48 + ^ .cfa: $rsp 48 +
STACK CFI 7964f .cfa: $rsp 40 +
STACK CFI 79650 .cfa: $rsp 32 +
STACK CFI 79652 .cfa: $rsp 24 +
STACK CFI 79654 .cfa: $rsp 16 +
STACK CFI 79656 .cfa: $rsp 8 +
STACK CFI 79660 .cfa: $rsp 48 +
STACK CFI 79685 .cfa: $rsp 56 +
STACK CFI 79692 .cfa: $rsp 64 +
STACK CFI 796a8 .cfa: $rsp 56 +
STACK CFI 796a9 .cfa: $rsp 48 +
STACK CFI INIT 796b0 2b5 .cfa: $rsp 8 + .ra: .cfa -8 + ^
STACK CFI 796bb $r13: .cfa -16 + ^ .cfa: $rsp 16 +
STACK CFI 796c2 $r12: .cfa -24 + ^ .cfa: $rsp 24 +
STACK CFI 796c3 $rbp: .cfa -32 + ^ .cfa: $rsp 32 +
STACK CFI 796c4 $rbx: .cfa -40 + ^ .cfa: $rsp 40 +
STACK CFI 796ce .cfa: $rsp 10080 +
STACK CFI 7971a .cfa: $rsp 40 +
STACK CFI 7971b .cfa: $rsp 32 +
STACK CFI 7971c .cfa: $rsp 24 +
STACK CFI 7971e .cfa: $rsp 16 +
STACK CFI 79720 .cfa: $rsp 8 +
STACK CFI 79728 .cfa: $rsp 10080 +
STACK CFI 7977a .cfa: $rsp 40 +
STACK CFI 7977b .cfa: $rsp 32 +
STACK CFI 7977c .cfa: $rsp 24 +
STACK CFI 7977e .cfa: $rsp 16 +
STACK CFI 79780 .cfa: $rsp 8 +
STACK CFI 79788 .cfa: $rsp 10080 +
STACK CFI 79950 $r12: $r12 $r13: $r13 $rbp: $rbp $rbx: $rbx .cfa: $rsp 8 +
STACK CFI 79958 $r12: .cfa -24 + ^ $r13: .cfa -16 + ^ $rbp: .cfa -32 + ^ $rbx: .cfa -40 + ^ .cfa: $rsp 10080 +
STACK CFI INIT 79970 503 .cfa: $rsp 8 + .ra: .cfa -8 + ^
STACK CFI 79972 $r15: .cfa -16 + ^ .cfa: $rsp 16 +
STACK CFI 79977 $r14: .cfa -24 + ^ .cfa: $rsp 24 +
STACK CFI 79980 $r13: .cfa -32 + ^ .cfa: $rsp 32 +
STACK CFI 79985 $r12: .cfa -40 + ^ .cfa: $rsp 40 +
STACK CFI 7998a $rbp: .cfa -48 + ^ .cfa: $rsp 48 +
STACK CFI 79991 $rbx: .cfa -56 + ^ .cfa: $rsp 56 +
STACK CFI 799b2 .cfa: $rsp 4192 +
STACK CFI 799db .cfa: $rsp 56 +
STACK CFI 799df .cfa: $rsp 48 +
STACK CFI 799e0 .cfa: $rsp 40 +
STACK CFI 799e2 .cfa: $rsp 32 +
STACK CFI 799e4 .cfa: $rsp 24 +
STACK CFI 799e6 .cfa: $rsp 16 +
STACK CFI 799e8 .cfa: $rsp 8 +
STACK CFI 799f0 .cfa: $rsp 4192 +
STACK CFI INIT 79e80 3ed .cfa: $rsp 8 + .ra: .cfa -8 + ^
STACK CFI 79e82 $r15: .cfa -16 + ^ .cfa: $rsp 16 +
STACK CFI 79e84 $r14: .cfa -24 + ^ .cfa: $rsp 24 +
STACK CFI 79e89 $r13: .cfa -32 + ^ .cfa: $rsp 32 +
STACK CFI 79e8e $r12: .cfa -40 + ^ .cfa: $rsp 40 +
STACK CFI 79e92 $rbp: .cfa -48 + ^ .cfa: $rsp 48 +
STACK CFI 79e96 $rbx: .cfa -56 + ^ .cfa: $rsp 56 +
STACK CFI 79e9a .cfa: $rsp 112 +
STACK CFI 7a0dc .cfa: $rsp 56 +
STACK CFI 7a0e0 .cfa: $rsp 48 +
STACK CFI 7a0e1 .cfa: $rsp 40 +
STACK CFI 7a0e3 .cfa: $rsp 32 +
STACK CFI 7a0e5 .cfa: $rsp 24 +
STACK CFI 7a0e7 .cfa: $rsp 16 +
STACK CFI 7a0e9 .cfa: $rsp 8 +
STACK CFI 7a0f0 .cfa: $rsp 112 +
STACK CFI INIT 7a270 5 .cfa: $rsp 8 + .ra: .cfa -8 + ^
STACK CFI INIT 7a280 1cf .cfa: $rsp 8 + .ra: .cfa -8 + ^
STACK CFI 7a282 $r13: .cfa -16 + ^ .cfa: $rsp 16 +
STACK CFI 7a28e $r12: .cfa -24 + ^ .cfa: $rsp 24 +
STACK CFI 7a28f $rbp: .cfa -32 + ^ .cfa: $rsp 32 +
STACK CFI 7a295 $rbx: .cfa -40 + ^ .cfa: $rsp 40 +
STACK CFI 7a29c .cfa: $rsp 624 +
STACK CFI 7a2fa .cfa: $rsp 40 +
STACK CFI 7a2fe .cfa: $rsp 32 +
STACK CFI 7a2ff .cfa: $rsp 24 +
STACK CFI 7a301 .cfa: $rsp 16 +
STACK CFI 7a303 .cfa: $rsp 8 +
STACK CFI 7a308 .cfa: $rsp 624 +
STACK CFI INIT 7a450 5 .cfa: $rsp 8 + .ra: .cfa -8 + ^
STACK CFI INIT 7a460 256 .cfa: $rsp 8 + .ra: .cfa -8 + ^
STACK CFI 7a462 $r14: .cfa -16 + ^ .cfa: $rsp 16 +
STACK CFI 7a464 $r13: .cfa -24 + ^ .cfa: $rsp 24 +
STACK CFI 7a466 $r12: .cfa -32 + ^ .cfa: $rsp 32 +
STACK CFI 7a467 $rbp: .cfa -40 + ^ .cfa: $rsp 40 +
STACK CFI 7a468 $rbx: .cfa -48 + ^ .cfa: $rsp 48 +
STACK CFI 7a46f .cfa: $rsp 5184 +
STACK CFI 7a5c8 .cfa: $rsp 48 +
STACK CFI 7a5c9 .cfa: $rsp 40 +
STACK CFI 7a5ca .cfa: $rsp 32 +
STACK CFI 7a5cc .cfa: $rsp 24 +
STACK CFI 7a5ce .cfa: $rsp 16 +
STACK CFI 7a5d0 .cfa: $rsp 8 +
STACK CFI 7a5d8 .cfa: $rsp 5184 +
STACK CFI 7a638 .cfa: $rsp 48 +
STACK CFI 7a639 .cfa: $rsp 40 +
STACK CFI 7a63a .cfa: $rsp 32 +
STACK CFI 7a63c .cfa: $rsp 24 +
STACK CFI 7a63e .cfa: $rsp 16 +
STACK CFI 7a640 .cfa: $rsp 8 +
STACK CFI 7a648 .cfa: $rsp 5184 +
STACK CFI 7a674 .cfa: $rsp 48 +
STACK CFI 7a675 .cfa: $rsp 40 +
STACK CFI 7a676 .cfa: $rsp 32 +
STACK CFI 7a678 .cfa: $rsp 24 +
STACK CFI 7a67a .cfa: $rsp 16 +
STACK CFI 7a67c .cfa: $rsp 8 +
STACK CFI 7a680 .cfa: $rsp 5184 +
STACK CFI INIT 7a6c0 ce .cfa: $rsp 8 + .ra: .cfa -8 + ^
STACK CFI 7a6c2 $r12: .cfa -16 + ^ .cfa: $rsp 16 +
STACK CFI 7a6c6 $rbx: .cfa -24 + ^ .cfa: $rsp 24 +
STACK CFI 7a6cd .cfa: $rsp 64 +
STACK CFI 7a769 .cfa: $rsp 24 +
STACK CFI 7a76a .cfa: $rsp 16 +
STACK CFI 7a76c .cfa: $rsp 8 +
STACK CFI 7a770 .cfa: $rsp 64 +
STACK CFI INIT 7a790 157 .cfa: $rsp 8 + .ra: .cfa -8 + ^
STACK CFI 7a792 $r13: .cfa -16 + ^ .cfa: $rsp 16 +
STACK CFI 7a797 $r12: .cfa -24 + ^ .cfa: $rsp 24 +
STACK CFI 7a798 $rbp: .cfa -32 + ^ .cfa: $rsp 32 +
STACK CFI 7a79c $rbx: .cfa -40 + ^ .cfa: $rsp 40 +
STACK CFI 7a7a7 .cfa: $rsp 64 +
STACK CFI 7a814 .cfa: $rsp 40 +
STACK CFI 7a818 .cfa: $rsp 32 +
STACK CFI 7a819 .cfa: $rsp 24 +
STACK CFI 7a81b .cfa: $rsp 16 +
STACK CFI 7a81d .cfa: $rsp 8 +
STACK CFI 7a820 .cfa: $rsp 64 +
STACK CFI 7a862 .cfa: $rsp 40 +
STACK CFI 7a866 .cfa: $rsp 32 +
STACK CFI 7a867 .cfa: $rsp 24 +
STACK CFI 7a869 .cfa: $rsp 16 +
STACK CFI 7a86b .cfa: $rsp 8 +
STACK CFI 7a870 .cfa: $rsp 64 +
STACK CFI INIT 7a8f0 d8 .cfa: $rsp 8 + .ra: .cfa -8 + ^
STACK CFI 7a8f2 $r12: .cfa -16 + ^ .cfa: $rsp 16 +
STACK CFI 7a8f6 $rbx: .cfa -24 + ^ .cfa: $rsp 24 +
STACK CFI 7a8fa .cfa: $rsp 32 +
STACK CFI 7a974 .cfa: $rsp 24 +
STACK CFI 7a978 .cfa: $rsp 16 +
STACK CFI 7a97a .cfa: $rsp 8 +
STACK CFI 7a980 .cfa: $rsp 32 +
STACK CFI INIT 7a9d0 7 .cfa: $rsp 8 + .ra: .cfa -8 + ^
STACK CFI INIT 7a9e0 19 .cfa: $rsp 8 + .ra: .cfa -8 + ^
STACK CFI INIT 7aa00 24 .cfa: $rsp 8 + .ra: .cfa -8 + ^
STACK CFI 7aa01 $rbx: .cfa -16 + ^ .cfa: $rsp 16 +
STACK CFI 7aa0e .cfa: $rsp 8 +
STACK CFI 7aa10 .cfa: $rsp 16 +
STACK CFI 7aa23 .cfa: $rsp 8 +
STACK CFI INIT 7aa30 3c .cfa: $rsp 8 + .ra: .cfa -8 + ^
STACK CFI 7aa31 $rbp: .cfa -16 + ^ .cfa: $rsp 16 +
STACK CFI 7aa34 $rbx: .cfa -24 + ^ .cfa: $rsp 24 +
STACK CFI 7aa3b .cfa: $rsp 32 +
STACK CFI 7aa69 .cfa: $rsp 24 +
STACK CFI 7aa6a .cfa: $rsp 16 +
STACK CFI 7aa6b .cfa: $rsp 8 +
STACK CFI INIT 7aa70 21 .cfa: $rsp 8 + .ra: .cfa -8 + ^
STACK CFI INIT 7aaa0 21 .cfa: $rsp 8 + .ra: .cfa -8 + ^
STACK CFI INIT 7aad0 eb .cfa: $rsp 8 + .ra: .cfa -8 + ^
STACK CFI 7aad7 $r12: .cfa -16 + ^ .cfa: $rsp 16 +
STACK CFI 7aae5 $rbp: .cfa -24 + ^ .cfa: $rsp 24 +
STACK CFI 7aae8 $rbx: .cfa -32 + ^ .cfa: $rsp 32 +
STACK CFI 7ab2e .cfa: $rsp 24 +
STACK CFI 7ab2f .cfa: $rsp 16 +
STACK CFI 7ab31 .cfa: $rsp 8 +
STACK CFI 7ab38 .cfa: $rsp 32 +
STACK CFI 7ab90 .cfa: $rsp 24 +
STACK CFI 7ab91 .cfa: $rsp 16 +
STACK CFI 7ab9d .cfa: $rsp 8 +
STACK CFI 7aba0 .cfa: $rsp 32 +
STACK CFI 7abb4 .cfa: $rsp 24 +
STACK CFI 7abb5 .cfa: $rsp 16 +
STACK CFI 7abba .cfa: $rsp 8 +
STACK CFI INIT 7abc0 5b .cfa: $rsp 8 + .ra: .cfa -8 + ^
STACK CFI 7abc2 $r12: .cfa -16 + ^ .cfa: $rsp 16 +
STACK CFI 7abc6 $rbp: .cfa -24 + ^ .cfa: $rsp 24 +
STACK CFI 7abcc .cfa: $rsp 32 +
STACK CFI 7ac14 .cfa: $rsp 24 +
STACK CFI 7ac18 .cfa: $rsp 16 +
STACK CFI 7ac1a .cfa: $rsp 8 +
STACK CFI INIT 7ac20 c1 .cfa: $rsp 8 + .ra: .cfa -8 + ^
STACK CFI 7ac31 .cfa: $rsp 16 +
STACK CFI 7acd9 .cfa: $rsp 8 +
STACK CFI INIT 7acf0 80 .cfa: $rsp 8 + .ra: .cfa -8 + ^
STACK CFI 7acf1 $rbx: .cfa -16 + ^ .cfa: $rsp 16 +
STACK CFI 7ad34 .cfa: $rsp 8 +
STACK CFI 7ad38 .cfa: $rsp 16 +
STACK CFI 7ad3d .cfa: $rsp 8 +
STACK CFI 7ad48 .cfa: $rsp 16 +
STACK CFI 7ad59 .cfa: $rsp 8 +
STACK CFI 7ad60 .cfa: $rsp 16 +
STACK CFI INIT 7ad70 ac .cfa: $rsp 8 + .ra: .cfa -8 + ^
STACK CFI 7ad72 $r12: .cfa -16 + ^ .cfa: $rsp 16 +
STACK CFI 7ad73 $rbp: .cfa -24 + ^ .cfa: $rsp 24 +
STACK CFI 7ad7b $rbx: .cfa -32 + ^ .cfa: $rsp 32 +
STACK CFI 7ae11 .cfa: $rsp 24 +
STACK CFI 7ae12 .cfa: $rsp 16 +
STACK CFI 7ae14 .cfa: $rsp 8 +
STACK CFI 7ae18 .cfa: $rsp 32 +
STACK CFI INIT 7ae20 77 .cfa: $rsp 8 + .ra: .cfa -8 + ^
STACK CFI 7ae21 $rbp: .cfa -16 + ^ .cfa: $rsp 16 +
STACK CFI 7ae25 $rbx: .cfa -24 + ^ .cfa: $rsp 24 +
STACK CFI 7ae2c .cfa: $rsp 32 +
STACK CFI 7ae82 .cfa: $rsp 24 +
STACK CFI 7ae87 .cfa: $rsp 16 +
STACK CFI 7ae88 .cfa: $rsp 8 +
STACK CFI 7ae90 .cfa: $rsp 32 +
STACK CFI 7ae94 .cfa: $rsp 24 +
STACK CFI 7ae95 .cfa: $rsp 16 +
STACK CFI 7ae96 .cfa: $rsp 8 +
STACK CFI INIT 7aea0 b7 .cfa: $rsp 8 + .ra: .cfa -8 + ^
STACK CFI 7aea1 $rbp: .cfa -16 + ^ .cfa: $rsp 16 +
STACK CFI 7aea5 $rbx: .cfa -24 + ^ .cfa: $rsp 24 +
STACK CFI 7aeac .cfa: $rsp 32 +
STACK CFI 7af25 .cfa: $rsp 24 +
STACK CFI 7af2a .cfa: $rsp 16 +
STACK CFI 7af2b .cfa: $rsp 8 +
STACK CFI 7af30 .cfa: $rsp 32 +
STACK CFI 7af44 .cfa: $rsp 24 +
STACK CFI 7af45 .cfa: $rsp 16 +
STACK CFI 7af46 .cfa: $rsp 8 +
STACK CFI 7af50 .cfa: $rsp 32 +
STACK CFI 7af54 .cfa: $rsp 24 +
STACK CFI 7af55 .cfa: $rsp 16 +
STACK CFI 7af56 .cfa: $rsp 8 +
STACK CFI INIT 7af60 119 .cfa: $rsp 8 + .ra: .cfa -8 + ^
STACK CFI 7af62 $r13: .cfa -16 + ^ .cfa: $rsp 16 +
STACK CFI 7af67 $r12: .cfa -24 + ^ .cfa: $rsp 24 +
STACK CFI 7af68 $rbp: .cfa -32 + ^ .cfa: $rsp 32 +
STACK CFI 7af6c $rbx: .cfa -40 + ^ .cfa: $rsp 40 +
STACK CFI 7af73 .cfa: $rsp 48 +
STACK CFI 7afee .cfa: $rsp 40 +
STACK CFI 7afef .cfa: $rsp 32 +
STACK CFI 7aff0 .cfa: $rsp 24 +
STACK CFI 7aff2 .cfa: $rsp 16 +
STACK CFI 7aff4 .cfa: $rsp 8 +
STACK CFI 7aff8 .cfa: $rsp 48 +
STACK CFI 7b023 .cfa: $rsp 40 +
STACK CFI 7b024 .cfa: $rsp 32 +
STACK CFI 7b025 .cfa: $rsp 24 +
STACK CFI 7b027 .cfa: $rsp 16 +
STACK CFI 7b029 .cfa: $rsp 8 +
STACK CFI 7b030 .cfa: $rsp 48 +
STACK CFI 7b040 .cfa: $rsp 40 +
STACK CFI 7b041 .cfa: $rsp 32 +
STACK CFI 7b042 .cfa: $rsp 24 +
STACK CFI 7b044 .cfa: $rsp 16 +
STACK CFI 7b046 .cfa: $rsp 8 +
STACK CFI 7b050 .cfa: $rsp 48 +
STACK CFI 7b064 .cfa: $rsp 40 +
STACK CFI 7b065 .cfa: $rsp 32 +
STACK CFI 7b066 .cfa: $rsp 24 +
STACK CFI 7b068 .cfa: $rsp 16 +
STACK CFI 7b06a .cfa: $rsp 8 +
STACK CFI 7b070 .cfa: $rsp 48 +
STACK CFI INIT 7b080 129 .cfa: $rsp 8 + .ra: .cfa -8 + ^
STACK CFI 7b082 $r13: .cfa -16 + ^ .cfa: $rsp 16 +
STACK CFI 7b087 $r12: .cfa -24 + ^ .cfa: $rsp 24 +
STACK CFI 7b088 $rbp: .cfa -32 + ^ .cfa: $rsp 32 +
STACK CFI 7b08c $rbx: .cfa -40 + ^ .cfa: $rsp 40 +
STACK CFI 7b093 .cfa: $rsp 48 +
STACK CFI 7b144 .cfa: $rsp 40 +
STACK CFI 7b148 .cfa: $rsp 32 +
STACK CFI 7b149 .cfa: $rsp 24 +
STACK CFI 7b14b .cfa: $rsp 16 +
STACK CFI 7b14d .cfa: $rsp 8 +
STACK CFI 7b150 .cfa: $rsp 48 +
STACK CFI INIT 7b1b0 51 .cfa: $rsp 8 + .ra: .cfa -8 + ^
STACK CFI 7b1b8 $rbx: .cfa -16 + ^ .cfa: $rsp 16 +
STACK CFI 7b1ef .cfa: $rsp 8 +
STACK CFI 7b1f8 .cfa: $rsp 16 +
STACK CFI 7b200 .cfa: $rsp 8 +
STACK CFI INIT 7b210 87 .cfa: $rsp 8 + .ra: .cfa -8 + ^
STACK CFI 7b211 $rbp: .cfa -16 + ^ .cfa: $rsp 16 +
STACK CFI 7b212 $rbx: .cfa -24 + ^ .cfa: $rsp 24 +
STACK CFI 7b219 .cfa: $rsp 32 +
STACK CFI 7b281 .cfa: $rsp 24 +
STACK CFI 7b286 .cfa: $rsp 16 +
STACK CFI 7b287 .cfa: $rsp 8 +
STACK CFI 7b290 .cfa: $rsp 32 +
STACK CFI 7b294 .cfa: $rsp 24 +
STACK CFI 7b295 .cfa: $rsp 16 +
STACK CFI 7b296 .cfa: $rsp 8 +
STACK CFI INIT 7b2a0 c7 .cfa: $rsp 8 + .ra: .cfa -8 + ^
STACK CFI 7b2a9 $r12: .cfa -16 + ^ .cfa: $rsp 16 +
STACK CFI 7b2ad $rbp: .cfa -24 + ^ .cfa: $rsp 24 +
STACK CFI 7b2b5 $rbx: .cfa -32 + ^ .cfa: $rsp 32 +
STACK CFI 7b32b .cfa: $rsp 24 +
STACK CFI 7b337 .cfa: $rsp 16 +
STACK CFI 7b339 .cfa: $rsp 8 +
STACK CFI 7b340 .cfa: $rsp 32 +
STACK CFI 7b351 .cfa: $rsp 24 +
STACK CFI 7b352 .cfa: $rsp 16 +
STACK CFI 7b354 .cfa: $rsp 8 +
STACK CFI 7b358 .cfa: $rsp 32 +
STACK CFI INIT 7b370 6f .cfa: $rsp 8 + .ra: .cfa -8 + ^
STACK CFI 7b379 $r12: .cfa -16 + ^ .cfa: $rsp 16 +
STACK CFI 7b3b1 .cfa: $rsp 8 +
STACK CFI 7b3c0 .cfa: $rsp 16 +
STACK CFI 7b3c5 .cfa: $rsp 8 +
STACK CFI 7b3d0 .cfa: $rsp 16 +
STACK CFI 7b3da .cfa: $rsp 8 +
STACK CFI INIT 7b3e0 d .cfa: $rsp 8 + .ra: .cfa -8 + ^
STACK CFI INIT 7b3f0 f2 .cfa: $rsp 8 + .ra: .cfa -8 + ^
STACK CFI 7b3f1 $rbp: .cfa -16 + ^ .cfa: $rsp 16 +
STACK CFI 7b49a .cfa: $rsp 8 +
STACK CFI 7b4a0 .cfa: $rsp 16 +
STACK CFI INIT 7b4f0 4d .cfa: $rsp 8 + .ra: .cfa -8 + ^
STACK CFI 7b4f9 $r12: .cfa -16 + ^ .cfa: $rsp 16 +
STACK CFI 7b53c .cfa: $rsp 8 +
STACK CFI INIT 7b540 1a8 .cfa: $rsp 8 + .ra: .cfa -8 + ^
STACK CFI 7b542 $r12: .cfa -16 + ^ .cfa: $rsp 16 +
STACK CFI 7b543 $rbp: .cfa -24 + ^ .cfa: $rsp 24 +
STACK CFI 7b54a .cfa: $rsp 32 +
STACK CFI 7b672 .cfa: $rsp 24 +
STACK CFI 7b675 .cfa: $rsp 16 +
STACK CFI 7b677 .cfa: $rsp 8 +
STACK CFI 7b680 .cfa: $rsp 32 +
STACK CFI INIT 7b6f0 1b5 .cfa: $rsp 8 + .ra: .cfa -8 + ^
STACK CFI 7b6f2 $r13: .cfa -16 + ^ .cfa: $rsp 16 +
STACK CFI 7b6f4 $r12: .cfa -24 + ^ .cfa: $rsp 24 +
STACK CFI 7b6f5 $rbp: .cfa -32 + ^ .cfa: $rsp 32 +
STACK CFI 7b6f9 $rbx: .cfa -40 + ^ .cfa: $rsp 40 +
STACK CFI 7b700 .cfa: $rsp 48 +
STACK CFI 7b89e .cfa: $rsp 40 +
STACK CFI 7b89f .cfa: $rsp 32 +
STACK CFI 7b8a0 .cfa: $rsp 24 +
STACK CFI 7b8a2 .cfa: $rsp 16 +
STACK CFI 7b8a4 .cfa: $rsp 8 +
STACK CFI INIT 7b8b0 66 .cfa: $rsp 8 + .ra: .cfa -8 + ^
STACK CFI 7b8b9 $r13: .cfa -16 + ^ .cfa: $rsp 16 +
STACK CFI 7b8be $r12: .cfa -24 + ^ .cfa: $rsp 24 +
STACK CFI 7b8c2 $rbp: .cfa -32 + ^ .cfa: $rsp 32 +
STACK CFI 7b8f7 .cfa: $rsp 24 +
STACK CFI 7b904 .cfa: $rsp 16 +
STACK CFI 7b906 .cfa: $rsp 8 +
STACK CFI 7b910 .cfa: $rsp 32 +
STACK CFI 7b911 .cfa: $rsp 24 +
STACK CFI 7b913 .cfa: $rsp 16 +
STACK CFI 7b915 .cfa: $rsp 8 +
STACK CFI INIT 7b920 31c .cfa: $rsp 8 + .ra: .cfa -8 + ^
STACK CFI 7b922 $r13: .cfa -16 + ^ .cfa: $rsp 16 +
STACK CFI 7b929 $r12: .cfa -24 + ^ .cfa: $rsp 24 +
STACK CFI 7b92d $rbp: .cfa -32 + ^ .cfa: $rsp 32 +
STACK CFI 7b930 $rbx: .cfa -40 + ^ .cfa: $rsp 40 +
STACK CFI 7b934 .cfa: $rsp 48 +
STACK CFI 7b996 .cfa: $rsp 40 +
STACK CFI 7b99a .cfa: $rsp 32 +
STACK CFI 7b99b .cfa: $rsp 24 +
STACK CFI 7b99d .cfa: $rsp 16 +
STACK CFI 7b99f .cfa: $rsp 8 +
STACK CFI 7b9a0 .cfa: $rsp 48 +
STACK CFI 7ba78 .cfa: $rsp 40 +
STACK CFI 7ba7c .cfa: $rsp 32 +
STACK CFI 7ba7d .cfa: $rsp 24 +
STACK CFI 7ba7f .cfa: $rsp 16 +
STACK CFI 7ba81 .cfa: $rsp 8 +
STACK CFI 7ba88 .cfa: $rsp 48 +
STACK CFI 7baa1 .cfa: $rsp 40 +
STACK CFI 7baa9 .cfa: $rsp 32 +
STACK CFI 7baac .cfa: $rsp 24 +
STACK CFI 7baae .cfa: $rsp 16 +
STACK CFI 7bab0 .cfa: $rsp 8 +
STACK CFI 7bab8 .cfa: $rsp 48 +
STACK CFI 7bbcb .cfa: $rsp 40 +
STACK CFI 7bbcf .cfa: $rsp 32 +
STACK CFI 7bbd0 .cfa: $rsp 24 +
STACK CFI 7bbd2 .cfa: $rsp 16 +
STACK CFI 7bbd4 .cfa: $rsp 8 +
STACK CFI 7bbd8 .cfa: $rsp 48 +
STACK CFI INIT 7bc40 5d .cfa: $rsp 8 + .ra: .cfa -8 + ^
STACK CFI 7bc42 $r12: .cfa -16 + ^ .cfa: $rsp 16 +
STACK CFI 7bc46 $rbp: .cfa -24 + ^ .cfa: $rsp 24 +
STACK CFI 7bc4d .cfa: $rsp 32 +
STACK CFI 7bc96 .cfa: $rsp 24 +
STACK CFI 7bc9a .cfa: $rsp 16 +
STACK CFI 7bc9c .cfa: $rsp 8 +
STACK CFI INIT 7bca0 4d .cfa: $rsp 8 + .ra: .cfa -8 + ^
STACK CFI 7bca9 $r12: .cfa -16 + ^ .cfa: $rsp 16 +
STACK CFI 7bcec .cfa: $rsp 8 +
STACK CFI INIT 7bcf0 13 .cfa: $rsp 8 + .ra: .cfa -8 + ^
STACK CFI INIT 7bd10 44 .cfa: $rsp 8 + .ra: .cfa -8 + ^
STACK CFI 7bd12 $r12: .cfa -16 + ^ .cfa: $rsp 16 +
STACK CFI 7bd16 $rbp: .cfa -24 + ^ .cfa: $rsp 24 +
STACK CFI 7bd1a $rbx: .cfa -32 + ^ .cfa: $rsp 32 +
STACK CFI 7bd50 .cfa: $rsp 24 +
STACK CFI 7bd51 .cfa: $rsp 16 +
STACK CFI 7bd53 .cfa: $rsp 8 +
STACK CFI INIT 7bd60 b .cfa: $rsp 8 + .ra: .cfa -8 + ^
STACK CFI INIT 7bd70 8 .cfa: $rsp 8 + .ra: .cfa -8 + ^
STACK CFI INIT 7bd80 c .cfa: $rsp 8 + .ra: .cfa -8 + ^
STACK CFI INIT 7bd90 a8 .cfa: $rsp 8 + .ra: .cfa -8 + ^
STACK CFI 7bd99 $r12: .cfa -16 + ^ .cfa: $rsp 16 +
STACK CFI 7bd9d $rbp: .cfa -24 + ^ .cfa: $rsp 24 +
STACK CFI 7bda1 $rbx: .cfa -32 + ^ .cfa: $rsp 32 +
STACK CFI 7bdf1 .cfa: $rsp 24 +
STACK CFI 7bdf2 .cfa: $rsp 16 +
STACK CFI 7bdf4 .cfa: $rsp 8 +
STACK CFI 7bdf8 .cfa: $rsp 32 +
STACK CFI 7be28 .cfa: $rsp 24 +
STACK CFI 7be34 .cfa: $rsp 16 +
STACK CFI 7be36 .cfa: $rsp 8 +
STACK CFI INIT 7be40 1e6 .cfa: $rsp 8 + .ra: .cfa -8 + ^
STACK CFI 7be42 $r14: .cfa -16 + ^ .cfa: $rsp 16 +
STACK CFI 7be46 $r13: .cfa -24 + ^ .cfa: $rsp 24 +
STACK CFI 7be50 $r12: .cfa -32 + ^ .cfa: $rsp 32 +
STACK CFI 7be59 $rbp: .cfa -40 + ^ .cfa: $rsp 40 +
STACK CFI 7be60 $rbx: .cfa -48 + ^ .cfa: $rsp 48 +
STACK CFI 7bfc8 .cfa: $rsp 40 +
STACK CFI 7bfcc .cfa: $rsp 32 +
STACK CFI 7bfce .cfa: $rsp 24 +
STACK CFI 7bfd0 .cfa: $rsp 16 +
STACK CFI 7bfd2 .cfa: $rsp 8 +
STACK CFI 7bfd3 .cfa: $rsp 48 +
STACK CFI 7bfd7 .cfa: $rsp 40 +
STACK CFI 7bfd8 .cfa: $rsp 32 +
STACK CFI 7bfdd .cfa: $rsp 24 +
STACK CFI 7bfdf .cfa: $rsp 16 +
STACK CFI 7bfe1 .cfa: $rsp 8 +
STACK CFI 7bfe2 .cfa: $rsp 48 +
STACK CFI 7bffa .cfa: $rsp 40 +
STACK CFI 7bffe .cfa: $rsp 32 +
STACK CFI 7c000 .cfa: $rsp 24 +
STACK CFI 7c002 .cfa: $rsp 16 +
STACK CFI 7c004 .cfa: $rsp 8 +
STACK CFI 7c005 .cfa: $rsp 48 +
STACK CFI INIT 7c030 c1 .cfa: $rsp 8 + .ra: .cfa -8 + ^
STACK CFI 7c048 $r12: .cfa -16 + ^ .cfa: $rsp 16 +
STACK CFI 7c053 $rbp: .cfa -24 + ^ .cfa: $rsp 24 +
STACK CFI 7c05a $rbx: .cfa -32 + ^ .cfa: $rsp 32 +
STACK CFI 7c0ce .cfa: $rsp 24 +
STACK CFI 7c0cf .cfa: $rsp 16 +
STACK CFI 7c0d1 .cfa: $rsp 8 +
STACK CFI 7c0d8 .cfa: $rsp 32 +
STACK CFI 7c0e3 .cfa: $rsp 24 +
STACK CFI 7c0e9 .cfa: $rsp 16 +
STACK CFI 7c0eb .cfa: $rsp 8 +
STACK CFI 7c0f0 $r12: $r12 $rbp: $rbp $rbx: $rbx
STACK CFI INIT 7c100 1ee .cfa: $rsp 8 + .ra: .cfa -8 + ^
STACK CFI 7c102 $r14: .cfa -16 + ^ .cfa: $rsp 16 +
STACK CFI 7c104 $r13: .cfa -24 + ^ .cfa: $rsp 24 +
STACK CFI 7c106 $r12: .cfa -32 + ^ .cfa: $rsp 32 +
STACK CFI 7c10a $rbp: .cfa -40 + ^ .cfa: $rsp 40 +
STACK CFI 7c10b $rbx: .cfa -48 + ^ .cfa: $rsp 48 +
STACK CFI 7c29f .cfa: $rsp 40 +
STACK CFI 7c2a3 .cfa: $rsp 32 +
STACK CFI 7c2a5 .cfa: $rsp 24 +
STACK CFI 7c2a7 .cfa: $rsp 16 +
STACK CFI 7c2a9 .cfa: $rsp 8 +
STACK CFI 7c2b0 .cfa: $rsp 48 +
STACK CFI 7c2c6 .cfa: $rsp 40 +
STACK CFI 7c2c7 .cfa: $rsp 32 +
STACK CFI 7c2cc .cfa: $rsp 24 +
STACK CFI 7c2ce .cfa: $rsp 16 +
STACK CFI 7c2d0 .cfa: $rsp 8 +
STACK CFI 7c2d8 .cfa: $rsp 48 +
STACK CFI 7c2e3 .cfa: $rsp 40 +
STACK CFI 7c2e7 .cfa: $rsp 32 +
STACK CFI 7c2e9 .cfa: $rsp 24 +
STACK CFI 7c2eb .cfa: $rsp 16 +
STACK CFI 7c2ed .cfa: $rsp 8 +
STACK CFI INIT 7c2f0 5d .cfa: $rsp 8 + .ra: .cfa -8 + ^
STACK CFI 7c2f2 $r12: .cfa -16 + ^ .cfa: $rsp 16 +
STACK CFI 7c2f3 $rbp: .cfa -24 + ^ .cfa: $rsp 24 +
STACK CFI 7c2f4 $rbx: .cfa -32 + ^ .cfa: $rsp 32 +
STACK CFI 7c33c .cfa: $rsp 24 +
STACK CFI 7c33d .cfa: $rsp 16 +
STACK CFI 7c33f .cfa: $rsp 8 +
STACK CFI 7c348 .cfa: $rsp 32 +
STACK CFI 7c349 .cfa: $rsp 24 +
STACK CFI 7c34a .cfa: $rsp 16 +
STACK CFI 7c34c .cfa: $rsp 8 +
STACK CFI INIT 7c350 9d .cfa: $rsp 8 + .ra: .cfa -8 + ^
STACK CFI 7c359 $r12: .cfa -16 + ^ .cfa: $rsp 16 +
STACK CFI 7c35a $rbp: .cfa -24 + ^ .cfa: $rsp 24 +
STACK CFI 7c35e $rbx: .cfa -32 + ^ .cfa: $rsp 32 +
STACK CFI 7c3d5 .cfa: $rsp 24 +
STACK CFI 7c3e1 .cfa: $rsp 16 +
STACK CFI 7c3e3 .cfa: $rsp 8 +
STACK CFI 7c3e8 .cfa: $rsp 32 +
STACK CFI 7c3e9 .cfa: $rsp 24 +
STACK CFI 7c3ea .cfa: $rsp 16 +
STACK CFI 7c3ec .cfa: $rsp 8 +
STACK CFI INIT 7c3f0 ee .cfa: $rsp 8 + .ra: .cfa -8 + ^
STACK CFI 7c3f1 $rbp: .cfa -16 + ^ .cfa: $rsp 16 +
STACK CFI 7c3f2 $rbx: .cfa -24 + ^ .cfa: $rsp 24 +
STACK CFI 7c3f6 .cfa: $rsp 32 +
STACK CFI 7c4d9 .cfa: $rsp 24 +
STACK CFI 7c4dc .cfa: $rsp 16 +
STACK CFI 7c4dd .cfa: $rsp 8 +
STACK CFI INIT 7c4e0 66 .cfa: $rsp 8 + .ra: .cfa -8 + ^
STACK CFI 7c4e2 $r12: .cfa -16 + ^ .cfa: $rsp 16 +
STACK CFI 7c4e3 $rbx: .cfa -24 + ^ .cfa: $rsp 24 +
STACK CFI 7c4e7 .cfa: $rsp 32 +
STACK CFI 7c52b .cfa: $rsp 24 +
STACK CFI 7c52f .cfa: $rsp 16 +
STACK CFI 7c531 .cfa: $rsp 8 +
STACK CFI 7c538 .cfa: $rsp 32 +
STACK CFI 7c53f .cfa: $rsp 24 +
STACK CFI 7c543 .cfa: $rsp 16 +
STACK CFI 7c545 .cfa: $rsp 8 +
STACK CFI INIT 7c550 95 .cfa: $rsp 8 + .ra: .cfa -8 + ^
STACK CFI 7c552 $r12: .cfa -16 + ^ .cfa: $rsp 16 +
STACK CFI 7c556 $rbx: .cfa -24 + ^ .cfa: $rsp 24 +
STACK CFI 7c55a .cfa: $rsp 32 +
STACK CFI 7c5d4 .cfa: $rsp 24 +
STACK CFI 7c5d8 .cfa: $rsp 16 +
STACK CFI 7c5da .cfa: $rsp 8 +
STACK CFI 7c5e0 .cfa: $rsp 32 +
STACK CFI INIT 7c5f0 128 .cfa: $rsp 8 + .ra: .cfa -8 + ^
STACK CFI 7c5f2 $r12: .cfa -16 + ^ .cfa: $rsp 16 +
STACK CFI 7c5fa $rbp: .cfa -24 + ^ .cfa: $rsp 24 +
STACK CFI 7c5fe $rbx: .cfa -32 + ^ .cfa: $rsp 32 +
STACK CFI 7c681 .cfa: $rsp 24 +
STACK CFI 7c682 .cfa: $rsp 16 +
STACK CFI 7c684 .cfa: $rsp 8 +
STACK CFI 7c688 .cfa: $rsp 32 +
STACK CFI 7c707 .cfa: $rsp 24 +
STACK CFI 7c708 .cfa: $rsp 16 +
STACK CFI 7c717 .cfa: $rsp 8 +
STACK CFI INIT 7c720 1db .cfa: $rsp 8 + .ra: .cfa -8 + ^
STACK CFI 7c722 $r13: .cfa -16 + ^ .cfa: $rsp 16 +
STACK CFI 7c724 $r12: .cfa -24 + ^ .cfa: $rsp 24 +
STACK CFI 7c725 $rbp: .cfa -32 + ^ .cfa: $rsp 32 +
STACK CFI 7c726 $rbx: .cfa -40 + ^ .cfa: $rsp 40 +
STACK CFI 7c72a .cfa: $rsp 48 +
STACK CFI 7c749 .cfa: $rsp 40 +
STACK CFI 7c74d .cfa: $rsp 32 +
STACK CFI 7c74e .cfa: $rsp 24 +
STACK CFI 7c750 .cfa: $rsp 16 +
STACK CFI 7c752 .cfa: $rsp 8 +
STACK CFI 7c758 .cfa: $rsp 48 +
STACK CFI 7c85c .cfa: $rsp 40 +
STACK CFI 7c863 .cfa: $rsp 32 +
STACK CFI 7c867 .cfa: $rsp 24 +
STACK CFI 7c869 .cfa: $rsp 16 +
STACK CFI 7c86b .cfa: $rsp 8 +
STACK CFI 7c870 .cfa: $rsp 48 +
STACK CFI 7c8f1 .cfa: $rsp 40 +
STACK CFI 7c8f2 .cfa: $rsp 32 +
STACK CFI 7c8f6 .cfa: $rsp 24 +
STACK CFI 7c8f8 .cfa: $rsp 16 +
STACK CFI 7c8fa .cfa: $rsp 8 +
STACK CFI INIT 7c900 165 .cfa: $rsp 8 + .ra: .cfa -8 + ^
STACK CFI 7c909 $r12: .cfa -16 + ^ .cfa: $rsp 16 +
STACK CFI 7c90a $rbp: .cfa -24 + ^ .cfa: $rsp 24 +
STACK CFI 7c90e $rbx: .cfa -32 + ^ .cfa: $rsp 32 +
STACK CFI 7c9c6 .cfa: $rsp 24 +
STACK CFI 7c9c7 .cfa: $rsp 16 +
STACK CFI 7c9c9 .cfa: $rsp 8 +
STACK CFI 7c9d0 .cfa: $rsp 32 +
STACK CFI INIT 7ca70 2fd .cfa: $rsp 8 + .ra: .cfa -8 + ^
STACK CFI 7ca72 $r15: .cfa -16 + ^ .cfa: $rsp 16 +
STACK CFI 7ca7f $r14: .cfa -24 + ^ .cfa: $rsp 24 +
STACK CFI 7ca81 $r13: .cfa -32 + ^ .cfa: $rsp 32 +
STACK CFI 7ca86 $r12: .cfa -40 + ^ .cfa: $rsp 40 +
STACK CFI 7ca87 $rbp: .cfa -48 + ^ .cfa: $rsp 48 +
STACK CFI 7ca88 $rbx: .cfa -56 + ^ .cfa: $rsp 56 +
STACK CFI 7ca8f .cfa: $rsp 16448 +
STACK CFI 7cc42 .cfa: $rsp 56 +
STACK CFI 7cc43 .cfa: $rsp 48 +
STACK CFI 7cc44 .cfa: $rsp 40 +
STACK CFI 7cc46 .cfa: $rsp 32 +
STACK CFI 7cc48 .cfa: $rsp 24 +
STACK CFI 7cc4a .cfa: $rsp 16 +
STACK CFI 7cc4c .cfa: $rsp 8 +
STACK CFI 7cc50 .cfa: $rsp 16448 +
STACK CFI INIT 7cd70 7d2 .cfa: $rsp 8 + .ra: .cfa -8 + ^
STACK CFI 7cd72 $r15: .cfa -16 + ^ .cfa: $rsp 16 +
STACK CFI 7cd74 $r14: .cfa -24 + ^ .cfa: $rsp 24 +
STACK CFI 7cd76 $r13: .cfa -32 + ^ .cfa: $rsp 32 +
STACK CFI 7cd78 $r12: .cfa -40 + ^ .cfa: $rsp 40 +
STACK CFI 7cd79 $rbp: .cfa -48 + ^ .cfa: $rsp 48 +
STACK CFI 7cd7a $rbx: .cfa -56 + ^ .cfa: $rsp 56 +
STACK CFI 7cd84 .cfa: $rsp 1120 +
STACK CFI 7ce84 .cfa: $rsp 56 +
STACK CFI 7ce85 .cfa: $rsp 48 +
STACK CFI 7ce86 .cfa: $rsp 40 +
STACK CFI 7ce88 .cfa: $rsp 32 +
STACK CFI 7ce8a .cfa: $rsp 24 +
STACK CFI 7ce8c .cfa: $rsp 16 +
STACK CFI 7ce8e .cfa: $rsp 8 +
STACK CFI 7ce90 .cfa: $rsp 1120 +
STACK CFI INIT 7d550 5d .cfa: $rsp 8 + .ra: .cfa -8 + ^
STACK CFI 7d559 $r13: .cfa -16 + ^ .cfa: $rsp 16 +
STACK CFI 7d55e $r12: .cfa -24 + ^ .cfa: $rsp 24 +
STACK CFI 7d562 $rbp: .cfa -32 + ^ .cfa: $rsp 32 +
STACK CFI 7d5a8 .cfa: $rsp 24 +
STACK CFI 7d5aa .cfa: $rsp 16 +
STACK CFI 7d5ac .cfa: $rsp 8 +
STACK CFI INIT 7d5b0 63 .cfa: $rsp 8 + .ra: .cfa -8 + ^
STACK CFI 7d5b2 $r12: .cfa -16 + ^ .cfa: $rsp 16 +
STACK CFI 7d5b6 $rbp: .cfa -24 + ^ .cfa: $rsp 24 +
STACK CFI 7d5ba .cfa: $rsp 32 +
STACK CFI 7d60c .cfa: $rsp 24 +
STACK CFI 7d610 .cfa: $rsp 16 +
STACK CFI 7d612 .cfa: $rsp 8 +
STACK CFI INIT 7d620 63 .cfa: $rsp 8 + .ra: .cfa -8 + ^
STACK CFI 7d622 $r12: .cfa -16 + ^ .cfa: $rsp 16 +
STACK CFI 7d626 $rbp: .cfa -24 + ^ .cfa: $rsp 24 +
STACK CFI 7d62a .cfa: $rsp 32 +
STACK CFI 7d67c .cfa: $rsp 24 +
STACK CFI 7d680 .cfa: $rsp 16 +
STACK CFI 7d682 .cfa: $rsp 8 +
STACK CFI INIT 7d690 ee .cfa: $rsp 8 + .ra: .cfa -8 + ^
STACK CFI 7d692 $r12: .cfa -16 + ^ .cfa: $rsp 16 +
STACK CFI 7d693 $rbp: .cfa -24 + ^ .cfa: $rsp 24 +
STACK CFI 7d69a .cfa: $rsp 240 +
STACK CFI 7d777 .cfa: $rsp 24 +
STACK CFI 7d77b .cfa: $rsp 16 +
STACK CFI 7d77d .cfa: $rsp 8 +
STACK CFI INIT 7d780 6a .cfa: $rsp 8 + .ra: .cfa -8 + ^
STACK CFI 7d782 $r12: .cfa -16 + ^ .cfa: $rsp 16 +
STACK CFI 7d786 .cfa: $rsp 32 +
STACK CFI 7d7e4 .cfa: $rsp 16 +
STACK CFI 7d7e9 .cfa: $rsp 8 +
STACK CFI INIT 7d7f0 68 .cfa: $rsp 8 + .ra: .cfa -8 + ^
STACK CFI 7d7f2 $r12: .cfa -16 + ^ .cfa: $rsp 16 +
STACK CFI 7d7f3 $rbp: .cfa -24 + ^ .cfa: $rsp 24 +
STACK CFI 7d7f7 .cfa: $rsp 32 +
STACK CFI 7d851 .cfa: $rsp 24 +
STACK CFI 7d855 .cfa: $rsp 16 +
STACK CFI 7d857 .cfa: $rsp 8 +
STACK CFI INIT 7d860 80 .cfa: $rsp 8 + .ra: .cfa -8 + ^
STACK CFI 7d862 $r12: .cfa -16 + ^ .cfa: $rsp 16 +
STACK CFI 7d863 $rbp: .cfa -24 + ^ .cfa: $rsp 24 +
STACK CFI 7d867 .cfa: $rsp 32 +
STACK CFI 7d8cb .cfa: $rsp 24 +
STACK CFI 7d8cf .cfa: $rsp 16 +
STACK CFI 7d8d1 .cfa: $rsp 8 +
STACK CFI 7d8d8 .cfa: $rsp 32 +
STACK CFI INIT 7d8e0 80 .cfa: $rsp 8 + .ra: .cfa -8 + ^
STACK CFI 7d8e2 $r12: .cfa -16 + ^ .cfa: $rsp 16 +
STACK CFI 7d8e3 $rbp: .cfa -24 + ^ .cfa: $rsp 24 +
STACK CFI 7d8e7 .cfa: $rsp 32 +
STACK CFI 7d94b .cfa: $rsp 24 +
STACK CFI 7d94f .cfa: $rsp 16 +
STACK CFI 7d951 .cfa: $rsp 8 +
STACK CFI 7d958 .cfa: $rsp 32 +
STACK CFI INIT 7d960 118 .cfa: $rsp 8 + .ra: .cfa -8 + ^
STACK CFI 7d962 $r12: .cfa -16 + ^ .cfa: $rsp 16 +
STACK CFI 7d963 $rbp: .cfa -24 + ^ .cfa: $rsp 24 +
STACK CFI 7d96a .cfa: $rsp 240 +
STACK CFI 7da63 .cfa: $rsp 24 +
STACK CFI 7da67 .cfa: $rsp 16 +
STACK CFI 7da69 .cfa: $rsp 8 +
STACK CFI 7da70 .cfa: $rsp 240 +
STACK CFI INIT 7da80 16c .cfa: $rsp 8 + .ra: .cfa -8 + ^
STACK CFI 7da82 $r12: .cfa -16 + ^ .cfa: $rsp 16 +
STACK CFI 7da86 $rbp: .cfa -24 + ^ .cfa: $rsp 24 +
STACK CFI 7da87 $rbx: .cfa -32 + ^ .cfa: $rsp 32 +
STACK CFI 7da8e .cfa: $rsp 240 +
STACK CFI 7dbc5 .cfa: $rsp 32 +
STACK CFI 7dbc9 .cfa: $rsp 24 +
STACK CFI 7dbca .cfa: $rsp 16 +
STACK CFI 7dbcc .cfa: $rsp 8 +
STACK CFI 7dbd0 .cfa: $rsp 240 +
STACK CFI 7dbe4 .cfa: $rsp 32 +
STACK CFI 7dbe8 .cfa: $rsp 24 +
STACK CFI 7dbe9 .cfa: $rsp 16 +
STACK CFI 7dbeb .cfa: $rsp 8 +
STACK CFI INIT 7dbf0 102 .cfa: $rsp 8 + .ra: .cfa -8 + ^
STACK CFI 7dbf9 $r12: .cfa -16 + ^ .cfa: $rsp 16 +
STACK CFI 7dbfa $rbp: .cfa -24 + ^ .cfa: $rsp 24 +
STACK CFI 7dbfb $rbx: .cfa -32 + ^ .cfa: $rsp 32 +
STACK CFI 7dcb0 .cfa: $rsp 24 +
STACK CFI 7dcb1 .cfa: $rsp 16 +
STACK CFI 7dcb3 .cfa: $rsp 8 +
STACK CFI 7dcb8 .cfa: $rsp 32 +
STACK CFI 7dcbc .cfa: $rsp 24 +
STACK CFI 7dcbd .cfa: $rsp 16 +
STACK CFI 7dcc2 .cfa: $rsp 8 +
STACK CFI 7dcc8 .cfa: $rsp 32 +
STACK CFI 7dcee .cfa: $rsp 24 +
STACK CFI 7dcef .cfa: $rsp 16 +
STACK CFI 7dcf1 .cfa: $rsp 8 +
STACK CFI INIT 7dd00 66 .cfa: $rsp 8 + .ra: .cfa -8 + ^
STACK CFI 7dd02 $r12: .cfa -16 + ^ .cfa: $rsp 16 +
STACK CFI 7dd06 $rbp: .cfa -24 + ^ .cfa: $rsp 24 +
STACK CFI 7dd0a .cfa: $rsp 32 +
STACK CFI 7dd5f .cfa: $rsp 24 +
STACK CFI 7dd63 .cfa: $rsp 16 +
STACK CFI 7dd65 .cfa: $rsp 8 +
STACK CFI INIT 7dd70 68 .cfa: $rsp 8 + .ra: .cfa -8 + ^
STACK CFI 7dd72 $r13: .cfa -16 + ^ .cfa: $rsp 16 +
STACK CFI 7dd74 $r12: .cfa -24 + ^ .cfa: $rsp 24 +
STACK CFI 7dd7b $rbp: .cfa -32 + ^ .cfa: $rsp 32 +
STACK CFI 7ddd3 .cfa: $rsp 24 +
STACK CFI 7ddd5 .cfa: $rsp 16 +
STACK CFI 7ddd7 .cfa: $rsp 8 +
STACK CFI INIT 7dde0 e9 .cfa: $rsp 8 + .ra: .cfa -8 + ^
STACK CFI 7dde2 $r13: .cfa -16 + ^ .cfa: $rsp 16 +
STACK CFI 7dde4 $r12: .cfa -24 + ^ .cfa: $rsp 24 +
STACK CFI 7ddeb $rbp: .cfa -32 + ^ .cfa: $rsp 32 +
STACK CFI 7ddf4 .cfa: $rsp 240 +
STACK CFI 7dec0 .cfa: $rsp 32 +
STACK CFI 7dec4 .cfa: $rsp 24 +
STACK CFI 7dec6 .cfa: $rsp 16 +
STACK CFI 7dec8 .cfa: $rsp 8 +
STACK CFI INIT 7ded0 274 .cfa: $rsp 8 + .ra: .cfa -8 + ^
STACK CFI 7ded2 $r15: .cfa -16 + ^ .cfa: $rsp 16 +
STACK CFI 7ded8 $r14: .cfa -24 + ^ .cfa: $rsp 24 +
STACK CFI 7dedd $r13: .cfa -32 + ^ .cfa: $rsp 32 +
STACK CFI 7dedf $r12: .cfa -40 + ^ .cfa: $rsp 40 +
STACK CFI 7dee3 $rbp: .cfa -48 + ^ .cfa: $rsp 48 +
STACK CFI 7dee7 $rbx: .cfa -56 + ^ .cfa: $rsp 56 +
STACK CFI 7def1 .cfa: $rsp 1104 +
STACK CFI 7e082 .cfa: $rsp 56 +
STACK CFI 7e083 .cfa: $rsp 48 +
STACK CFI 7e084 .cfa: $rsp 40 +
STACK CFI 7e086 .cfa: $rsp 32 +
STACK CFI 7e088 .cfa: $rsp 24 +
STACK CFI 7e08a .cfa: $rsp 16 +
STACK CFI 7e08c .cfa: $rsp 8 +
STACK CFI 7e090 .cfa: $rsp 1104 +
STACK CFI INIT 7e150 79 .cfa: $rsp 8 + .ra: .cfa -8 + ^
STACK CFI 7e159 $r14: .cfa -16 + ^ .cfa: $rsp 16 +
STACK CFI 7e15e $r13: .cfa -24 + ^ .cfa: $rsp 24 +
STACK CFI 7e163 $r12: .cfa -32 + ^ .cfa: $rsp 32 +
STACK CFI 7e167 $rbp: .cfa -40 + ^ .cfa: $rsp 40 +
STACK CFI 7e16b $rbx: .cfa -48 + ^ .cfa: $rsp 48 +
STACK CFI 7e1a4 .cfa: $rsp 40 +
STACK CFI 7e1b0 .cfa: $rsp 32 +
STACK CFI 7e1b2 .cfa: $rsp 24 +
STACK CFI 7e1b4 .cfa: $rsp 16 +
STACK CFI 7e1b6 .cfa: $rsp 8 +
STACK CFI 7e1c0 .cfa: $rsp 48 +
STACK CFI 7e1c1 .cfa: $rsp 40 +
STACK CFI 7e1c2 .cfa: $rsp 32 +
STACK CFI 7e1c4 .cfa: $rsp 24 +
STACK CFI 7e1c6 .cfa: $rsp 16 +
STACK CFI 7e1c8 .cfa: $rsp 8 +
STACK CFI INIT 7e1d0 67c .cfa: $rsp 8 + .ra: .cfa -8 + ^
STACK CFI 7e1d2 $r15: .cfa -16 + ^ .cfa: $rsp 16 +
STACK CFI 7e1d4 $r14: .cfa -24 + ^ .cfa: $rsp 24 +
STACK CFI 7e1d6 $r13: .cfa -32 + ^ .cfa: $rsp 32 +
STACK CFI 7e1db $r12: .cfa -40 + ^ .cfa: $rsp 40 +
STACK CFI 7e1dc $rbp: .cfa -48 + ^ .cfa: $rsp 48 +
STACK CFI 7e1e0 $rbx: .cfa -56 + ^ .cfa: $rsp 56 +
STACK CFI 7e1e7 .cfa: $rsp 64 +
STACK CFI 7e2a6 .cfa: $rsp 56 +
STACK CFI 7e2a7 .cfa: $rsp 48 +
STACK CFI 7e2a8 .cfa: $rsp 40 +
STACK CFI 7e2aa .cfa: $rsp 32 +
STACK CFI 7e2ac .cfa: $rsp 24 +
STACK CFI 7e2ae .cfa: $rsp 16 +
STACK CFI 7e2b0 .cfa: $rsp 8 +
STACK CFI 7e2b8 .cfa: $rsp 64 +
STACK CFI 7e3b4 .cfa: $rsp 56 +
STACK CFI 7e3b8 .cfa: $rsp 48 +
STACK CFI 7e3b9 .cfa: $rsp 40 +
STACK CFI 7e3bb .cfa: $rsp 32 +
STACK CFI 7e3bd .cfa: $rsp 24 +
STACK CFI 7e3bf .cfa: $rsp 16 +
STACK CFI 7e3c1 .cfa: $rsp 8 +
STACK CFI 7e3c6 .cfa: $rsp 64 +
STACK CFI 7e3ce .cfa: $rsp 56 +
STACK CFI 7e3d6 .cfa: $rsp 48 +
STACK CFI 7e3d7 .cfa: $rsp 40 +
STACK CFI 7e3d9 .cfa: $rsp 32 +
STACK CFI 7e3db .cfa: $rsp 24 +
STACK CFI 7e3dd .cfa: $rsp 16 +
STACK CFI 7e3df .cfa: $rsp 8 +
STACK CFI 7e3e0 .cfa: $rsp 64 +
STACK CFI INIT 7e850 5f .cfa: $rsp 8 + .ra: .cfa -8 + ^
STACK CFI 7e859 $r13: .cfa -16 + ^ .cfa: $rsp 16 +
STACK CFI 7e85e $r12: .cfa -24 + ^ .cfa: $rsp 24 +
STACK CFI 7e862 $rbp: .cfa -32 + ^ .cfa: $rsp 32 +
STACK CFI 7e8aa .cfa: $rsp 24 +
STACK CFI 7e8ac .cfa: $rsp 16 +
STACK CFI 7e8ae .cfa: $rsp 8 +
STACK CFI INIT 7e8b0 20e .cfa: $rsp 8 + .ra: .cfa -8 + ^
STACK CFI 7e8b2 $r14: .cfa -16 + ^ .cfa: $rsp 16 +
STACK CFI 7e8b4 $r13: .cfa -24 + ^ .cfa: $rsp 24 +
STACK CFI 7e8b9 $r12: .cfa -32 + ^ .cfa: $rsp 32 +
STACK CFI 7e8ba $rbp: .cfa -40 + ^ .cfa: $rsp 40 +
STACK CFI 7e8bb $rbx: .cfa -48 + ^ .cfa: $rsp 48 +
STACK CFI 7e8c5 .cfa: $rsp 4144 +
STACK CFI 7e9b5 .cfa: $rsp 48 +
STACK CFI 7e9b9 .cfa: $rsp 40 +
STACK CFI 7e9ba .cfa: $rsp 32 +
STACK CFI 7e9bc .cfa: $rsp 24 +
STACK CFI 7e9be .cfa: $rsp 16 +
STACK CFI 7e9c0 .cfa: $rsp 8 +
STACK CFI 7e9c8 .cfa: $rsp 4144 +
STACK CFI INIT 7eac0 5d .cfa: $rsp 8 + .ra: .cfa -8 + ^
STACK CFI 7eac2 $r12: .cfa -16 + ^ .cfa: $rsp 16 +
STACK CFI 7eac6 $rbp: .cfa -24 + ^ .cfa: $rsp 24 +
STACK CFI 7eacd .cfa: $rsp 32 +
STACK CFI 7eb16 .cfa: $rsp 24 +
STACK CFI 7eb1a .cfa: $rsp 16 +
STACK CFI 7eb1c .cfa: $rsp 8 +
STACK CFI INIT 7eb20 253 .cfa: $rsp 8 + .ra: .cfa -8 + ^
STACK CFI 7eb22 $r13: .cfa -16 + ^ .cfa: $rsp 16 +
STACK CFI 7eb24 $r12: .cfa -24 + ^ .cfa: $rsp 24 +
STACK CFI 7eb25 $rbp: .cfa -32 + ^ .cfa: $rsp 32 +
STACK CFI 7eb29 $rbx: .cfa -40 + ^ .cfa: $rsp 40 +
STACK CFI 7eb2f .cfa: $rsp 48 +
STACK CFI 7eb81 .cfa: $rsp 40 +
STACK CFI 7eb85 .cfa: $rsp 32 +
STACK CFI 7eb86 .cfa: $rsp 24 +
STACK CFI 7eb88 .cfa: $rsp 16 +
STACK CFI 7eb8a .cfa: $rsp 8 +
STACK CFI 7eb90 .cfa: $rsp 48 +
STACK CFI INIT 7ed80 5a .cfa: $rsp 8 + .ra: .cfa -8 + ^
STACK CFI 7ed88 $rbp: .cfa -16 + ^ .cfa: $rsp 16 +
STACK CFI 7edd0 .cfa: $rsp 8 +
STACK CFI 7edd8 .cfa: $rsp 16 +
STACK CFI 7edd9 .cfa: $rsp 8 +
STACK CFI INIT 7ede0 20 .cfa: $rsp 8 + .ra: .cfa -8 + ^
STACK CFI INIT 7ee00 79 .cfa: $rsp 8 + .ra: .cfa -8 + ^
STACK CFI 7ee02 $r12: .cfa -16 + ^ .cfa: $rsp 16 +
STACK CFI 7ee03 $rbx: .cfa -24 + ^ .cfa: $rsp 24 +
STACK CFI 7ee0a .cfa: $rsp 32 +
STACK CFI 7ee51 .cfa: $rsp 24 +
STACK CFI 7ee55 .cfa: $rsp 16 +
STACK CFI 7ee57 .cfa: $rsp 8 +
STACK CFI 7ee60 .cfa: $rsp 32 +
STACK CFI 7ee72 .cfa: $rsp 24 +
STACK CFI 7ee73 .cfa: $rsp 16 +
STACK CFI 7ee78 .cfa: $rsp 8 +
STACK CFI INIT 7ee80 300 .cfa: $rsp 8 + .ra: .cfa -8 + ^
STACK CFI 7ee82 $r14: .cfa -16 + ^ .cfa: $rsp 16 +
STACK CFI 7ee84 $r13: .cfa -24 + ^ .cfa: $rsp 24 +
STACK CFI 7ee86 $r12: .cfa -32 + ^ .cfa: $rsp 32 +
STACK CFI 7ee8a $rbp: .cfa -40 + ^ .cfa: $rsp 40 +
STACK CFI 7ee8b $rbx: .cfa -48 + ^ .cfa: $rsp 48 +
STACK CFI 7ee8f .cfa: $rsp 64 +
STACK CFI 7efa5 .cfa: $rsp 48 +
STACK CFI 7efa6 .cfa: $rsp 40 +
STACK CFI 7efa7 .cfa: $rsp 32 +
STACK CFI 7efa9 .cfa: $rsp 24 +
STACK CFI 7efab .cfa: $rsp 16 +
STACK CFI 7efad .cfa: $rsp 8 +
STACK CFI 7efb0 .cfa: $rsp 64 +
STACK CFI 7f0c9 .cfa: $rsp 48 +
STACK CFI 7f0ca .cfa: $rsp 40 +
STACK CFI 7f0cb .cfa: $rsp 32 +
STACK CFI 7f0cd .cfa: $rsp 24 +
STACK CFI 7f0cf .cfa: $rsp 16 +
STACK CFI 7f0d1 .cfa: $rsp 8 +
STACK CFI 7f0d8 .cfa: $rsp 64 +
STACK CFI INIT 7f180 4a .cfa: $rsp 8 + .ra: .cfa -8 + ^
STACK CFI 7f188 $rbp: .cfa -16 + ^ .cfa: $rsp 16 +
STACK CFI 7f1c0 .cfa: $rsp 8 +
STACK CFI 7f1c8 .cfa: $rsp 16 +
STACK CFI 7f1c9 .cfa: $rsp 8 +
STACK CFI INIT 7f1d0 110 .cfa: $rsp 8 + .ra: .cfa -8 + ^
STACK CFI 7f1d2 $r12: .cfa -16 + ^ .cfa: $rsp 16 +
STACK CFI 7f1d3 $rbp: .cfa -24 + ^ .cfa: $rsp 24 +
STACK CFI 7f1da .cfa: $rsp 240 +
STACK CFI 7f2c6 .cfa: $rsp 24 +
STACK CFI 7f2ca .cfa: $rsp 16 +
STACK CFI 7f2cc .cfa: $rsp 8 +
STACK CFI 7f2d0 .cfa: $rsp 240 +
STACK CFI INIT 7f2e0 120 .cfa: $rsp 8 + .ra: .cfa -8 + ^
STACK CFI 7f2eb $r13: .cfa -16 + ^ .cfa: $rsp 16 +
STACK CFI 7f2ed $r12: .cfa -24 + ^ .cfa: $rsp 24 +
STACK CFI 7f2ee $rbp: .cfa -32 + ^ .cfa: $rsp 32 +
STACK CFI 7f2f2 $rbx: .cfa -40 + ^ .cfa: $rsp 40 +
STACK CFI 7f2f9 .cfa: $rsp 4288 +
STACK CFI 7f305 .cfa: $rsp 40 +
STACK CFI 7f306 .cfa: $rsp 32 +
STACK CFI 7f307 .cfa: $rsp 24 +
STACK CFI 7f309 .cfa: $rsp 16 +
STACK CFI 7f30b .cfa: $rsp 8 +
STACK CFI 7f310 .cfa: $rsp 4288 +
STACK CFI 7f3b9 .cfa: $rsp 40 +
STACK CFI 7f3ba .cfa: $rsp 32 +
STACK CFI 7f3bb .cfa: $rsp 24 +
STACK CFI 7f3bd .cfa: $rsp 16 +
STACK CFI 7f3bf .cfa: $rsp 8 +
STACK CFI 7f3c0 $r12: $r12 $r13: $r13 $rbp: $rbp $rbx: $rbx
STACK CFI 7f3c8 $r12: .cfa -24 + ^ $r13: .cfa -16 + ^ $rbp: .cfa -32 + ^ $rbx: .cfa -40 + ^ .cfa: $rsp 4288 +
STACK CFI INIT 7f400 34 .cfa: $rsp 8 + .ra: .cfa -8 + ^
STACK CFI INIT 7f440 133 .cfa: $rsp 8 + .ra: .cfa -8 + ^
STACK CFI 7f44b $r12: .cfa -16 + ^ .cfa: $rsp 16 +
STACK CFI 7f44f $rbp: .cfa -24 + ^ .cfa: $rsp 24 +
STACK CFI 7f450 $rbx: .cfa -32 + ^ .cfa: $rsp 32 +
STACK CFI 7f457 .cfa: $rsp 4272 +
STACK CFI 7f4e4 .cfa: $rsp 32 +
STACK CFI 7f4e5 .cfa: $rsp 24 +
STACK CFI 7f4e6 .cfa: $rsp 16 +
STACK CFI 7f4e8 .cfa: $rsp 8 +
STACK CFI 7f4f0 .cfa: $rsp 4272 +
STACK CFI 7f4f7 .cfa: $rsp 32 +
STACK CFI 7f4fa .cfa: $rsp 24 +
STACK CFI 7f4fb .cfa: $rsp 16 +
STACK CFI 7f4fd .cfa: $rsp 8 +
STACK CFI 7f500 .cfa: $rsp 4272 +
STACK CFI 7f540 $r12: $r12 $rbp: $rbp $rbx: $rbx .cfa: $rsp 8 +
STACK CFI 7f543 $r12: .cfa -16 + ^ $rbp: .cfa -24 + ^ $rbx: .cfa -32 + ^ .cfa: $rsp 4272 +
STACK CFI INIT 7f580 78 .cfa: $rsp 8 + .ra: .cfa -8 + ^
STACK CFI INIT 7f600 e1 .cfa: $rsp 8 + .ra: .cfa -8 + ^
STACK CFI 7f602 $r15: .cfa -16 + ^ .cfa: $rsp 16 +
STACK CFI 7f607 $r14: .cfa -24 + ^ .cfa: $rsp 24 +
STACK CFI 7f60c $r13: .cfa -32 + ^ .cfa: $rsp 32 +
STACK CFI 7f611 $r12: .cfa -40 + ^ .cfa: $rsp 40 +
STACK CFI 7f612 $rbp: .cfa -48 + ^ .cfa: $rsp 48 +
STACK CFI 7f613 $rbx: .cfa -56 + ^ .cfa: $rsp 56 +
STACK CFI 7f61a .cfa: $rsp 96 +
STACK CFI 7f6a1 .cfa: $rsp 56 +
STACK CFI 7f6a2 .cfa: $rsp 48 +
STACK CFI 7f6a3 .cfa: $rsp 40 +
STACK CFI 7f6a5 .cfa: $rsp 32 +
STACK CFI 7f6a7 .cfa: $rsp 24 +
STACK CFI 7f6a9 .cfa: $rsp 16 +
STACK CFI 7f6ab .cfa: $rsp 8 +
STACK CFI 7f6b0 .cfa: $rsp 96 +
STACK CFI INIT 7f6f0 136 .cfa: $rsp 8 + .ra: .cfa -8 + ^
STACK CFI 7f6f2 $r15: .cfa -16 + ^ .cfa: $rsp 16 +
STACK CFI 7f6f7 $r14: .cfa -24 + ^ .cfa: $rsp 24 +
STACK CFI 7f6fc $r13: .cfa -32 + ^ .cfa: $rsp 32 +
STACK CFI 7f6fe $r12: .cfa -40 + ^ .cfa: $rsp 40 +
STACK CFI 7f6ff $rbp: .cfa -48 + ^ .cfa: $rsp 48 +
STACK CFI 7f700 $rbx: .cfa -56 + ^ .cfa: $rsp 56 +
STACK CFI 7f707 .cfa: $rsp 112 +
STACK CFI 7f7d5 .cfa: $rsp 56 +
STACK CFI 7f7d6 .cfa: $rsp 48 +
STACK CFI 7f7d7 .cfa: $rsp 40 +
STACK CFI 7f7d9 .cfa: $rsp 32 +
STACK CFI 7f7db .cfa: $rsp 24 +
STACK CFI 7f7dd .cfa: $rsp 16 +
STACK CFI 7f7df .cfa: $rsp 8 +
STACK CFI 7f7e0 .cfa: $rsp 112 +
STACK CFI INIT 7f830 71 .cfa: $rsp 8 + .ra: .cfa -8 + ^
STACK CFI 7f832 $r12: .cfa -16 + ^ .cfa: $rsp 16 +
STACK CFI 7f83a $rbp: .cfa -24 + ^ .cfa: $rsp 24 +
STACK CFI 7f83b $rbx: .cfa -32 + ^ .cfa: $rsp 32 +
STACK CFI 7f84b .cfa: $rsp 24 +
STACK CFI 7f856 .cfa: $rsp 16 +
STACK CFI 7f85a .cfa: $rsp 8 +
STACK CFI 7f860 .cfa: $rsp 32 +
STACK CFI 7f86d .cfa: $rsp 24 +
STACK CFI 7f87b .cfa: $rsp 16 +
STACK CFI 7f87f .cfa: $rsp 8 +
STACK CFI 7f888 .cfa: $rsp 32 +
STACK CFI INIT 7f8b0 2dc .cfa: $rsp 8 + .ra: .cfa -8 + ^
STACK CFI 7f8b2 $r14: .cfa -16 + ^ .cfa: $rsp 16 +
STACK CFI 7f8b4 $r13: .cfa -24 + ^ .cfa: $rsp 24 +
STACK CFI 7f8b6 $r12: .cfa -32 + ^ .cfa: $rsp 32 +
STACK CFI 7f8b7 $rbp: .cfa -40 + ^ .cfa: $rsp 40 +
STACK CFI 7f8b8 $rbx: .cfa -48 + ^ .cfa: $rsp 48 +
STACK CFI 7f94c .cfa: $rsp 56 +
STACK CFI 7f958 .cfa: $rsp 64 +
STACK CFI 7f982 .cfa: $rsp 56 +
STACK CFI 7f983 .cfa: $rsp 48 +
STACK CFI 7f9f8 .cfa: $rsp 40 +
STACK CFI 7f9f9 .cfa: $rsp 32 +
STACK CFI 7f9fb .cfa: $rsp 24 +
STACK CFI 7f9fd .cfa: $rsp 16 +
STACK CFI 7f9ff .cfa: $rsp 8 +
STACK CFI 7fa00 .cfa: $rsp 48 +
STACK CFI 7fae4 .cfa: $rsp 40 +
STACK CFI 7fae5 .cfa: $rsp 32 +
STACK CFI 7faea .cfa: $rsp 24 +
STACK CFI 7faec .cfa: $rsp 16 +
STACK CFI 7faee .cfa: $rsp 8 +
STACK CFI 7faf0 .cfa: $rsp 48 +
STACK CFI INIT 7fb90 112 .cfa: $rsp 8 + .ra: .cfa -8 + ^
STACK CFI 7fb9d $rbp: .cfa -16 + ^ .cfa: $rsp 16 +
STACK CFI 7fb9e $rbx: .cfa -24 + ^ .cfa: $rsp 24 +
STACK CFI 7fba5 .cfa: $rsp 48 +
STACK CFI 7fc2f .cfa: $rsp 24 +
STACK CFI 7fc32 .cfa: $rsp 16 +
STACK CFI 7fc33 .cfa: $rsp 8 +
STACK CFI 7fc38 .cfa: $rsp 48 +
STACK CFI 7fc78 .cfa: $rsp 24 +
STACK CFI 7fc79 .cfa: $rsp 16 +
STACK CFI 7fc7a .cfa: $rsp 8 +
STACK CFI 7fc80 .cfa: $rsp 48 +
STACK CFI 7fc9e $rbp: $rbp $rbx: $rbx .cfa: $rsp 8 +
STACK CFI INIT 7fcb0 3d .cfa: $rsp 8 + .ra: .cfa -8 + ^
STACK CFI 7fcb6 $rbp: .cfa -16 + ^ .cfa: $rsp 16 +
STACK CFI 7fcb7 $rbx: .cfa -24 + ^ .cfa: $rsp 24 +
STACK CFI 7fcbe .cfa: $rsp 32 +
STACK CFI 7fcd6 .cfa: $rsp 24 +
STACK CFI 7fcd7 .cfa: $rsp 16 +
STACK CFI 7fcd8 .cfa: $rsp 8 +
STACK CFI 7fce0 .cfa: $rsp 32 +
STACK CFI 7fce7 $rbp: $rbp $rbx: $rbx .cfa: $rsp 8 +
STACK CFI INIT 7fcf0 27 .cfa: $rsp 8 + .ra: .cfa -8 + ^
STACK CFI 7fcf1 $rbx: .cfa -16 + ^ .cfa: $rsp 16 +
STACK CFI 7fd02 .cfa: $rsp 8 +
STACK CFI 7fd10 .cfa: $rsp 16 +
STACK CFI 7fd16 .cfa: $rsp 8 +
STACK CFI INIT 7fd20 78 .cfa: $rsp 8 + .ra: .cfa -8 + ^
STACK CFI 7fd29 $rbp: .cfa -16 + ^ .cfa: $rsp 16 +
STACK CFI 7fd2a $rbx: .cfa -24 + ^ .cfa: $rsp 24 +
STACK CFI 7fd31 .cfa: $rsp 32 +
STACK CFI 7fd4c .cfa: $rsp 24 +
STACK CFI 7fd4d .cfa: $rsp 16 +
STACK CFI 7fd51 .cfa: $rsp 8 +
STACK CFI 7fd58 .cfa: $rsp 32 +
STACK CFI 7fd84 .cfa: $rsp 24 +
STACK CFI 7fd88 .cfa: $rsp 16 +
STACK CFI 7fd89 .cfa: $rsp 8 +
STACK CFI 7fd90 $rbp: $rbp $rbx: $rbx
STACK CFI INIT 7fda0 1e9 .cfa: $rsp 8 + .ra: .cfa -8 + ^
STACK CFI 7fdab $r13: .cfa -16 + ^ .cfa: $rsp 16 +
STACK CFI 7fdad $r12: .cfa -24 + ^ .cfa: $rsp 24 +
STACK CFI 7fdae $rbp: .cfa -32 + ^ .cfa: $rsp 32 +
STACK CFI 7fdaf $rbx: .cfa -40 + ^ .cfa: $rsp 40 +
STACK CFI 7fdb6 .cfa: $rsp 48 +
STACK CFI 7fe4e .cfa: $rsp 40 +
STACK CFI 7fe4f .cfa: $rsp 32 +
STACK CFI 7fe50 .cfa: $rsp 24 +
STACK CFI 7fe52 .cfa: $rsp 16 +
STACK CFI 7fe54 .cfa: $rsp 8 +
STACK CFI 7fe58 .cfa: $rsp 48 +
STACK CFI 7ff84 $r12: $r12 $r13: $r13 $rbp: $rbp $rbx: $rbx .cfa: $rsp 8 +
STACK CFI INIT 7ff90 4b .cfa: $rsp 8 + .ra: .cfa -8 + ^
STACK CFI 7ff97 $rbp: .cfa -16 + ^ .cfa: $rsp 16 +
STACK CFI 7ff9b $rbx: .cfa -24 + ^ .cfa: $rsp 24 +
STACK CFI 7ffa5 .cfa: $rsp 32 +
STACK CFI 7ffc7 .cfa: $rsp 24 +
STACK CFI 7ffc8 .cfa: $rsp 16 +
STACK CFI 7ffc9 .cfa: $rsp 8 +
STACK CFI 7ffd0 .cfa: $rsp 32 +
STACK CFI 7ffd7 $rbp: $rbp $rbx: $rbx .cfa: $rsp 8 +
STACK CFI INIT 7ffe0 2f .cfa: $rsp 8 + .ra: .cfa -8 + ^
STACK CFI 7ffea .cfa: $rsp 128 +
STACK CFI 80004 .cfa: $rsp 8 +
STACK CFI 80008 .cfa: $rsp 128 +
STACK CFI 8000c .cfa: $rsp 8 +
STACK CFI INIT 80010 34 .cfa: $rsp 8 + .ra: .cfa -8 + ^
STACK CFI 80017 .cfa: $rsp 160 +
STACK CFI 80040 .cfa: $rsp 8 +
STACK CFI INIT 80050 480 .cfa: $rsp 8 + .ra: .cfa -8 + ^
STACK CFI 8005e $r15: .cfa -16 + ^ .cfa: $rsp 16 +
STACK CFI 80060 $r14: .cfa -24 + ^ .cfa: $rsp 24 +
STACK CFI 80062 $r13: .cfa -32 + ^ .cfa: $rsp 32 +
STACK CFI 80064 $r12: .cfa -40 + ^ .cfa: $rsp 40 +
STACK CFI 8006b $rbp: .cfa -48 + ^ .cfa: $rsp 48 +
STACK CFI 80072 $rbx: .cfa -56 + ^ .cfa: $rsp 56 +
STACK CFI 80079 .cfa: $rsp 80 +
STACK CFI 8013c .cfa: $rsp 56 +
STACK CFI 8013d .cfa: $rsp 48 +
STACK CFI 8013e .cfa: $rsp 40 +
STACK CFI 80140 .cfa: $rsp 32 +
STACK CFI 80142 .cfa: $rsp 24 +
STACK CFI 80144 .cfa: $rsp 16 +
STACK CFI 80146 .cfa: $rsp 8 +
STACK CFI 80150 .cfa: $rsp 80 +
STACK CFI 80294 .cfa: $rsp 56 +
STACK CFI 80299 .cfa: $rsp 48 +
STACK CFI 8029a .cfa: $rsp 40 +
STACK CFI 8029c .cfa: $rsp 32 +
STACK CFI 8029e .cfa: $rsp 24 +
STACK CFI 802a0 .cfa: $rsp 16 +
STACK CFI 802a2 .cfa: $rsp 8 +
STACK CFI 802a8 .cfa: $rsp 80 +
STACK CFI 803e0 $r12: $r12 $r13: $r13 $r14: $r14 $r15: $r15 $rbp: $rbp $rbx: $rbx .cfa: $rsp 8 +
STACK CFI 803e8 $r12: .cfa -40 + ^ $r13: .cfa -32 + ^ $r14: .cfa -24 + ^ $r15: .cfa -16 + ^ $rbp: .cfa -48 + ^ $rbx: .cfa -56 + ^ .cfa: $rsp 80 +
STACK CFI INIT 804d0 78 .cfa: $rsp 8 + .ra: .cfa -8 + ^
STACK CFI 804d4 .cfa: $rsp 48 +
STACK CFI 80510 .cfa: $rsp 8 +
STACK CFI 80518 .cfa: $rsp 48 +
STACK CFI 80540 .cfa: $rsp 8 +
STACK CFI 80541 .cfa: $rsp 48 +
STACK CFI INIT 80550 8e .cfa: $rsp 8 + .ra: .cfa -8 + ^
STACK CFI 80552 $r13: .cfa -16 + ^ .cfa: $rsp 16 +
STACK CFI 80557 $r12: .cfa -24 + ^ .cfa: $rsp 24 +
STACK CFI 80558 $rbp: .cfa -32 + ^ .cfa: $rsp 32 +
STACK CFI 80559 $rbx: .cfa -40 + ^ .cfa: $rsp 40 +
STACK CFI 8055d .cfa: $rsp 48 +
STACK CFI 805a7 .cfa: $rsp 40 +
STACK CFI 805ab .cfa: $rsp 32 +
STACK CFI 805ac .cfa: $rsp 24 +
STACK CFI 805ae .cfa: $rsp 16 +
STACK CFI 805b0 .cfa: $rsp 8 +
STACK CFI 805b1 .cfa: $rsp 48 +
STACK CFI 805bd .cfa: $rsp 40 +
STACK CFI 805c1 .cfa: $rsp 32 +
STACK CFI 805c2 .cfa: $rsp 24 +
STACK CFI 805c4 .cfa: $rsp 16 +
STACK CFI 805c6 .cfa: $rsp 8 +
STACK CFI 805d0 .cfa: $rsp 48 +
STACK CFI INIT 805e0 8e .cfa: $rsp 8 + .ra: .cfa -8 + ^
STACK CFI 805e2 $r14: .cfa -16 + ^ .cfa: $rsp 16 +
STACK CFI 805e4 $r13: .cfa -24 + ^ .cfa: $rsp 24 +
STACK CFI 805e9 $r12: .cfa -32 + ^ .cfa: $rsp 32 +
STACK CFI 805ea $rbp: .cfa -40 + ^ .cfa: $rsp 40 +
STACK CFI 805eb $rbx: .cfa -48 + ^ .cfa: $rsp 48 +
STACK CFI 8063f .cfa: $rsp 40 +
STACK CFI 80643 .cfa: $rsp 32 +
STACK CFI 80645 .cfa: $rsp 24 +
STACK CFI 80647 .cfa: $rsp 16 +
STACK CFI 80649 .cfa: $rsp 8 +
STACK CFI 8064a .cfa: $rsp 48 +
STACK CFI 80656 .cfa: $rsp 40 +
STACK CFI 80657 .cfa: $rsp 32 +
STACK CFI 80659 .cfa: $rsp 24 +
STACK CFI 8065b .cfa: $rsp 16 +
STACK CFI 8065d .cfa: $rsp 8 +
STACK CFI 80660 .cfa: $rsp 48 +
STACK CFI INIT 80670 699 .cfa: $rsp 8 + .ra: .cfa -8 + ^
STACK CFI 8067b $r15: .cfa -16 + ^ .cfa: $rsp 16 +
STACK CFI 8067d $r14: .cfa -24 + ^ .cfa: $rsp 24 +
STACK CFI 8067f $r13: .cfa -32 + ^ .cfa: $rsp 32 +
STACK CFI 80681 $r12: .cfa -40 + ^ .cfa: $rsp 40 +
STACK CFI 80682 $rbp: .cfa -48 + ^ .cfa: $rsp 48 +
STACK CFI 80683 $rbx: .cfa -56 + ^ .cfa: $rsp 56 +
STACK CFI 8068a .cfa: $rsp 96 +
STACK CFI 808fc .cfa: $rsp 56 +
STACK CFI 808fd .cfa: $rsp 48 +
STACK CFI 808fe .cfa: $rsp 40 +
STACK CFI 80900 .cfa: $rsp 32 +
STACK CFI 80902 .cfa: $rsp 24 +
STACK CFI 80904 .cfa: $rsp 16 +
STACK CFI 80906 .cfa: $rsp 8 +
STACK CFI 80910 .cfa: $rsp 96 +
STACK CFI 80990 .cfa: $rsp 56 +
STACK CFI 80991 .cfa: $rsp 48 +
STACK CFI 80992 .cfa: $rsp 40 +
STACK CFI 80994 .cfa: $rsp 32 +
STACK CFI 80996 .cfa: $rsp 24 +
STACK CFI 80998 .cfa: $rsp 16 +
STACK CFI 8099a .cfa: $rsp 8 +
STACK CFI 809a0 .cfa: $rsp 96 +
STACK CFI 80ab0 $r12: $r12 $r13: $r13 $r14: $r14 $r15: $r15 $rbp: $rbp $rbx: $rbx .cfa: $rsp 8 +
STACK CFI 80ab8 $r12: .cfa -40 + ^ $r13: .cfa -32 + ^ $r14: .cfa -24 + ^ $r15: .cfa -16 + ^ $rbp: .cfa -48 + ^ $rbx: .cfa -56 + ^ .cfa: $rsp 96 +
STACK CFI INIT 80d10 6d .cfa: $rsp 8 + .ra: .cfa -8 + ^
STACK CFI 80d14 .cfa: $rsp 32 +
STACK CFI 80d58 .cfa: $rsp 8 +
STACK CFI 80d60 .cfa: $rsp 32 +
STACK CFI 80d75 .cfa: $rsp 8 +
STACK CFI 80d76 .cfa: $rsp 32 +
STACK CFI INIT 80d80 32 .cfa: $rsp 8 + .ra: .cfa -8 + ^
STACK CFI 80d81 $rbp: .cfa -16 + ^ .cfa: $rsp 16 +
STACK CFI 80d85 $rbx: .cfa -24 + ^ .cfa: $rsp 24 +
STACK CFI 80d8c .cfa: $rsp 32 +
STACK CFI 80daf .cfa: $rsp 24 +
STACK CFI 80db0 .cfa: $rsp 16 +
STACK CFI 80db1 .cfa: $rsp 8 +
STACK CFI INIT 80dc0 3f .cfa: $rsp 8 + .ra: .cfa -8 + ^
STACK CFI 80dc2 $r12: .cfa -16 + ^ .cfa: $rsp 16 +
STACK CFI 80dc6 $rbp: .cfa -24 + ^ .cfa: $rsp 24 +
STACK CFI 80dca $rbx: .cfa -32 + ^ .cfa: $rsp 32 +
STACK CFI 80dfb .cfa: $rsp 24 +
STACK CFI 80dfc .cfa: $rsp 16 +
STACK CFI 80dfe .cfa: $rsp 8 +
STACK CFI INIT 80e00 26 .cfa: $rsp 8 + .ra: .cfa -8 + ^
STACK CFI INIT 80e30 86 .cfa: $rsp 8 + .ra: .cfa -8 + ^
STACK CFI 80e37 $rbp: .cfa -16 + ^ .cfa: $rsp 16 +
STACK CFI 80e38 $rbx: .cfa -24 + ^ .cfa: $rsp 24 +
STACK CFI 80e42 .cfa: $rsp 176 +
STACK CFI 80e99 .cfa: $rsp 24 +
STACK CFI 80e9a .cfa: $rsp 16 +
STACK CFI 80e9b .cfa: $rsp 8 +
STACK CFI 80ea0 .cfa: $rsp 176 +
STACK CFI 80eb0 $rbp: $rbp $rbx: $rbx .cfa: $rsp 8 +
STACK CFI INIT 80ec0 38 .cfa: $rsp 8 + .ra: .cfa -8 + ^
STACK CFI INIT 80f00 4db .cfa: $rsp 8 + .ra: .cfa -8 + ^
STACK CFI 80f02 $r15: .cfa -16 + ^ .cfa: $rsp 16 +
STACK CFI 80f04 $r14: .cfa -24 + ^ .cfa: $rsp 24 +
STACK CFI 80f06 $r13: .cfa -32 + ^ .cfa: $rsp 32 +
STACK CFI 80f08 $r12: .cfa -40 + ^ .cfa: $rsp 40 +
STACK CFI 80f09 $rbp: .cfa -48 + ^ .cfa: $rsp 48 +
STACK CFI 80f0c $rbx: .cfa -56 + ^ .cfa: $rsp 56 +
STACK CFI 80f13 .cfa: $rsp 112 +
STACK CFI 8105a .cfa: $rsp 120 +
STACK CFI 81066 .cfa: $rsp 128 +
STACK CFI 8108c .cfa: $rsp 120 +
STACK CFI 81090 .cfa: $rsp 112 +
STACK CFI 8110c .cfa: $rsp 56 +
STACK CFI 8110d .cfa: $rsp 48 +
STACK CFI 8110e .cfa: $rsp 40 +
STACK CFI 81110 .cfa: $rsp 32 +
STACK CFI 81112 .cfa: $rsp 24 +
STACK CFI 81114 .cfa: $rsp 16 +
STACK CFI 81116 .cfa: $rsp 8 +
STACK CFI 81120 .cfa: $rsp 112 +
STACK CFI 811b6 .cfa: $rsp 56 +
STACK CFI 811bc .cfa: $rsp 48 +
STACK CFI 811bd .cfa: $rsp 40 +
STACK CFI 811bf .cfa: $rsp 32 +
STACK CFI 811c1 .cfa: $rsp 24 +
STACK CFI 811c3 .cfa: $rsp 16 +
STACK CFI 811c5 .cfa: $rsp 8 +
STACK CFI 811d0 .cfa: $rsp 112 +
STACK CFI 81235 .cfa: $rsp 56 +
STACK CFI 81239 .cfa: $rsp 48 +
STACK CFI 8123a .cfa: $rsp 40 +
STACK CFI 8123e .cfa: $rsp 32 +
STACK CFI 81240 .cfa: $rsp 24 +
STACK CFI 81242 .cfa: $rsp 16 +
STACK CFI 81244 .cfa: $rsp 8 +
STACK CFI 81248 .cfa: $rsp 112 +
STACK CFI INIT 813e0 2cb .cfa: $rsp 8 + .ra: .cfa -8 + ^
STACK CFI 813e2 $r13: .cfa -16 + ^ .cfa: $rsp 16 +
STACK CFI 813e4 $r12: .cfa -24 + ^ .cfa: $rsp 24 +
STACK CFI 813e5 $rbp: .cfa -32 + ^ .cfa: $rsp 32 +
STACK CFI 813e6 $rbx: .cfa -40 + ^ .cfa: $rsp 40 +
STACK CFI 813ea .cfa: $rsp 48 +
STACK CFI 814f4 .cfa: $rsp 40 +
STACK CFI 814f8 .cfa: $rsp 32 +
STACK CFI 814f9 .cfa: $rsp 24 +
STACK CFI 814fb .cfa: $rsp 16 +
STACK CFI 814fd .cfa: $rsp 8 +
STACK CFI 81500 .cfa: $rsp 48 +
STACK CFI 8157b .cfa: $rsp 40 +
STACK CFI 8157f .cfa: $rsp 32 +
STACK CFI 81580 .cfa: $rsp 24 +
STACK CFI 81582 .cfa: $rsp 16 +
STACK CFI 81584 .cfa: $rsp 8 +
STACK CFI 81588 .cfa: $rsp 48 +
STACK CFI INIT 816b0 12 .cfa: $rsp 8 + .ra: .cfa -8 + ^
STACK CFI INIT 816d0 2a6 .cfa: $rsp 8 + .ra: .cfa -8 + ^
STACK CFI 816d2 $r15: .cfa -16 + ^ .cfa: $rsp 16 +
STACK CFI 816d4 $r14: .cfa -24 + ^ .cfa: $rsp 24 +
STACK CFI 816d6 $r13: .cfa -32 + ^ .cfa: $rsp 32 +
STACK CFI 816d8 $r12: .cfa -40 + ^ .cfa: $rsp 40 +
STACK CFI 816d9 $rbp: .cfa -48 + ^ .cfa: $rsp 48 +
STACK CFI 816da $rbx: .cfa -56 + ^ .cfa: $rsp 56 +
STACK CFI 816de .cfa: $rsp 112 +
STACK CFI 81830 .cfa: $rsp 56 +
STACK CFI 81836 .cfa: $rsp 48 +
STACK CFI 81837 .cfa: $rsp 40 +
STACK CFI 81839 .cfa: $rsp 32 +
STACK CFI 8183b .cfa: $rsp 24 +
STACK CFI 8183d .cfa: $rsp 16 +
STACK CFI 8183f .cfa: $rsp 8 +
STACK CFI 81840 .cfa: $rsp 112 +
STACK CFI 81846 .cfa: $rsp 56 +
STACK CFI 81847 .cfa: $rsp 48 +
STACK CFI 81848 .cfa: $rsp 40 +
STACK CFI 8184a .cfa: $rsp 32 +
STACK CFI 8184c .cfa: $rsp 24 +
STACK CFI 8184e .cfa: $rsp 16 +
STACK CFI 81850 .cfa: $rsp 8 +
STACK CFI 81858 .cfa: $rsp 112 +
STACK CFI INIT 81980 222 .cfa: $rsp 8 + .ra: .cfa -8 + ^
STACK CFI 8198b $r15: .cfa -16 + ^ .cfa: $rsp 16 +
STACK CFI 8198d $r14: .cfa -24 + ^ .cfa: $rsp 24 +
STACK CFI 81992 $r13: .cfa -32 + ^ .cfa: $rsp 32 +
STACK CFI 81994 $r12: .cfa -40 + ^ .cfa: $rsp 40 +
STACK CFI 81995 $rbp: .cfa -48 + ^ .cfa: $rsp 48 +
STACK CFI 81996 $rbx: .cfa -56 + ^ .cfa: $rsp 56 +
STACK CFI 8199a .cfa: $rsp 80 +
STACK CFI 81b34 .cfa: $rsp 56 +
STACK CFI 81b37 .cfa: $rsp 48 +
STACK CFI 81b38 .cfa: $rsp 40 +
STACK CFI 81b3a .cfa: $rsp 32 +
STACK CFI 81b3c .cfa: $rsp 24 +
STACK CFI 81b3e .cfa: $rsp 16 +
STACK CFI 81b40 .cfa: $rsp 8 +
STACK CFI 81b48 .cfa: $rsp 80 +
STACK CFI 81b76 .cfa: $rsp 56 +
STACK CFI 81b7c .cfa: $rsp 48 +
STACK CFI 81b7d .cfa: $rsp 40 +
STACK CFI 81b7f .cfa: $rsp 32 +
STACK CFI 81b81 .cfa: $rsp 24 +
STACK CFI 81b83 .cfa: $rsp 16 +
STACK CFI 81b85 .cfa: $rsp 8 +
STACK CFI 81b86 .cfa: $rsp 80 +
STACK CFI 81b9c $r12: $r12 $r13: $r13 $r14: $r14 $r15: $r15 $rbp: $rbp $rbx: $rbx .cfa: $rsp 8 +
STACK CFI INIT 81bb0 5 .cfa: $rsp 8 + .ra: .cfa -8 + ^
STACK CFI INIT 81bc0 26 .cfa: $rsp 8 + .ra: .cfa -8 + ^
STACK CFI 81bc9 .cfa: $rsp 16 +
STACK CFI 81bd7 .cfa: $rsp 8 +
STACK CFI INIT 81bf0 1b .cfa: $rsp 8 + .ra: .cfa -8 + ^
STACK CFI INIT 81c10 23 .cfa: $rsp 8 + .ra: .cfa -8 + ^
STACK CFI 81c11 $rbx: .cfa -16 + ^ .cfa: $rsp 16 +
STACK CFI 81c32 .cfa: $rsp 8 +
STACK CFI INIT 81c40 e .cfa: $rsp 8 + .ra: .cfa -8 + ^
STACK CFI INIT 81c50 237 .cfa: $rsp 8 + .ra: .cfa -8 + ^
STACK CFI 81c51 $rbp: .cfa -16 + ^ .cfa: $rsp 16 +
STACK CFI 81c54 .cfa: $rbp 16 +
STACK CFI 81c56 $r15: .cfa -24 + ^
STACK CFI 81c67 $r12: .cfa -48 + ^ $r13: .cfa -40 + ^ $r14: .cfa -32 + ^ $rbx: .cfa -56 + ^
STACK CFI 81d25 .cfa: $rsp 8 +
STACK CFI 81d30 .cfa: $rbp 16 +
STACK CFI 81d50 .cfa: $rsp 8 +
STACK CFI 81d58 .cfa: $rbp 16 +
STACK CFI 81e6a .cfa: $rsp 8 +
STACK CFI 81e70 .cfa: $rbp 16 +
STACK CFI INIT 1cdda 1d $r12: .cfa -48 + ^ $r13: .cfa -40 + ^ $r14: .cfa -32 + ^ $r15: .cfa -24 + ^ $rbp: .cfa -16 + ^ $rbx: .cfa -56 + ^ .cfa: $rbp 16 + .ra: .cfa -8 + ^
STACK CFI INIT 81e90 34a .cfa: $rsp 8 + .ra: .cfa -8 + ^
STACK CFI 81e91 $rbp: .cfa -16 + ^ .cfa: $rsp 16 +
STACK CFI 81e94 .cfa: $rbp 16 +
STACK CFI 81ea4 $r12: .cfa -48 + ^ $r13: .cfa -40 + ^ $r14: .cfa -32 + ^ $r15: .cfa -24 + ^ $rbx: .cfa -56 + ^
STACK CFI 82032 .cfa: $rsp 8 +
STACK CFI 82038 .cfa: $rbp 16 +
STACK CFI INIT 1cdf7 21 $r12: .cfa -48 + ^ $r13: .cfa -40 + ^ $r14: .cfa -32 + ^ $r15: .cfa -24 + ^ $rbp: .cfa -16 + ^ $rbx: .cfa -56 + ^ .cfa: $rbp 16 + .ra: .cfa -8 + ^
STACK CFI INIT 821e0 1c7 .cfa: $rsp 8 + .ra: .cfa -8 + ^
STACK CFI 821e1 $rbp: .cfa -16 + ^ .cfa: $rsp 16 +
STACK CFI 821e4 .cfa: $rbp 16 +
STACK CFI 821e6 $r14: .cfa -24 + ^
STACK CFI 821f2 $r12: .cfa -40 + ^ $r13: .cfa -32 + ^ $rbx: .cfa -48 + ^
STACK CFI 82289 .cfa: $rsp 8 +
STACK CFI 82290 .cfa: $rbp 16 +
STACK CFI 822a9 .cfa: $rsp 8 +
STACK CFI 822b0 .cfa: $rbp 16 +
STACK CFI INIT 1ce18 1d $r12: .cfa -40 + ^ $r13: .cfa -32 + ^ $r14: .cfa -24 + ^ $rbp: .cfa -16 + ^ $rbx: .cfa -48 + ^ .cfa: $rbp 16 + .ra: .cfa -8 + ^
STACK CFI INIT 823b0 62 .cfa: $rsp 8 + .ra: .cfa -8 + ^
STACK CFI 823b1 $rbp: .cfa -16 + ^ .cfa: $rsp 16 +
STACK CFI 823b2 $rbx: .cfa -24 + ^ .cfa: $rsp 24 +
STACK CFI 823b6 .cfa: $rsp 32 +
STACK CFI 8240f .cfa: $rsp 24 +
STACK CFI 82410 .cfa: $rsp 16 +
STACK CFI 82411 .cfa: $rsp 8 +
STACK CFI INIT 82420 1 .cfa: $rsp 8 + .ra: .cfa -8 + ^
STACK CFI INIT 82430 1a .cfa: $rsp 8 + .ra: .cfa -8 + ^
STACK CFI 82432 $r12: .cfa -16 + ^ .cfa: $rsp 16 +
STACK CFI 82449 .cfa: $rsp 8 +
STACK CFI INIT 82450 26 .cfa: $rsp 8 + .ra: .cfa -8 + ^
STACK CFI 82459 .cfa: $rsp 16 +
STACK CFI 82467 .cfa: $rsp 8 +
STACK CFI INIT 82480 6a .cfa: $rsp 8 + .ra: .cfa -8 + ^
STACK CFI 82482 $r12: .cfa -16 + ^ .cfa: $rsp 16 +
STACK CFI 82488 $rbp: .cfa -24 + ^ .cfa: $rsp 24 +
STACK CFI 8248c $rbx: .cfa -32 + ^ .cfa: $rsp 32 +
STACK CFI 82490 .cfa: $rsp 48 +
STACK CFI 824b7 .cfa: $rsp 32 +
STACK CFI 824b8 .cfa: $rsp 24 +
STACK CFI 824b9 .cfa: $rsp 16 +
STACK CFI 824bb .cfa: $rsp 8 +
STACK CFI 824c0 .cfa: $rsp 48 +
STACK CFI 824d9 .cfa: $rsp 32 +
STACK CFI 824da .cfa: $rsp 24 +
STACK CFI 824db .cfa: $rsp 16 +
STACK CFI 824dd .cfa: $rsp 8 +
STACK CFI 824e0 .cfa: $rsp 48 +
STACK CFI INIT 824f0 33 .cfa: $rsp 8 + .ra: .cfa -8 + ^
STACK CFI 824f7 $r12: .cfa -16 + ^ .cfa: $rsp 16 +
STACK CFI 824fe $rbp: .cfa -24 + ^ .cfa: $rsp 24 +
STACK CFI 82505 .cfa: $rsp 32 +
STACK CFI 8250e .cfa: $rsp 24 +
STACK CFI 82515 $rbp: $rbp .cfa: $rsp 16 +
STACK CFI 8251a $r12: $r12 .cfa: $rsp 8 +
STACK CFI INIT 82530 9 .cfa: $rsp 8 + .ra: .cfa -8 + ^
STACK CFI INIT 82540 33 .cfa: $rsp 8 + .ra: .cfa -8 + ^
STACK CFI 82547 $r12: .cfa -16 + ^ .cfa: $rsp 16 +
STACK CFI 8254e $rbp: .cfa -24 + ^ .cfa: $rsp 24 +
STACK CFI 82555 .cfa: $rsp 32 +
STACK CFI 8255e .cfa: $rsp 24 +
STACK CFI 82565 $rbp: $rbp .cfa: $rsp 16 +
STACK CFI 8256a $r12: $r12 .cfa: $rsp 8 +
STACK CFI INIT 82580 ba .cfa: $rsp 8 + .ra: .cfa -8 + ^
STACK CFI 82581 $rbp: .cfa -16 + ^ .cfa: $rsp 16 +
STACK CFI 82582 $rbx: .cfa -24 + ^ .cfa: $rsp 24 +
STACK CFI 82586 .cfa: $rsp 144 +
STACK CFI 825d2 .cfa: $rsp 152 +
STACK CFI 825e0 .cfa: $rsp 160 +
STACK CFI 825e4 .cfa: $rsp 168 +
STACK CFI 825e8 .cfa: $rsp 176 +
STACK CFI 825ec .cfa: $rsp 184 +
STACK CFI 825f0 .cfa: $rsp 192 +
STACK CFI 825f4 .cfa: $rsp 200 +
STACK CFI 825f8 .cfa: $rsp 208 +
STACK CFI 825fc .cfa: $rsp 216 +
STACK CFI 82600 .cfa: $rsp 224 +
STACK CFI 82604 .cfa: $rsp 232 +
STACK CFI 82608 .cfa: $rsp 240 +
STACK CFI 82618 .cfa: $rsp 24 +
STACK CFI 82619 .cfa: $rsp 16 +
STACK CFI 8261a .cfa: $rsp 8 +
STACK CFI 8261b .cfa: $rsp 144 +
STACK CFI INIT 82640 80 .cfa: $rsp 8 + .ra: .cfa -8 + ^
STACK CFI 82641 $rbp: .cfa -16 + ^ .cfa: $rsp 16 +
STACK CFI 8264e $rbx: .cfa -24 + ^ .cfa: $rsp 24 +
STACK CFI 82655 .cfa: $rsp 128 +
STACK CFI 82670 .cfa: $rsp 136 +
STACK CFI 82685 .cfa: $rsp 144 +
STACK CFI 82689 .cfa: $rsp 152 +
STACK CFI 8268d .cfa: $rsp 160 +
STACK CFI 82691 .cfa: $rsp 168 +
STACK CFI 82695 .cfa: $rsp 176 +
STACK CFI 82699 .cfa: $rsp 184 +
STACK CFI 8269d .cfa: $rsp 192 +
STACK CFI 826a1 .cfa: $rsp 200 +
STACK CFI 826a5 .cfa: $rsp 208 +
STACK CFI 826a9 .cfa: $rsp 216 +
STACK CFI 826ad .cfa: $rsp 224 +
STACK CFI 826bd .cfa: $rsp 24 +
STACK CFI 826be .cfa: $rsp 16 +
STACK CFI 826bf .cfa: $rsp 8 +
STACK CFI INIT 826c0 22 .cfa: $rsp 8 + .ra: .cfa -8 + ^
STACK CFI 826d4 .cfa: $rsp 16 +
STACK CFI 826e1 .cfa: $rsp 8 +
STACK CFI INIT 826f0 222 .cfa: $rsp 8 + .ra: .cfa -8 + ^
STACK CFI INIT 82920 10 .cfa: $rsp 8 + .ra: .cfa -8 + ^
STACK CFI INIT 82930 1d .cfa: $rsp 8 + .ra: .cfa -8 + ^
STACK CFI INIT 82950 22 .cfa: $rsp 8 + .ra: .cfa -8 + ^
STACK CFI INIT 82980 5 .cfa: $rsp 8 + .ra: .cfa -8 + ^
STACK CFI INIT 82990 9 .cfa: $rsp 8 + .ra: .cfa -8 + ^
STACK CFI INIT 829a0 62 .cfa: $rsp 8 + .ra: .cfa -8 + ^
STACK CFI 829a8 $rbp: .cfa -16 + ^ .cfa: $rsp 16 +
STACK CFI 829ed .cfa: $rsp 8 +
STACK CFI 829f0 .cfa: $rsp 16 +
STACK CFI INIT 82a10 f1 .cfa: $rsp 8 + .ra: .cfa -8 + ^
STACK CFI 82a12 $r14: .cfa -16 + ^ .cfa: $rsp 16 +
STACK CFI 82a14 $r13: .cfa -24 + ^ .cfa: $rsp 24 +
STACK CFI 82a16 $r12: .cfa -32 + ^ .cfa: $rsp 32 +
STACK CFI 82a17 $rbp: .cfa -40 + ^ .cfa: $rsp 40 +
STACK CFI 82a1b $rbx: .cfa -48 + ^ .cfa: $rsp 48 +
STACK CFI 82a3d .cfa: $rsp 40 +
STACK CFI 82a41 .cfa: $rsp 32 +
STACK CFI 82a43 .cfa: $rsp 24 +
STACK CFI 82a45 .cfa: $rsp 16 +
STACK CFI 82a47 .cfa: $rsp 8 +
STACK CFI 82a50 .cfa: $rsp 48 +
STACK CFI 82ad6 .cfa: $rsp 56 +
STACK CFI 82ae8 .cfa: $rsp 64 +
STACK CFI 82af3 .cfa: $rsp 56 +
STACK CFI 82af4 .cfa: $rsp 48 +
STACK CFI INIT 82b10 42 .cfa: $rsp 8 + .ra: .cfa -8 + ^
STACK CFI 82b18 $rbp: .cfa -16 + ^ .cfa: $rsp 16 +
STACK CFI 82b35 .cfa: $rsp 8 +
STACK CFI 82b40 .cfa: $rsp 16 +
STACK CFI INIT 82b60 11 .cfa: $rsp 8 + .ra: .cfa -8 + ^
STACK CFI INIT 82b80 2a .cfa: $rsp 8 + .ra: .cfa -8 + ^
STACK CFI 82b82 $r13: .cfa -16 + ^ .cfa: $rsp 16 +
STACK CFI 82b87 $r12: .cfa -24 + ^ .cfa: $rsp 24 +
STACK CFI 82b88 $rbp: .cfa -32 + ^ .cfa: $rsp 32 +
STACK CFI 82ba5 .cfa: $rsp 24 +
STACK CFI 82ba7 .cfa: $rsp 16 +
STACK CFI 82ba9 .cfa: $rsp 8 +
STACK CFI INIT 82bb0 12 .cfa: $rsp 8 + .ra: .cfa -8 + ^
STACK CFI 82bb1 $rbp: .cfa -16 + ^ .cfa: $rsp 16 +
STACK CFI 82bbd .cfa: $rsp 8 +
STACK CFI INIT 82bd0 1f .cfa: $rsp 8 + .ra: .cfa -8 + ^
STACK CFI 82bd1 $rbp: .cfa -16 + ^ .cfa: $rsp 16 +
STACK CFI 82bee .cfa: $rsp 8 +
STACK CFI INIT 82bf0 68 .cfa: $rsp 8 + .ra: .cfa -8 + ^
STACK CFI 82bf8 $rbp: .cfa -16 + ^ .cfa: $rsp 16 +
STACK CFI 82c24 .cfa: $rsp 8 +
STACK CFI 82c28 .cfa: $rsp 16 +
STACK CFI 82c2c .cfa: $rsp 8 +
STACK CFI 82c38 .cfa: $rsp 16 +
STACK CFI INIT 82c60 26 .cfa: $rsp 8 + .ra: .cfa -8 + ^
STACK CFI 82c62 $r13: .cfa -16 + ^ .cfa: $rsp 16 +
STACK CFI 82c67 $r12: .cfa -24 + ^ .cfa: $rsp 24 +
STACK CFI 82c6b $rbp: .cfa -32 + ^ .cfa: $rsp 32 +
STACK CFI 82c7d .cfa: $rsp 24 +
STACK CFI 82c7f .cfa: $rsp 16 +
STACK CFI 82c81 .cfa: $rsp 8 +
STACK CFI INIT 82c90 fd .cfa: $rsp 8 + .ra: .cfa -8 + ^
STACK CFI 82c92 $r12: .cfa -16 + ^ .cfa: $rsp 16 +
STACK CFI 82c93 $rbp: .cfa -24 + ^ .cfa: $rsp 24 +
STACK CFI 82c94 $rbx: .cfa -32 + ^ .cfa: $rsp 32 +
STACK CFI 82d80 .cfa: $rsp 24 +
STACK CFI 82d81 .cfa: $rsp 16 +
STACK CFI 82d83 .cfa: $rsp 8 +
STACK CFI 82d88 .cfa: $rsp 32 +
STACK CFI INIT 82d90 3b .cfa: $rsp 8 + .ra: .cfa -8 + ^
STACK CFI INIT 82dd0 143 .cfa: $rsp 8 + .ra: .cfa -8 + ^
STACK CFI 82dd2 $r13: .cfa -16 + ^ .cfa: $rsp 16 +
STACK CFI 82dd7 $r12: .cfa -24 + ^ .cfa: $rsp 24 +
STACK CFI 82ddb $rbp: .cfa -32 + ^ .cfa: $rsp 32 +
STACK CFI 82ddc $rbx: .cfa -40 + ^ .cfa: $rsp 40 +
STACK CFI 82de0 .cfa: $rsp 48 +
STACK CFI 82eb4 .cfa: $rsp 40 +
STACK CFI 82eb5 .cfa: $rsp 32 +
STACK CFI 82eb6 .cfa: $rsp 24 +
STACK CFI 82eb8 .cfa: $rsp 16 +
STACK CFI 82eba .cfa: $rsp 8 +
STACK CFI 82ec0 .cfa: $rsp 48 +
STACK CFI 82f05 .cfa: $rsp 40 +
STACK CFI 82f09 .cfa: $rsp 32 +
STACK CFI 82f0a .cfa: $rsp 24 +
STACK CFI 82f0c .cfa: $rsp 16 +
STACK CFI 82f0e .cfa: $rsp 8 +
STACK CFI INIT 82f20 129 .cfa: $rsp 8 + .ra: .cfa -8 + ^
STACK CFI 82f22 $r12: .cfa -16 + ^ .cfa: $rsp 16 +
STACK CFI 82f2d $rbp: .cfa -24 + ^ .cfa: $rsp 24 +
STACK CFI 82f2e $rbx: .cfa -32 + ^ .cfa: $rsp 32 +
STACK CFI 82fb9 .cfa: $rsp 24 +
STACK CFI 82fba .cfa: $rsp 16 +
STACK CFI 82fc4 .cfa: $rsp 8 +
STACK CFI 82fc8 .cfa: $rsp 32 +
STACK CFI 8303d .cfa: $rsp 24 +
STACK CFI 83046 .cfa: $rsp 16 +
STACK CFI 83048 .cfa: $rsp 8 +
STACK CFI INIT 83050 111 .cfa: $rsp 8 + .ra: .cfa -8 + ^
STACK CFI 83052 $r12: .cfa -16 + ^ .cfa: $rsp 16 +
STACK CFI 8305d $rbp: .cfa -24 + ^ .cfa: $rsp 24 +
STACK CFI 8305e $rbx: .cfa -32 + ^ .cfa: $rsp 32 +
STACK CFI 830e5 .cfa: $rsp 24 +
STACK CFI 830e6 .cfa: $rsp 16 +
STACK CFI 830f0 .cfa: $rsp 8 +
STACK CFI 830f8 .cfa: $rsp 32 +
STACK CFI 83155 .cfa: $rsp 24 +
STACK CFI 8315e .cfa: $rsp 16 +
STACK CFI 83160 .cfa: $rsp 8 +
STACK CFI INIT 83170 2f .cfa: $rsp 8 + .ra: .cfa -8 + ^
STACK CFI INIT 831a0 67 .cfa: $rsp 8 + .ra: .cfa -8 + ^
STACK CFI INIT 83210 249 .cfa: $rsp 8 + .ra: .cfa -8 + ^
STACK CFI 83219 $r14: .cfa -16 + ^ .cfa: $rsp 16 +
STACK CFI 8321b $r13: .cfa -24 + ^ .cfa: $rsp 24 +
STACK CFI 83220 $r12: .cfa -32 + ^ .cfa: $rsp 32 +
STACK CFI 83224 $rbp: .cfa -40 + ^ .cfa: $rsp 40 +
STACK CFI 83227 $rbx: .cfa -48 + ^ .cfa: $rsp 48 +
STACK CFI 83337 .cfa: $rsp 40 +
STACK CFI 83338 .cfa: $rsp 32 +
STACK CFI 8333a .cfa: $rsp 24 +
STACK CFI 8333c .cfa: $rsp 16 +
STACK CFI 8333e .cfa: $rsp 8 +
STACK CFI 83348 .cfa: $rsp 48 +
STACK CFI 83351 .cfa: $rsp 40 +
STACK CFI 83352 .cfa: $rsp 32 +
STACK CFI 8335c .cfa: $rsp 24 +
STACK CFI 8335e .cfa: $rsp 16 +
STACK CFI 83360 .cfa: $rsp 8 +
STACK CFI 83368 .cfa: $rsp 48 +
STACK CFI INIT 83460 26 .cfa: $rsp 8 + .ra: .cfa -8 + ^
STACK CFI 83462 $r13: .cfa -16 + ^ .cfa: $rsp 16 +
STACK CFI 83467 $r12: .cfa -24 + ^ .cfa: $rsp 24 +
STACK CFI 8346b $rbp: .cfa -32 + ^ .cfa: $rsp 32 +
STACK CFI 8347d .cfa: $rsp 24 +
STACK CFI 8347f .cfa: $rsp 16 +
STACK CFI 83481 .cfa: $rsp 8 +
STACK CFI INIT 83490 26d .cfa: $rsp 8 + .ra: .cfa -8 + ^
STACK CFI 83492 $r14: .cfa -16 + ^ .cfa: $rsp 16 +
STACK CFI 83497 $r13: .cfa -24 + ^ .cfa: $rsp 24 +
STACK CFI 8349c $r12: .cfa -32 + ^ .cfa: $rsp 32 +
STACK CFI 8349d $rbp: .cfa -40 + ^ .cfa: $rsp 40 +
STACK CFI 834a6 $rbx: .cfa -48 + ^ .cfa: $rsp 48 +
STACK CFI 834ac .cfa: $rsp 64 +
STACK CFI 835db .cfa: $rsp 48 +
STACK CFI 835dc .cfa: $rsp 40 +
STACK CFI 835dd .cfa: $rsp 32 +
STACK CFI 835df .cfa: $rsp 24 +
STACK CFI 835e1 .cfa: $rsp 16 +
STACK CFI 835e3 .cfa: $rsp 8 +
STACK CFI 835f0 .cfa: $rsp 64 +
STACK CFI 83605 .cfa: $rsp 48 +
STACK CFI 83606 .cfa: $rsp 40 +
STACK CFI 83607 .cfa: $rsp 32 +
STACK CFI 83609 .cfa: $rsp 24 +
STACK CFI 8360b .cfa: $rsp 16 +
STACK CFI 8360d .cfa: $rsp 8 +
STACK CFI 83610 .cfa: $rsp 64 +
STACK CFI INIT 83700 26 .cfa: $rsp 8 + .ra: .cfa -8 + ^
STACK CFI 83702 $r13: .cfa -16 + ^ .cfa: $rsp 16 +
STACK CFI 83707 $r12: .cfa -24 + ^ .cfa: $rsp 24 +
STACK CFI 8370b $rbp: .cfa -32 + ^ .cfa: $rsp 32 +
STACK CFI 8371d .cfa: $rsp 24 +
STACK CFI 8371f .cfa: $rsp 16 +
STACK CFI 83721 .cfa: $rsp 8 +
STACK CFI INIT 83730 205 .cfa: $rsp 8 + .ra: .cfa -8 + ^
STACK CFI 83732 $r15: .cfa -16 + ^ .cfa: $rsp 16 +
STACK CFI 8373a $r14: .cfa -24 + ^ .cfa: $rsp 24 +
STACK CFI 8373f $r13: .cfa -32 + ^ .cfa: $rsp 32 +
STACK CFI 83744 $r12: .cfa -40 + ^ .cfa: $rsp 40 +
STACK CFI 83748 $rbp: .cfa -48 + ^ .cfa: $rsp 48 +
STACK CFI 83749 $rbx: .cfa -56 + ^ .cfa: $rsp 56 +
STACK CFI 83750 .cfa: $rsp 80 +
STACK CFI 8380f .cfa: $rsp 56 +
STACK CFI 83810 .cfa: $rsp 48 +
STACK CFI 83811 .cfa: $rsp 40 +
STACK CFI 83813 .cfa: $rsp 32 +
STACK CFI 83815 .cfa: $rsp 24 +
STACK CFI 83817 .cfa: $rsp 16 +
STACK CFI 83819 .cfa: $rsp 8 +
STACK CFI 83820 .cfa: $rsp 80 +
STACK CFI 83903 .cfa: $rsp 56 +
STACK CFI 83904 .cfa: $rsp 48 +
STACK CFI 83905 .cfa: $rsp 40 +
STACK CFI 83907 .cfa: $rsp 32 +
STACK CFI 83909 .cfa: $rsp 24 +
STACK CFI 8390b .cfa: $rsp 16 +
STACK CFI 8390d .cfa: $rsp 8 +
STACK CFI 83918 .cfa: $rsp 80 +
STACK CFI INIT 83940 15a .cfa: $rsp 8 + .ra: .cfa -8 + ^
STACK CFI 83942 $r14: .cfa -16 + ^ .cfa: $rsp 16 +
STACK CFI 83944 $r13: .cfa -24 + ^ .cfa: $rsp 24 +
STACK CFI 83946 $r12: .cfa -32 + ^ .cfa: $rsp 32 +
STACK CFI 83947 $rbp: .cfa -40 + ^ .cfa: $rsp 40 +
STACK CFI 8394b .cfa: $rsp 48 +
STACK CFI 839b6 .cfa: $rsp 40 +
STACK CFI 839b7 .cfa: $rsp 32 +
STACK CFI 839b9 .cfa: $rsp 24 +
STACK CFI 839bb .cfa: $rsp 16 +
STACK CFI 839bd .cfa: $rsp 8 +
STACK CFI 839c0 .cfa: $rsp 48 +
STACK CFI 83a4f .cfa: $rsp 40 +
STACK CFI 83a5f .cfa: $rsp 32 +
STACK CFI 83a64 .cfa: $rsp 24 +
STACK CFI 83a66 .cfa: $rsp 16 +
STACK CFI 83a68 .cfa: $rsp 8 +
STACK CFI 83a70 .cfa: $rsp 48 +
STACK CFI INIT 83aa0 1fc .cfa: $rsp 8 + .ra: .cfa -8 + ^
STACK CFI 83aab $r14: .cfa -16 + ^ .cfa: $rsp 16 +
STACK CFI 83aaf $r13: .cfa -24 + ^ .cfa: $rsp 24 +
STACK CFI 83ab1 $r12: .cfa -32 + ^ .cfa: $rsp 32 +
STACK CFI 83ab2 $rbp: .cfa -40 + ^ .cfa: $rsp 40 +
STACK CFI 83ab3 $rbx: .cfa -48 + ^ .cfa: $rsp 48 +
STACK CFI 83aba .cfa: $rsp 64 +
STACK CFI 83ac8 .cfa: $rsp 48 +
STACK CFI 83ac9 .cfa: $rsp 40 +
STACK CFI 83aca .cfa: $rsp 32 +
STACK CFI 83acc .cfa: $rsp 24 +
STACK CFI 83ace .cfa: $rsp 16 +
STACK CFI 83ad0 .cfa: $rsp 8 +
STACK CFI 83ad8 .cfa: $rsp 64 +
STACK CFI 83bb8 .cfa: $rsp 48 +
STACK CFI 83bbe .cfa: $rsp 40 +
STACK CFI 83bbf .cfa: $rsp 32 +
STACK CFI 83bc1 .cfa: $rsp 24 +
STACK CFI 83bc3 .cfa: $rsp 16 +
STACK CFI 83bc5 .cfa: $rsp 8 +
STACK CFI 83bd0 .cfa: $rsp 64 +
STACK CFI 83bf8 $r12: $r12 $r13: $r13 $r14: $r14 $rbp: $rbp $rbx: $rbx .cfa: $rsp 8 +
STACK CFI 83c00 $r12: .cfa -32 + ^ $r13: .cfa -24 + ^ $r14: .cfa -16 + ^ $rbp: .cfa -40 + ^ $rbx: .cfa -48 + ^ .cfa: $rsp 64 +
STACK CFI INIT 83ca0 92 .cfa: $rsp 8 + .ra: .cfa -8 + ^
STACK CFI 83ca1 $rbp: .cfa -16 + ^ .cfa: $rsp 16 +
STACK CFI 83ca2 $rbx: .cfa -24 + ^ .cfa: $rsp 24 +
STACK CFI 83ca6 .cfa: $rsp 32 +
STACK CFI 83d11 .cfa: $rsp 24 +
STACK CFI 83d12 .cfa: $rsp 16 +
STACK CFI 83d13 .cfa: $rsp 8 +
STACK CFI 83d18 .cfa: $rsp 32 +
STACK CFI INIT 83d40 c5 .cfa: $rsp 8 + .ra: .cfa -8 + ^
STACK CFI 83d41 $rbp: .cfa -16 + ^ .cfa: $rsp 16 +
STACK CFI 83d42 $rbx: .cfa -24 + ^ .cfa: $rsp 24 +
STACK CFI 83d46 .cfa: $rsp 32 +
STACK CFI 83dd1 .cfa: $rsp 24 +
STACK CFI 83dd5 .cfa: $rsp 16 +
STACK CFI 83dd6 .cfa: $rsp 8 +
STACK CFI 83de0 .cfa: $rsp 32 +
STACK CFI 83de4 .cfa: $rsp 24 +
STACK CFI 83deb .cfa: $rsp 16 +
STACK CFI 83dec .cfa: $rsp 8 +
STACK CFI 83df0 .cfa: $rsp 32 +
STACK CFI INIT 83e10 80a .cfa: $rsp 8 + .ra: .cfa -8 + ^
STACK CFI 83e12 $r15: .cfa -16 + ^ .cfa: $rsp 16 +
STACK CFI 83e14 $r14: .cfa -24 + ^ .cfa: $rsp 24 +
STACK CFI 83e16 $r13: .cfa -32 + ^ .cfa: $rsp 32 +
STACK CFI 83e1b $r12: .cfa -40 + ^ .cfa: $rsp 40 +
STACK CFI 83e1c $rbp: .cfa -48 + ^ .cfa: $rsp 48 +
STACK CFI 83e20 $rbx: .cfa -56 + ^ .cfa: $rsp 56 +
STACK CFI 83e24 .cfa: $rsp 80 +
STACK CFI 8414c .cfa: $rsp 56 +
STACK CFI 84150 .cfa: $rsp 48 +
STACK CFI 84151 .cfa: $rsp 40 +
STACK CFI 84153 .cfa: $rsp 32 +
STACK CFI 84155 .cfa: $rsp 24 +
STACK CFI 84157 .cfa: $rsp 16 +
STACK CFI 84159 .cfa: $rsp 8 +
STACK CFI 84160 .cfa: $rsp 80 +
STACK CFI INIT 84620 aa .cfa: $rsp 8 + .ra: .cfa -8 + ^
STACK CFI 84622 $r13: .cfa -16 + ^ .cfa: $rsp 16 +
STACK CFI 84627 $r12: .cfa -24 + ^ .cfa: $rsp 24 +
STACK CFI 8462b $rbp: .cfa -32 + ^ .cfa: $rsp 32 +
STACK CFI 8462c $rbx: .cfa -40 + ^ .cfa: $rsp 40 +
STACK CFI 84630 .cfa: $rsp 48 +
STACK CFI 8468d .cfa: $rsp 40 +
STACK CFI 8468e .cfa: $rsp 32 +
STACK CFI 8468f .cfa: $rsp 24 +
STACK CFI 84691 .cfa: $rsp 16 +
STACK CFI 84693 .cfa: $rsp 8 +
STACK CFI 84698 .cfa: $rsp 48 +
STACK CFI INIT 846d0 92 .cfa: $rsp 8 + .ra: .cfa -8 + ^
STACK CFI 846d2 $r12: .cfa -16 + ^ .cfa: $rsp 16 +
STACK CFI 846d6 $rbp: .cfa -24 + ^ .cfa: $rsp 24 +
STACK CFI 846da $rbx: .cfa -32 + ^ .cfa: $rsp 32 +
STACK CFI 84751 .cfa: $rsp 24 +
STACK CFI 84752 .cfa: $rsp 16 +
STACK CFI 84754 .cfa: $rsp 8 +
STACK CFI 84758 .cfa: $rsp 32 +
STACK CFI INIT 84770 36a .cfa: $rsp 8 + .ra: .cfa -8 + ^
STACK CFI 84772 $r14: .cfa -16 + ^ .cfa: $rsp 16 +
STACK CFI 84774 $r13: .cfa -24 + ^ .cfa: $rsp 24 +
STACK CFI 84776 $r12: .cfa -32 + ^ .cfa: $rsp 32 +
STACK CFI 84777 $rbp: .cfa -40 + ^ .cfa: $rsp 40 +
STACK CFI 8477b $rbx: .cfa -48 + ^ .cfa: $rsp 48 +
STACK CFI 84781 .cfa: $rsp 64 +
STACK CFI 848fa .cfa: $rsp 48 +
STACK CFI 848fb .cfa: $rsp 40 +
STACK CFI 848fc .cfa: $rsp 32 +
STACK CFI 848fe .cfa: $rsp 24 +
STACK CFI 84900 .cfa: $rsp 16 +
STACK CFI 84902 .cfa: $rsp 8 +
STACK CFI 84908 .cfa: $rsp 64 +
STACK CFI 84912 .cfa: $rsp 48 +
STACK CFI 84916 .cfa: $rsp 40 +
STACK CFI 84917 .cfa: $rsp 32 +
STACK CFI 84919 .cfa: $rsp 24 +
STACK CFI 8491b .cfa: $rsp 16 +
STACK CFI 8491d .cfa: $rsp 8 +
STACK CFI 84928 .cfa: $rsp 64 +
STACK CFI INIT 84ae0 784 .cfa: $rsp 8 + .ra: .cfa -8 + ^
STACK CFI 84ae2 $r15: .cfa -16 + ^ .cfa: $rsp 16 +
STACK CFI 84ae4 $r14: .cfa -24 + ^ .cfa: $rsp 24 +
STACK CFI 84ae6 $r13: .cfa -32 + ^ .cfa: $rsp 32 +
STACK CFI 84ae8 $r12: .cfa -40 + ^ .cfa: $rsp 40 +
STACK CFI 84aec $rbp: .cfa -48 + ^ .cfa: $rsp 48 +
STACK CFI 84aed $rbx: .cfa -56 + ^ .cfa: $rsp 56 +
STACK CFI 84af4 .cfa: $rsp 80 +
STACK CFI 84c3c .cfa: $rsp 56 +
STACK CFI 84c3d .cfa: $rsp 48 +
STACK CFI 84c3e .cfa: $rsp 40 +
STACK CFI 84c40 .cfa: $rsp 32 +
STACK CFI 84c42 .cfa: $rsp 24 +
STACK CFI 84c44 .cfa: $rsp 16 +
STACK CFI 84c46 .cfa: $rsp 8 +
STACK CFI 84c50 .cfa: $rsp 80 +
STACK CFI 85034 .cfa: $rsp 56 +
STACK CFI 8503b .cfa: $rsp 48 +
STACK CFI 8503c .cfa: $rsp 40 +
STACK CFI 8503e .cfa: $rsp 32 +
STACK CFI 85040 .cfa: $rsp 24 +
STACK CFI 85042 .cfa: $rsp 16 +
STACK CFI 85044 .cfa: $rsp 8 +
STACK CFI 85050 .cfa: $rsp 80 +
STACK CFI INIT 85270 758 .cfa: $rsp 8 + .ra: .cfa -8 + ^
STACK CFI 85272 $r15: .cfa -16 + ^ .cfa: $rsp 16 +
STACK CFI 85274 $r14: .cfa -24 + ^ .cfa: $rsp 24 +
STACK CFI 85276 $r13: .cfa -32 + ^ .cfa: $rsp 32 +
STACK CFI 85278 $r12: .cfa -40 + ^ .cfa: $rsp 40 +
STACK CFI 8527c $rbp: .cfa -48 + ^ .cfa: $rsp 48 +
STACK CFI 8527d $rbx: .cfa -56 + ^ .cfa: $rsp 56 +
STACK CFI 85284 .cfa: $rsp 80 +
STACK CFI 853e9 .cfa: $rsp 56 +
STACK CFI 853ea .cfa: $rsp 48 +
STACK CFI 853eb .cfa: $rsp 40 +
STACK CFI 853ed .cfa: $rsp 32 +
STACK CFI 853ef .cfa: $rsp 24 +
STACK CFI 853f1 .cfa: $rsp 16 +
STACK CFI 853f3 .cfa: $rsp 8 +
STACK CFI 853f8 .cfa: $rsp 80 +
STACK CFI 85907 .cfa: $rsp 56 +
STACK CFI 8590b .cfa: $rsp 48 +
STACK CFI 8590c .cfa: $rsp 40 +
STACK CFI 8590e .cfa: $rsp 32 +
STACK CFI 85910 .cfa: $rsp 24 +
STACK CFI 85912 .cfa: $rsp 16 +
STACK CFI 85914 .cfa: $rsp 8 +
STACK CFI 85920 .cfa: $rsp 80 +
STACK CFI INIT 859d0 a2 .cfa: $rsp 8 + .ra: .cfa -8 + ^
STACK CFI 859d1 $rbp: .cfa -16 + ^ .cfa: $rsp 16 +
STACK CFI 859d2 $rbx: .cfa -24 + ^ .cfa: $rsp 24 +
STACK CFI 859d6 .cfa: $rsp 32 +
STACK CFI 85a43 .cfa: $rsp 24 +
STACK CFI 85a44 .cfa: $rsp 16 +
STACK CFI 85a45 .cfa: $rsp 8 +
STACK CFI 85a50 .cfa: $rsp 32 +
STACK CFI 85a54 .cfa: $rsp 24 +
STACK CFI 85a5c .cfa: $rsp 16 +
STACK CFI 85a5d .cfa: $rsp 8 +
STACK CFI 85a60 .cfa: $rsp 32 +
STACK CFI INIT 85a80 4b .cfa: $rsp 8 + .ra: .cfa -8 + ^
STACK CFI INIT 85ad0 51 .cfa: $rsp 8 + .ra: .cfa -8 + ^
STACK CFI INIT 85b30 2d0 .cfa: $rsp 8 + .ra: .cfa -8 + ^
STACK CFI 85b32 $r15: .cfa -16 + ^ .cfa: $rsp 16 +
STACK CFI 85b37 $r14: .cfa -24 + ^ .cfa: $rsp 24 +
STACK CFI 85b3c $r13: .cfa -32 + ^ .cfa: $rsp 32 +
STACK CFI 85b3e $r12: .cfa -40 + ^ .cfa: $rsp 40 +
STACK CFI 85b42 $rbp: .cfa -48 + ^ .cfa: $rsp 48 +
STACK CFI 85b46 $rbx: .cfa -56 + ^ .cfa: $rsp 56 +
STACK CFI 85b4d .cfa: $rsp 80 +
STACK CFI 85cdd .cfa: $rsp 56 +
STACK CFI 85cde .cfa: $rsp 48 +
STACK CFI 85cdf .cfa: $rsp 40 +
STACK CFI 85ce1 .cfa: $rsp 32 +
STACK CFI 85ce3 .cfa: $rsp 24 +
STACK CFI 85ce5 .cfa: $rsp 16 +
STACK CFI 85ce7 .cfa: $rsp 8 +
STACK CFI 85cf0 .cfa: $rsp 80 +
STACK CFI 85d17 .cfa: $rsp 56 +
STACK CFI 85d24 .cfa: $rsp 48 +
STACK CFI 85d27 .cfa: $rsp 40 +
STACK CFI 85d29 .cfa: $rsp 32 +
STACK CFI 85d2b .cfa: $rsp 24 +
STACK CFI 85d2d .cfa: $rsp 16 +
STACK CFI 85d2f .cfa: $rsp 8 +
STACK CFI 85d38 .cfa: $rsp 80 +
STACK CFI INIT 85e00 6d .cfa: $rsp 8 + .ra: .cfa -8 + ^
STACK CFI INIT 85e70 34 .cfa: $rsp 8 + .ra: .cfa -8 + ^
STACK CFI 85e72 $r12: .cfa -16 + ^ .cfa: $rsp 16 +
STACK CFI 85e79 $rbp: .cfa -24 + ^ .cfa: $rsp 24 +
STACK CFI 85e80 .cfa: $rsp 32 +
STACK CFI 85ea0 .cfa: $rsp 24 +
STACK CFI 85ea1 .cfa: $rsp 16 +
STACK CFI 85ea3 .cfa: $rsp 8 +
STACK CFI INIT 85eb0 f1 .cfa: $rsp 8 + .ra: .cfa -8 + ^
STACK CFI 85eb2 $r13: .cfa -16 + ^ .cfa: $rsp 16 +
STACK CFI 85eb4 $r12: .cfa -24 + ^ .cfa: $rsp 24 +
STACK CFI 85eb5 $rbp: .cfa -32 + ^ .cfa: $rsp 32 +
STACK CFI 85eb6 $rbx: .cfa -40 + ^ .cfa: $rsp 40 +
STACK CFI 85eba .cfa: $rsp 48 +
STACK CFI 85f68 .cfa: $rsp 40 +
STACK CFI 85f6c .cfa: $rsp 32 +
STACK CFI 85f6d .cfa: $rsp 24 +
STACK CFI 85f6f .cfa: $rsp 16 +
STACK CFI 85f71 .cfa: $rsp 8 +
STACK CFI 85f78 .cfa: $rsp 48 +
STACK CFI INIT 85fb0 bb .cfa: $rsp 8 + .ra: .cfa -8 + ^
STACK CFI 85fb2 $r12: .cfa -16 + ^ .cfa: $rsp 16 +
STACK CFI 85fb3 $rbp: .cfa -24 + ^ .cfa: $rsp 24 +
STACK CFI 85fb4 $rbx: .cfa -32 + ^ .cfa: $rsp 32 +
STACK CFI 86034 .cfa: $rsp 24 +
STACK CFI 86035 .cfa: $rsp 16 +
STACK CFI 86037 .cfa: $rsp 8 +
STACK CFI 86040 .cfa: $rsp 32 +
STACK CFI 8605c .cfa: $rsp 24 +
STACK CFI 8605d .cfa: $rsp 16 +
STACK CFI 86062 .cfa: $rsp 8 +
STACK CFI 86063 .cfa: $rsp 32 +
STACK CFI INIT 86070 f .cfa: $rsp 8 + .ra: .cfa -8 + ^
STACK CFI INIT 86080 5 .cfa: $rsp 8 + .ra: .cfa -8 + ^
STACK CFI INIT 86090 22 .cfa: $rsp 8 + .ra: .cfa -8 + ^
STACK CFI 86091 $rbp: .cfa -16 + ^ .cfa: $rsp 16 +
STACK CFI 860ad .cfa: $rsp 8 +
STACK CFI INIT 860c0 22 .cfa: $rsp 8 + .ra: .cfa -8 + ^
STACK CFI 860c1 $rbp: .cfa -16 + ^ .cfa: $rsp 16 +
STACK CFI 860dd .cfa: $rsp 8 +
STACK CFI INIT 860f0 22 .cfa: $rsp 8 + .ra: .cfa -8 + ^
STACK CFI 860f1 $rbp: .cfa -16 + ^ .cfa: $rsp 16 +
STACK CFI 8610d .cfa: $rsp 8 +
STACK CFI INIT 86120 15 .cfa: $rsp 8 + .ra: .cfa -8 + ^
STACK CFI 86124 .cfa: $rsp 16 +
STACK CFI INIT 86140 6f .cfa: $rsp 8 + .ra: .cfa -8 + ^
STACK CFI 86141 $rbp: .cfa -16 + ^ .cfa: $rsp 16 +
STACK CFI 86142 $rbx: .cfa -24 + ^ .cfa: $rsp 24 +
STACK CFI 86146 .cfa: $rsp 32 +
STACK CFI 8619b .cfa: $rsp 24 +
STACK CFI 8619e .cfa: $rsp 16 +
STACK CFI 8619f .cfa: $rsp 8 +
STACK CFI 861a8 .cfa: $rsp 32 +
STACK CFI 861ac .cfa: $rsp 24 +
STACK CFI 861ad .cfa: $rsp 16 +
STACK CFI 861ae .cfa: $rsp 8 +
STACK CFI INIT 861b0 81 .cfa: $rsp 8 + .ra: .cfa -8 + ^
STACK CFI 861b9 $r12: .cfa -16 + ^ .cfa: $rsp 16 +
STACK CFI 861bd $rbp: .cfa -24 + ^ .cfa: $rsp 24 +
STACK CFI 861be $rbx: .cfa -32 + ^ .cfa: $rsp 32 +
STACK CFI 8622d .cfa: $rsp 24 +
STACK CFI 8622e .cfa: $rsp 16 +
STACK CFI 86230 .cfa: $rsp 8 +
STACK CFI INIT 86240 b6 .cfa: $rsp 8 + .ra: .cfa -8 + ^
STACK CFI 86249 $r12: .cfa -16 + ^ .cfa: $rsp 16 +
STACK CFI 86251 $rbp: .cfa -24 + ^ .cfa: $rsp 24 +
STACK CFI 86254 $rbx: .cfa -32 + ^ .cfa: $rsp 32 +
STACK CFI 862d0 .cfa: $rsp 24 +
STACK CFI 862d1 .cfa: $rsp 16 +
STACK CFI 862d3 .cfa: $rsp 8 +
STACK CFI 862d8 .cfa: $rsp 32 +
STACK CFI INIT 86300 9a .cfa: $rsp 8 + .ra: .cfa -8 + ^
STACK CFI 86309 $r14: .cfa -16 + ^ .cfa: $rsp 16 +
STACK CFI 8630e $r13: .cfa -24 + ^ .cfa: $rsp 24 +
STACK CFI 86313 $r12: .cfa -32 + ^ .cfa: $rsp 32 +
STACK CFI 86317 $rbp: .cfa -40 + ^ .cfa: $rsp 40 +
STACK CFI 86318 $rbx: .cfa -48 + ^ .cfa: $rsp 48 +
STACK CFI 8637b .cfa: $rsp 40 +
STACK CFI 8637c .cfa: $rsp 32 +
STACK CFI 8637e .cfa: $rsp 24 +
STACK CFI 86380 .cfa: $rsp 16 +
STACK CFI 86382 .cfa: $rsp 8 +
STACK CFI 86388 .cfa: $rsp 48 +
STACK CFI INIT 863a0 a .cfa: $rsp 8 + .ra: .cfa -8 + ^
STACK CFI INIT 863b0 a .cfa: $rsp 8 + .ra: .cfa -8 + ^
STACK CFI INIT 863c0 38 .cfa: $rsp 8 + .ra: .cfa -8 + ^
STACK CFI 863c4 .cfa: $rsp 16 +
STACK CFI 863e0 .cfa: $rsp 8 +
STACK CFI 863e8 .cfa: $rsp 16 +
STACK CFI 863f3 .cfa: $rsp 8 +
STACK CFI INIT 86400 14 .cfa: $rsp 8 + .ra: .cfa -8 + ^
STACK CFI 86404 .cfa: $rsp 16 +
STACK CFI 86413 .cfa: $rsp 8 +
STACK CFI INIT 86420 8f .cfa: $rsp 8 + .ra: .cfa -8 + ^
STACK CFI 86422 $r12: .cfa -16 + ^ .cfa: $rsp 16 +
STACK CFI 8642a $rbp: .cfa -24 + ^ .cfa: $rsp 24 +
STACK CFI 8642b $rbx: .cfa -32 + ^ .cfa: $rsp 32 +
STACK CFI 8644d .cfa: $rsp 24 +
STACK CFI 8644e .cfa: $rsp 16 +
STACK CFI 86450 .cfa: $rsp 8 +
STACK CFI 86458 .cfa: $rsp 32 +
STACK CFI 864a1 .cfa: $rsp 24 +
STACK CFI 864a6 .cfa: $rsp 16 +
STACK CFI 864aa .cfa: $rsp 8 +
STACK CFI INIT 864b0 1b8 .cfa: $rsp 8 + .ra: .cfa -8 + ^
STACK CFI 864b2 $r12: .cfa -16 + ^ .cfa: $rsp 16 +
STACK CFI 864b6 $rbp: .cfa -24 + ^ .cfa: $rsp 24 +
STACK CFI 864b7 $rbx: .cfa -32 + ^ .cfa: $rsp 32 +
STACK CFI 86639 .cfa: $rsp 24 +
STACK CFI 8663a .cfa: $rsp 16 +
STACK CFI 8663c .cfa: $rsp 8 +
STACK CFI 86640 .cfa: $rsp 32 +
STACK CFI INIT 86670 59 .cfa: $rsp 8 + .ra: .cfa -8 + ^
STACK CFI 86672 $r12: .cfa -16 + ^ .cfa: $rsp 16 +
STACK CFI 86676 $rbp: .cfa -24 + ^ .cfa: $rsp 24 +
STACK CFI 86677 $rbx: .cfa -32 + ^ .cfa: $rsp 32 +
STACK CFI 8667e .cfa: $rsp 24 +
STACK CFI 8667f .cfa: $rsp 16 +
STACK CFI 86681 .cfa: $rsp 8 +
STACK CFI 86688 .cfa: $rsp 32 +
STACK CFI 866c5 .cfa: $rsp 24 +
STACK CFI 866c6 .cfa: $rsp 16 +
STACK CFI 866c8 .cfa: $rsp 8 +
STACK CFI INIT 866d0 2d1 .cfa: $rsp 8 + .ra: .cfa -8 + ^
STACK CFI 866d2 $r13: .cfa -16 + ^ .cfa: $rsp 16 +
STACK CFI 866d4 $r12: .cfa -24 + ^ .cfa: $rsp 24 +
STACK CFI 866d8 $rbp: .cfa -32 + ^ .cfa: $rsp 32 +
STACK CFI 866dc $rbx: .cfa -40 + ^ .cfa: $rsp 40 +
STACK CFI 866e0 .cfa: $rsp 48 +
STACK CFI 868b1 .cfa: $rsp 40 +
STACK CFI 868b2 .cfa: $rsp 32 +
STACK CFI 868b3 .cfa: $rsp 24 +
STACK CFI 868b5 .cfa: $rsp 16 +
STACK CFI 868b7 .cfa: $rsp 8 +
STACK CFI 868c0 .cfa: $rsp 48 +
STACK CFI INIT 869b0 1de .cfa: $rsp 8 + .ra: .cfa -8 + ^
STACK CFI 869b2 $r15: .cfa -16 + ^ .cfa: $rsp 16 +
STACK CFI 869bc $r14: .cfa -24 + ^ .cfa: $rsp 24 +
STACK CFI 869be $r13: .cfa -32 + ^ .cfa: $rsp 32 +
STACK CFI 869c0 $r12: .cfa -40 + ^ .cfa: $rsp 40 +
STACK CFI 869c7 $rbp: .cfa -48 + ^ .cfa: $rsp 48 +
STACK CFI 869ca $rbx: .cfa -56 + ^ .cfa: $rsp 56 +
STACK CFI 869d1 .cfa: $rsp 112 +
STACK CFI 86b13 .cfa: $rsp 56 +
STACK CFI 86b14 .cfa: $rsp 48 +
STACK CFI 86b15 .cfa: $rsp 40 +
STACK CFI 86b17 .cfa: $rsp 32 +
STACK CFI 86b19 .cfa: $rsp 24 +
STACK CFI 86b1b .cfa: $rsp 16 +
STACK CFI 86b1d .cfa: $rsp 8 +
STACK CFI 86b20 .cfa: $rsp 112 +
STACK CFI INIT 86b90 c3a .cfa: $rsp 8 + .ra: .cfa -8 + ^
STACK CFI 86b92 $r15: .cfa -16 + ^ .cfa: $rsp 16 +
STACK CFI 86b94 $r14: .cfa -24 + ^ .cfa: $rsp 24 +
STACK CFI 86b96 $r13: .cfa -32 + ^ .cfa: $rsp 32 +
STACK CFI 86b98 $r12: .cfa -40 + ^ .cfa: $rsp 40 +
STACK CFI 86b9c $rbp: .cfa -48 + ^ .cfa: $rsp 48 +
STACK CFI 86b9d $rbx: .cfa -56 + ^ .cfa: $rsp 56 +
STACK CFI 86ba4 .cfa: $rsp 1376 +
STACK CFI 872f5 .cfa: $rsp 56 +
STACK CFI 872f9 .cfa: $rsp 48 +
STACK CFI 872fa .cfa: $rsp 40 +
STACK CFI 872fc .cfa: $rsp 32 +
STACK CFI 872fe .cfa: $rsp 24 +
STACK CFI 87300 .cfa: $rsp 16 +
STACK CFI 87302 .cfa: $rsp 8 +
STACK CFI 87308 .cfa: $rsp 1376 +
STACK CFI INIT 877d0 a .cfa: $rsp 8 + .ra: .cfa -8 + ^
STACK CFI INIT 877e0 21 .cfa: $rsp 8 + .ra: .cfa -8 + ^
STACK CFI 877e4 .cfa: $rsp 16 +
STACK CFI 87800 .cfa: $rsp 8 +
STACK CFI INIT 87810 481 .cfa: $rsp 8 + .ra: .cfa -8 + ^
STACK CFI 87812 $r15: .cfa -16 + ^ .cfa: $rsp 16 +
STACK CFI 87816 $r14: .cfa -24 + ^ .cfa: $rsp 24 +
STACK CFI 87818 $r13: .cfa -32 + ^ .cfa: $rsp 32 +
STACK CFI 8781a $r12: .cfa -40 + ^ .cfa: $rsp 40 +
STACK CFI 8781b $rbp: .cfa -48 + ^ .cfa: $rsp 48 +
STACK CFI 8781c $rbx: .cfa -56 + ^ .cfa: $rsp 56 +
STACK CFI 87822 .cfa: $rsp 64 +
STACK CFI 87b5a .cfa: $rsp 56 +
STACK CFI 87b5e .cfa: $rsp 48 +
STACK CFI 87b5f .cfa: $rsp 40 +
STACK CFI 87b61 .cfa: $rsp 32 +
STACK CFI 87b63 .cfa: $rsp 24 +
STACK CFI 87b65 .cfa: $rsp 16 +
STACK CFI 87b67 .cfa: $rsp 8 +
STACK CFI 87b70 .cfa: $rsp 64 +
STACK CFI 87b94 .cfa: $rsp 56 +
STACK CFI 87b95 .cfa: $rsp 48 +
STACK CFI 87b96 .cfa: $rsp 40 +
STACK CFI 87b98 .cfa: $rsp 32 +
STACK CFI 87b9a .cfa: $rsp 24 +
STACK CFI 87b9c .cfa: $rsp 16 +
STACK CFI 87b9e .cfa: $rsp 8 +
STACK CFI 87b9f .cfa: $rsp 64 +
STACK CFI INIT 87ca0 125 .cfa: $rsp 8 + .ra: .cfa -8 + ^
STACK CFI 87ca1 $rbp: .cfa -16 + ^ .cfa: $rsp 16 +
STACK CFI 87cb2 .cfa: $rsp 1104 +
STACK CFI 87d83 .cfa: $rsp 16 +
STACK CFI 87d84 .cfa: $rsp 8 +
STACK CFI 87d88 .cfa: $rsp 1104 +
STACK CFI INIT 87dd0 7 .cfa: $rsp 8 + .ra: .cfa -8 + ^
STACK CFI INIT 87de0 7 .cfa: $rsp 8 + .ra: .cfa -8 + ^
STACK CFI INIT 87df0 b7 .cfa: $rsp 8 + .ra: .cfa -8 + ^
STACK CFI 87df4 .cfa: $rsp 16 +
STACK CFI 87e21 .cfa: $rsp 8 +
STACK CFI 87e28 .cfa: $rsp 16 +
STACK CFI 87e57 .cfa: $rsp 8 +
STACK CFI 87e60 .cfa: $rsp 16 +
STACK CFI INIT 87eb0 124 .cfa: $rsp 8 + .ra: .cfa -8 + ^
STACK CFI 87eb1 $rbp: .cfa -16 + ^ .cfa: $rsp 16 +
STACK CFI 87f35 .cfa: $rsp 8 +
STACK CFI 87f50 .cfa: $rsp 16 +
STACK CFI 87fb2 .cfa: $rsp 8 +
STACK CFI 87fc8 .cfa: $rsp 16 +
STACK CFI INIT 87fe0 7 .cfa: $rsp 8 + .ra: .cfa -8 + ^
STACK CFI INIT 87ff0 7 .cfa: $rsp 8 + .ra: .cfa -8 + ^
STACK CFI INIT 88000 af .cfa: $rsp 8 + .ra: .cfa -8 + ^
STACK CFI 88002 $r12: .cfa -16 + ^ .cfa: $rsp 16 +
STACK CFI 88003 $rbp: .cfa -24 + ^ .cfa: $rsp 24 +
STACK CFI 88007 .cfa: $rsp 96 +
STACK CFI 88072 .cfa: $rsp 24 +
STACK CFI 88073 .cfa: $rsp 16 +
STACK CFI 88075 .cfa: $rsp 8 +
STACK CFI 88080 .cfa: $rsp 96 +
STACK CFI INIT 880b0 b .cfa: $rsp 8 + .ra: .cfa -8 + ^
STACK CFI INIT 880c0 54 .cfa: $rsp 8 + .ra: .cfa -8 + ^
STACK CFI 880c2 $r13: .cfa -16 + ^ .cfa: $rsp 16 +
STACK CFI 880cc $r12: .cfa -24 + ^ .cfa: $rsp 24 +
STACK CFI 880cd $rbp: .cfa -32 + ^ .cfa: $rsp 32 +
STACK CFI 8810f .cfa: $rsp 24 +
STACK CFI 88111 .cfa: $rsp 16 +
STACK CFI 88113 .cfa: $rsp 8 +
STACK CFI INIT 88120 1d8 .cfa: $rsp 8 + .ra: .cfa -8 + ^
STACK CFI 88129 $rbx: .cfa -16 + ^ .cfa: $rsp 16 +
STACK CFI 8817a .cfa: $rsp 24 +
STACK CFI 88184 .cfa: $rsp 32 +
STACK CFI 8819a .cfa: $rsp 24 +
STACK CFI 8819b .cfa: $rsp 16 +
STACK CFI 882a3 .cfa: $rsp 8 +
STACK CFI 882a8 .cfa: $rsp 16 +
STACK CFI INIT 88300 f3 .cfa: $rsp 8 + .ra: .cfa -8 + ^
STACK CFI 8830a $rbx: .cfa -16 + ^ .cfa: $rsp 16 +
STACK CFI 88342 $rbx: $rbx .cfa: $rsp 8 +
STACK CFI 88350 $rbx: .cfa -16 + ^ .cfa: $rsp 16 +
STACK CFI 883ac .cfa: $rsp 8 +
STACK CFI 883b0 .cfa: $rsp 16 +
STACK CFI 883f0 $rbx: $rbx .cfa: $rsp 8 +
STACK CFI INIT 88400 155 .cfa: $rsp 8 + .ra: .cfa -8 + ^
STACK CFI 88402 $r15: .cfa -16 + ^ .cfa: $rsp 16 +
STACK CFI 88404 $r14: .cfa -24 + ^ .cfa: $rsp 24 +
STACK CFI 88409 $r13: .cfa -32 + ^ .cfa: $rsp 32 +
STACK CFI 8840e $r12: .cfa -40 + ^ .cfa: $rsp 40 +
STACK CFI 8840f $rbp: .cfa -48 + ^ .cfa: $rsp 48 +
STACK CFI 88410 $rbx: .cfa -56 + ^ .cfa: $rsp 56 +
STACK CFI 88417 .cfa: $rsp 208 +
STACK CFI 884ab .cfa: $rsp 56 +
STACK CFI 884ac .cfa: $rsp 48 +
STACK CFI 884ad .cfa: $rsp 40 +
STACK CFI 884af .cfa: $rsp 32 +
STACK CFI 884b1 .cfa: $rsp 24 +
STACK CFI 884b3 .cfa: $rsp 16 +
STACK CFI 884b5 .cfa: $rsp 8 +
STACK CFI 884c0 .cfa: $rsp 208 +
STACK CFI INIT 88560 178 .cfa: $rsp 8 + .ra: .cfa -8 + ^
STACK CFI 88562 $r14: .cfa -16 + ^ .cfa: $rsp 16 +
STACK CFI 88564 $r13: .cfa -24 + ^ .cfa: $rsp 24 +
STACK CFI 88569 $r12: .cfa -32 + ^ .cfa: $rsp 32 +
STACK CFI 8856a $rbp: .cfa -40 + ^ .cfa: $rsp 40 +
STACK CFI 8857b .cfa: $rsp 192 +
STACK CFI 8859e .cfa: $rsp 40 +
STACK CFI 885a2 .cfa: $rsp 32 +
STACK CFI 885a4 .cfa: $rsp 24 +
STACK CFI 885a6 .cfa: $rsp 16 +
STACK CFI 885a8 .cfa: $rsp 8 +
STACK CFI 885b0 .cfa: $rsp 192 +
STACK CFI INIT 886e0 2e .cfa: $rsp 8 + .ra: .cfa -8 + ^
STACK CFI 886f4 .cfa: $rsp 16 +
STACK CFI 8870d .cfa: $rsp 8 +
STACK CFI INIT 88710 2e .cfa: $rsp 8 + .ra: .cfa -8 + ^
STACK CFI 88724 .cfa: $rsp 16 +
STACK CFI 8873d .cfa: $rsp 8 +
STACK CFI INIT 88740 11f .cfa: $rsp 8 + .ra: .cfa -8 + ^
STACK CFI 88742 $r14: .cfa -16 + ^ .cfa: $rsp 16 +
STACK CFI 88744 $r13: .cfa -24 + ^ .cfa: $rsp 24 +
STACK CFI 88746 $r12: .cfa -32 + ^ .cfa: $rsp 32 +
STACK CFI 8874a $rbp: .cfa -40 + ^ .cfa: $rsp 40 +
STACK CFI 8874b $rbx: .cfa -48 + ^ .cfa: $rsp 48 +
STACK CFI 887e2 .cfa: $rsp 40 +
STACK CFI 887e6 .cfa: $rsp 32 +
STACK CFI 887e8 .cfa: $rsp 24 +
STACK CFI 887ea .cfa: $rsp 16 +
STACK CFI 887ec .cfa: $rsp 8 +
STACK CFI 887f8 .cfa: $rsp 48 +
STACK CFI INIT 88860 1a7 .cfa: $rsp 8 + .ra: .cfa -8 + ^
STACK CFI 88862 $r12: .cfa -16 + ^ .cfa: $rsp 16 +
STACK CFI 88866 $rbp: .cfa -24 + ^ .cfa: $rsp 24 +
STACK CFI 8886a $rbx: .cfa -32 + ^ .cfa: $rsp 32 +
STACK CFI 88955 .cfa: $rsp 24 +
STACK CFI 88956 .cfa: $rsp 16 +
STACK CFI 88958 .cfa: $rsp 8 +
STACK CFI 88959 .cfa: $rsp 32 +
STACK CFI 88a00 .cfa: $rsp 24 +
STACK CFI 88a04 .cfa: $rsp 16 +
STACK CFI 88a06 .cfa: $rsp 8 +
STACK CFI INIT 88a10 1db .cfa: $rsp 8 + .ra: .cfa -8 + ^
STACK CFI 88a1b $r15: .cfa -16 + ^ .cfa: $rsp 16 +
STACK CFI 88a1d $r14: .cfa -24 + ^ .cfa: $rsp 24 +
STACK CFI 88a1f $r13: .cfa -32 + ^ .cfa: $rsp 32 +
STACK CFI 88a21 $r12: .cfa -40 + ^ .cfa: $rsp 40 +
STACK CFI 88a22 $rbp: .cfa -48 + ^ .cfa: $rsp 48 +
STACK CFI 88a23 $rbx: .cfa -56 + ^ .cfa: $rsp 56 +
STACK CFI 88a2a .cfa: $rsp 96 +
STACK CFI 88b69 .cfa: $rsp 56 +
STACK CFI 88b6a .cfa: $rsp 48 +
STACK CFI 88b6b .cfa: $rsp 40 +
STACK CFI 88b6d .cfa: $rsp 32 +
STACK CFI 88b6f .cfa: $rsp 24 +
STACK CFI 88b71 .cfa: $rsp 16 +
STACK CFI 88b73 .cfa: $rsp 8 +
STACK CFI 88b78 .cfa: $rsp 96 +
STACK CFI 88b7c .cfa: $rsp 56 +
STACK CFI 88b7f .cfa: $rsp 48 +
STACK CFI 88b80 .cfa: $rsp 40 +
STACK CFI 88b82 .cfa: $rsp 32 +
STACK CFI 88b84 .cfa: $rsp 24 +
STACK CFI 88b86 .cfa: $rsp 16 +
STACK CFI 88b88 .cfa: $rsp 8 +
STACK CFI 88b90 .cfa: $rsp 96 +
STACK CFI 88ba6 .cfa: $rsp 56 +
STACK CFI 88ba7 .cfa: $rsp 48 +
STACK CFI 88ba8 .cfa: $rsp 40 +
STACK CFI 88baa .cfa: $rsp 32 +
STACK CFI 88bac .cfa: $rsp 24 +
STACK CFI 88bae .cfa: $rsp 16 +
STACK CFI 88bb0 .cfa: $rsp 8 +
STACK CFI 88bb8 .cfa: $rsp 96 +
STACK CFI 88be8 $r12: $r12 $r13: $r13 $r14: $r14 $r15: $r15 $rbp: $rbp $rbx: $rbx .cfa: $rsp 8 +
STACK CFI INIT 88bf0 2d4 .cfa: $rsp 8 + .ra: .cfa -8 + ^
STACK CFI 88bf2 $r12: .cfa -16 + ^ .cfa: $rsp 16 +
STACK CFI 88bf8 $rbp: .cfa -24 + ^ .cfa: $rsp 24 +
STACK CFI 88bf9 $rbx: .cfa -32 + ^ .cfa: $rsp 32 +
STACK CFI 88c00 .cfa: $rsp 2080 +
STACK CFI 88d06 .cfa: $rsp 32 +
STACK CFI 88d07 .cfa: $rsp 24 +
STACK CFI 88d08 .cfa: $rsp 16 +
STACK CFI 88d0a .cfa: $rsp 8 +
STACK CFI 88d10 .cfa: $rsp 2080 +
STACK CFI INIT 88ed0 d4 .cfa: $rsp 8 + .ra: .cfa -8 + ^
STACK CFI 88ed2 $r12: .cfa -16 + ^ .cfa: $rsp 16 +
STACK CFI 88ed6 $rbp: .cfa -24 + ^ .cfa: $rsp 24 +
STACK CFI 88ee5 .cfa: $rsp 176 +
STACK CFI 88f05 .cfa: $rsp 24 +
STACK CFI 88f0b .cfa: $rsp 16 +
STACK CFI 88f0d .cfa: $rsp 8 +
STACK CFI 88f10 .cfa: $rsp 176 +
STACK CFI 88f87 .cfa: $rsp 24 +
STACK CFI 88f88 .cfa: $rsp 16 +
STACK CFI 88f8a .cfa: $rsp 8 +
STACK CFI 88f90 .cfa: $rsp 176 +
STACK CFI 88f9e .cfa: $rsp 24 +
STACK CFI 88fa1 .cfa: $rsp 16 +
STACK CFI 88fa3 .cfa: $rsp 8 +
STACK CFI INIT 88fb0 193 .cfa: $rsp 8 + .ra: .cfa -8 + ^
STACK CFI 88fb2 $r15: .cfa -16 + ^ .cfa: $rsp 16 +
STACK CFI 88fb7 $r14: .cfa -24 + ^ .cfa: $rsp 24 +
STACK CFI 88fb9 $r13: .cfa -32 + ^ .cfa: $rsp 32 +
STACK CFI 88fbb $r12: .cfa -40 + ^ .cfa: $rsp 40 +
STACK CFI 88fbc $rbp: .cfa -48 + ^ .cfa: $rsp 48 +
STACK CFI 88fbd $rbx: .cfa -56 + ^ .cfa: $rsp 56 +
STACK CFI 88fcc .cfa: $rsp 1552 +
STACK CFI 88ff8 .cfa: $rsp 56 +
STACK CFI 88ff9 .cfa: $rsp 48 +
STACK CFI 88ffa .cfa: $rsp 40 +
STACK CFI 88ffc .cfa: $rsp 32 +
STACK CFI 88ffe .cfa: $rsp 24 +
STACK CFI 89000 .cfa: $rsp 16 +
STACK CFI 89002 .cfa: $rsp 8 +
STACK CFI 89008 .cfa: $rsp 1552 +
STACK CFI INIT 89150 d4 .cfa: $rsp 8 + .ra: .cfa -8 + ^
STACK CFI 89152 $r12: .cfa -16 + ^ .cfa: $rsp 16 +
STACK CFI 89156 $rbp: .cfa -24 + ^ .cfa: $rsp 24 +
STACK CFI 89165 .cfa: $rsp 176 +
STACK CFI 89185 .cfa: $rsp 24 +
STACK CFI 8918b .cfa: $rsp 16 +
STACK CFI 8918d .cfa: $rsp 8 +
STACK CFI 89190 .cfa: $rsp 176 +
STACK CFI 89207 .cfa: $rsp 24 +
STACK CFI 89208 .cfa: $rsp 16 +
STACK CFI 8920a .cfa: $rsp 8 +
STACK CFI 89210 .cfa: $rsp 176 +
STACK CFI 8921e .cfa: $rsp 24 +
STACK CFI 89221 .cfa: $rsp 16 +
STACK CFI 89223 .cfa: $rsp 8 +
STACK CFI INIT 89230 16d .cfa: $rsp 8 + .ra: .cfa -8 + ^
STACK CFI 89232 $r14: .cfa -16 + ^ .cfa: $rsp 16 +
STACK CFI 89237 $r13: .cfa -24 + ^ .cfa: $rsp 24 +
STACK CFI 89239 $r12: .cfa -32 + ^ .cfa: $rsp 32 +
STACK CFI 8923a $rbp: .cfa -40 + ^ .cfa: $rsp 40 +
STACK CFI 89243 $rbx: .cfa -48 + ^ .cfa: $rsp 48 +
STACK CFI 8924a .cfa: $rsp 1216 +
STACK CFI 8927d .cfa: $rsp 48 +
STACK CFI 89281 .cfa: $rsp 40 +
STACK CFI 89282 .cfa: $rsp 32 +
STACK CFI 89284 .cfa: $rsp 24 +
STACK CFI 89286 .cfa: $rsp 16 +
STACK CFI 89288 .cfa: $rsp 8 +
STACK CFI 89290 .cfa: $rsp 1216 +
STACK CFI INIT 893a0 12c .cfa: $rsp 8 + .ra: .cfa -8 + ^
STACK CFI 893a2 $r14: .cfa -16 + ^ .cfa: $rsp 16 +
STACK CFI 893a7 $r13: .cfa -24 + ^ .cfa: $rsp 24 +
STACK CFI 893a9 $r12: .cfa -32 + ^ .cfa: $rsp 32 +
STACK CFI 893aa $rbp: .cfa -40 + ^ .cfa: $rsp 40 +
STACK CFI 893ab $rbx: .cfa -48 + ^ .cfa: $rsp 48 +
STACK CFI 893ba .cfa: $rsp 1216 +
STACK CFI 893ed .cfa: $rsp 48 +
STACK CFI 893f1 .cfa: $rsp 40 +
STACK CFI 893f2 .cfa: $rsp 32 +
STACK CFI 893f4 .cfa: $rsp 24 +
STACK CFI 893f6 .cfa: $rsp 16 +
STACK CFI 893f8 .cfa: $rsp 8 +
STACK CFI 89400 .cfa: $rsp 1216 +
STACK CFI INIT 894d0 a .cfa: $rsp 8 + .ra: .cfa -8 + ^
STACK CFI INIT 894e0 1a4 .cfa: $rsp 8 + .ra: .cfa -8 + ^
STACK CFI 894e2 $r12: .cfa -16 + ^ .cfa: $rsp 16 +
STACK CFI 894e3 $rbp: .cfa -24 + ^ .cfa: $rsp 24 +
STACK CFI 894ea .cfa: $rsp 4128 +
STACK CFI 8951d .cfa: $rsp 24 +
STACK CFI 8951e .cfa: $rsp 16 +
STACK CFI 89520 .cfa: $rsp 8 +
STACK CFI 89528 .cfa: $rsp 4128 +
STACK CFI 8964d .cfa: $rsp 24 +
STACK CFI 89653 .cfa: $rsp 16 +
STACK CFI 89655 .cfa: $rsp 8 +
STACK CFI 89660 .cfa: $rsp 4128 +
STACK CFI INIT 89690 4 .cfa: $rsp 8 + .ra: .cfa -8 + ^
STACK CFI INIT 896a0 146 .cfa: $rsp 8 + .ra: .cfa -8 + ^
STACK CFI 896a2 $r12: .cfa -16 + ^ .cfa: $rsp 16 +
STACK CFI 896a3 $rbp: .cfa -24 + ^ .cfa: $rsp 24 +
STACK CFI 896aa .cfa: $rsp 32 +
STACK CFI 89744 .cfa: $rsp 24 +
STACK CFI 89748 .cfa: $rsp 16 +
STACK CFI 8974a .cfa: $rsp 8 +
STACK CFI 89750 .cfa: $rsp 32 +
STACK CFI INIT 897f0 327 .cfa: $rsp 8 + .ra: .cfa -8 + ^
STACK CFI 897f2 $r15: .cfa -16 + ^ .cfa: $rsp 16 +
STACK CFI 897f4 $r14: .cfa -24 + ^ .cfa: $rsp 24 +
STACK CFI 897f6 $r13: .cfa -32 + ^ .cfa: $rsp 32 +
STACK CFI 897f8 $r12: .cfa -40 + ^ .cfa: $rsp 40 +
STACK CFI 897f9 $rbp: .cfa -48 + ^ .cfa: $rsp 48 +
STACK CFI 897fa $rbx: .cfa -56 + ^ .cfa: $rsp 56 +
STACK CFI 89801 .cfa: $rsp 224 +
STACK CFI 898d4 .cfa: $rsp 56 +
STACK CFI 898d8 .cfa: $rsp 48 +
STACK CFI 898d9 .cfa: $rsp 40 +
STACK CFI 898db .cfa: $rsp 32 +
STACK CFI 898dd .cfa: $rsp 24 +
STACK CFI 898df .cfa: $rsp 16 +
STACK CFI 898e1 .cfa: $rsp 8 +
STACK CFI 898e8 .cfa: $rsp 224 +
STACK CFI INIT 89b20 180 .cfa: $rsp 8 + .ra: .cfa -8 + ^
STACK CFI 89b22 $r12: .cfa -16 + ^ .cfa: $rsp 16 +
STACK CFI 89b23 $rbp: .cfa -24 + ^ .cfa: $rsp 24 +
STACK CFI 89b2a .cfa: $rsp 32 +
STACK CFI 89bed .cfa: $rsp 24 +
STACK CFI 89bf1 .cfa: $rsp 16 +
STACK CFI 89bf3 .cfa: $rsp 8 +
STACK CFI 89c00 .cfa: $rsp 32 +
STACK CFI 89c87 .cfa: $rsp 24 +
STACK CFI 89c8f .cfa: $rsp 16 +
STACK CFI 89c91 .cfa: $rsp 8 +
STACK CFI 89c96 .cfa: $rsp 32 +
STACK CFI INIT 89ca0 26 .cfa: $rsp 8 + .ra: .cfa -8 + ^
STACK CFI 89ca2 $r12: .cfa -16 + ^ .cfa: $rsp 16 +
STACK CFI 89ca6 $rbp: .cfa -24 + ^ .cfa: $rsp 24 +
STACK CFI 89caa $rbx: .cfa -32 + ^ .cfa: $rsp 32 +
STACK CFI 89cc2 .cfa: $rsp 24 +
STACK CFI 89cc3 .cfa: $rsp 16 +
STACK CFI 89cc5 .cfa: $rsp 8 +
STACK CFI INIT 89cd0 11 .cfa: $rsp 8 + .ra: .cfa -8 + ^
STACK CFI 89cd4 .cfa: $rsp 16 +
STACK CFI 89ce0 .cfa: $rsp 8 +
STACK CFI INIT 89cf0 9 .cfa: $rsp 8 + .ra: .cfa -8 + ^
STACK CFI INIT 89d00 399 .cfa: $rsp 8 + .ra: .cfa -8 + ^
STACK CFI 89d02 $r15: .cfa -16 + ^ .cfa: $rsp 16 +
STACK CFI 89d04 $r14: .cfa -24 + ^ .cfa: $rsp 24 +
STACK CFI 89d06 $r13: .cfa -32 + ^ .cfa: $rsp 32 +
STACK CFI 89d08 $r12: .cfa -40 + ^ .cfa: $rsp 40 +
STACK CFI 89d09 $rbp: .cfa -48 + ^ .cfa: $rsp 48 +
STACK CFI 89d0d $rbx: .cfa -56 + ^ .cfa: $rsp 56 +
STACK CFI 89d14 .cfa: $rsp 2272 +
STACK CFI 89dd3 .cfa: $rsp 56 +
STACK CFI 89dd4 .cfa: $rsp 48 +
STACK CFI 89dd5 .cfa: $rsp 40 +
STACK CFI 89dd7 .cfa: $rsp 32 +
STACK CFI 89dd9 .cfa: $rsp 24 +
STACK CFI 89ddb .cfa: $rsp 16 +
STACK CFI 89ddd .cfa: $rsp 8 +
STACK CFI 89de0 .cfa: $rsp 2272 +
STACK CFI INIT 8a0a0 2f3 .cfa: $rsp 8 + .ra: .cfa -8 + ^
STACK CFI 8a0a2 $r15: .cfa -16 + ^ .cfa: $rsp 16 +
STACK CFI 8a0a4 $r14: .cfa -24 + ^ .cfa: $rsp 24 +
STACK CFI 8a0a6 $r13: .cfa -32 + ^ .cfa: $rsp 32 +
STACK CFI 8a0a8 $r12: .cfa -40 + ^ .cfa: $rsp 40 +
STACK CFI 8a0ac $rbp: .cfa -48 + ^ .cfa: $rsp 48 +
STACK CFI 8a0b0 $rbx: .cfa -56 + ^ .cfa: $rsp 56 +
STACK CFI 8a0b7 .cfa: $rsp 2128 +
STACK CFI 8a227 .cfa: $rsp 56 +
STACK CFI 8a228 .cfa: $rsp 48 +
STACK CFI 8a229 .cfa: $rsp 40 +
STACK CFI 8a22b .cfa: $rsp 32 +
STACK CFI 8a22d .cfa: $rsp 24 +
STACK CFI 8a22f .cfa: $rsp 16 +
STACK CFI 8a231 .cfa: $rsp 8 +
STACK CFI 8a238 .cfa: $rsp 2128 +
STACK CFI INIT 8a3a0 240 .cfa: $rsp 8 + .ra: .cfa -8 + ^
STACK CFI 8a3a2 $r14: .cfa -16 + ^ .cfa: $rsp 16 +
STACK CFI 8a3a4 $r13: .cfa -24 + ^ .cfa: $rsp 24 +
STACK CFI 8a3a9 $r12: .cfa -32 + ^ .cfa: $rsp 32 +
STACK CFI 8a3aa $rbp: .cfa -40 + ^ .cfa: $rsp 40 +
STACK CFI 8a3b1 .cfa: $rsp 192 +
STACK CFI 8a40f .cfa: $rsp 40 +
STACK CFI 8a413 .cfa: $rsp 32 +
STACK CFI 8a415 .cfa: $rsp 24 +
STACK CFI 8a417 .cfa: $rsp 16 +
STACK CFI 8a419 .cfa: $rsp 8 +
STACK CFI 8a420 .cfa: $rsp 192 +
STACK CFI INIT 8a5e0 34a .cfa: $rsp 8 + .ra: .cfa -8 + ^
STACK CFI 8a5e2 $r15: .cfa -16 + ^ .cfa: $rsp 16 +
STACK CFI 8a5e4 $r14: .cfa -24 + ^ .cfa: $rsp 24 +
STACK CFI 8a5e6 $r13: .cfa -32 + ^ .cfa: $rsp 32 +
STACK CFI 8a5e8 $r12: .cfa -40 + ^ .cfa: $rsp 40 +
STACK CFI 8a5e9 $rbp: .cfa -48 + ^ .cfa: $rsp 48 +
STACK CFI 8a5ed $rbx: .cfa -56 + ^ .cfa: $rsp 56 +
STACK CFI 8a5f4 .cfa: $rsp 1232 +
STACK CFI 8a6a3 .cfa: $rsp 56 +
STACK CFI 8a6a4 .cfa: $rsp 48 +
STACK CFI 8a6a5 .cfa: $rsp 40 +
STACK CFI 8a6a7 .cfa: $rsp 32 +
STACK CFI 8a6a9 .cfa: $rsp 24 +
STACK CFI 8a6ab .cfa: $rsp 16 +
STACK CFI 8a6ad .cfa: $rsp 8 +
STACK CFI 8a6b0 .cfa: $rsp 1232 +
STACK CFI INIT 8a930 2cc .cfa: $rsp 8 + .ra: .cfa -8 + ^
STACK CFI 8a932 $r15: .cfa -16 + ^ .cfa: $rsp 16 +
STACK CFI 8a934 $r14: .cfa -24 + ^ .cfa: $rsp 24 +
STACK CFI 8a936 $r13: .cfa -32 + ^ .cfa: $rsp 32 +
STACK CFI 8a938 $r12: .cfa -40 + ^ .cfa: $rsp 40 +
STACK CFI 8a939 $rbp: .cfa -48 + ^ .cfa: $rsp 48 +
STACK CFI 8a93d $rbx: .cfa -56 + ^ .cfa: $rsp 56 +
STACK CFI 8a944 .cfa: $rsp 208 +
STACK CFI 8aa03 .cfa: $rsp 56 +
STACK CFI 8aa04 .cfa: $rsp 48 +
STACK CFI 8aa05 .cfa: $rsp 40 +
STACK CFI 8aa07 .cfa: $rsp 32 +
STACK CFI 8aa09 .cfa: $rsp 24 +
STACK CFI 8aa0b .cfa: $rsp 16 +
STACK CFI 8aa0d .cfa: $rsp 8 +
STACK CFI 8aa10 .cfa: $rsp 208 +
STACK CFI INIT 8ac00 7d .cfa: $rsp 8 + .ra: .cfa -8 + ^
STACK CFI 8ac02 $r12: .cfa -16 + ^ .cfa: $rsp 16 +
STACK CFI 8ac03 $rbp: .cfa -24 + ^ .cfa: $rsp 24 +
STACK CFI 8ac0a .cfa: $rsp 32 +
STACK CFI 8ac36 .cfa: $rsp 24 +
STACK CFI 8ac3a .cfa: $rsp 16 +
STACK CFI 8ac3c .cfa: $rsp 8 +
STACK CFI 8ac48 .cfa: $rsp 32 +
STACK CFI 8ac77 .cfa: $rsp 24 +
STACK CFI 8ac7a .cfa: $rsp 16 +
STACK CFI 8ac7c .cfa: $rsp 8 +
STACK CFI INIT 8ac80 2c2 .cfa: $rsp 8 + .ra: .cfa -8 + ^
STACK CFI 8ac82 $r14: .cfa -16 + ^ .cfa: $rsp 16 +
STACK CFI 8ac89 $r13: .cfa -24 + ^ .cfa: $rsp 24 +
STACK CFI 8ac8b $r12: .cfa -32 + ^ .cfa: $rsp 32 +
STACK CFI 8ac8c $rbp: .cfa -40 + ^ .cfa: $rsp 40 +
STACK CFI 8ac96 .cfa: $rsp 1360 +
STACK CFI 8adcd .cfa: $rsp 40 +
STACK CFI 8adce .cfa: $rsp 32 +
STACK CFI 8add0 .cfa: $rsp 24 +
STACK CFI 8add2 .cfa: $rsp 16 +
STACK CFI 8add4 .cfa: $rsp 8 +
STACK CFI 8add8 .cfa: $rsp 1360 +
STACK CFI 8adef .cfa: $rsp 40 +
STACK CFI 8adf0 .cfa: $rsp 32 +
STACK CFI 8adf2 .cfa: $rsp 24 +
STACK CFI 8adf4 .cfa: $rsp 16 +
STACK CFI 8adf6 .cfa: $rsp 8 +
STACK CFI 8ae00 .cfa: $rsp 1360 +
STACK CFI INIT 8af50 48 .cfa: $rsp 8 + .ra: .cfa -8 + ^
STACK CFI 8af52 $r12: .cfa -16 + ^ .cfa: $rsp 16 +
STACK CFI 8af53 $rbp: .cfa -24 + ^ .cfa: $rsp 24 +
STACK CFI 8af57 .cfa: $rsp 32 +
STACK CFI 8af84 .cfa: $rsp 24 +
STACK CFI 8af88 .cfa: $rsp 16 +
STACK CFI 8af8a .cfa: $rsp 8 +
STACK CFI 8af90 .cfa: $rsp 32 +
STACK CFI INIT 8afa0 27 .cfa: $rsp 8 + .ra: .cfa -8 + ^
STACK CFI 8afa4 .cfa: $rsp 16 +
STACK CFI 8afb5 .cfa: $rsp 8 +
STACK CFI 8afc0 .cfa: $rsp 16 +
STACK CFI 8afc6 .cfa: $rsp 8 +
STACK CFI INIT 8afd0 2a2 .cfa: $rsp 8 + .ra: .cfa -8 + ^
STACK CFI 8afd2 $r15: .cfa -16 + ^ .cfa: $rsp 16 +
STACK CFI 8afd4 $r14: .cfa -24 + ^ .cfa: $rsp 24 +
STACK CFI 8afd6 $r13: .cfa -32 + ^ .cfa: $rsp 32 +
STACK CFI 8afd8 $r12: .cfa -40 + ^ .cfa: $rsp 40 +
STACK CFI 8afdc $rbp: .cfa -48 + ^ .cfa: $rsp 48 +
STACK CFI 8afe0 $rbx: .cfa -56 + ^ .cfa: $rsp 56 +
STACK CFI 8afe4 .cfa: $rsp 64 +
STACK CFI 8b11e .cfa: $rsp 56 +
STACK CFI 8b121 .cfa: $rsp 48 +
STACK CFI 8b122 .cfa: $rsp 40 +
STACK CFI 8b124 .cfa: $rsp 32 +
STACK CFI 8b126 .cfa: $rsp 24 +
STACK CFI 8b128 .cfa: $rsp 16 +
STACK CFI 8b12a .cfa: $rsp 8 +
STACK CFI 8b130 .cfa: $rsp 64 +
STACK CFI 8b1cd .cfa: $rsp 56 +
STACK CFI 8b1ce .cfa: $rsp 48 +
STACK CFI 8b1cf .cfa: $rsp 40 +
STACK CFI 8b1d1 .cfa: $rsp 32 +
STACK CFI 8b1d3 .cfa: $rsp 24 +
STACK CFI 8b1d5 .cfa: $rsp 16 +
STACK CFI 8b1d7 .cfa: $rsp 8 +
STACK CFI 8b1e0 .cfa: $rsp 64 +
STACK CFI 8b20e .cfa: $rsp 56 +
STACK CFI 8b21a .cfa: $rsp 48 +
STACK CFI 8b21b .cfa: $rsp 40 +
STACK CFI 8b21d .cfa: $rsp 32 +
STACK CFI 8b21f .cfa: $rsp 24 +
STACK CFI 8b221 .cfa: $rsp 16 +
STACK CFI 8b223 .cfa: $rsp 8 +
STACK CFI 8b230 .cfa: $rsp 64 +
STACK CFI 8b25c .cfa: $rsp 56 +
STACK CFI 8b264 .cfa: $rsp 48 +
STACK CFI 8b265 .cfa: $rsp 40 +
STACK CFI 8b267 .cfa: $rsp 32 +
STACK CFI 8b269 .cfa: $rsp 24 +
STACK CFI 8b26b .cfa: $rsp 16 +
STACK CFI 8b26d .cfa: $rsp 8 +
STACK CFI INIT 8b280 bd .cfa: $rsp 8 + .ra: .cfa -8 + ^
STACK CFI 8b282 $r12: .cfa -16 + ^ .cfa: $rsp 16 +
STACK CFI 8b283 $rbp: .cfa -24 + ^ .cfa: $rsp 24 +
STACK CFI 8b28a .cfa: $rsp 32 +
STACK CFI 8b2c1 .cfa: $rsp 24 +
STACK CFI 8b2c5 .cfa: $rsp 16 +
STACK CFI 8b2c7 .cfa: $rsp 8 +
STACK CFI 8b2d0 .cfa: $rsp 32 +
STACK CFI 8b2fe .cfa: $rsp 24 +
STACK CFI 8b2ff .cfa: $rsp 16 +
STACK CFI 8b304 .cfa: $rsp 8 +
STACK CFI 8b308 .cfa: $rsp 32 +
STACK CFI INIT 8b340 7b .cfa: $rsp 8 + .ra: .cfa -8 + ^
STACK CFI 8b359 $rbp: .cfa -16 + ^ .cfa: $rsp 16 +
STACK CFI 8b364 .cfa: $rsp 32 +
STACK CFI 8b3a0 .cfa: $rsp 16 +
STACK CFI 8b3a1 .cfa: $rsp 8 +
STACK CFI 8b3a8 .cfa: $rsp 32 +
STACK CFI 8b3b7 .cfa: $rsp 16 +
STACK CFI 8b3ba .cfa: $rsp 8 +
STACK CFI INIT 8b3c0 7 .cfa: $rsp 8 + .ra: .cfa -8 + ^
STACK CFI INIT 8b3d0 a5 .cfa: $rsp 8 + .ra: .cfa -8 + ^
STACK CFI 8b3d2 $r13: .cfa -16 + ^ .cfa: $rsp 16 +
STACK CFI 8b3d7 $r12: .cfa -24 + ^ .cfa: $rsp 24 +
STACK CFI 8b3e9 .cfa: $rsp 320 +
STACK CFI 8b43c .cfa: $rsp 24 +
STACK CFI 8b43e .cfa: $rsp 16 +
STACK CFI 8b440 .cfa: $rsp 8 +
STACK CFI 8b448 .cfa: $rsp 320 +
STACK CFI INIT 8b480 69 .cfa: $rsp 8 + .ra: .cfa -8 + ^
STACK CFI 8b481 $rbp: .cfa -16 + ^ .cfa: $rsp 16 +
STACK CFI 8b493 .cfa: $rsp 304 +
STACK CFI 8b4ab .cfa: $rsp 16 +
STACK CFI 8b4ac .cfa: $rsp 8 +
STACK CFI 8b4b0 .cfa: $rsp 304 +
STACK CFI INIT 8b4f0 f .cfa: $rsp 8 + .ra: .cfa -8 + ^
STACK CFI INIT 8b500 181 .cfa: $rsp 8 + .ra: .cfa -8 + ^
STACK CFI 8b502 $r15: .cfa -16 + ^ .cfa: $rsp 16 +
STACK CFI 8b504 $r14: .cfa -24 + ^ .cfa: $rsp 24 +
STACK CFI 8b506 $r13: .cfa -32 + ^ .cfa: $rsp 32 +
STACK CFI 8b508 $r12: .cfa -40 + ^ .cfa: $rsp 40 +
STACK CFI 8b509 $rbp: .cfa -48 + ^ .cfa: $rsp 48 +
STACK CFI 8b50a $rbx: .cfa -56 + ^ .cfa: $rsp 56 +
STACK CFI 8b50e .cfa: $rsp 80 +
STACK CFI 8b625 .cfa: $rsp 56 +
STACK CFI 8b626 .cfa: $rsp 48 +
STACK CFI 8b627 .cfa: $rsp 40 +
STACK CFI 8b629 .cfa: $rsp 32 +
STACK CFI 8b62b .cfa: $rsp 24 +
STACK CFI 8b62d .cfa: $rsp 16 +
STACK CFI 8b62f .cfa: $rsp 8 +
STACK CFI 8b630 .cfa: $rsp 80 +
STACK CFI INIT 8b690 31 .cfa: $rsp 8 + .ra: .cfa -8 + ^
STACK CFI 8b698 $rbp: .cfa -16 + ^ .cfa: $rsp 16 +
STACK CFI 8b6ac .cfa: $rsp 8 +
STACK CFI 8b6c0 $rbp: $rbp
STACK CFI INIT 8b6d0 19d .cfa: $rsp 8 + .ra: .cfa -8 + ^
STACK CFI 8b6d2 $r15: .cfa -16 + ^ .cfa: $rsp 16 +
STACK CFI 8b6d4 $r14: .cfa -24 + ^ .cfa: $rsp 24 +
STACK CFI 8b6d6 $r13: .cfa -32 + ^ .cfa: $rsp 32 +
STACK CFI 8b6d8 $r12: .cfa -40 + ^ .cfa: $rsp 40 +
STACK CFI 8b6dc $rbp: .cfa -48 + ^ .cfa: $rsp 48 +
STACK CFI 8b6dd $rbx: .cfa -56 + ^ .cfa: $rsp 56 +
STACK CFI 8b6e7 .cfa: $rsp 240 +
STACK CFI 8b7d4 .cfa: $rsp 56 +
STACK CFI 8b7d5 .cfa: $rsp 48 +
STACK CFI 8b7d6 .cfa: $rsp 40 +
STACK CFI 8b7d8 .cfa: $rsp 32 +
STACK CFI 8b7da .cfa: $rsp 24 +
STACK CFI 8b7dc .cfa: $rsp 16 +
STACK CFI 8b7de .cfa: $rsp 8 +
STACK CFI 8b7e0 .cfa: $rsp 240 +
STACK CFI INIT 8b870 1c9 .cfa: $rsp 8 + .ra: .cfa -8 + ^
STACK CFI 8b872 $r13: .cfa -16 + ^ .cfa: $rsp 16 +
STACK CFI 8b874 $r12: .cfa -24 + ^ .cfa: $rsp 24 +
STACK CFI 8b875 $rbp: .cfa -32 + ^ .cfa: $rsp 32 +
STACK CFI 8b879 $rbx: .cfa -40 + ^ .cfa: $rsp 40 +
STACK CFI 8b87d .cfa: $rsp 48 +
STACK CFI 8b997 .cfa: $rsp 40 +
STACK CFI 8b99b .cfa: $rsp 32 +
STACK CFI 8b99c .cfa: $rsp 24 +
STACK CFI 8b99e .cfa: $rsp 16 +
STACK CFI 8b9a0 .cfa: $rsp 8 +
STACK CFI 8b9a8 .cfa: $rsp 48 +
STACK CFI 8ba14 .cfa: $rsp 40 +
STACK CFI 8ba18 .cfa: $rsp 32 +
STACK CFI 8ba1c .cfa: $rsp 24 +
STACK CFI 8ba1e .cfa: $rsp 16 +
STACK CFI 8ba20 .cfa: $rsp 8 +
STACK CFI 8ba28 .cfa: $rsp 48 +
STACK CFI INIT 8ba40 12 .cfa: $rsp 8 + .ra: .cfa -8 + ^
STACK CFI 8ba44 .cfa: $rsp 16 +
STACK CFI 8ba51 .cfa: $rsp 8 +
STACK CFI INIT 8ba60 b3 .cfa: $rsp 8 + .ra: .cfa -8 + ^
STACK CFI 8ba68 $r12: .cfa -16 + ^ .cfa: $rsp 16 +
STACK CFI 8bad6 .cfa: $rsp 8 +
STACK CFI 8bae0 .cfa: $rsp 16 +
STACK CFI INIT 8bb20 242 .cfa: $rsp 8 + .ra: .cfa -8 + ^
STACK CFI 8bb22 $r15: .cfa -16 + ^ .cfa: $rsp 16 +
STACK CFI 8bb24 $r14: .cfa -24 + ^ .cfa: $rsp 24 +
STACK CFI 8bb29 $r13: .cfa -32 + ^ .cfa: $rsp 32 +
STACK CFI 8bb2b $r12: .cfa -40 + ^ .cfa: $rsp 40 +
STACK CFI 8bb2f $rbp: .cfa -48 + ^ .cfa: $rsp 48 +
STACK CFI 8bb33 $rbx: .cfa -56 + ^ .cfa: $rsp 56 +
STACK CFI 8bb37 .cfa: $rsp 112 +
STACK CFI 8bbb7 .cfa: $rsp 56 +
STACK CFI 8bbbb .cfa: $rsp 48 +
STACK CFI 8bbbc .cfa: $rsp 40 +
STACK CFI 8bbbe .cfa: $rsp 32 +
STACK CFI 8bbc0 .cfa: $rsp 24 +
STACK CFI 8bbc2 .cfa: $rsp 16 +
STACK CFI 8bbc4 .cfa: $rsp 8 +
STACK CFI 8bbc8 .cfa: $rsp 112 +
STACK CFI INIT 8bd70 12f .cfa: $rsp 8 + .ra: .cfa -8 + ^
STACK CFI 8bd72 $r14: .cfa -16 + ^ .cfa: $rsp 16 +
STACK CFI 8bd74 $r13: .cfa -24 + ^ .cfa: $rsp 24 +
STACK CFI 8bd79 $r12: .cfa -32 + ^ .cfa: $rsp 32 +
STACK CFI 8bd7a $rbp: .cfa -40 + ^ .cfa: $rsp 40 +
STACK CFI 8bd82 $rbx: .cfa -48 + ^ .cfa: $rsp 48 +
STACK CFI 8bd92 .cfa: $rsp 208 +
STACK CFI 8be3f .cfa: $rsp 48 +
STACK CFI 8be40 .cfa: $rsp 40 +
STACK CFI 8be41 .cfa: $rsp 32 +
STACK CFI 8be43 .cfa: $rsp 24 +
STACK CFI 8be45 .cfa: $rsp 16 +
STACK CFI 8be47 .cfa: $rsp 8 +
STACK CFI 8be50 .cfa: $rsp 208 +
STACK CFI INIT 8bea0 b9 .cfa: $rsp 8 + .ra: .cfa -8 + ^
STACK CFI 8beab $r12: .cfa -16 + ^ .cfa: $rsp 16 +
STACK CFI 8beac $rbp: .cfa -24 + ^ .cfa: $rsp 24 +
STACK CFI 8beb0 $rbx: .cfa -32 + ^ .cfa: $rsp 32 +
STACK CFI 8bf43 .cfa: $rsp 24 +
STACK CFI 8bf44 .cfa: $rsp 16 +
STACK CFI 8bf46 .cfa: $rsp 8 +
STACK CFI 8bf50 $r12: $r12 $rbp: $rbp $rbx: $rbx
STACK CFI 8bf53 $r12: .cfa -16 + ^ $rbp: .cfa -24 + ^ $rbx: .cfa -32 + ^ .cfa: $rsp 32 +
STACK CFI INIT 8bf60 22 .cfa: $rsp 8 + .ra: .cfa -8 + ^
STACK CFI 8bf64 .cfa: $rsp 16 +
STACK CFI 8bf81 .cfa: $rsp 8 +
STACK CFI INIT 8bf90 54 .cfa: $rsp 8 + .ra: .cfa -8 + ^
STACK CFI 8bf91 $rbp: .cfa -16 + ^ .cfa: $rsp 16 +
STACK CFI 8bf92 $rbx: .cfa -24 + ^ .cfa: $rsp 24 +
STACK CFI 8bf96 .cfa: $rsp 32 +
STACK CFI 8bfc6 .cfa: $rsp 24 +
STACK CFI 8bfc9 .cfa: $rsp 16 +
STACK CFI 8bfca .cfa: $rsp 8 +
STACK CFI 8bfd0 .cfa: $rsp 32 +
STACK CFI 8bfdc .cfa: $rsp 24 +
STACK CFI 8bfe2 .cfa: $rsp 16 +
STACK CFI 8bfe3 .cfa: $rsp 8 +
STACK CFI INIT 8bff0 49 .cfa: $rsp 8 + .ra: .cfa -8 + ^
STACK CFI 8bff7 $rbp: .cfa -16 + ^ .cfa: $rsp 16 +
STACK CFI 8c028 .cfa: $rsp 8 +
STACK CFI 8c030 .cfa: $rsp 16 +
STACK CFI 8c034 .cfa: $rsp 8 +
STACK CFI INIT 8c040 3b1 .cfa: $rsp 8 + .ra: .cfa -8 + ^
STACK CFI 8c042 $r15: .cfa -16 + ^ .cfa: $rsp 16 +
STACK CFI 8c044 $r14: .cfa -24 + ^ .cfa: $rsp 24 +
STACK CFI 8c046 $r13: .cfa -32 + ^ .cfa: $rsp 32 +
STACK CFI 8c048 $r12: .cfa -40 + ^ .cfa: $rsp 40 +
STACK CFI 8c049 $rbp: .cfa -48 + ^ .cfa: $rsp 48 +
STACK CFI 8c04d $rbx: .cfa -56 + ^ .cfa: $rsp 56 +
STACK CFI 8c051 .cfa: $rsp 80 +
STACK CFI 8c08b .cfa: $rsp 56 +
STACK CFI 8c095 .cfa: $rsp 48 +
STACK CFI 8c096 .cfa: $rsp 40 +
STACK CFI 8c098 .cfa: $rsp 32 +
STACK CFI 8c09a .cfa: $rsp 24 +
STACK CFI 8c09c .cfa: $rsp 16 +
STACK CFI 8c09e .cfa: $rsp 8 +
STACK CFI 8c0a0 .cfa: $rsp 80 +
STACK CFI 8c2f4 .cfa: $rsp 56 +
STACK CFI 8c2f5 .cfa: $rsp 48 +
STACK CFI 8c2f6 .cfa: $rsp 40 +
STACK CFI 8c2f8 .cfa: $rsp 32 +
STACK CFI 8c2fa .cfa: $rsp 24 +
STACK CFI 8c2fc .cfa: $rsp 16 +
STACK CFI 8c2fe .cfa: $rsp 8 +
STACK CFI 8c300 .cfa: $rsp 80 +
STACK CFI INIT 8c400 14d .cfa: $rsp 8 + .ra: .cfa -8 + ^
STACK CFI 8c402 $r12: .cfa -16 + ^ .cfa: $rsp 16 +
STACK CFI 8c40a $rbp: .cfa -24 + ^ .cfa: $rsp 24 +
STACK CFI 8c413 $rbx: .cfa -32 + ^ .cfa: $rsp 32 +
STACK CFI 8c506 .cfa: $rsp 24 +
STACK CFI 8c510 .cfa: $rsp 16 +
STACK CFI 8c512 .cfa: $rsp 8 +
STACK CFI 8c520 .cfa: $rsp 32 +
STACK CFI 8c521 .cfa: $rsp 24 +
STACK CFI 8c522 .cfa: $rsp 16 +
STACK CFI 8c524 .cfa: $rsp 8 +
STACK CFI 8c528 .cfa: $rsp 32 +
STACK CFI INIT 8c550 170 .cfa: $rsp 8 + .ra: .cfa -8 + ^
STACK CFI 8c551 $rbx: .cfa -16 + ^ .cfa: $rsp 16 +
STACK CFI 8c55b .cfa: $rsp 2064 +
STACK CFI 8c5ed .cfa: $rsp 16 +
STACK CFI 8c5ee .cfa: $rsp 8 +
STACK CFI 8c5ef .cfa: $rsp 2064 +
STACK CFI INIT 8c6c0 60 .cfa: $rsp 8 + .ra: .cfa -8 + ^
STACK CFI 8c6c1 $rbp: .cfa -16 + ^ .cfa: $rsp 16 +
STACK CFI 8c6de .cfa: $rsp 8 +
STACK CFI 8c6e8 .cfa: $rsp 16 +
STACK CFI 8c71b .cfa: $rsp 8 +
STACK CFI INIT 8c720 8b .cfa: $rsp 8 + .ra: .cfa -8 + ^
STACK CFI 8c722 $r14: .cfa -16 + ^ .cfa: $rsp 16 +
STACK CFI 8c724 $r13: .cfa -24 + ^ .cfa: $rsp 24 +
STACK CFI 8c729 $r12: .cfa -32 + ^ .cfa: $rsp 32 +
STACK CFI 8c72d $rbp: .cfa -40 + ^ .cfa: $rsp 40 +
STACK CFI 8c737 .cfa: $rsp 2096 +
STACK CFI 8c7a3 .cfa: $rsp 40 +
STACK CFI 8c7a4 .cfa: $rsp 32 +
STACK CFI 8c7a6 .cfa: $rsp 24 +
STACK CFI 8c7a8 .cfa: $rsp 16 +
STACK CFI 8c7aa .cfa: $rsp 8 +
STACK CFI INIT 8c7b0 137 .cfa: $rsp 8 + .ra: .cfa -8 + ^
STACK CFI 8c7b2 $r15: .cfa -16 + ^ .cfa: $rsp 16 +
STACK CFI 8c7bb $r14: .cfa -24 + ^ .cfa: $rsp 24 +
STACK CFI 8c7c4 $r13: .cfa -32 + ^ .cfa: $rsp 32 +
STACK CFI 8c7c6 $r12: .cfa -40 + ^ .cfa: $rsp 40 +
STACK CFI 8c7c7 $rbp: .cfa -48 + ^ .cfa: $rsp 48 +
STACK CFI 8c7c8 $rbx: .cfa -56 + ^ .cfa: $rsp 56 +
STACK CFI 8c7cc .cfa: $rsp 96 +
STACK CFI 8c8a5 .cfa: $rsp 56 +
STACK CFI 8c8a6 .cfa: $rsp 48 +
STACK CFI 8c8a7 .cfa: $rsp 40 +
STACK CFI 8c8a9 .cfa: $rsp 32 +
STACK CFI 8c8ab .cfa: $rsp 24 +
STACK CFI 8c8ad .cfa: $rsp 16 +
STACK CFI 8c8af .cfa: $rsp 8 +
STACK CFI 8c8b0 .cfa: $rsp 96 +
STACK CFI INIT 8c8f0 5 .cfa: $rsp 8 + .ra: .cfa -8 + ^
STACK CFI INIT 8c900 56 .cfa: $rsp 8 + .ra: .cfa -8 + ^
STACK CFI 8c904 .cfa: $rsp 16 +
STACK CFI 8c928 .cfa: $rsp 8 +
STACK CFI 8c930 .cfa: $rsp 16 +
STACK CFI 8c939 .cfa: $rsp 8 +
STACK CFI 8c940 .cfa: $rsp 16 +
STACK CFI INIT 8c960 f7 .cfa: $rsp 8 + .ra: .cfa -8 + ^
STACK CFI 8c962 $r12: .cfa -16 + ^ .cfa: $rsp 16 +
STACK CFI 8c966 $rbp: .cfa -24 + ^ .cfa: $rsp 24 +
STACK CFI 8c96d .cfa: $rsp 160 +
STACK CFI 8ca3a .cfa: $rsp 24 +
STACK CFI 8ca3b .cfa: $rsp 16 +
STACK CFI 8ca3d .cfa: $rsp 8 +
STACK CFI 8ca40 .cfa: $rsp 160 +
STACK CFI INIT 8ca60 379 .cfa: $rsp 8 + .ra: .cfa -8 + ^
STACK CFI 8ca61 $rbp: .cfa -16 + ^ .cfa: $rsp 16 +
STACK CFI 8ca64 $rbx: .cfa -24 + ^ .cfa: $rsp 24 +
STACK CFI 8ca6b .cfa: $rsp 224 +
STACK CFI 8cb79 .cfa: $rsp 24 +
STACK CFI 8cb7a .cfa: $rsp 16 +
STACK CFI 8cb7b .cfa: $rsp 8 +
STACK CFI 8cb80 .cfa: $rsp 224 +
STACK CFI 8cc6d .cfa: $rsp 24 +
STACK CFI 8cc73 .cfa: $rsp 16 +
STACK CFI 8cc74 .cfa: $rsp 8 +
STACK CFI 8cc78 .cfa: $rsp 224 +
STACK CFI INIT 8cde0 d .cfa: $rsp 8 + .ra: .cfa -8 + ^
STACK CFI INIT 8cdf0 25 .cfa: $rsp 8 + .ra: .cfa -8 + ^
STACK CFI 8cdf8 $rbp: .cfa -16 + ^ .cfa: $rsp 16 +
STACK CFI 8ce10 .cfa: $rsp 8 +
STACK CFI INIT 8ce20 3f .cfa: $rsp 8 + .ra: .cfa -8 + ^
STACK CFI 8ce22 $r12: .cfa -16 + ^ .cfa: $rsp 16 +
STACK CFI 8ce28 $rbp: .cfa -24 + ^ .cfa: $rsp 24 +
STACK CFI 8ce2c .cfa: $rsp 48 +
STACK CFI 8ce58 .cfa: $rsp 24 +
STACK CFI 8ce5c .cfa: $rsp 16 +
STACK CFI 8ce5e .cfa: $rsp 8 +
STACK CFI INIT 8ce60 5 .cfa: $rsp 8 + .ra: .cfa -8 + ^
STACK CFI INIT 8ce70 62 .cfa: $rsp 8 + .ra: .cfa -8 + ^
STACK CFI 8ce72 $r12: .cfa -16 + ^ .cfa: $rsp 16 +
STACK CFI 8ce73 $rbp: .cfa -24 + ^ .cfa: $rsp 24 +
STACK CFI 8ce7c .cfa: $rsp 352 +
STACK CFI 8cece .cfa: $rsp 24 +
STACK CFI 8cecf .cfa: $rsp 16 +
STACK CFI 8ced1 .cfa: $rsp 8 +
STACK CFI INIT 8cee0 a0 .cfa: $rsp 8 + .ra: .cfa -8 + ^
STACK CFI 8cee2 $r13: .cfa -16 + ^ .cfa: $rsp 16 +
STACK CFI 8cee4 $r12: .cfa -24 + ^ .cfa: $rsp 24 +
STACK CFI 8cee5 $rbp: .cfa -32 + ^ .cfa: $rsp 32 +
STACK CFI 8cee8 $rbx: .cfa -40 + ^ .cfa: $rsp 40 +
STACK CFI 8cef4 .cfa: $rsp 368 +
STACK CFI 8cf60 .cfa: $rsp 40 +
STACK CFI 8cf61 .cfa: $rsp 32 +
STACK CFI 8cf62 .cfa: $rsp 24 +
STACK CFI 8cf64 .cfa: $rsp 16 +
STACK CFI 8cf66 .cfa: $rsp 8 +
STACK CFI 8cf70 .cfa: $rsp 368 +
STACK CFI 8cf77 .cfa: $rsp 40 +
STACK CFI 8cf7a .cfa: $rsp 32 +
STACK CFI 8cf7b .cfa: $rsp 24 +
STACK CFI 8cf7d .cfa: $rsp 16 +
STACK CFI 8cf7f .cfa: $rsp 8 +
STACK CFI INIT 8cf80 30 .cfa: $rsp 8 + .ra: .cfa -8 + ^
STACK CFI INIT 8cfb0 ac .cfa: $rsp 8 + .ra: .cfa -8 + ^
STACK CFI 8cfb1 $rbp: .cfa -16 + ^ .cfa: $rsp 16 +
STACK CFI 8d057 .cfa: $rsp 8 +
STACK CFI INIT 8d060 3 .cfa: $rsp 8 + .ra: .cfa -8 + ^
STACK CFI INIT 8d070 5f .cfa: $rsp 8 + .ra: .cfa -8 + ^
STACK CFI 8d074 .cfa: $rsp 112 +
STACK CFI 8d0bc .cfa: $rsp 8 +
STACK CFI 8d0bd .cfa: $rsp 112 +
STACK CFI INIT 8d0d0 37 .cfa: $rsp 8 + .ra: .cfa -8 + ^
STACK CFI 8d0d2 $r12: .cfa -16 + ^ .cfa: $rsp 16 +
STACK CFI 8d0d6 $rbp: .cfa -24 + ^ .cfa: $rsp 24 +
STACK CFI 8d0d9 $rbx: .cfa -32 + ^ .cfa: $rsp 32 +
STACK CFI 8d0e9 .cfa: $rsp 24 +
STACK CFI 8d0ea .cfa: $rsp 16 +
STACK CFI 8d0ec .cfa: $rsp 8 +
STACK CFI 8d0f0 .cfa: $rsp 32 +
STACK CFI INIT 8d110 37 .cfa: $rsp 8 + .ra: .cfa -8 + ^
STACK CFI INIT 8d150 aa .cfa: $rsp 8 + .ra: .cfa -8 + ^
STACK CFI 8d152 $r12: .cfa -16 + ^ .cfa: $rsp 16 +
STACK CFI 8d153 $rbp: .cfa -24 + ^ .cfa: $rsp 24 +
STACK CFI 8d154 $rbx: .cfa -32 + ^ .cfa: $rsp 32 +
STACK CFI 8d15b .cfa: $rsp 8240 +
STACK CFI 8d1f5 .cfa: $rsp 32 +
STACK CFI 8d1f6 .cfa: $rsp 24 +
STACK CFI 8d1f7 .cfa: $rsp 16 +
STACK CFI 8d1f9 .cfa: $rsp 8 +
STACK CFI INIT 8d200 1dd .cfa: $rsp 8 + .ra: .cfa -8 + ^
STACK CFI 8d202 $r13: .cfa -16 + ^ .cfa: $rsp 16 +
STACK CFI 8d204 $r12: .cfa -24 + ^ .cfa: $rsp 24 +
STACK CFI 8d205 $rbp: .cfa -32 + ^ .cfa: $rsp 32 +
STACK CFI 8d206 $rbx: .cfa -40 + ^ .cfa: $rsp 40 +
STACK CFI 8d210 .cfa: $rsp 176 +
STACK CFI 8d24d .cfa: $rsp 40 +
STACK CFI 8d24e .cfa: $rsp 32 +
STACK CFI 8d24f .cfa: $rsp 24 +
STACK CFI 8d251 .cfa: $rsp 16 +
STACK CFI 8d253 .cfa: $rsp 8 +
STACK CFI 8d258 .cfa: $rsp 176 +
STACK CFI 8d2a2 .cfa: $rsp 40 +
STACK CFI 8d2a5 .cfa: $rsp 32 +
STACK CFI 8d2a6 .cfa: $rsp 24 +
STACK CFI 8d2a8 .cfa: $rsp 16 +
STACK CFI 8d2aa .cfa: $rsp 8 +
STACK CFI 8d2b0 .cfa: $rsp 176 +
STACK CFI INIT 8d3e0 ab .cfa: $rsp 8 + .ra: .cfa -8 + ^
STACK CFI 8d3e1 $rbp: .cfa -16 + ^ .cfa: $rsp 16 +
STACK CFI 8d3f4 .cfa: $rsp 1040 +
STACK CFI 8d421 .cfa: $rsp 16 +
STACK CFI 8d422 .cfa: $rsp 8 +
STACK CFI 8d428 .cfa: $rsp 1040 +
STACK CFI 8d468 .cfa: $rsp 16 +
STACK CFI 8d469 .cfa: $rsp 8 +
STACK CFI 8d470 .cfa: $rsp 1040 +
STACK CFI INIT 8d490 1e3 .cfa: $rsp 8 + .ra: .cfa -8 + ^
STACK CFI 8d492 $r12: .cfa -16 + ^ .cfa: $rsp 16 +
STACK CFI 8d49a $rbp: .cfa -24 + ^ .cfa: $rsp 24 +
STACK CFI 8d4a5 $rbx: .cfa -32 + ^ .cfa: $rsp 32 +
STACK CFI 8d4ac .cfa: $rsp 2080 +
STACK CFI 8d5d1 .cfa: $rsp 32 +
STACK CFI 8d5d2 .cfa: $rsp 24 +
STACK CFI 8d5d3 .cfa: $rsp 16 +
STACK CFI 8d5d5 .cfa: $rsp 8 +
STACK CFI 8d5e0 .cfa: $rsp 2080 +
STACK CFI 8d66e .cfa: $rsp 32 +
STACK CFI 8d66f .cfa: $rsp 24 +
STACK CFI 8d670 .cfa: $rsp 16 +
STACK CFI 8d672 .cfa: $rsp 8 +
STACK CFI INIT 8d680 c0 .cfa: $rsp 8 + .ra: .cfa -8 + ^
STACK CFI 8d682 $r15: .cfa -16 + ^ .cfa: $rsp 16 +
STACK CFI 8d687 $r14: .cfa -24 + ^ .cfa: $rsp 24 +
STACK CFI 8d68c $r13: .cfa -32 + ^ .cfa: $rsp 32 +
STACK CFI 8d691 $r12: .cfa -40 + ^ .cfa: $rsp 40 +
STACK CFI 8d697 $rbp: .cfa -48 + ^ .cfa: $rsp 48 +
STACK CFI 8d698 $rbx: .cfa -56 + ^ .cfa: $rsp 56 +
STACK CFI 8d69c .cfa: $rsp 80 +
STACK CFI 8d735 .cfa: $rsp 56 +
STACK CFI 8d736 .cfa: $rsp 48 +
STACK CFI 8d737 .cfa: $rsp 40 +
STACK CFI 8d739 .cfa: $rsp 32 +
STACK CFI 8d73b .cfa: $rsp 24 +
STACK CFI 8d73d .cfa: $rsp 16 +
STACK CFI 8d73f .cfa: $rsp 8 +
STACK CFI INIT 8d740 13d .cfa: $rsp 8 + .ra: .cfa -8 + ^
STACK CFI 8d742 $r14: .cfa -16 + ^ .cfa: $rsp 16 +
STACK CFI 8d74f $r13: .cfa -24 + ^ .cfa: $rsp 24 +
STACK CFI 8d754 $r12: .cfa -32 + ^ .cfa: $rsp 32 +
STACK CFI 8d755 $rbp: .cfa -40 + ^ .cfa: $rsp 40 +
STACK CFI 8d756 $rbx: .cfa -48 + ^ .cfa: $rsp 48 +
STACK CFI 8d760 .cfa: $rsp 1072 +
STACK CFI 8d83f .cfa: $rsp 48 +
STACK CFI 8d843 .cfa: $rsp 40 +
STACK CFI 8d844 .cfa: $rsp 32 +
STACK CFI 8d846 .cfa: $rsp 24 +
STACK CFI 8d848 .cfa: $rsp 16 +
STACK CFI 8d84a .cfa: $rsp 8 +
STACK CFI 8d850 .cfa: $rsp 1072 +
STACK CFI INIT 8d880 172 .cfa: $rsp 8 + .ra: .cfa -8 + ^
STACK CFI 8d884 .cfa: $rsp 32 +
STACK CFI 8d911 .cfa: $rsp 8 +
STACK CFI 8d918 .cfa: $rsp 32 +
STACK CFI INIT 8da00 9b .cfa: $rsp 8 + .ra: .cfa -8 + ^
STACK CFI 8da01 $rbp: .cfa -16 + ^ .cfa: $rsp 16 +
STACK CFI 8da05 $rbx: .cfa -24 + ^ .cfa: $rsp 24 +
STACK CFI 8da0c .cfa: $rsp 64 +
STACK CFI 8da5a .cfa: $rsp 24 +
STACK CFI 8da5b .cfa: $rsp 16 +
STACK CFI 8da5c .cfa: $rsp 8 +
STACK CFI 8da60 .cfa: $rsp 64 +
STACK CFI INIT 8daa0 16e .cfa: $rsp 8 + .ra: .cfa -8 + ^
STACK CFI 8daa1 $rbx: .cfa -16 + ^ .cfa: $rsp 16 +
STACK CFI 8daac .cfa: $rsp 48 +
STACK CFI 8db60 .cfa: $rsp 16 +
STACK CFI 8db61 .cfa: $rsp 8 +
STACK CFI 8db68 .cfa: $rsp 48 +
STACK CFI 8db9f .cfa: $rsp 16 +
STACK CFI 8dba0 .cfa: $rsp 8 +
STACK CFI 8dba8 .cfa: $rsp 48 +
STACK CFI INIT 8dc10 66 .cfa: $rsp 8 + .ra: .cfa -8 + ^
STACK CFI 8dc11 $rbp: .cfa -16 + ^ .cfa: $rsp 16 +
STACK CFI 8dc12 $rbx: .cfa -24 + ^ .cfa: $rsp 24 +
STACK CFI 8dc18 .cfa: $rsp 64 +
STACK CFI 8dc4f .cfa: $rsp 24 +
STACK CFI 8dc57 .cfa: $rsp 16 +
STACK CFI 8dc58 .cfa: $rsp 8 +
STACK CFI 8dc60 .cfa: $rsp 64 +
STACK CFI 8dc6c .cfa: $rsp 24 +
STACK CFI 8dc74 .cfa: $rsp 16 +
STACK CFI 8dc75 .cfa: $rsp 8 +
STACK CFI INIT 8dc80 32 .cfa: $rsp 8 + .ra: .cfa -8 + ^
STACK CFI 8dc84 .cfa: $rsp 16 +
STACK CFI 8dcb1 .cfa: $rsp 8 +
STACK CFI INIT 8dcc0 fb .cfa: $rsp 8 + .ra: .cfa -8 + ^
STACK CFI 8dcc2 $r12: .cfa -16 + ^ .cfa: $rsp 16 +
STACK CFI 8dcc3 $rbp: .cfa -24 + ^ .cfa: $rsp 24 +
STACK CFI 8dcc7 $rbx: .cfa -32 + ^ .cfa: $rsp 32 +
STACK CFI 8dcd1 .cfa: $rsp 1088 +
STACK CFI 8ddb6 .cfa: $rsp 32 +
STACK CFI 8ddb7 .cfa: $rsp 24 +
STACK CFI 8ddb8 .cfa: $rsp 16 +
STACK CFI 8ddba .cfa: $rsp 8 +
STACK CFI INIT 8ddc0 4a .cfa: $rsp 8 + .ra: .cfa -8 + ^
STACK CFI 8ddc8 $rbx: .cfa -16 + ^ .cfa: $rsp 16 +
STACK CFI 8de09 .cfa: $rsp 8 +
STACK CFI INIT 8de10 31 .cfa: $rsp 8 + .ra: .cfa -8 + ^
STACK CFI 8de23 .cfa: $rsp 16 +
STACK CFI 8de2f .cfa: $rsp 8 +
STACK CFI INIT 8de50 27 .cfa: $rsp 8 + .ra: .cfa -8 + ^
STACK CFI 8de54 .cfa: $rsp 16 +
STACK CFI 8de72 .cfa: $rsp 8 +
STACK CFI INIT 8de80 1ae .cfa: $rsp 8 + .ra: .cfa -8 + ^
STACK CFI 8de81 $rbp: .cfa -16 + ^ .cfa: $rsp 16 +
STACK CFI 8de82 $rbx: .cfa -24 + ^ .cfa: $rsp 24 +
STACK CFI 8de86 .cfa: $rsp 96 +
STACK CFI 8defe .cfa: $rsp 104 +
STACK CFI 8df0e .cfa: $rsp 112 +
STACK CFI 8df2a .cfa: $rsp 104 +
STACK CFI 8df2b .cfa: $rsp 96 +
STACK CFI 8df34 .cfa: $rsp 24 +
STACK CFI 8df3c .cfa: $rsp 16 +
STACK CFI 8df3d .cfa: $rsp 8 +
STACK CFI 8df40 .cfa: $rsp 96 +
STACK CFI 8dfe0 .cfa: $rsp 24 +
STACK CFI 8dfe8 .cfa: $rsp 16 +
STACK CFI 8dfe9 .cfa: $rsp 8 +
STACK CFI 8dff0 .cfa: $rsp 96 +
STACK CFI INIT 8e030 6a .cfa: $rsp 8 + .ra: .cfa -8 + ^
STACK CFI INIT 8e0a0 1e .cfa: $rsp 8 + .ra: .cfa -8 + ^
STACK CFI 8e0a1 $rbx: .cfa -16 + ^ .cfa: $rsp 16 +
STACK CFI 8e0a8 .cfa: $rsp 32 +
STACK CFI 8e0bc .cfa: $rsp 16 +
STACK CFI 8e0bd .cfa: $rsp 8 +
STACK CFI INIT 8e0c0 39 .cfa: $rsp 8 + .ra: .cfa -8 + ^
STACK CFI 8e0d2 .cfa: $rsp 16 +
STACK CFI 8e0f3 .cfa: $rsp 8 +
STACK CFI INIT 8e100 1ed .cfa: $rsp 8 + .ra: .cfa -8 + ^
STACK CFI 8e107 .cfa: $rsp 192 +
STACK CFI 8e211 .cfa: $rsp 8 +
STACK CFI 8e218 .cfa: $rsp 192 +
STACK CFI INIT 8e2f0 274 .cfa: $rsp 8 + .ra: .cfa -8 + ^
STACK CFI 8e2f2 $r12: .cfa -16 + ^ .cfa: $rsp 16 +
STACK CFI 8e2f8 $rbp: .cfa -24 + ^ .cfa: $rsp 24 +
STACK CFI 8e2ff .cfa: $rsp 224 +
STACK CFI 8e482 .cfa: $rsp 24 +
STACK CFI 8e486 .cfa: $rsp 16 +
STACK CFI 8e488 .cfa: $rsp 8 +
STACK CFI 8e490 .cfa: $rsp 224 +
STACK CFI 8e530 .cfa: $rsp 24 +
STACK CFI 8e531 .cfa: $rsp 16 +
STACK CFI 8e533 .cfa: $rsp 8 +
STACK CFI 8e538 .cfa: $rsp 224 +
STACK CFI INIT 8e570 a9 .cfa: $rsp 8 + .ra: .cfa -8 + ^
STACK CFI 8e571 $rbp: .cfa -16 + ^ .cfa: $rsp 16 +
STACK CFI 8e57a .cfa: $rsp 1072 +
STACK CFI 8e617 .cfa: $rsp 16 +
STACK CFI 8e618 .cfa: $rsp 8 +
STACK CFI INIT 8e620 8a .cfa: $rsp 8 + .ra: .cfa -8 + ^
STACK CFI 8e624 .cfa: $rsp 48 +
STACK CFI 8e67e .cfa: $rsp 8 +
STACK CFI 8e680 .cfa: $rsp 48 +
STACK CFI INIT 8e6b0 bc .cfa: $rsp 8 + .ra: .cfa -8 + ^
STACK CFI 8e6b1 $rbp: .cfa -16 + ^ .cfa: $rsp 16 +
STACK CFI 8e6b5 $rbx: .cfa -24 + ^ .cfa: $rsp 24 +
STACK CFI 8e6bc .cfa: $rsp 64 +
STACK CFI 8e749 .cfa: $rsp 24 +
STACK CFI 8e74a .cfa: $rsp 16 +
STACK CFI 8e74b .cfa: $rsp 8 +
STACK CFI 8e750 .cfa: $rsp 64 +
STACK CFI INIT 8e770 8a .cfa: $rsp 8 + .ra: .cfa -8 + ^
STACK CFI 8e774 .cfa: $rsp 48 +
STACK CFI 8e7cc .cfa: $rsp 8 +
STACK CFI 8e7d0 .cfa: $rsp 48 +
STACK CFI INIT 8e800 58 .cfa: $rsp 8 + .ra: .cfa -8 + ^
STACK CFI 8e802 $r12: .cfa -16 + ^ .cfa: $rsp 16 +
STACK CFI 8e808 $rbp: .cfa -24 + ^ .cfa: $rsp 24 +
STACK CFI 8e80c .cfa: $rsp 48 +
STACK CFI 8e832 .cfa: $rsp 24 +
STACK CFI 8e833 .cfa: $rsp 16 +
STACK CFI 8e835 .cfa: $rsp 8 +
STACK CFI 8e840 .cfa: $rsp 48 +
STACK CFI 8e854 .cfa: $rsp 24 +
STACK CFI 8e855 .cfa: $rsp 16 +
STACK CFI 8e857 .cfa: $rsp 8 +
STACK CFI INIT 8e860 11 .cfa: $rsp 8 + .ra: .cfa -8 + ^
STACK CFI 8e864 .cfa: $rsp 48 +
STACK CFI 8e870 .cfa: $rsp 8 +
STACK CFI INIT 8e880 3 .cfa: $rsp 8 + .ra: .cfa -8 + ^
STACK CFI INIT 8e890 c4 .cfa: $rsp 8 + .ra: .cfa -8 + ^
STACK CFI 8e891 $rbp: .cfa -16 + ^ .cfa: $rsp 16 +
STACK CFI 8e897 $rbx: .cfa -24 + ^ .cfa: $rsp 24 +
STACK CFI 8e8a1 .cfa: $rsp 176 +
STACK CFI 8e951 .cfa: $rsp 24 +
STACK CFI 8e952 .cfa: $rsp 16 +
STACK CFI 8e953 .cfa: $rsp 8 +
STACK CFI INIT 8e960 38 .cfa: $rsp 8 + .ra: .cfa -8 + ^
STACK CFI INIT 8e9a0 11 .cfa: $rsp 8 + .ra: .cfa -8 + ^
STACK CFI INIT 8e9c0 bd .cfa: $rsp 8 + .ra: .cfa -8 + ^
STACK CFI 8e9cb $r13: .cfa -16 + ^ .cfa: $rsp 16 +
STACK CFI 8e9db $r12: .cfa -24 + ^ .cfa: $rsp 24 +
STACK CFI 8e9de $rbp: .cfa -32 + ^ .cfa: $rsp 32 +
STACK CFI 8e9e8 .cfa: $rsp 4128 +
STACK CFI 8ea41 .cfa: $rsp 32 +
STACK CFI 8ea42 .cfa: $rsp 24 +
STACK CFI 8ea44 .cfa: $rsp 16 +
STACK CFI 8ea46 .cfa: $rsp 8 +
STACK CFI 8ea50 $r12: $r12 $r13: $r13 $rbp: $rbp
STACK CFI 8ea58 $r12: .cfa -24 + ^ $r13: .cfa -16 + ^ $rbp: .cfa -32 + ^ .cfa: $rsp 4128 +
STACK CFI INIT 8ea80 f5 .cfa: $rsp 8 + .ra: .cfa -8 + ^
STACK CFI 8ea8b $r14: .cfa -16 + ^ .cfa: $rsp 16 +
STACK CFI 8ea9b $r13: .cfa -24 + ^ .cfa: $rsp 24 +
STACK CFI 8ea9f $r12: .cfa -32 + ^ .cfa: $rsp 32 +
STACK CFI 8eaa3 $rbp: .cfa -40 + ^ .cfa: $rsp 40 +
STACK CFI 8eaaa .cfa: $rsp 4144 +
STACK CFI 8eb2b .cfa: $rsp 40 +
STACK CFI 8eb2c .cfa: $rsp 32 +
STACK CFI 8eb2e .cfa: $rsp 24 +
STACK CFI 8eb30 .cfa: $rsp 16 +
STACK CFI 8eb32 .cfa: $rsp 8 +
STACK CFI 8eb38 .cfa: $rsp 4144 +
STACK CFI 8eb48 $r12: $r12 $r13: $r13 $r14: $r14 $rbp: $rbp .cfa: $rsp 8 +
STACK CFI 8eb50 $r12: .cfa -32 + ^ $r13: .cfa -24 + ^ $r14: .cfa -16 + ^ $rbp: .cfa -40 + ^ .cfa: $rsp 4144 +
STACK CFI INIT 8eb80 47 .cfa: $rsp 8 + .ra: .cfa -8 + ^
STACK CFI 8eb82 $r12: .cfa -16 + ^ .cfa: $rsp 16 +
STACK CFI 8eb8a $rbp: .cfa -24 + ^ .cfa: $rsp 24 +
STACK CFI 8eb8b $rbx: .cfa -32 + ^ .cfa: $rsp 32 +
STACK CFI 8ebc3 .cfa: $rsp 24 +
STACK CFI 8ebc4 .cfa: $rsp 16 +
STACK CFI 8ebc6 .cfa: $rsp 8 +
STACK CFI INIT 8ebd0 17c .cfa: $rsp 8 + .ra: .cfa -8 + ^
STACK CFI 8ebd2 $r15: .cfa -16 + ^ .cfa: $rsp 16 +
STACK CFI 8ebd4 $r14: .cfa -24 + ^ .cfa: $rsp 24 +
STACK CFI 8ebd9 $r13: .cfa -32 + ^ .cfa: $rsp 32 +
STACK CFI 8ebdb $r12: .cfa -40 + ^ .cfa: $rsp 40 +
STACK CFI 8ebdc $rbp: .cfa -48 + ^ .cfa: $rsp 48 +
STACK CFI 8ebe3 .cfa: $rsp 4160 +
STACK CFI 8ed0d .cfa: $rsp 48 +
STACK CFI 8ed0e .cfa: $rsp 40 +
STACK CFI 8ed10 .cfa: $rsp 32 +
STACK CFI 8ed12 .cfa: $rsp 24 +
STACK CFI 8ed14 .cfa: $rsp 16 +
STACK CFI 8ed16 .cfa: $rsp 8 +
STACK CFI 8ed20 .cfa: $rsp 4160 +
STACK CFI INIT 8ed50 19 .cfa: $rsp 8 + .ra: .cfa -8 + ^
STACK CFI 8ed54 .cfa: $rsp 48 +
STACK CFI 8ed68 .cfa: $rsp 8 +
STACK CFI INIT 8ed70 298 .cfa: $rsp 8 + .ra: .cfa -8 + ^
STACK CFI 8ed72 $r15: .cfa -16 + ^ .cfa: $rsp 16 +
STACK CFI 8ed74 $r14: .cfa -24 + ^ .cfa: $rsp 24 +
STACK CFI 8ed76 $r13: .cfa -32 + ^ .cfa: $rsp 32 +
STACK CFI 8ed78 $r12: .cfa -40 + ^ .cfa: $rsp 40 +
STACK CFI 8ed7c $rbp: .cfa -48 + ^ .cfa: $rsp 48 +
STACK CFI 8ed7f $rbx: .cfa -56 + ^ .cfa: $rsp 56 +
STACK CFI 8ed85 .cfa: $rsp 112 +
STACK CFI 8efa8 .cfa: $rsp 56 +
STACK CFI 8efa9 .cfa: $rsp 48 +
STACK CFI 8efaa .cfa: $rsp 40 +
STACK CFI 8efac .cfa: $rsp 32 +
STACK CFI 8efae .cfa: $rsp 24 +
STACK CFI 8efb0 .cfa: $rsp 16 +
STACK CFI 8efb2 .cfa: $rsp 8 +
STACK CFI 8efb8 .cfa: $rsp 112 +
STACK CFI INIT 8f010 69 .cfa: $rsp 8 + .ra: .cfa -8 + ^
STACK CFI 8f016 $rbp: .cfa -16 + ^ .cfa: $rsp 16 +
STACK CFI 8f01a $rbx: .cfa -24 + ^ .cfa: $rsp 24 +
STACK CFI 8f01e .cfa: $rsp 32 +
STACK CFI 8f04b .cfa: $rsp 24 +
STACK CFI 8f04f $rbx: $rbx .cfa: $rsp 16 +
STACK CFI 8f050 $rbp: $rbp .cfa: $rsp 8 +
STACK CFI 8f058 $rbp: .cfa -16 + ^ $rbx: .cfa -24 + ^ .cfa: $rsp 32 +
STACK CFI 8f068 .cfa: $rsp 24 +
STACK CFI 8f06c $rbx: $rbx .cfa: $rsp 16 +
STACK CFI 8f06d $rbp: $rbp .cfa: $rsp 8 +
STACK CFI INIT 8f080 be .cfa: $rsp 8 + .ra: .cfa -8 + ^
STACK CFI 8f082 $r13: .cfa -16 + ^ .cfa: $rsp 16 +
STACK CFI 8f084 $r12: .cfa -24 + ^ .cfa: $rsp 24 +
STACK CFI 8f085 $rbp: .cfa -32 + ^ .cfa: $rsp 32 +
STACK CFI 8f086 $rbx: .cfa -40 + ^ .cfa: $rsp 40 +
STACK CFI 8f08d .cfa: $rsp 1088 +
STACK CFI 8f12f .cfa: $rsp 40 +
STACK CFI 8f133 .cfa: $rsp 32 +
STACK CFI 8f134 .cfa: $rsp 24 +
STACK CFI 8f136 .cfa: $rsp 16 +
STACK CFI 8f138 .cfa: $rsp 8 +
STACK CFI 8f139 .cfa: $rsp 1088 +
STACK CFI INIT 8f140 de .cfa: $rsp 8 + .ra: .cfa -8 + ^
STACK CFI 8f142 $r15: .cfa -16 + ^ .cfa: $rsp 16 +
STACK CFI 8f144 $r14: .cfa -24 + ^ .cfa: $rsp 24 +
STACK CFI 8f146 $r13: .cfa -32 + ^ .cfa: $rsp 32 +
STACK CFI 8f148 $r12: .cfa -40 + ^ .cfa: $rsp 40 +
STACK CFI 8f149 $rbp: .cfa -48 + ^ .cfa: $rsp 48 +
STACK CFI 8f14a $rbx: .cfa -56 + ^ .cfa: $rsp 56 +
STACK CFI 8f151 .cfa: $rsp 1104 +
STACK CFI 8f20b .cfa: $rsp 56 +
STACK CFI 8f20f .cfa: $rsp 48 +
STACK CFI 8f210 .cfa: $rsp 40 +
STACK CFI 8f212 .cfa: $rsp 32 +
STACK CFI 8f214 .cfa: $rsp 24 +
STACK CFI 8f216 .cfa: $rsp 16 +
STACK CFI 8f218 .cfa: $rsp 8 +
STACK CFI 8f219 .cfa: $rsp 1104 +
STACK CFI INIT 8f220 7a .cfa: $rsp 8 + .ra: .cfa -8 + ^
STACK CFI 8f22f $r12: .cfa -16 + ^ .cfa: $rsp 16 +
STACK CFI 8f233 $rbp: .cfa -24 + ^ .cfa: $rsp 24 +
STACK CFI 8f234 $rbx: .cfa -32 + ^ .cfa: $rsp 32 +
STACK CFI 8f271 .cfa: $rsp 24 +
STACK CFI 8f274 .cfa: $rsp 16 +
STACK CFI 8f276 .cfa: $rsp 8 +
STACK CFI 8f280 $r12: $r12 $rbp: $rbp $rbx: $rbx
STACK CFI 8f288 $r12: .cfa -16 + ^ $rbp: .cfa -24 + ^ $rbx: .cfa -32 + ^ .cfa: $rsp 32 +
STACK CFI 8f293 .cfa: $rsp 24 +
STACK CFI 8f297 .cfa: $rsp 16 +
STACK CFI 8f299 .cfa: $rsp 8 +
STACK CFI INIT 8f2a0 6b .cfa: $rsp 8 + .ra: .cfa -8 + ^
STACK CFI INIT 8f310 8 .cfa: $rsp 8 + .ra: .cfa -8 + ^
STACK CFI INIT 8f320 1d4 .cfa: $rsp 8 + .ra: .cfa -8 + ^
STACK CFI 8f322 $r14: .cfa -16 + ^ .cfa: $rsp 16 +
STACK CFI 8f324 $r13: .cfa -24 + ^ .cfa: $rsp 24 +
STACK CFI 8f326 $r12: .cfa -32 + ^ .cfa: $rsp 32 +
STACK CFI 8f327 $rbp: .cfa -40 + ^ .cfa: $rsp 40 +
STACK CFI 8f328 $rbx: .cfa -48 + ^ .cfa: $rsp 48 +
STACK CFI 8f448 .cfa: $rsp 40 +
STACK CFI 8f449 .cfa: $rsp 32 +
STACK CFI 8f44b .cfa: $rsp 24 +
STACK CFI 8f44d .cfa: $rsp 16 +
STACK CFI 8f44f .cfa: $rsp 8 +
STACK CFI 8f450 .cfa: $rsp 48 +
STACK CFI INIT 8f500 e .cfa: $rsp 8 + .ra: .cfa -8 + ^
STACK CFI 8f504 .cfa: $rsp 16 +
STACK CFI INIT 8f510 4c1 .cfa: $rsp 8 + .ra: .cfa -8 + ^
STACK CFI 8f512 $r15: .cfa -16 + ^ .cfa: $rsp 16 +
STACK CFI 8f514 $r14: .cfa -24 + ^ .cfa: $rsp 24 +
STACK CFI 8f519 $r13: .cfa -32 + ^ .cfa: $rsp 32 +
STACK CFI 8f51b $r12: .cfa -40 + ^ .cfa: $rsp 40 +
STACK CFI 8f51c $rbp: .cfa -48 + ^ .cfa: $rsp 48 +
STACK CFI 8f520 $rbx: .cfa -56 + ^ .cfa: $rsp 56 +
STACK CFI 8f527 .cfa: $rsp 8304 +
STACK CFI 8f7ff .cfa: $rsp 56 +
STACK CFI 8f800 .cfa: $rsp 48 +
STACK CFI 8f801 .cfa: $rsp 40 +
STACK CFI 8f803 .cfa: $rsp 32 +
STACK CFI 8f805 .cfa: $rsp 24 +
STACK CFI 8f807 .cfa: $rsp 16 +
STACK CFI 8f809 .cfa: $rsp 8 +
STACK CFI 8f80a .cfa: $rsp 8304 +
STACK CFI INIT 8f9e0 12f .cfa: $rsp 8 + .ra: .cfa -8 + ^
STACK CFI 8f9e1 $rbp: .cfa -16 + ^ .cfa: $rsp 16 +
STACK CFI 8f9e5 $rbx: .cfa -24 + ^ .cfa: $rsp 24 +
STACK CFI 8f9ec .cfa: $rsp 32 +
STACK CFI 8fa77 .cfa: $rsp 24 +
STACK CFI 8fa7a .cfa: $rsp 16 +
STACK CFI 8fa7b .cfa: $rsp 8 +
STACK CFI 8fa80 .cfa: $rsp 32 +
STACK CFI 8fa84 .cfa: $rsp 24 +
STACK CFI 8fa85 .cfa: $rsp 16 +
STACK CFI 8fa86 .cfa: $rsp 8 +
STACK CFI 8fa90 .cfa: $rsp 32 +
STACK CFI INIT 8fb10 d5 .cfa: $rsp 8 + .ra: .cfa -8 + ^
STACK CFI 8fb17 .cfa: $rsp 144 +
STACK CFI 8fbe4 .cfa: $rsp 8 +
STACK CFI INIT 8fbf0 26 .cfa: $rsp 8 + .ra: .cfa -8 + ^
STACK CFI 8fbf1 $rbp: .cfa -16 + ^ .cfa: $rsp 16 +
STACK CFI 8fbf7 $rbx: .cfa -24 + ^ .cfa: $rsp 24 +
STACK CFI 8fbfe .cfa: $rsp 32 +
STACK CFI 8fc0e .cfa: $rsp 24 +
STACK CFI 8fc14 .cfa: $rsp 16 +
STACK CFI 8fc15 .cfa: $rsp 8 +
STACK CFI INIT 8fc20 197 .cfa: $rsp 8 + .ra: .cfa -8 + ^
STACK CFI INIT 8fdc0 200 .cfa: $rsp 8 + .ra: .cfa -8 + ^
STACK CFI 8fdc2 $r13: .cfa -16 + ^ .cfa: $rsp 16 +
STACK CFI 8fdc4 $r12: .cfa -24 + ^ .cfa: $rsp 24 +
STACK CFI 8fdc5 $rbp: .cfa -32 + ^ .cfa: $rsp 32 +
STACK CFI 8fdc6 $rbx: .cfa -40 + ^ .cfa: $rsp 40 +
STACK CFI 8fdca .cfa: $rsp 48 +
STACK CFI 8fdd4 .cfa: $rsp 40 +
STACK CFI 8fdd5 .cfa: $rsp 32 +
STACK CFI 8fdd6 .cfa: $rsp 24 +
STACK CFI 8fdd8 .cfa: $rsp 16 +
STACK CFI 8fdda .cfa: $rsp 8 +
STACK CFI 8fde0 .cfa: $rsp 48 +
STACK CFI 8ff8a .cfa: $rsp 40 +
STACK CFI 8ff8e .cfa: $rsp 32 +
STACK CFI 8ff8f .cfa: $rsp 24 +
STACK CFI 8ff91 .cfa: $rsp 16 +
STACK CFI 8ff93 .cfa: $rsp 8 +
STACK CFI 8ffa0 .cfa: $rsp 48 +
STACK CFI INIT 8ffc0 1f0 .cfa: $rsp 8 + .ra: .cfa -8 + ^
STACK CFI 8ffc2 $r13: .cfa -16 + ^ .cfa: $rsp 16 +
STACK CFI 8ffc4 $r12: .cfa -24 + ^ .cfa: $rsp 24 +
STACK CFI 8ffc5 $rbp: .cfa -32 + ^ .cfa: $rsp 32 +
STACK CFI 8ffc6 $rbx: .cfa -40 + ^ .cfa: $rsp 40 +
STACK CFI 8ffca .cfa: $rsp 48 +
STACK CFI 8ffd4 .cfa: $rsp 40 +
STACK CFI 8ffd5 .cfa: $rsp 32 +
STACK CFI 8ffd6 .cfa: $rsp 24 +
STACK CFI 8ffd8 .cfa: $rsp 16 +
STACK CFI 8ffda .cfa: $rsp 8 +
STACK CFI 8ffe0 .cfa: $rsp 48 +
STACK CFI 9017a .cfa: $rsp 40 +
STACK CFI 9017e .cfa: $rsp 32 +
STACK CFI 9017f .cfa: $rsp 24 +
STACK CFI 90181 .cfa: $rsp 16 +
STACK CFI 90183 .cfa: $rsp 8 +
STACK CFI 90190 .cfa: $rsp 48 +
STACK CFI INIT 901b0 200 .cfa: $rsp 8 + .ra: .cfa -8 + ^
STACK CFI 901b2 $r13: .cfa -16 + ^ .cfa: $rsp 16 +
STACK CFI 901b4 $r12: .cfa -24 + ^ .cfa: $rsp 24 +
STACK CFI 901b5 $rbp: .cfa -32 + ^ .cfa: $rsp 32 +
STACK CFI 901b6 $rbx: .cfa -40 + ^ .cfa: $rsp 40 +
STACK CFI 901ba .cfa: $rsp 48 +
STACK CFI 901c4 .cfa: $rsp 40 +
STACK CFI 901c5 .cfa: $rsp 32 +
STACK CFI 901c6 .cfa: $rsp 24 +
STACK CFI 901c8 .cfa: $rsp 16 +
STACK CFI 901ca .cfa: $rsp 8 +
STACK CFI 901d0 .cfa: $rsp 48 +
STACK CFI 9037a .cfa: $rsp 40 +
STACK CFI 9037e .cfa: $rsp 32 +
STACK CFI 9037f .cfa: $rsp 24 +
STACK CFI 90381 .cfa: $rsp 16 +
STACK CFI 90383 .cfa: $rsp 8 +
STACK CFI 90390 .cfa: $rsp 48 +
STACK CFI INIT 903b0 35 .cfa: $rsp 8 + .ra: .cfa -8 + ^
STACK CFI 903b2 $r12: .cfa -16 + ^ .cfa: $rsp 16 +
STACK CFI 903b6 $rbp: .cfa -24 + ^ .cfa: $rsp 24 +
STACK CFI 903ba $rbx: .cfa -32 + ^ .cfa: $rsp 32 +
STACK CFI 903d2 .cfa: $rsp 24 +
STACK CFI 903e2 .cfa: $rsp 16 +
STACK CFI 903e4 .cfa: $rsp 8 +
STACK CFI INIT 903f0 8 .cfa: $rsp 8 + .ra: .cfa -8 + ^
STACK CFI INIT 90400 11 .cfa: $rsp 8 + .ra: .cfa -8 + ^
STACK CFI INIT 90420 11 .cfa: $rsp 8 + .ra: .cfa -8 + ^
STACK CFI INIT 90440 8 .cfa: $rsp 8 + .ra: .cfa -8 + ^
STACK CFI INIT 90450 44 .cfa: $rsp 8 + .ra: .cfa -8 + ^
STACK CFI INIT 904a0 2f .cfa: $rsp 8 + .ra: .cfa -8 + ^
STACK CFI INIT 904d0 51 .cfa: $rsp 8 + .ra: .cfa -8 + ^
STACK CFI 904d6 $rbp: .cfa -16 + ^ .cfa: $rsp 16 +
STACK CFI 904da $rbx: .cfa -24 + ^ .cfa: $rsp 24 +
STACK CFI 904de .cfa: $rsp 32 +
STACK CFI 90513 .cfa: $rsp 24 +
STACK CFI 90514 .cfa: $rsp 16 +
STACK CFI 90515 .cfa: $rsp 8 +
STACK CFI 90520 $rbp: $rbp $rbx: $rbx
STACK CFI INIT 90530 50 .cfa: $rsp 8 + .ra: .cfa -8 + ^
STACK CFI 90537 $r12: .cfa -16 + ^ .cfa: $rsp 16 +
STACK CFI 9053b $rbp: .cfa -24 + ^ .cfa: $rsp 24 +
STACK CFI 9053c $rbx: .cfa -32 + ^ .cfa: $rsp 32 +
STACK CFI 90573 .cfa: $rsp 24 +
STACK CFI 90577 .cfa: $rsp 16 +
STACK CFI 90579 .cfa: $rsp 8 +
STACK CFI 9057a $r12: $r12 $rbp: $rbp $rbx: $rbx
STACK CFI INIT 90580 61 .cfa: $rsp 8 + .ra: .cfa -8 + ^
STACK CFI 90589 $r12: .cfa -16 + ^ .cfa: $rsp 16 +
STACK CFI 9058d $rbp: .cfa -24 + ^ .cfa: $rsp 24 +
STACK CFI 90591 $rbx: .cfa -32 + ^ .cfa: $rsp 32 +
STACK CFI 905c2 .cfa: $rsp 24 +
STACK CFI 905c3 .cfa: $rsp 16 +
STACK CFI 905c5 .cfa: $rsp 8 +
STACK CFI 905d0 .cfa: $rsp 32 +
STACK CFI 905d1 .cfa: $rsp 24 +
STACK CFI 905d4 .cfa: $rsp 16 +
STACK CFI 905d6 .cfa: $rsp 8 +
STACK CFI 905e0 $r12: $r12 $rbp: $rbp $rbx: $rbx
STACK CFI INIT 905f0 9b .cfa: $rsp 8 + .ra: .cfa -8 + ^
STACK CFI 905f8 $r12: .cfa -16 + ^ .cfa: $rsp 16 +
STACK CFI 905f9 $rbp: .cfa -24 + ^ .cfa: $rsp 24 +
STACK CFI 905fa $rbx: .cfa -32 + ^ .cfa: $rsp 32 +
STACK CFI 9061e .cfa: $rsp 24 +
STACK CFI 9061f .cfa: $rsp 16 +
STACK CFI 90621 .cfa: $rsp 8 +
STACK CFI 90628 .cfa: $rsp 32 +
STACK CFI 90687 .cfa: $rsp 24 +
STACK CFI 90688 .cfa: $rsp 16 +
STACK CFI 9068a .cfa: $rsp 8 +
STACK CFI INIT 90690 77 .cfa: $rsp 8 + .ra: .cfa -8 + ^
STACK CFI INIT 90710 12 .cfa: $rsp 8 + .ra: .cfa -8 + ^
STACK CFI INIT 90730 b .cfa: $rsp 8 + .ra: .cfa -8 + ^
STACK CFI INIT 90740 b .cfa: $rsp 8 + .ra: .cfa -8 + ^
STACK CFI INIT 90750 7 .cfa: $rsp 8 + .ra: .cfa -8 + ^
STACK CFI INIT 90760 36 .cfa: $rsp 8 + .ra: .cfa -8 + ^
STACK CFI INIT 907a0 7 .cfa: $rsp 8 + .ra: .cfa -8 + ^
STACK CFI INIT 907b0 7 .cfa: $rsp 8 + .ra: .cfa -8 + ^
STACK CFI INIT 907c0 a7 .cfa: $rsp 8 + .ra: .cfa -8 + ^
STACK CFI 907c4 .cfa: $rsp 16 +
STACK CFI 90866 .cfa: $rsp 8 +
STACK CFI INIT 90870 63 .cfa: $rsp 8 + .ra: .cfa -8 + ^
STACK CFI 908b3 .cfa: $rsp 16 +
STACK CFI 908c9 .cfa: $rsp 8 +
STACK CFI INIT 908e0 1c .cfa: $rsp 8 + .ra: .cfa -8 + ^
STACK CFI INIT 90900 8d .cfa: $rsp 8 + .ra: .cfa -8 + ^
STACK CFI 9090c .cfa: $rsp 16 +
STACK CFI 90979 .cfa: $rsp 8 +
STACK CFI 90980 .cfa: $rsp 16 +
STACK CFI 90984 .cfa: $rsp 8 +
STACK CFI INIT 90990 dd .cfa: $rsp 8 + .ra: .cfa -8 + ^
STACK CFI 9099c $r12: .cfa -16 + ^ .cfa: $rsp 16 +
STACK CFI 909a2 $rbp: .cfa -24 + ^ .cfa: $rsp 24 +
STACK CFI 909a3 $rbx: .cfa -32 + ^ .cfa: $rsp 32 +
STACK CFI 909d7 .cfa: $rsp 24 +
STACK CFI 909d8 .cfa: $rsp 16 +
STACK CFI 909da .cfa: $rsp 8 +
STACK CFI 909e0 $r12: $r12 $rbp: $rbp $rbx: $rbx
STACK CFI 909e8 $r12: .cfa -16 + ^ $rbp: .cfa -24 + ^ $rbx: .cfa -32 + ^ .cfa: $rsp 32 +
STACK CFI 90a20 .cfa: $rsp 24 +
STACK CFI 90a21 .cfa: $rsp 16 +
STACK CFI 90a23 .cfa: $rsp 8 +
STACK CFI 90a28 .cfa: $rsp 32 +
STACK CFI INIT 90a70 97 .cfa: $rsp 8 + .ra: .cfa -8 + ^
STACK CFI 90a7c $r12: .cfa -16 + ^ .cfa: $rsp 16 +
STACK CFI 90a8a $rbp: .cfa -24 + ^ .cfa: $rsp 24 +
STACK CFI 90a8e $rbx: .cfa -32 + ^ .cfa: $rsp 32 +
STACK CFI 90ad5 .cfa: $rsp 24 +
STACK CFI 90ad6 .cfa: $rsp 16 +
STACK CFI 90ad8 .cfa: $rsp 8 +
STACK CFI 90ae0 .cfa: $rsp 32 +
STACK CFI 90ae1 .cfa: $rsp 24 +
STACK CFI 90ae7 .cfa: $rsp 16 +
STACK CFI 90af0 .cfa: $rsp 8 +
STACK CFI 90af8 $r12: $r12 $rbp: $rbp $rbx: $rbx
STACK CFI 90b00 $r12: .cfa -16 + ^ $rbp: .cfa -24 + ^ $rbx: .cfa -32 + ^ .cfa: $rsp 32 +
STACK CFI 90b01 .cfa: $rsp 24 +
STACK CFI 90b04 .cfa: $rsp 16 +
STACK CFI 90b06 .cfa: $rsp 8 +
STACK CFI INIT 90b10 1e .cfa: $rsp 8 + .ra: .cfa -8 + ^
STACK CFI INIT 90b30 35 .cfa: $rsp 8 + .ra: .cfa -8 + ^
STACK CFI INIT 90b70 3 .cfa: $rsp 8 + .ra: .cfa -8 + ^
STACK CFI INIT 90b80 120 .cfa: $rsp 8 + .ra: .cfa -8 + ^
STACK CFI 90b82 $r15: .cfa -16 + ^ .cfa: $rsp 16 +
STACK CFI 90b84 $r14: .cfa -24 + ^ .cfa: $rsp 24 +
STACK CFI 90b86 $r13: .cfa -32 + ^ .cfa: $rsp 32 +
STACK CFI 90b88 $r12: .cfa -40 + ^ .cfa: $rsp 40 +
STACK CFI 90b89 $rbp: .cfa -48 + ^ .cfa: $rsp 48 +
STACK CFI 90b8d $rbx: .cfa -56 + ^ .cfa: $rsp 56 +
STACK CFI 90b94 .cfa: $rsp 80 +
STACK CFI 90c04 .cfa: $rsp 56 +
STACK CFI 90c08 .cfa: $rsp 48 +
STACK CFI 90c09 .cfa: $rsp 40 +
STACK CFI 90c0b .cfa: $rsp 32 +
STACK CFI 90c0d .cfa: $rsp 24 +
STACK CFI 90c0f .cfa: $rsp 16 +
STACK CFI 90c11 .cfa: $rsp 8 +
STACK CFI 90c18 .cfa: $rsp 80 +
STACK CFI INIT 90ca0 893 .cfa: $rsp 8 + .ra: .cfa -8 + ^
STACK CFI 90ca2 $r12: .cfa -16 + ^ .cfa: $rsp 16 +
STACK CFI 90ca3 $rbp: .cfa -24 + ^ .cfa: $rsp 24 +
STACK CFI 90ca4 $rbx: .cfa -32 + ^ .cfa: $rsp 32 +
STACK CFI 90ca8 .cfa: $rsp 80 +
STACK CFI 90df3 .cfa: $rsp 32 +
STACK CFI 90df4 .cfa: $rsp 24 +
STACK CFI 90df5 .cfa: $rsp 16 +
STACK CFI 90df7 .cfa: $rsp 8 +
STACK CFI 90e00 .cfa: $rsp 80 +
STACK CFI INIT 91540 1d4e .cfa: $rsp 8 + .ra: .cfa -8 + ^
STACK CFI 91542 $r14: .cfa -16 + ^ .cfa: $rsp 16 +
STACK CFI 91544 $r13: .cfa -24 + ^ .cfa: $rsp 24 +
STACK CFI 91549 $r12: .cfa -32 + ^ .cfa: $rsp 32 +
STACK CFI 9154d $rbp: .cfa -40 + ^ .cfa: $rsp 40 +
STACK CFI 9154e $rbx: .cfa -48 + ^ .cfa: $rsp 48 +
STACK CFI 91555 .cfa: $rsp 576 +
STACK CFI 91f47 .cfa: $rsp 48 +
STACK CFI 91f48 .cfa: $rsp 40 +
STACK CFI 91f49 .cfa: $rsp 32 +
STACK CFI 91f4b .cfa: $rsp 24 +
STACK CFI 91f4d .cfa: $rsp 16 +
STACK CFI 91f4f .cfa: $rsp 8 +
STACK CFI 91f50 .cfa: $rsp 576 +
STACK CFI 925c6 .cfa: $rsp 48 +
STACK CFI 925c7 .cfa: $rsp 40 +
STACK CFI 925c8 .cfa: $rsp 32 +
STACK CFI 925ca .cfa: $rsp 24 +
STACK CFI 925cc .cfa: $rsp 16 +
STACK CFI 925ce .cfa: $rsp 8 +
STACK CFI 925d0 .cfa: $rsp 576 +
STACK CFI INIT 93290 94 .cfa: $rsp 8 + .ra: .cfa -8 + ^
STACK CFI 93297 .cfa: $rsp 224 +
STACK CFI 93323 .cfa: $rsp 8 +
STACK CFI INIT 93330 db .cfa: $rsp 8 + .ra: .cfa -8 + ^
STACK CFI 93331 $rbp: .cfa -16 + ^ .cfa: $rsp 16 +
STACK CFI 9333a .cfa: $rsp 224 +
STACK CFI 933cc .cfa: $rsp 16 +
STACK CFI 933cd .cfa: $rsp 8 +
STACK CFI 933d0 .cfa: $rsp 224 +
STACK CFI INIT 93410 12d .cfa: $rsp 8 + .ra: .cfa -8 + ^
STACK CFI 93412 $r15: .cfa -16 + ^ .cfa: $rsp 16 +
STACK CFI 9341a $r14: .cfa -24 + ^ .cfa: $rsp 24 +
STACK CFI 9341c $r13: .cfa -32 + ^ .cfa: $rsp 32 +
STACK CFI 93421 $r12: .cfa -40 + ^ .cfa: $rsp 40 +
STACK CFI 93425 $rbp: .cfa -48 + ^ .cfa: $rsp 48 +
STACK CFI 93426 $rbx: .cfa -56 + ^ .cfa: $rsp 56 +
STACK CFI 9342d .cfa: $rsp 80 +
STACK CFI 934a2 .cfa: $rsp 56 +
STACK CFI 934a9 .cfa: $rsp 48 +
STACK CFI 934aa .cfa: $rsp 40 +
STACK CFI 934ac .cfa: $rsp 32 +
STACK CFI 934ae .cfa: $rsp 24 +
STACK CFI 934b0 .cfa: $rsp 16 +
STACK CFI 934b2 .cfa: $rsp 8 +
STACK CFI 934c0 .cfa: $rsp 80 +
STACK CFI 93500 .cfa: $rsp 56 +
STACK CFI 9350a .cfa: $rsp 48 +
STACK CFI 9350d .cfa: $rsp 40 +
STACK CFI 9350f .cfa: $rsp 32 +
STACK CFI 93511 .cfa: $rsp 24 +
STACK CFI 93513 .cfa: $rsp 16 +
STACK CFI 93515 .cfa: $rsp 8 +
STACK CFI 93520 .cfa: $rsp 80 +
STACK CFI INIT 93540 d1 .cfa: $rsp 8 + .ra: .cfa -8 + ^
STACK CFI 93558 $rbp: .cfa -16 + ^ .cfa: $rsp 16 +
STACK CFI 93559 $rbx: .cfa -24 + ^ .cfa: $rsp 24 +
STACK CFI 9355d .cfa: $rsp 32 +
STACK CFI 935f9 .cfa: $rsp 24 +
STACK CFI 935fa .cfa: $rsp 16 +
STACK CFI 935fb .cfa: $rsp 8 +
STACK CFI 93600 .cfa: $rsp 32 +
STACK CFI 93610 $rbp: $rbp $rbx: $rbx .cfa: $rsp 8 +
STACK CFI INIT 93620 14f .cfa: $rsp 8 + .ra: .cfa -8 + ^
STACK CFI 93628 $r14: .cfa -16 + ^ .cfa: $rsp 16 +
STACK CFI 9362d $r13: .cfa -24 + ^ .cfa: $rsp 24 +
STACK CFI 93632 $r12: .cfa -32 + ^ .cfa: $rsp 32 +
STACK CFI 93636 $rbp: .cfa -40 + ^ .cfa: $rsp 40 +
STACK CFI 9363a $rbx: .cfa -48 + ^ .cfa: $rsp 48 +
STACK CFI 936bb .cfa: $rsp 40 +
STACK CFI 936bc .cfa: $rsp 32 +
STACK CFI 936be .cfa: $rsp 24 +
STACK CFI 936c0 .cfa: $rsp 16 +
STACK CFI 936c2 .cfa: $rsp 8 +
STACK CFI 936c8 .cfa: $rsp 48 +
STACK CFI 936ce .cfa: $rsp 40 +
STACK CFI 936d1 .cfa: $rsp 32 +
STACK CFI 936d3 .cfa: $rsp 24 +
STACK CFI 936d5 .cfa: $rsp 16 +
STACK CFI 936d7 .cfa: $rsp 8 +
STACK CFI 936e0 .cfa: $rsp 48 +
STACK CFI 936e6 .cfa: $rsp 40 +
STACK CFI 936e9 .cfa: $rsp 32 +
STACK CFI 936eb .cfa: $rsp 24 +
STACK CFI 936ed .cfa: $rsp 16 +
STACK CFI 936ef .cfa: $rsp 8 +
STACK CFI 936f8 .cfa: $rsp 48 +
STACK CFI 9374e .cfa: $rsp 40 +
STACK CFI 93751 .cfa: $rsp 32 +
STACK CFI 93753 .cfa: $rsp 24 +
STACK CFI 93755 .cfa: $rsp 16 +
STACK CFI 93757 .cfa: $rsp 8 +
STACK CFI 93760 .cfa: $rsp 48 +
STACK CFI 93761 .cfa: $rsp 40 +
STACK CFI 93764 .cfa: $rsp 32 +
STACK CFI 93766 .cfa: $rsp 24 +
STACK CFI 93768 .cfa: $rsp 16 +
STACK CFI 9376a .cfa: $rsp 8 +
STACK CFI INIT 93770 171 .cfa: $rsp 8 + .ra: .cfa -8 + ^
STACK CFI 93772 $r13: .cfa -16 + ^ .cfa: $rsp 16 +
STACK CFI 93774 $r12: .cfa -24 + ^ .cfa: $rsp 24 +
STACK CFI 93775 $rbp: .cfa -32 + ^ .cfa: $rsp 32 +
STACK CFI 93776 $rbx: .cfa -40 + ^ .cfa: $rsp 40 +
STACK CFI 9377a .cfa: $rsp 48 +
STACK CFI 93878 .cfa: $rsp 40 +
STACK CFI 93879 .cfa: $rsp 32 +
STACK CFI 9387a .cfa: $rsp 24 +
STACK CFI 9387c .cfa: $rsp 16 +
STACK CFI 9387e .cfa: $rsp 8 +
STACK CFI 93880 .cfa: $rsp 48 +
STACK CFI INIT 938f0 295 .cfa: $rsp 8 + .ra: .cfa -8 + ^
STACK CFI 938f2 $r13: .cfa -16 + ^ .cfa: $rsp 16 +
STACK CFI 938f4 $r12: .cfa -24 + ^ .cfa: $rsp 24 +
STACK CFI 938f5 $rbp: .cfa -32 + ^ .cfa: $rsp 32 +
STACK CFI 938f6 $rbx: .cfa -40 + ^ .cfa: $rsp 40 +
STACK CFI 938fa .cfa: $rsp 48 +
STACK CFI 93a50 .cfa: $rsp 40 +
STACK CFI 93a51 .cfa: $rsp 32 +
STACK CFI 93a52 .cfa: $rsp 24 +
STACK CFI 93a54 .cfa: $rsp 16 +
STACK CFI 93a56 .cfa: $rsp 8 +
STACK CFI 93a60 .cfa: $rsp 48 +
STACK CFI INIT 93b90 62 .cfa: $rsp 8 + .ra: .cfa -8 + ^
STACK CFI 93b91 $rbx: .cfa -16 + ^ .cfa: $rsp 16 +
STACK CFI 93bdf .cfa: $rsp 8 +
STACK CFI 93be0 .cfa: $rsp 16 +
STACK CFI INIT 93c00 7f .cfa: $rsp 8 + .ra: .cfa -8 + ^
STACK CFI 93c5f .cfa: $rsp 16 +
STACK CFI 93c7e .cfa: $rsp 8 +
STACK CFI INIT 93c80 c .cfa: $rsp 8 + .ra: .cfa -8 + ^
STACK CFI INIT 93c90 8d .cfa: $rsp 8 + .ra: .cfa -8 + ^
STACK CFI 93c91 $rbx: .cfa -16 + ^ .cfa: $rsp 16 +
STACK CFI 93cb7 .cfa: $rsp 8 +
STACK CFI 93cc0 .cfa: $rsp 16 +
STACK CFI 93ce4 .cfa: $rsp 8 +
STACK CFI 93cf0 .cfa: $rsp 16 +
STACK CFI INIT 93d20 f8 .cfa: $rsp 8 + .ra: .cfa -8 + ^
STACK CFI 93d31 $rbx: .cfa -16 + ^ .cfa: $rsp 16 +
STACK CFI 93d87 .cfa: $rsp 8 +
STACK CFI 93d90 .cfa: $rsp 16 +
STACK CFI 93dbc $rbx: $rbx .cfa: $rsp 8 +
STACK CFI 93dc8 $rbx: .cfa -16 + ^ .cfa: $rsp 16 +
STACK CFI INIT 93e20 254 .cfa: $rsp 8 + .ra: .cfa -8 + ^
STACK CFI 93e21 $rbx: .cfa -16 + ^ .cfa: $rsp 16 +
STACK CFI 93e2a .cfa: $rsp 9440 +
STACK CFI 93fcb .cfa: $rsp 16 +
STACK CFI 93fcc .cfa: $rsp 8 +
STACK CFI 93fd0 .cfa: $rsp 9440 +
STACK CFI 93fe5 .cfa: $rsp 16 +
STACK CFI 93fe6 .cfa: $rsp 8 +
STACK CFI 93ff0 .cfa: $rsp 9440 +
STACK CFI 94005 .cfa: $rsp 16 +
STACK CFI 94006 .cfa: $rsp 8 +
STACK CFI 94010 .cfa: $rsp 9440 +
STACK CFI INIT 94080 2d0 .cfa: $rsp 8 + .ra: .cfa -8 + ^
STACK CFI 9408b $rbx: .cfa -16 + ^ .cfa: $rsp 16 +
STACK CFI 94092 .cfa: $rsp 32 +
STACK CFI 94105 .cfa: $rsp 16 +
STACK CFI 9410b .cfa: $rsp 8 +
STACK CFI 94110 .cfa: $rsp 32 +
STACK CFI 941ca .cfa: $rsp 16 +
STACK CFI 941d0 .cfa: $rsp 8 +
STACK CFI 941d8 .cfa: $rsp 32 +
STACK CFI 94286 .cfa: $rsp 16 +
STACK CFI 9428c .cfa: $rsp 8 +
STACK CFI 94290 .cfa: $rsp 32 +
STACK CFI 942a8 .cfa: $rsp 16 +
STACK CFI 942ae .cfa: $rsp 8 +
STACK CFI 942b0 .cfa: $rsp 32 +
STACK CFI 94314 .cfa: $rsp 40 +
STACK CFI 94320 .cfa: $rsp 48 +
STACK CFI 94328 .cfa: $rsp 40 +
STACK CFI 94329 .cfa: $rsp 32 +
STACK CFI 94334 .cfa: $rsp 40 +
STACK CFI 94342 .cfa: $rsp 48 +
STACK CFI 9434a .cfa: $rsp 40 +
STACK CFI 9434b .cfa: $rsp 32 +
STACK CFI INIT 94350 90 .cfa: $rsp 8 + .ra: .cfa -8 + ^
STACK CFI 94351 $rbp: .cfa -16 + ^ .cfa: $rsp 16 +
STACK CFI 94355 $rbx: .cfa -24 + ^ .cfa: $rsp 24 +
STACK CFI 9435c .cfa: $rsp 32 +
STACK CFI 9438c .cfa: $rsp 24 +
STACK CFI 94392 .cfa: $rsp 16 +
STACK CFI 94398 .cfa: $rsp 8 +
STACK CFI 943a0 .cfa: $rsp 32 +
STACK CFI 943ac .cfa: $rsp 24 +
STACK CFI 943b6 .cfa: $rsp 16 +
STACK CFI 943b7 .cfa: $rsp 8 +
STACK CFI 943c0 .cfa: $rsp 32 +
STACK CFI 943c4 .cfa: $rsp 24 +
STACK CFI 943c5 .cfa: $rsp 16 +
STACK CFI 943c6 .cfa: $rsp 8 +
STACK CFI 943d0 .cfa: $rsp 32 +
STACK CFI INIT 943e0 79 .cfa: $rsp 8 + .ra: .cfa -8 + ^
STACK CFI 943e1 $rbx: .cfa -16 + ^ .cfa: $rsp 16 +
STACK CFI 94425 .cfa: $rsp 8 +
STACK CFI 94430 .cfa: $rsp 16 +
STACK CFI 94449 .cfa: $rsp 8 +
STACK CFI 94450 .cfa: $rsp 16 +
STACK CFI INIT 94460 3c .cfa: $rsp 8 + .ra: .cfa -8 + ^
STACK CFI 94468 .cfa: $rsp 16 +
STACK CFI 9447d .cfa: $rsp 8 +
STACK CFI INIT 944a0 d5 .cfa: $rsp 8 + .ra: .cfa -8 + ^
STACK CFI 944a2 $r12: .cfa -16 + ^ .cfa: $rsp 16 +
STACK CFI 944a9 .cfa: $rsp 144 +
STACK CFI 944fd .cfa: $rsp 16 +
STACK CFI 944ff .cfa: $rsp 8 +
STACK CFI 94500 .cfa: $rsp 144 +
STACK CFI 94512 .cfa: $rsp 16 +
STACK CFI 94514 .cfa: $rsp 8 +
STACK CFI 94518 .cfa: $rsp 144 +
STACK CFI 9452a .cfa: $rsp 16 +
STACK CFI 9452c .cfa: $rsp 8 +
STACK CFI 94530 .cfa: $rsp 144 +
STACK CFI 94542 .cfa: $rsp 16 +
STACK CFI 94544 .cfa: $rsp 8 +
STACK CFI 94548 .cfa: $rsp 144 +
STACK CFI 9455a .cfa: $rsp 16 +
STACK CFI 9455c .cfa: $rsp 8 +
STACK CFI 94560 .cfa: $rsp 144 +
STACK CFI 94572 .cfa: $rsp 16 +
STACK CFI 94574 .cfa: $rsp 8 +
STACK CFI INIT 94580 14f .cfa: $rsp 8 + .ra: .cfa -8 + ^
STACK CFI 94582 $r15: .cfa -16 + ^ .cfa: $rsp 16 +
STACK CFI 94584 $r14: .cfa -24 + ^ .cfa: $rsp 24 +
STACK CFI 94586 $r13: .cfa -32 + ^ .cfa: $rsp 32 +
STACK CFI 9458b $r12: .cfa -40 + ^ .cfa: $rsp 40 +
STACK CFI 9458f $rbp: .cfa -48 + ^ .cfa: $rsp 48 +
STACK CFI 94593 $rbx: .cfa -56 + ^ .cfa: $rsp 56 +
STACK CFI 9459a .cfa: $rsp 64 +
STACK CFI 945bc .cfa: $rsp 56 +
STACK CFI 945c0 .cfa: $rsp 48 +
STACK CFI 945c1 .cfa: $rsp 40 +
STACK CFI 945c3 .cfa: $rsp 32 +
STACK CFI 945c5 .cfa: $rsp 24 +
STACK CFI 945c7 .cfa: $rsp 16 +
STACK CFI 945c9 .cfa: $rsp 8 +
STACK CFI 945d0 .cfa: $rsp 64 +
STACK CFI INIT 946d0 375 .cfa: $rsp 8 + .ra: .cfa -8 + ^
STACK CFI 946d2 $r15: .cfa -16 + ^ .cfa: $rsp 16 +
STACK CFI 946d7 $r14: .cfa -24 + ^ .cfa: $rsp 24 +
STACK CFI 946d9 $r13: .cfa -32 + ^ .cfa: $rsp 32 +
STACK CFI 946de $r12: .cfa -40 + ^ .cfa: $rsp 40 +
STACK CFI 946e2 $rbp: .cfa -48 + ^ .cfa: $rsp 48 +
STACK CFI 946e6 $rbx: .cfa -56 + ^ .cfa: $rsp 56 +
STACK CFI 946ec .cfa: $rsp 80 +
STACK CFI 94743 .cfa: $rsp 56 +
STACK CFI 94746 .cfa: $rsp 48 +
STACK CFI 94747 .cfa: $rsp 40 +
STACK CFI 94749 .cfa: $rsp 32 +
STACK CFI 9474b .cfa: $rsp 24 +
STACK CFI 9474d .cfa: $rsp 16 +
STACK CFI 9474f .cfa: $rsp 8 +
STACK CFI 94750 .cfa: $rsp 80 +
STACK CFI 947b4 .cfa: $rsp 56 +
STACK CFI 947ba .cfa: $rsp 48 +
STACK CFI 947bb .cfa: $rsp 40 +
STACK CFI 947bd .cfa: $rsp 32 +
STACK CFI 947bf .cfa: $rsp 24 +
STACK CFI 947c1 .cfa: $rsp 16 +
STACK CFI 947c3 .cfa: $rsp 8 +
STACK CFI 947d0 .cfa: $rsp 80 +
STACK CFI INIT 94a50 27f .cfa: $rsp 8 + .ra: .cfa -8 + ^
STACK CFI 94a52 $r15: .cfa -16 + ^ .cfa: $rsp 16 +
STACK CFI 94a54 $r14: .cfa -24 + ^ .cfa: $rsp 24 +
STACK CFI 94a56 $r13: .cfa -32 + ^ .cfa: $rsp 32 +
STACK CFI 94a5b $r12: .cfa -40 + ^ .cfa: $rsp 40 +
STACK CFI 94a5f $rbp: .cfa -48 + ^ .cfa: $rsp 48 +
STACK CFI 94a62 $rbx: .cfa -56 + ^ .cfa: $rsp 56 +
STACK CFI 94a69 .cfa: $rsp 80 +
STACK CFI 94acf .cfa: $rsp 56 +
STACK CFI 94ad0 .cfa: $rsp 48 +
STACK CFI 94ad1 .cfa: $rsp 40 +
STACK CFI 94ad3 .cfa: $rsp 32 +
STACK CFI 94ad5 .cfa: $rsp 24 +
STACK CFI 94ad7 .cfa: $rsp 16 +
STACK CFI 94ad9 .cfa: $rsp 8 +
STACK CFI 94ae0 .cfa: $rsp 80 +
STACK CFI 94aeb .cfa: $rsp 88 +
STACK CFI 94aed .cfa: $rsp 96 +
STACK CFI 94af8 .cfa: $rsp 104 +
STACK CFI 94b02 .cfa: $rsp 112 +
STACK CFI 94b0b .cfa: $rsp 80 +
STACK CFI 94b35 .cfa: $rsp 88 +
STACK CFI 94b40 .cfa: $rsp 80 +
STACK CFI 94b4b .cfa: $rsp 88 +
STACK CFI 94b50 .cfa: $rsp 80 +
STACK CFI 94b56 .cfa: $rsp 88 +
STACK CFI 94b60 .cfa: $rsp 80 +
STACK CFI 94bf2 .cfa: $rsp 88 +
STACK CFI 94c0b .cfa: $rsp 96 +
STACK CFI 94c0d .cfa: $rsp 104 +
STACK CFI 94c12 .cfa: $rsp 112 +
STACK CFI 94c1e .cfa: $rsp 80 +
STACK CFI INIT 94cd0 1fd .cfa: $rsp 8 + .ra: .cfa -8 + ^
STACK CFI 94cd2 $r15: .cfa -16 + ^ .cfa: $rsp 16 +
STACK CFI 94cd4 $r14: .cfa -24 + ^ .cfa: $rsp 24 +
STACK CFI 94cd9 $r13: .cfa -32 + ^ .cfa: $rsp 32 +
STACK CFI 94cde $r12: .cfa -40 + ^ .cfa: $rsp 40 +
STACK CFI 94cdf $rbp: .cfa -48 + ^ .cfa: $rsp 48 +
STACK CFI 94ce3 $rbx: .cfa -56 + ^ .cfa: $rsp 56 +
STACK CFI 94ce7 .cfa: $rsp 96 +
STACK CFI 94dbe .cfa: $rsp 56 +
STACK CFI 94dbf .cfa: $rsp 48 +
STACK CFI 94dc0 .cfa: $rsp 40 +
STACK CFI 94dc2 .cfa: $rsp 32 +
STACK CFI 94dc4 .cfa: $rsp 24 +
STACK CFI 94dc6 .cfa: $rsp 16 +
STACK CFI 94dc8 .cfa: $rsp 8 +
STACK CFI 94dd0 .cfa: $rsp 96 +
STACK CFI INIT 94ed0 a1 .cfa: $rsp 8 + .ra: .cfa -8 + ^
STACK CFI 94ed8 $r15: .cfa -16 + ^ .cfa: $rsp 16 +
STACK CFI 94eda $r14: .cfa -24 + ^ .cfa: $rsp 24 +
STACK CFI 94edf $r13: .cfa -32 + ^ .cfa: $rsp 32 +
STACK CFI 94ee4 $r12: .cfa -40 + ^ .cfa: $rsp 40 +
STACK CFI 94ee8 $rbp: .cfa -48 + ^ .cfa: $rsp 48 +
STACK CFI 94f38 .cfa: $rsp 40 +
STACK CFI 94f3a .cfa: $rsp 32 +
STACK CFI 94f3c .cfa: $rsp 24 +
STACK CFI 94f3e .cfa: $rsp 16 +
STACK CFI 94f40 .cfa: $rsp 8 +
STACK CFI 94f48 .cfa: $rsp 48 +
STACK CFI 94f49 .cfa: $rsp 40 +
STACK CFI 94f4d .cfa: $rsp 32 +
STACK CFI 94f4f .cfa: $rsp 24 +
STACK CFI 94f51 .cfa: $rsp 16 +
STACK CFI 94f53 .cfa: $rsp 8 +
STACK CFI 94f60 .cfa: $rsp 48 +
STACK CFI INIT 94f80 333 .cfa: $rsp 8 + .ra: .cfa -8 + ^
STACK CFI 94f82 $r15: .cfa -16 + ^ .cfa: $rsp 16 +
STACK CFI 94f84 $r14: .cfa -24 + ^ .cfa: $rsp 24 +
STACK CFI 94f86 $r13: .cfa -32 + ^ .cfa: $rsp 32 +
STACK CFI 94f88 $r12: .cfa -40 + ^ .cfa: $rsp 40 +
STACK CFI 94f8c $rbp: .cfa -48 + ^ .cfa: $rsp 48 +
STACK CFI 94f8d $rbx: .cfa -56 + ^ .cfa: $rsp 56 +
STACK CFI 94f91 .cfa: $rsp 96 +
STACK CFI 95124 .cfa: $rsp 56 +
STACK CFI 95125 .cfa: $rsp 48 +
STACK CFI 95126 .cfa: $rsp 40 +
STACK CFI 95128 .cfa: $rsp 32 +
STACK CFI 9512a .cfa: $rsp 24 +
STACK CFI 9512c .cfa: $rsp 16 +
STACK CFI 9512e .cfa: $rsp 8 +
STACK CFI 95130 .cfa: $rsp 96 +
STACK CFI 9526a .cfa: $rsp 56 +
STACK CFI 9526b .cfa: $rsp 48 +
STACK CFI 9526c .cfa: $rsp 40 +
STACK CFI 9526e .cfa: $rsp 32 +
STACK CFI 95270 .cfa: $rsp 24 +
STACK CFI 95272 .cfa: $rsp 16 +
STACK CFI 95274 .cfa: $rsp 8 +
STACK CFI 95275 .cfa: $rsp 96 +
STACK CFI INIT 952c0 11 .cfa: $rsp 8 + .ra: .cfa -8 + ^
STACK CFI INIT 952e0 111 .cfa: $rsp 8 + .ra: .cfa -8 + ^
STACK CFI 952e2 $r13: .cfa -16 + ^ .cfa: $rsp 16 +
STACK CFI 952e7 $r12: .cfa -24 + ^ .cfa: $rsp 24 +
STACK CFI 952eb $rbp: .cfa -32 + ^ .cfa: $rsp 32 +
STACK CFI 952ef $rbx: .cfa -40 + ^ .cfa: $rsp 40 +
STACK CFI 952f3 .cfa: $rsp 48 +
STACK CFI 95369 .cfa: $rsp 40 +
STACK CFI 9536a .cfa: $rsp 32 +
STACK CFI 9536b .cfa: $rsp 24 +
STACK CFI 9536d .cfa: $rsp 16 +
STACK CFI 9536f .cfa: $rsp 8 +
STACK CFI 95370 .cfa: $rsp 48 +
STACK CFI 95379 .cfa: $rsp 40 +
STACK CFI 9537c .cfa: $rsp 32 +
STACK CFI 9537d .cfa: $rsp 24 +
STACK CFI 9537f .cfa: $rsp 16 +
STACK CFI 95381 .cfa: $rsp 8 +
STACK CFI 95390 .cfa: $rsp 48 +
STACK CFI 95399 .cfa: $rsp 40 +
STACK CFI 9539c .cfa: $rsp 32 +
STACK CFI 9539d .cfa: $rsp 24 +
STACK CFI 9539f .cfa: $rsp 16 +
STACK CFI 953a1 .cfa: $rsp 8 +
STACK CFI 953b0 .cfa: $rsp 48 +
STACK CFI 953e4 .cfa: $rsp 40 +
STACK CFI 953e7 .cfa: $rsp 32 +
STACK CFI 953e8 .cfa: $rsp 24 +
STACK CFI 953ea .cfa: $rsp 16 +
STACK CFI 953ec .cfa: $rsp 8 +
STACK CFI INIT 95400 2cd .cfa: $rsp 8 + .ra: .cfa -8 + ^
STACK CFI 95402 $r14: .cfa -16 + ^ .cfa: $rsp 16 +
STACK CFI 95404 $r13: .cfa -24 + ^ .cfa: $rsp 24 +
STACK CFI 95406 $r12: .cfa -32 + ^ .cfa: $rsp 32 +
STACK CFI 9540a $rbp: .cfa -40 + ^ .cfa: $rsp 40 +
STACK CFI 9540b $rbx: .cfa -48 + ^ .cfa: $rsp 48 +
STACK CFI 9551d .cfa: $rsp 40 +
STACK CFI 9551e .cfa: $rsp 32 +
STACK CFI 95520 .cfa: $rsp 24 +
STACK CFI 95522 .cfa: $rsp 16 +
STACK CFI 95524 .cfa: $rsp 8 +
STACK CFI 95528 .cfa: $rsp 48 +
STACK CFI INIT 956d0 11 .cfa: $rsp 8 + .ra: .cfa -8 + ^
STACK CFI INIT 956f0 60 .cfa: $rsp 8 + .ra: .cfa -8 + ^
STACK CFI 956f9 .cfa: $rsp 80 +
STACK CFI 9574f .cfa: $rsp 8 +
STACK CFI INIT 95750 2e5 .cfa: $rsp 8 + .ra: .cfa -8 + ^
STACK CFI 95752 $r13: .cfa -16 + ^ .cfa: $rsp 16 +
STACK CFI 95754 $r12: .cfa -24 + ^ .cfa: $rsp 24 +
STACK CFI 95755 $rbp: .cfa -32 + ^ .cfa: $rsp 32 +
STACK CFI 95756 $rbx: .cfa -40 + ^ .cfa: $rsp 40 +
STACK CFI 9575a .cfa: $rsp 48 +
STACK CFI 95878 .cfa: $rsp 40 +
STACK CFI 95879 .cfa: $rsp 32 +
STACK CFI 9587a .cfa: $rsp 24 +
STACK CFI 9587c .cfa: $rsp 16 +
STACK CFI 9587e .cfa: $rsp 8 +
STACK CFI 95880 .cfa: $rsp 48 +
STACK CFI INIT 95a40 11 .cfa: $rsp 8 + .ra: .cfa -8 + ^
STACK CFI INIT 95a60 2dd .cfa: $rsp 8 + .ra: .cfa -8 + ^
STACK CFI 95a62 $r13: .cfa -16 + ^ .cfa: $rsp 16 +
STACK CFI 95a64 $r12: .cfa -24 + ^ .cfa: $rsp 24 +
STACK CFI 95a65 $rbp: .cfa -32 + ^ .cfa: $rsp 32 +
STACK CFI 95a66 $rbx: .cfa -40 + ^ .cfa: $rsp 40 +
STACK CFI 95a6a .cfa: $rsp 48 +
STACK CFI 95bb0 .cfa: $rsp 40 +
STACK CFI 95bb1 .cfa: $rsp 32 +
STACK CFI 95bb2 .cfa: $rsp 24 +
STACK CFI 95bb4 .cfa: $rsp 16 +
STACK CFI 95bb6 .cfa: $rsp 8 +
STACK CFI 95bc0 .cfa: $rsp 48 +
STACK CFI INIT 95d40 11 .cfa: $rsp 8 + .ra: .cfa -8 + ^
STACK CFI INIT 95d60 1e .cfa: $rsp 8 + .ra: .cfa -8 + ^
STACK CFI 95d64 .cfa: $rsp 32 +
STACK CFI 95d7d .cfa: $rsp 8 +
STACK CFI INIT 95d80 c3 .cfa: $rsp 8 + .ra: .cfa -8 + ^
STACK CFI 95d81 $rbp: .cfa -16 + ^ .cfa: $rsp 16 +
STACK CFI 95d8a .cfa: $rsp 224 +
STACK CFI INIT 95e50 183c .cfa: $rsp 8 + .ra: .cfa -8 + ^
STACK CFI 95e52 $r15: .cfa -16 + ^ .cfa: $rsp 16 +
STACK CFI 95e58 $r14: .cfa -24 + ^ .cfa: $rsp 24 +
STACK CFI 95e5a $r13: .cfa -32 + ^ .cfa: $rsp 32 +
STACK CFI 95e5c $r12: .cfa -40 + ^ .cfa: $rsp 40 +
STACK CFI 95e60 $rbp: .cfa -48 + ^ .cfa: $rsp 48 +
STACK CFI 95e6a .cfa: $rsp 1072 +
STACK CFI 96a41 .cfa: $rsp 48 +
STACK CFI 96a44 .cfa: $rsp 40 +
STACK CFI 96a46 .cfa: $rsp 32 +
STACK CFI 96a48 .cfa: $rsp 24 +
STACK CFI 96a4a .cfa: $rsp 16 +
STACK CFI 96a4c .cfa: $rsp 8 +
STACK CFI 96a4d .cfa: $rsp 1072 +
STACK CFI INIT 97690 ac2 .cfa: $rsp 8 + .ra: .cfa -8 + ^
STACK CFI 97692 $r15: .cfa -16 + ^ .cfa: $rsp 16 +
STACK CFI 9769f $r14: .cfa -24 + ^ .cfa: $rsp 24 +
STACK CFI 976a1 $r13: .cfa -32 + ^ .cfa: $rsp 32 +
STACK CFI 976a3 $r12: .cfa -40 + ^ .cfa: $rsp 40 +
STACK CFI 976a4 $rbp: .cfa -48 + ^ .cfa: $rsp 48 +
STACK CFI 976a8 $rbx: .cfa -56 + ^ .cfa: $rsp 56 +
STACK CFI 976b4 .cfa: $rsp 1616 +
STACK CFI 9779a .cfa: $rsp 56 +
STACK CFI 9779e .cfa: $rsp 48 +
STACK CFI 9779f .cfa: $rsp 40 +
STACK CFI 977a1 .cfa: $rsp 32 +
STACK CFI 977a3 .cfa: $rsp 24 +
STACK CFI 977a5 .cfa: $rsp 16 +
STACK CFI 977a7 .cfa: $rsp 8 +
STACK CFI 977b0 .cfa: $rsp 1616 +
STACK CFI INIT 98160 81 .cfa: $rsp 8 + .ra: .cfa -8 + ^
STACK CFI 98168 $rbp: .cfa -16 + ^ .cfa: $rsp 16 +
STACK CFI 98171 $rbx: .cfa -24 + ^ .cfa: $rsp 24 +
STACK CFI 98175 .cfa: $rsp 32 +
STACK CFI 981a9 .cfa: $rsp 24 +
STACK CFI 981af .cfa: $rsp 16 +
STACK CFI 981b0 .cfa: $rsp 8 +
STACK CFI 981b8 .cfa: $rsp 32 +
STACK CFI 981d3 .cfa: $rsp 24 +
STACK CFI 981d4 .cfa: $rsp 16 +
STACK CFI 981d5 .cfa: $rsp 8 +
STACK CFI 981e0 $rbp: $rbp $rbx: $rbx
STACK CFI INIT 981f0 1f .cfa: $rsp 8 + .ra: .cfa -8 + ^
STACK CFI INIT 98210 1f .cfa: $rsp 8 + .ra: .cfa -8 + ^
STACK CFI INIT 98230 1f .cfa: $rsp 8 + .ra: .cfa -8 + ^
STACK CFI INIT 98250 149 .cfa: $rsp 8 + .ra: .cfa -8 + ^
STACK CFI 9825b $r13: .cfa -16 + ^ .cfa: $rsp 16 +
STACK CFI 98260 $r12: .cfa -24 + ^ .cfa: $rsp 24 +
STACK CFI 98264 $rbp: .cfa -32 + ^ .cfa: $rsp 32 +
STACK CFI 98268 $rbx: .cfa -40 + ^ .cfa: $rsp 40 +
STACK CFI 9826f .cfa: $rsp 48 +
STACK CFI 982eb .cfa: $rsp 40 +
STACK CFI 982ec .cfa: $rsp 32 +
STACK CFI 982ed .cfa: $rsp 24 +
STACK CFI 982ef .cfa: $rsp 16 +
STACK CFI 982f1 .cfa: $rsp 8 +
STACK CFI 982f8 .cfa: $rsp 48 +
STACK CFI 98380 $r12: $r12 $r13: $r13 $rbp: $rbp $rbx: $rbx .cfa: $rsp 8 +
STACK CFI 98383 $r12: .cfa -24 + ^ $r13: .cfa -16 + ^ $rbp: .cfa -32 + ^ $rbx: .cfa -40 + ^ .cfa: $rsp 48 +
STACK CFI INIT 983a0 24e .cfa: $rsp 8 + .ra: .cfa -8 + ^
STACK CFI 983a2 $r12: .cfa -16 + ^ .cfa: $rsp 16 +
STACK CFI 983a3 $rbp: .cfa -24 + ^ .cfa: $rsp 24 +
STACK CFI 983a4 $rbx: .cfa -32 + ^ .cfa: $rsp 32 +
STACK CFI 983ab .cfa: $rsp 160 +
STACK CFI 9853e .cfa: $rsp 32 +
STACK CFI 98542 .cfa: $rsp 24 +
STACK CFI 98543 .cfa: $rsp 16 +
STACK CFI 98545 .cfa: $rsp 8 +
STACK CFI 98550 .cfa: $rsp 160 +
STACK CFI 98565 .cfa: $rsp 32 +
STACK CFI 9856c .cfa: $rsp 24 +
STACK CFI 9856d .cfa: $rsp 16 +
STACK CFI 9856f .cfa: $rsp 8 +
STACK CFI 98570 .cfa: $rsp 160 +
STACK CFI INIT 985f0 fef .cfa: $rsp 8 + .ra: .cfa -8 + ^
STACK CFI 985f2 $r15: .cfa -16 + ^ .cfa: $rsp 16 +
STACK CFI 985f4 $r14: .cfa -24 + ^ .cfa: $rsp 24 +
STACK CFI 985f6 $r13: .cfa -32 + ^ .cfa: $rsp 32 +
STACK CFI 985f8 $r12: .cfa -40 + ^ .cfa: $rsp 40 +
STACK CFI 985f9 $rbp: .cfa -48 + ^ .cfa: $rsp 48 +
STACK CFI 985fa $rbx: .cfa -56 + ^ .cfa: $rsp 56 +
STACK CFI 98601 .cfa: $rsp 256 +
STACK CFI 9862a .cfa: $rsp 56 +
STACK CFI 9862e .cfa: $rsp 48 +
STACK CFI 9862f .cfa: $rsp 40 +
STACK CFI 98631 .cfa: $rsp 32 +
STACK CFI 98633 .cfa: $rsp 24 +
STACK CFI 98635 .cfa: $rsp 16 +
STACK CFI 98637 .cfa: $rsp 8 +
STACK CFI 98640 .cfa: $rsp 256 +
STACK CFI INIT 995e0 17f .cfa: $rsp 8 + .ra: .cfa -8 + ^
STACK CFI 995ff $r12: .cfa -16 + ^ .cfa: $rsp 16 +
STACK CFI 99600 $rbp: .cfa -24 + ^ .cfa: $rsp 24 +
STACK CFI 99608 $rbx: .cfa -32 + ^ .cfa: $rsp 32 +
STACK CFI 996d7 $rbx: $rbx .cfa: $rsp 24 +
STACK CFI 996dd $rbp: $rbp .cfa: $rsp 16 +
STACK CFI 996e1 $r12: $r12 .cfa: $rsp 8 +
STACK CFI 996e8 $r12: .cfa -16 + ^ $rbp: .cfa -24 + ^ $rbx: .cfa -32 + ^ .cfa: $rsp 32 +
STACK CFI 99701 .cfa: $rsp 24 +
STACK CFI 99702 .cfa: $rsp 16 +
STACK CFI 99704 .cfa: $rsp 8 +
STACK CFI 99708 .cfa: $rsp 32 +
STACK CFI INIT 99760 e2 .cfa: $rsp 8 + .ra: .cfa -8 + ^
STACK CFI 99762 $r12: .cfa -16 + ^ .cfa: $rsp 16 +
STACK CFI 99768 $rbp: .cfa -24 + ^ .cfa: $rsp 24 +
STACK CFI 99769 $rbx: .cfa -32 + ^ .cfa: $rsp 32 +
STACK CFI 99778 .cfa: $rsp 24 +
STACK CFI 99779 .cfa: $rsp 16 +
STACK CFI 9977b .cfa: $rsp 8 +
STACK CFI 99780 .cfa: $rsp 32 +
STACK CFI INIT 99850 6b .cfa: $rsp 8 + .ra: .cfa -8 + ^
STACK CFI 99851 $rbx: .cfa -16 + ^ .cfa: $rsp 16 +
STACK CFI 998ba .cfa: $rsp 8 +
STACK CFI INIT 998c0 342 .cfa: $rsp 8 + .ra: .cfa -8 + ^
STACK CFI 998c2 $r15: .cfa -16 + ^ .cfa: $rsp 16 +
STACK CFI 998cf $r14: .cfa -24 + ^ .cfa: $rsp 24 +
STACK CFI 998d1 $r13: .cfa -32 + ^ .cfa: $rsp 32 +
STACK CFI 998d3 $r12: .cfa -40 + ^ .cfa: $rsp 40 +
STACK CFI 998d4 $rbp: .cfa -48 + ^ .cfa: $rsp 48 +
STACK CFI 998d8 $rbx: .cfa -56 + ^ .cfa: $rsp 56 +
STACK CFI 998e2 .cfa: $rsp 1120 +
STACK CFI 99b03 .cfa: $rsp 56 +
STACK CFI 99b07 .cfa: $rsp 48 +
STACK CFI 99b08 .cfa: $rsp 40 +
STACK CFI 99b0a .cfa: $rsp 32 +
STACK CFI 99b0c .cfa: $rsp 24 +
STACK CFI 99b0e .cfa: $rsp 16 +
STACK CFI 99b10 .cfa: $rsp 8 +
STACK CFI 99b18 .cfa: $rsp 1120 +
STACK CFI INIT 99c10 47e .cfa: $rsp 8 + .ra: .cfa -8 + ^
STACK CFI 99c12 $r15: .cfa -16 + ^ .cfa: $rsp 16 +
STACK CFI 99c1a $r14: .cfa -24 + ^ .cfa: $rsp 24 +
STACK CFI 99c1c $r13: .cfa -32 + ^ .cfa: $rsp 32 +
STACK CFI 99c1e $r12: .cfa -40 + ^ .cfa: $rsp 40 +
STACK CFI 99c1f $rbp: .cfa -48 + ^ .cfa: $rsp 48 +
STACK CFI 99c20 $rbx: .cfa -56 + ^ .cfa: $rsp 56 +
STACK CFI 99c2a .cfa: $rsp 1168 +
STACK CFI 99f19 .cfa: $rsp 56 +
STACK CFI 99f1d .cfa: $rsp 48 +
STACK CFI 99f1e .cfa: $rsp 40 +
STACK CFI 99f20 .cfa: $rsp 32 +
STACK CFI 99f22 .cfa: $rsp 24 +
STACK CFI 99f24 .cfa: $rsp 16 +
STACK CFI 99f26 .cfa: $rsp 8 +
STACK CFI 99f30 .cfa: $rsp 1168 +
STACK CFI INIT 9a090 38 .cfa: $rsp 8 + .ra: .cfa -8 + ^
STACK CFI 9a094 .cfa: $rsp 48 +
STACK CFI 9a0c7 .cfa: $rsp 8 +
STACK CFI INIT 9a0d0 41 .cfa: $rsp 8 + .ra: .cfa -8 + ^
STACK CFI 9a0d4 .cfa: $rsp 16 +
STACK CFI 9a110 .cfa: $rsp 8 +
STACK CFI INIT 9a120 224 .cfa: $rsp 8 + .ra: .cfa -8 + ^
STACK CFI 9a121 $rbp: .cfa -16 + ^ .cfa: $rsp 16 +
STACK CFI 9a125 $rbx: .cfa -24 + ^ .cfa: $rsp 24 +
STACK CFI 9a129 .cfa: $rsp 32 +
STACK CFI 9a16f .cfa: $rsp 24 +
STACK CFI 9a170 .cfa: $rsp 16 +
STACK CFI 9a171 .cfa: $rsp 8 +
STACK CFI 9a178 .cfa: $rsp 32 +
STACK CFI 9a19c .cfa: $rsp 24 +
STACK CFI 9a19f .cfa: $rsp 16 +
STACK CFI 9a1a0 .cfa: $rsp 8 +
STACK CFI 9a1b0 .cfa: $rsp 32 +
STACK CFI 9a2e2 .cfa: $rsp 24 +
STACK CFI 9a2e5 .cfa: $rsp 16 +
STACK CFI 9a2e6 .cfa: $rsp 8 +
STACK CFI 9a2f0 .cfa: $rsp 32 +
STACK CFI 9a2fc .cfa: $rsp 24 +
STACK CFI 9a2fd .cfa: $rsp 16 +
STACK CFI 9a2fe .cfa: $rsp 8 +
STACK CFI 9a2ff .cfa: $rsp 32 +
STACK CFI 9a311 .cfa: $rsp 24 +
STACK CFI 9a317 .cfa: $rsp 16 +
STACK CFI 9a318 .cfa: $rsp 8 +
STACK CFI 9a320 .cfa: $rsp 32 +
STACK CFI INIT 9a350 3b3 .cfa: $rsp 8 + .ra: .cfa -8 + ^
STACK CFI 9a352 $r15: .cfa -16 + ^ .cfa: $rsp 16 +
STACK CFI 9a359 $r14: .cfa -24 + ^ .cfa: $rsp 24 +
STACK CFI 9a35b $r13: .cfa -32 + ^ .cfa: $rsp 32 +
STACK CFI 9a35d $r12: .cfa -40 + ^ .cfa: $rsp 40 +
STACK CFI 9a35e $rbp: .cfa -48 + ^ .cfa: $rsp 48 +
STACK CFI 9a35f $rbx: .cfa -56 + ^ .cfa: $rsp 56 +
STACK CFI 9a363 .cfa: $rsp 80 +
STACK CFI 9a66c .cfa: $rsp 56 +
STACK CFI 9a66f .cfa: $rsp 48 +
STACK CFI 9a670 .cfa: $rsp 40 +
STACK CFI 9a672 .cfa: $rsp 32 +
STACK CFI 9a674 .cfa: $rsp 24 +
STACK CFI 9a676 .cfa: $rsp 16 +
STACK CFI 9a678 .cfa: $rsp 8 +
STACK CFI 9a680 .cfa: $rsp 80 +
STACK CFI 9a684 .cfa: $rsp 56 +
STACK CFI 9a685 .cfa: $rsp 48 +
STACK CFI 9a686 .cfa: $rsp 40 +
STACK CFI 9a688 .cfa: $rsp 32 +
STACK CFI 9a68a .cfa: $rsp 24 +
STACK CFI 9a68c .cfa: $rsp 16 +
STACK CFI 9a68e .cfa: $rsp 8 +
STACK CFI 9a690 .cfa: $rsp 80 +
STACK CFI INIT 9a710 adb .cfa: $rsp 8 + .ra: .cfa -8 + ^
STACK CFI 9a712 $r15: .cfa -16 + ^ .cfa: $rsp 16 +
STACK CFI 9a714 $r14: .cfa -24 + ^ .cfa: $rsp 24 +
STACK CFI 9a716 $r13: .cfa -32 + ^ .cfa: $rsp 32 +
STACK CFI 9a718 $r12: .cfa -40 + ^ .cfa: $rsp 40 +
STACK CFI 9a719 $rbp: .cfa -48 + ^ .cfa: $rsp 48 +
STACK CFI 9a71a $rbx: .cfa -56 + ^ .cfa: $rsp 56 +
STACK CFI 9a724 .cfa: $rsp 224 +
STACK CFI 9ab37 .cfa: $rsp 232 +
STACK CFI 9ab3c .cfa: $rsp 240 +
STACK CFI 9ab3e .cfa: $rsp 248 +
STACK CFI 9ab43 .cfa: $rsp 256 +
STACK CFI 9ab65 .cfa: $rsp 224 +
STACK CFI 9ab8d .cfa: $rsp 56 +
STACK CFI 9ab8e .cfa: $rsp 48 +
STACK CFI 9ab8f .cfa: $rsp 40 +
STACK CFI 9ab91 .cfa: $rsp 32 +
STACK CFI 9ab93 .cfa: $rsp 24 +
STACK CFI 9ab95 .cfa: $rsp 16 +
STACK CFI 9ab97 .cfa: $rsp 8 +
STACK CFI 9aba0 .cfa: $rsp 224 +
STACK CFI 9ad06 .cfa: $rsp 232 +
STACK CFI 9ad0e .cfa: $rsp 240 +
STACK CFI 9ad10 .cfa: $rsp 248 +
STACK CFI 9ad15 .cfa: $rsp 256 +
STACK CFI 9ad20 .cfa: $rsp 224 +
STACK CFI 9ad74 .cfa: $rsp 232 +
STACK CFI 9ad7c .cfa: $rsp 240 +
STACK CFI 9ad96 .cfa: $rsp 232 +
STACK CFI 9ad98 .cfa: $rsp 224 +
STACK CFI 9aea8 .cfa: $rsp 232 +
STACK CFI 9aeb0 .cfa: $rsp 240 +
STACK CFI 9aec9 .cfa: $rsp 232 +
STACK CFI 9aecb .cfa: $rsp 224 +
STACK CFI INIT 9b1f0 137 .cfa: $rsp 8 + .ra: .cfa -8 + ^
STACK CFI 9b1f9 .cfa: $rsp 16 +
STACK CFI 9b326 .cfa: $rsp 8 +
STACK CFI INIT 9b330 b .cfa: $rsp 8 + .ra: .cfa -8 + ^
STACK CFI INIT 9b340 37b .cfa: $rsp 8 + .ra: .cfa -8 + ^
STACK CFI 9b342 $r14: .cfa -16 + ^ .cfa: $rsp 16 +
STACK CFI 9b347 $r13: .cfa -24 + ^ .cfa: $rsp 24 +
STACK CFI 9b34c $r12: .cfa -32 + ^ .cfa: $rsp 32 +
STACK CFI 9b350 $rbp: .cfa -40 + ^ .cfa: $rsp 40 +
STACK CFI 9b351 $rbx: .cfa -48 + ^ .cfa: $rsp 48 +
STACK CFI 9b530 .cfa: $rsp 40 +
STACK CFI 9b534 .cfa: $rsp 32 +
STACK CFI 9b536 .cfa: $rsp 24 +
STACK CFI 9b538 .cfa: $rsp 16 +
STACK CFI 9b53a .cfa: $rsp 8 +
STACK CFI 9b540 .cfa: $rsp 48 +
STACK CFI 9b643 .cfa: $rsp 40 +
STACK CFI 9b647 .cfa: $rsp 32 +
STACK CFI 9b649 .cfa: $rsp 24 +
STACK CFI 9b64b .cfa: $rsp 16 +
STACK CFI 9b64d .cfa: $rsp 8 +
STACK CFI 9b652 .cfa: $rsp 48 +
STACK CFI INIT 9b6c0 101 .cfa: $rsp 8 + .ra: .cfa -8 + ^
STACK CFI 9b6ca $r15: .cfa -16 + ^ .cfa: $rsp 16 +
STACK CFI 9b6cf $r14: .cfa -24 + ^ .cfa: $rsp 24 +
STACK CFI 9b6d4 $r13: .cfa -32 + ^ .cfa: $rsp 32 +
STACK CFI 9b6d9 $r12: .cfa -40 + ^ .cfa: $rsp 40 +
STACK CFI 9b6dd $rbp: .cfa -48 + ^ .cfa: $rsp 48 +
STACK CFI 9b6e5 $rbx: .cfa -56 + ^ .cfa: $rsp 56 +
STACK CFI 9b6e9 .cfa: $rsp 64 +
STACK CFI 9b760 .cfa: $rsp 56 +
STACK CFI 9b761 .cfa: $rsp 48 +
STACK CFI 9b762 .cfa: $rsp 40 +
STACK CFI 9b764 .cfa: $rsp 32 +
STACK CFI 9b766 .cfa: $rsp 24 +
STACK CFI 9b768 .cfa: $rsp 16 +
STACK CFI 9b76a .cfa: $rsp 8 +
STACK CFI 9b770 .cfa: $rsp 64 +
STACK CFI 9b790 .cfa: $rsp 56 +
STACK CFI 9b791 .cfa: $rsp 48 +
STACK CFI 9b792 .cfa: $rsp 40 +
STACK CFI 9b794 .cfa: $rsp 32 +
STACK CFI 9b796 .cfa: $rsp 24 +
STACK CFI 9b798 .cfa: $rsp 16 +
STACK CFI 9b79a .cfa: $rsp 8 +
STACK CFI 9b7a0 .cfa: $rsp 64 +
STACK CFI INIT 9b7d0 9c .cfa: $rsp 8 + .ra: .cfa -8 + ^
STACK CFI 9b7d1 $rbx: .cfa -16 + ^ .cfa: $rsp 16 +
STACK CFI 9b819 .cfa: $rsp 8 +
STACK CFI 9b820 .cfa: $rsp 16 +
STACK CFI INIT 9b870 e .cfa: $rsp 8 + .ra: .cfa -8 + ^
STACK CFI INIT 9b880 b .cfa: $rsp 8 + .ra: .cfa -8 + ^
STACK CFI INIT 9b890 7 .cfa: $rsp 8 + .ra: .cfa -8 + ^
STACK CFI INIT 9b8a0 7 .cfa: $rsp 8 + .ra: .cfa -8 + ^
STACK CFI INIT 9b8b0 147 .cfa: $rsp 8 + .ra: .cfa -8 + ^
STACK CFI 9b8b2 $r14: .cfa -16 + ^ .cfa: $rsp 16 +
STACK CFI 9b8b7 $r13: .cfa -24 + ^ .cfa: $rsp 24 +
STACK CFI 9b8bd $r12: .cfa -32 + ^ .cfa: $rsp 32 +
STACK CFI 9b8c1 $rbp: .cfa -40 + ^ .cfa: $rsp 40 +
STACK CFI 9b8c2 $rbx: .cfa -48 + ^ .cfa: $rsp 48 +
STACK CFI 9b905 .cfa: $rsp 40 +
STACK CFI 9b906 .cfa: $rsp 32 +
STACK CFI 9b908 .cfa: $rsp 24 +
STACK CFI 9b90a .cfa: $rsp 16 +
STACK CFI 9b90c .cfa: $rsp 8 +
STACK CFI 9b910 .cfa: $rsp 48 +
STACK CFI 9b936 .cfa: $rsp 40 +
STACK CFI 9b937 .cfa: $rsp 32 +
STACK CFI 9b939 .cfa: $rsp 24 +
STACK CFI 9b93b .cfa: $rsp 16 +
STACK CFI 9b93d .cfa: $rsp 8 +
STACK CFI 9b940 .cfa: $rsp 48 +
STACK CFI 9b9ac .cfa: $rsp 40 +
STACK CFI 9b9ad .cfa: $rsp 32 +
STACK CFI 9b9af .cfa: $rsp 24 +
STACK CFI 9b9b1 .cfa: $rsp 16 +
STACK CFI 9b9b3 .cfa: $rsp 8 +
STACK CFI 9b9c0 .cfa: $rsp 48 +
STACK CFI 9b9c7 .cfa: $rsp 40 +
STACK CFI 9b9c8 .cfa: $rsp 32 +
STACK CFI 9b9ca .cfa: $rsp 24 +
STACK CFI 9b9cc .cfa: $rsp 16 +
STACK CFI 9b9ce .cfa: $rsp 8 +
STACK CFI 9b9d8 .cfa: $rsp 48 +
STACK CFI INIT 9ba00 178 .cfa: $rsp 8 + .ra: .cfa -8 + ^
STACK CFI 9ba02 $r15: .cfa -16 + ^ .cfa: $rsp 16 +
STACK CFI 9ba04 $r14: .cfa -24 + ^ .cfa: $rsp 24 +
STACK CFI 9ba06 $r13: .cfa -32 + ^ .cfa: $rsp 32 +
STACK CFI 9ba08 $r12: .cfa -40 + ^ .cfa: $rsp 40 +
STACK CFI 9ba0c $rbp: .cfa -48 + ^ .cfa: $rsp 48 +
STACK CFI 9ba10 $rbx: .cfa -56 + ^ .cfa: $rsp 56 +
STACK CFI 9ba17 .cfa: $rsp 80 +
STACK CFI 9bb0b .cfa: $rsp 56 +
STACK CFI 9bb0c .cfa: $rsp 48 +
STACK CFI 9bb0d .cfa: $rsp 40 +
STACK CFI 9bb0f .cfa: $rsp 32 +
STACK CFI 9bb11 .cfa: $rsp 24 +
STACK CFI 9bb13 .cfa: $rsp 16 +
STACK CFI 9bb15 .cfa: $rsp 8 +
STACK CFI 9bb20 .cfa: $rsp 80 +
STACK CFI INIT 9bb80 13e .cfa: $rsp 8 + .ra: .cfa -8 + ^
STACK CFI 9bb82 $r15: .cfa -16 + ^ .cfa: $rsp 16 +
STACK CFI 9bb84 $r14: .cfa -24 + ^ .cfa: $rsp 24 +
STACK CFI 9bb89 $r13: .cfa -32 + ^ .cfa: $rsp 32 +
STACK CFI 9bb8e $r12: .cfa -40 + ^ .cfa: $rsp 40 +
STACK CFI 9bb8f $rbp: .cfa -48 + ^ .cfa: $rsp 48 +
STACK CFI 9bb92 $rbx: .cfa -56 + ^ .cfa: $rsp 56 +
STACK CFI 9bb98 .cfa: $rsp 64 +
STACK CFI 9bc52 .cfa: $rsp 56 +
STACK CFI 9bc53 .cfa: $rsp 48 +
STACK CFI 9bc54 .cfa: $rsp 40 +
STACK CFI 9bc56 .cfa: $rsp 32 +
STACK CFI 9bc58 .cfa: $rsp 24 +
STACK CFI 9bc5a .cfa: $rsp 16 +
STACK CFI 9bc5c .cfa: $rsp 8 +
STACK CFI 9bc68 .cfa: $rsp 64 +
STACK CFI 9bcb3 .cfa: $rsp 56 +
STACK CFI 9bcb4 .cfa: $rsp 48 +
STACK CFI 9bcb5 .cfa: $rsp 40 +
STACK CFI 9bcb7 .cfa: $rsp 32 +
STACK CFI 9bcb9 .cfa: $rsp 24 +
STACK CFI 9bcbb .cfa: $rsp 16 +
STACK CFI 9bcbd .cfa: $rsp 8 +
STACK CFI INIT 9bcc0 a .cfa: $rsp 8 + .ra: .cfa -8 + ^
STACK CFI INIT 9bcd0 132 .cfa: $rsp 8 + .ra: .cfa -8 + ^
STACK CFI 9bcd2 $r14: .cfa -16 + ^ .cfa: $rsp 16 +
STACK CFI 9bcd7 $r13: .cfa -24 + ^ .cfa: $rsp 24 +
STACK CFI 9bcdc $r12: .cfa -32 + ^ .cfa: $rsp 32 +
STACK CFI 9bcdd $rbp: .cfa -40 + ^ .cfa: $rsp 40 +
STACK CFI 9bcde $rbx: .cfa -48 + ^ .cfa: $rsp 48 +
STACK CFI 9bd81 .cfa: $rsp 40 +
STACK CFI 9bd82 .cfa: $rsp 32 +
STACK CFI 9bd84 .cfa: $rsp 24 +
STACK CFI 9bd86 .cfa: $rsp 16 +
STACK CFI 9bd88 .cfa: $rsp 8 +
STACK CFI 9bd90 .cfa: $rsp 48 +
STACK CFI 9bdb9 .cfa: $rsp 40 +
STACK CFI 9bdba .cfa: $rsp 32 +
STACK CFI 9bdbc .cfa: $rsp 24 +
STACK CFI 9bdbe .cfa: $rsp 16 +
STACK CFI 9bdc0 .cfa: $rsp 8 +
STACK CFI 9bdc8 .cfa: $rsp 48 +
STACK CFI INIT 9be10 15f .cfa: $rsp 8 + .ra: .cfa -8 + ^
STACK CFI 9be12 $r15: .cfa -16 + ^ .cfa: $rsp 16 +
STACK CFI 9be17 $r14: .cfa -24 + ^ .cfa: $rsp 24 +
STACK CFI 9be1c $r13: .cfa -32 + ^ .cfa: $rsp 32 +
STACK CFI 9be21 $r12: .cfa -40 + ^ .cfa: $rsp 40 +
STACK CFI 9be22 $rbp: .cfa -48 + ^ .cfa: $rsp 48 +
STACK CFI 9be23 $rbx: .cfa -56 + ^ .cfa: $rsp 56 +
STACK CFI 9be29 .cfa: $rsp 64 +
STACK CFI 9befc .cfa: $rsp 56 +
STACK CFI 9befd .cfa: $rsp 48 +
STACK CFI 9befe .cfa: $rsp 40 +
STACK CFI 9bf00 .cfa: $rsp 32 +
STACK CFI 9bf02 .cfa: $rsp 24 +
STACK CFI 9bf04 .cfa: $rsp 16 +
STACK CFI 9bf06 .cfa: $rsp 8 +
STACK CFI 9bf10 .cfa: $rsp 64 +
STACK CFI 9bf64 .cfa: $rsp 56 +
STACK CFI 9bf65 .cfa: $rsp 48 +
STACK CFI 9bf66 .cfa: $rsp 40 +
STACK CFI 9bf68 .cfa: $rsp 32 +
STACK CFI 9bf6a .cfa: $rsp 24 +
STACK CFI 9bf6c .cfa: $rsp 16 +
STACK CFI 9bf6e .cfa: $rsp 8 +
STACK CFI INIT 9bf70 86 .cfa: $rsp 8 + .ra: .cfa -8 + ^
STACK CFI 9bf72 $r13: .cfa -16 + ^ .cfa: $rsp 16 +
STACK CFI 9bf77 $r12: .cfa -24 + ^ .cfa: $rsp 24 +
STACK CFI 9bf7b $rbp: .cfa -32 + ^ .cfa: $rsp 32 +
STACK CFI 9bf82 $rbx: .cfa -40 + ^ .cfa: $rsp 40 +
STACK CFI 9bf89 .cfa: $rsp 48 +
STACK CFI 9bfb3 .cfa: $rsp 40 +
STACK CFI 9bfb6 .cfa: $rsp 32 +
STACK CFI 9bfb7 .cfa: $rsp 24 +
STACK CFI 9bfb9 .cfa: $rsp 16 +
STACK CFI 9bfbb .cfa: $rsp 8 +
STACK CFI 9bfc0 .cfa: $rsp 48 +
STACK CFI 9bfca .cfa: $rsp 40 +
STACK CFI 9bfd0 .cfa: $rsp 32 +
STACK CFI 9bfd1 .cfa: $rsp 24 +
STACK CFI 9bfd3 .cfa: $rsp 16 +
STACK CFI 9bfd5 .cfa: $rsp 8 +
STACK CFI 9bfe0 .cfa: $rsp 48 +
STACK CFI 9bfea .cfa: $rsp 40 +
STACK CFI 9bff0 .cfa: $rsp 32 +
STACK CFI 9bff1 .cfa: $rsp 24 +
STACK CFI 9bff3 .cfa: $rsp 16 +
STACK CFI 9bff5 .cfa: $rsp 8 +
STACK CFI INIT 9c000 60 .cfa: $rsp 8 + .ra: .cfa -8 + ^
STACK CFI 9c002 $r12: .cfa -16 + ^ .cfa: $rsp 16 +
STACK CFI 9c006 $rbp: .cfa -24 + ^ .cfa: $rsp 24 +
STACK CFI 9c00a $rbx: .cfa -32 + ^ .cfa: $rsp 32 +
STACK CFI 9c033 .cfa: $rsp 24 +
STACK CFI 9c034 .cfa: $rsp 16 +
STACK CFI 9c036 .cfa: $rsp 8 +
STACK CFI 9c040 .cfa: $rsp 32 +
STACK CFI 9c04c .cfa: $rsp 24 +
STACK CFI 9c04d .cfa: $rsp 16 +
STACK CFI 9c04f .cfa: $rsp 8 +
STACK CFI 9c050 .cfa: $rsp 32 +
STACK CFI 9c05c .cfa: $rsp 24 +
STACK CFI 9c05d .cfa: $rsp 16 +
STACK CFI 9c05f .cfa: $rsp 8 +
STACK CFI INIT 9c060 47 .cfa: $rsp 8 + .ra: .cfa -8 + ^
STACK CFI 9c06e $rbx: .cfa -16 + ^ .cfa: $rsp 16 +
STACK CFI 9c099 $rbx: $rbx .cfa: $rsp 8 +
STACK CFI INIT 9c0b0 144 .cfa: $rsp 8 + .ra: .cfa -8 + ^
STACK CFI 9c0b1 $rbp: .cfa -16 + ^ .cfa: $rsp 16 +
STACK CFI 9c0b5 $rbx: .cfa -24 + ^ .cfa: $rsp 24 +
STACK CFI 9c0bc .cfa: $rsp 32 +
STACK CFI 9c18a .cfa: $rsp 24 +
STACK CFI 9c18b .cfa: $rsp 16 +
STACK CFI 9c18c .cfa: $rsp 8 +
STACK CFI 9c190 .cfa: $rsp 32 +
STACK CFI 9c19b .cfa: $rsp 24 +
STACK CFI 9c19c .cfa: $rsp 16 +
STACK CFI 9c19d .cfa: $rsp 8 +
STACK CFI 9c1a0 .cfa: $rsp 32 +
STACK CFI 9c1d3 .cfa: $rsp 24 +
STACK CFI 9c1d4 .cfa: $rsp 16 +
STACK CFI 9c1d5 .cfa: $rsp 8 +
STACK CFI 9c1e0 .cfa: $rsp 32 +
STACK CFI INIT a0870 496 .cfa: $rsp 8 + .ra: .cfa -8 + ^
STACK CFI a0872 $r15: .cfa -16 + ^ .cfa: $rsp 16 +
STACK CFI a0874 $r14: .cfa -24 + ^ .cfa: $rsp 24 +
STACK CFI a0876 $r13: .cfa -32 + ^ .cfa: $rsp 32 +
STACK CFI a0878 $r12: .cfa -40 + ^ .cfa: $rsp 40 +
STACK CFI a087c $rbp: .cfa -48 + ^ .cfa: $rsp 48 +
STACK CFI a0880 $rbx: .cfa -56 + ^ .cfa: $rsp 56 +
STACK CFI a0884 .cfa: $rsp 64 +
STACK CFI a090e .cfa: $rsp 56 +
STACK CFI a090f .cfa: $rsp 48 +
STACK CFI a0910 .cfa: $rsp 40 +
STACK CFI a0912 .cfa: $rsp 32 +
STACK CFI a0914 .cfa: $rsp 24 +
STACK CFI a0916 .cfa: $rsp 16 +
STACK CFI a0918 .cfa: $rsp 8 +
STACK CFI a0920 .cfa: $rsp 64 +
STACK CFI INIT a0d10 5d6 .cfa: $rsp 8 + .ra: .cfa -8 + ^
STACK CFI a0d12 $r15: .cfa -16 + ^ .cfa: $rsp 16 +
STACK CFI a0d14 $r14: .cfa -24 + ^ .cfa: $rsp 24 +
STACK CFI a0d16 $r13: .cfa -32 + ^ .cfa: $rsp 32 +
STACK CFI a0d18 $r12: .cfa -40 + ^ .cfa: $rsp 40 +
STACK CFI a0d1c $rbp: .cfa -48 + ^ .cfa: $rsp 48 +
STACK CFI a0d20 $rbx: .cfa -56 + ^ .cfa: $rsp 56 +
STACK CFI a0d24 .cfa: $rsp 64 +
STACK CFI a0db1 .cfa: $rsp 56 +
STACK CFI a0db5 .cfa: $rsp 48 +
STACK CFI a0db6 .cfa: $rsp 40 +
STACK CFI a0db8 .cfa: $rsp 32 +
STACK CFI a0dba .cfa: $rsp 24 +
STACK CFI a0dbc .cfa: $rsp 16 +
STACK CFI a0dbe .cfa: $rsp 8 +
STACK CFI a0dc0 .cfa: $rsp 64 +
STACK CFI INIT a12f0 14cd .cfa: $rsp 8 + .ra: .cfa -8 + ^
STACK CFI a12f2 $r15: .cfa -16 + ^ .cfa: $rsp 16 +
STACK CFI a12f4 $r14: .cfa -24 + ^ .cfa: $rsp 24 +
STACK CFI a12f6 $r13: .cfa -32 + ^ .cfa: $rsp 32 +
STACK CFI a12f8 $r12: .cfa -40 + ^ .cfa: $rsp 40 +
STACK CFI a12fc $rbp: .cfa -48 + ^ .cfa: $rsp 48 +
STACK CFI a12fd $rbx: .cfa -56 + ^ .cfa: $rsp 56 +
STACK CFI a1304 .cfa: $rsp 192 +
STACK CFI a1452 .cfa: $rsp 56 +
STACK CFI a1453 .cfa: $rsp 48 +
STACK CFI a1454 .cfa: $rsp 40 +
STACK CFI a1456 .cfa: $rsp 32 +
STACK CFI a1458 .cfa: $rsp 24 +
STACK CFI a145a .cfa: $rsp 16 +
STACK CFI a145c .cfa: $rsp 8 +
STACK CFI a1460 .cfa: $rsp 192 +
STACK CFI INIT a27c0 10d2 .cfa: $rsp 8 + .ra: .cfa -8 + ^
STACK CFI a27c2 $r14: .cfa -16 + ^ .cfa: $rsp 16 +
STACK CFI a27c4 $r13: .cfa -24 + ^ .cfa: $rsp 24 +
STACK CFI a27c6 $r12: .cfa -32 + ^ .cfa: $rsp 32 +
STACK CFI a27ca $rbp: .cfa -40 + ^ .cfa: $rsp 40 +
STACK CFI a27d2 $rbx: .cfa -48 + ^ .cfa: $rsp 48 +
STACK CFI a28be .cfa: $rsp 40 +
STACK CFI a28bf .cfa: $rsp 32 +
STACK CFI a28c1 .cfa: $rsp 24 +
STACK CFI a28c3 .cfa: $rsp 16 +
STACK CFI a28c5 .cfa: $rsp 8 +
STACK CFI a28d0 .cfa: $rsp 48 +
STACK CFI INIT 9c200 34 .cfa: $rsp 8 + .ra: .cfa -8 + ^
STACK CFI 9c214 .cfa: $rsp 16 +
STACK CFI 9c233 .cfa: $rsp 8 +
STACK CFI INIT 9c240 667 .cfa: $rsp 8 + .ra: .cfa -8 + ^
STACK CFI 9c241 $rbp: .cfa -16 + ^ .cfa: $rsp 16 +
STACK CFI 9c244 .cfa: $rbp 16 +
STACK CFI 9c24d $r12: .cfa -48 + ^ $r13: .cfa -40 + ^ $r14: .cfa -32 + ^ $r15: .cfa -24 + ^ $rbx: .cfa -56 + ^
STACK CFI 9c328 .cfa: $rsp 8 +
STACK CFI 9c330 .cfa: $rbp 16 +
STACK CFI INIT 1ce35 22 $r12: .cfa -48 + ^ $r13: .cfa -40 + ^ $r14: .cfa -32 + ^ $r15: .cfa -24 + ^ $rbp: .cfa -16 + ^ $rbx: .cfa -56 + ^ .cfa: $rbp 16 + .ra: .cfa -8 + ^
STACK CFI INIT 9c8b0 d15 .cfa: $rsp 8 + .ra: .cfa -8 + ^
STACK CFI 9c8b1 $rbp: .cfa -16 + ^ .cfa: $rsp 16 +
STACK CFI 9c8b4 .cfa: $rbp 16 +
STACK CFI 9c8bd $r12: .cfa -48 + ^ $r13: .cfa -40 + ^ $r14: .cfa -32 + ^ $r15: .cfa -24 + ^ $rbx: .cfa -56 + ^
STACK CFI 9c8fe .cfa: $rsp 8 +
STACK CFI 9c900 .cfa: $rbp 16 +
STACK CFI INIT 1ce57 1c $r12: .cfa -48 + ^ $r13: .cfa -40 + ^ $r14: .cfa -32 + ^ $r15: .cfa -24 + ^ $rbp: .cfa -16 + ^ $rbx: .cfa -56 + ^ .cfa: $rbp 16 + .ra: .cfa -8 + ^
STACK CFI INIT 9d5d0 75d .cfa: $rsp 8 + .ra: .cfa -8 + ^
STACK CFI 9d5d1 $rbp: .cfa -16 + ^ .cfa: $rsp 16 +
STACK CFI 9d5d4 .cfa: $rbp 16 +
STACK CFI 9d5dd $r12: .cfa -48 + ^ $r13: .cfa -40 + ^ $r14: .cfa -32 + ^ $r15: .cfa -24 + ^ $rbx: .cfa -56 + ^
STACK CFI 9d600 .cfa: $rsp 8 +
STACK CFI 9d608 .cfa: $rbp 16 +
STACK CFI INIT 1ce73 2c $r12: .cfa -48 + ^ $r13: .cfa -40 + ^ $r14: .cfa -32 + ^ $r15: .cfa -24 + ^ $rbp: .cfa -16 + ^ $rbx: .cfa -56 + ^ .cfa: $rbp 16 + .ra: .cfa -8 + ^
STACK CFI INIT 9dd30 3d9 .cfa: $rsp 8 + .ra: .cfa -8 + ^
STACK CFI 9dd32 $r14: .cfa -16 + ^ .cfa: $rsp 16 +
STACK CFI 9dd34 $r13: .cfa -24 + ^ .cfa: $rsp 24 +
STACK CFI 9dd36 $r12: .cfa -32 + ^ .cfa: $rsp 32 +
STACK CFI 9dd37 $rbp: .cfa -40 + ^ .cfa: $rsp 40 +
STACK CFI 9dd38 $rbx: .cfa -48 + ^ .cfa: $rsp 48 +
STACK CFI 9dd46 .cfa: $rsp 40 +
STACK CFI 9dd47 .cfa: $rsp 32 +
STACK CFI 9dd49 .cfa: $rsp 24 +
STACK CFI 9dd4b .cfa: $rsp 16 +
STACK CFI 9dd4d .cfa: $rsp 8 +
STACK CFI 9dd50 .cfa: $rsp 48 +
STACK CFI INIT 1ce9f 20 $r12: .cfa -32 + ^ $r13: .cfa -24 + ^ $r14: .cfa -16 + ^ $rbp: .cfa -40 + ^ $rbx: .cfa -48 + ^ .cfa: $rsp 48 + .ra: .cfa -8 + ^
STACK CFI INIT 9e110 23d .cfa: $rsp 8 + .ra: .cfa -8 + ^
STACK CFI 9e112 $r14: .cfa -16 + ^ .cfa: $rsp 16 +
STACK CFI 9e114 $r13: .cfa -24 + ^ .cfa: $rsp 24 +
STACK CFI 9e116 $r12: .cfa -32 + ^ .cfa: $rsp 32 +
STACK CFI 9e117 $rbp: .cfa -40 + ^ .cfa: $rsp 40 +
STACK CFI 9e118 $rbx: .cfa -48 + ^ .cfa: $rsp 48 +
STACK CFI 9e124 .cfa: $rsp 40 +
STACK CFI 9e125 .cfa: $rsp 32 +
STACK CFI 9e127 .cfa: $rsp 24 +
STACK CFI 9e129 .cfa: $rsp 16 +
STACK CFI 9e12b .cfa: $rsp 8 +
STACK CFI 9e130 .cfa: $rsp 48 +
STACK CFI 9e183 .cfa: $rsp 40 +
STACK CFI 9e184 .cfa: $rsp 32 +
STACK CFI 9e186 .cfa: $rsp 24 +
STACK CFI 9e188 .cfa: $rsp 16 +
STACK CFI 9e18a .cfa: $rsp 8 +
STACK CFI 9e190 .cfa: $rsp 48 +
STACK CFI INIT 1cebf 10 $r12: .cfa -32 + ^ $r13: .cfa -24 + ^ $r14: .cfa -16 + ^ $rbp: .cfa -40 + ^ $rbx: .cfa -48 + ^ .cfa: $rsp 48 + .ra: .cfa -8 + ^
STACK CFI INIT 9e350 23d .cfa: $rsp 8 + .ra: .cfa -8 + ^
STACK CFI 9e352 $r14: .cfa -16 + ^ .cfa: $rsp 16 +
STACK CFI 9e354 $r13: .cfa -24 + ^ .cfa: $rsp 24 +
STACK CFI 9e356 $r12: .cfa -32 + ^ .cfa: $rsp 32 +
STACK CFI 9e357 $rbp: .cfa -40 + ^ .cfa: $rsp 40 +
STACK CFI 9e358 $rbx: .cfa -48 + ^ .cfa: $rsp 48 +
STACK CFI 9e364 .cfa: $rsp 40 +
STACK CFI 9e365 .cfa: $rsp 32 +
STACK CFI 9e367 .cfa: $rsp 24 +
STACK CFI 9e369 .cfa: $rsp 16 +
STACK CFI 9e36b .cfa: $rsp 8 +
STACK CFI 9e370 .cfa: $rsp 48 +
STACK CFI 9e3c3 .cfa: $rsp 40 +
STACK CFI 9e3c4 .cfa: $rsp 32 +
STACK CFI 9e3c6 .cfa: $rsp 24 +
STACK CFI 9e3c8 .cfa: $rsp 16 +
STACK CFI 9e3ca .cfa: $rsp 8 +
STACK CFI 9e3d0 .cfa: $rsp 48 +
STACK CFI INIT 1cecf 10 $r12: .cfa -32 + ^ $r13: .cfa -24 + ^ $r14: .cfa -16 + ^ $rbp: .cfa -40 + ^ $rbx: .cfa -48 + ^ .cfa: $rsp 48 + .ra: .cfa -8 + ^
STACK CFI INIT a38a0 11b .cfa: $rsp 8 + .ra: .cfa -8 + ^
STACK CFI a38a2 $r15: .cfa -16 + ^ .cfa: $rsp 16 +
STACK CFI a38a4 $r14: .cfa -24 + ^ .cfa: $rsp 24 +
STACK CFI a38aa $r13: .cfa -32 + ^ .cfa: $rsp 32 +
STACK CFI a38af $r12: .cfa -40 + ^ .cfa: $rsp 40 +
STACK CFI a38b0 $rbp: .cfa -48 + ^ .cfa: $rsp 48 +
STACK CFI a38b1 $rbx: .cfa -56 + ^ .cfa: $rsp 56 +
STACK CFI a38b8 .cfa: $rsp 64 +
STACK CFI a393b .cfa: $rsp 56 +
STACK CFI a393f .cfa: $rsp 48 +
STACK CFI a3945 .cfa: $rsp 40 +
STACK CFI a3947 .cfa: $rsp 32 +
STACK CFI a3949 .cfa: $rsp 24 +
STACK CFI a394b .cfa: $rsp 16 +
STACK CFI a394d .cfa: $rsp 8 +
STACK CFI a3950 .cfa: $rsp 64 +
STACK CFI a396b .cfa: $rsp 56 +
STACK CFI a3971 .cfa: $rsp 48 +
STACK CFI a3972 .cfa: $rsp 40 +
STACK CFI a3974 .cfa: $rsp 32 +
STACK CFI a3976 .cfa: $rsp 24 +
STACK CFI a3978 .cfa: $rsp 16 +
STACK CFI a397a .cfa: $rsp 8 +
STACK CFI a3980 .cfa: $rsp 64 +
STACK CFI INIT 9e590 610 .cfa: $rsp 8 + .ra: .cfa -8 + ^
STACK CFI 9e591 $rbp: .cfa -16 + ^ .cfa: $rsp 16 +
STACK CFI 9e594 .cfa: $rbp 16 +
STACK CFI 9e59d $r12: .cfa -48 + ^ $r13: .cfa -40 + ^ $r14: .cfa -32 + ^ $r15: .cfa -24 + ^ $rbx: .cfa -56 + ^
STACK CFI 9e5be .cfa: $rsp 8 +
STACK CFI 9e5c0 .cfa: $rbp 16 +
STACK CFI 9e64c .cfa: $rsp 8 +
STACK CFI 9e650 .cfa: $rbp 16 +
STACK CFI 9e68e .cfa: $rsp 8 +
STACK CFI 9e690 .cfa: $rbp 16 +
STACK CFI INIT 1cedf 22 $r12: .cfa -48 + ^ $r13: .cfa -40 + ^ $r14: .cfa -32 + ^ $r15: .cfa -24 + ^ $rbp: .cfa -16 + ^ $rbx: .cfa -56 + ^ .cfa: $rbp 16 + .ra: .cfa -8 + ^
STACK CFI INIT a39c0 11b .cfa: $rsp 8 + .ra: .cfa -8 + ^
STACK CFI a39c2 $r15: .cfa -16 + ^ .cfa: $rsp 16 +
STACK CFI a39c4 $r14: .cfa -24 + ^ .cfa: $rsp 24 +
STACK CFI a39ca $r13: .cfa -32 + ^ .cfa: $rsp 32 +
STACK CFI a39cf $r12: .cfa -40 + ^ .cfa: $rsp 40 +
STACK CFI a39d0 $rbp: .cfa -48 + ^ .cfa: $rsp 48 +
STACK CFI a39d1 $rbx: .cfa -56 + ^ .cfa: $rsp 56 +
STACK CFI a39d8 .cfa: $rsp 64 +
STACK CFI a3a5b .cfa: $rsp 56 +
STACK CFI a3a5f .cfa: $rsp 48 +
STACK CFI a3a65 .cfa: $rsp 40 +
STACK CFI a3a67 .cfa: $rsp 32 +
STACK CFI a3a69 .cfa: $rsp 24 +
STACK CFI a3a6b .cfa: $rsp 16 +
STACK CFI a3a6d .cfa: $rsp 8 +
STACK CFI a3a70 .cfa: $rsp 64 +
STACK CFI a3a8b .cfa: $rsp 56 +
STACK CFI a3a91 .cfa: $rsp 48 +
STACK CFI a3a92 .cfa: $rsp 40 +
STACK CFI a3a94 .cfa: $rsp 32 +
STACK CFI a3a96 .cfa: $rsp 24 +
STACK CFI a3a98 .cfa: $rsp 16 +
STACK CFI a3a9a .cfa: $rsp 8 +
STACK CFI a3aa0 .cfa: $rsp 64 +
STACK CFI INIT 9eba0 10c .cfa: $rsp 8 + .ra: .cfa -8 + ^
STACK CFI 9eba2 $r12: .cfa -16 + ^ .cfa: $rsp 16 +
STACK CFI 9eba3 $rbp: .cfa -24 + ^ .cfa: $rsp 24 +
STACK CFI 9eba4 $rbx: .cfa -32 + ^ .cfa: $rsp 32 +
STACK CFI 9ebab .cfa: $rsp 48 +
STACK CFI 9ebb8 .cfa: $rsp 32 +
STACK CFI 9ebb9 .cfa: $rsp 24 +
STACK CFI 9ebba .cfa: $rsp 16 +
STACK CFI 9ebbc .cfa: $rsp 8 +
STACK CFI 9ebc0 .cfa: $rsp 48 +
STACK CFI 9ebf0 .cfa: $rsp 32 +
STACK CFI 9ebf1 .cfa: $rsp 24 +
STACK CFI 9ebf2 .cfa: $rsp 16 +
STACK CFI 9ebf4 .cfa: $rsp 8 +
STACK CFI 9ebf8 .cfa: $rsp 48 +
STACK CFI 9ec26 .cfa: $rsp 32 +
STACK CFI 9ec27 .cfa: $rsp 24 +
STACK CFI 9ec28 .cfa: $rsp 16 +
STACK CFI 9ec2a .cfa: $rsp 8 +
STACK CFI 9ec30 .cfa: $rsp 48 +
STACK CFI INIT 9ecb0 692 .cfa: $rsp 8 + .ra: .cfa -8 + ^
STACK CFI 9ecb1 $rbp: .cfa -16 + ^ .cfa: $rsp 16 +
STACK CFI 9ecb4 .cfa: $rbp 16 +
STACK CFI 9ecb8 $r14: .cfa -32 + ^ $r15: .cfa -24 + ^
STACK CFI 9ecc0 $r12: .cfa -48 + ^ $r13: .cfa -40 + ^ $rbx: .cfa -56 + ^
STACK CFI 9ece1 .cfa: $rsp 8 +
STACK CFI 9ece8 .cfa: $rbp 16 +
STACK CFI 9ee09 .cfa: $rsp 8 +
STACK CFI 9ee10 .cfa: $rbp 16 +
STACK CFI 9ee4c .cfa: $rsp 8 +
STACK CFI 9ee50 .cfa: $rbp 16 +
STACK CFI INIT 1cf01 22 $r12: .cfa -48 + ^ $r13: .cfa -40 + ^ $r14: .cfa -32 + ^ $r15: .cfa -24 + ^ $rbp: .cfa -16 + ^ $rbx: .cfa -56 + ^ .cfa: $rbp 16 + .ra: .cfa -8 + ^
STACK CFI INIT a3ae0 39 .cfa: $rsp 8 + .ra: .cfa -8 + ^
STACK CFI a3ae6 $rbp: .cfa -16 + ^ .cfa: $rsp 16 +
STACK CFI a3aea $rbx: .cfa -24 + ^ .cfa: $rsp 24 +
STACK CFI a3af1 .cfa: $rsp 32 +
STACK CFI a3b12 .cfa: $rsp 24 +
STACK CFI a3b13 .cfa: $rsp 16 +
STACK CFI a3b14 .cfa: $rsp 8 +
STACK CFI a3b18 $rbp: $rbp $rbx: $rbx
STACK CFI INIT a3b20 180 .cfa: $rsp 8 + .ra: .cfa -8 + ^
STACK CFI a3b22 $r15: .cfa -16 + ^ .cfa: $rsp 16 +
STACK CFI a3b24 $r14: .cfa -24 + ^ .cfa: $rsp 24 +
STACK CFI a3b26 $r13: .cfa -32 + ^ .cfa: $rsp 32 +
STACK CFI a3b2c $r12: .cfa -40 + ^ .cfa: $rsp 40 +
STACK CFI a3b2d $rbp: .cfa -48 + ^ .cfa: $rsp 48 +
STACK CFI a3b31 $rbx: .cfa -56 + ^ .cfa: $rsp 56 +
STACK CFI a3b35 .cfa: $rsp 64 +
STACK CFI a3b8a .cfa: $rsp 56 +
STACK CFI a3b8e .cfa: $rsp 48 +
STACK CFI a3b8f .cfa: $rsp 40 +
STACK CFI a3b91 .cfa: $rsp 32 +
STACK CFI a3b93 .cfa: $rsp 24 +
STACK CFI a3b95 .cfa: $rsp 16 +
STACK CFI a3b97 .cfa: $rsp 8 +
STACK CFI a3ba0 .cfa: $rsp 64 +
STACK CFI INIT 9f350 695 .cfa: $rsp 8 + .ra: .cfa -8 + ^
STACK CFI 9f351 $rbp: .cfa -16 + ^ .cfa: $rsp 16 +
STACK CFI 9f354 .cfa: $rbp 16 +
STACK CFI 9f364 $r12: .cfa -48 + ^ $r13: .cfa -40 + ^ $r14: .cfa -32 + ^ $r15: .cfa -24 + ^ $rbx: .cfa -56 + ^
STACK CFI 9f382 .cfa: $rsp 8 +
STACK CFI 9f388 .cfa: $rbp 16 +
STACK CFI 9f4ee .cfa: $rsp 8 +
STACK CFI 9f4f0 .cfa: $rbp 16 +
STACK CFI INIT 1cf23 22 $r12: .cfa -48 + ^ $r13: .cfa -40 + ^ $r14: .cfa -32 + ^ $r15: .cfa -24 + ^ $rbp: .cfa -16 + ^ $rbx: .cfa -56 + ^ .cfa: $rbp 16 + .ra: .cfa -8 + ^
STACK CFI INIT a3ca0 39 .cfa: $rsp 8 + .ra: .cfa -8 + ^
STACK CFI a3ca6 $rbp: .cfa -16 + ^ .cfa: $rsp 16 +
STACK CFI a3caa $rbx: .cfa -24 + ^ .cfa: $rsp 24 +
STACK CFI a3cb1 .cfa: $rsp 32 +
STACK CFI a3cd2 .cfa: $rsp 24 +
STACK CFI a3cd3 .cfa: $rsp 16 +
STACK CFI a3cd4 .cfa: $rsp 8 +
STACK CFI a3cd8 $rbp: $rbp $rbx: $rbx
STACK CFI INIT a3ce0 5c .cfa: $rsp 8 + .ra: .cfa -8 + ^
STACK CFI a3ce2 $r12: .cfa -16 + ^ .cfa: $rsp 16 +
STACK CFI a3ce3 $rbp: .cfa -24 + ^ .cfa: $rsp 24 +
STACK CFI a3ce7 $rbx: .cfa -32 + ^ .cfa: $rsp 32 +
STACK CFI a3d38 .cfa: $rsp 24 +
STACK CFI a3d39 .cfa: $rsp 16 +
STACK CFI a3d3b .cfa: $rsp 8 +
STACK CFI INIT 9f9f0 690 .cfa: $rsp 8 + .ra: .cfa -8 + ^
STACK CFI 9f9f1 $rbp: .cfa -16 + ^ .cfa: $rsp 16 +
STACK CFI 9f9f4 .cfa: $rbp 16 +
STACK CFI 9fa04 $r12: .cfa -48 + ^ $r13: .cfa -40 + ^ $r14: .cfa -32 + ^ $r15: .cfa -24 + ^ $rbx: .cfa -56 + ^
STACK CFI 9fa2c .cfa: $rsp 8 +
STACK CFI 9fa30 .cfa: $rbp 16 +
STACK CFI 9fb60 .cfa: $rsp 8 +
STACK CFI 9fb68 .cfa: $rbp 16 +
STACK CFI 9fc23 .cfa: $rsp 8 +
STACK CFI 9fc28 .cfa: $rbp 16 +
STACK CFI INIT 1cf45 2a $r12: .cfa -48 + ^ $r13: .cfa -40 + ^ $r14: .cfa -32 + ^ $r15: .cfa -24 + ^ $rbp: .cfa -16 + ^ $rbx: .cfa -56 + ^ .cfa: $rbp 16 + .ra: .cfa -8 + ^
STACK CFI INIT a3d40 180 .cfa: $rsp 8 + .ra: .cfa -8 + ^
STACK CFI a3d42 $r15: .cfa -16 + ^ .cfa: $rsp 16 +
STACK CFI a3d44 $r14: .cfa -24 + ^ .cfa: $rsp 24 +
STACK CFI a3d46 $r13: .cfa -32 + ^ .cfa: $rsp 32 +
STACK CFI a3d4c $r12: .cfa -40 + ^ .cfa: $rsp 40 +
STACK CFI a3d4d $rbp: .cfa -48 + ^ .cfa: $rsp 48 +
STACK CFI a3d51 $rbx: .cfa -56 + ^ .cfa: $rsp 56 +
STACK CFI a3d55 .cfa: $rsp 64 +
STACK CFI a3daa .cfa: $rsp 56 +
STACK CFI a3dae .cfa: $rsp 48 +
STACK CFI a3daf .cfa: $rsp 40 +
STACK CFI a3db1 .cfa: $rsp 32 +
STACK CFI a3db3 .cfa: $rsp 24 +
STACK CFI a3db5 .cfa: $rsp 16 +
STACK CFI a3db7 .cfa: $rsp 8 +
STACK CFI a3dc0 .cfa: $rsp 64 +
STACK CFI INIT a0080 13d .cfa: $rsp 8 + .ra: .cfa -8 + ^
STACK CFI a0082 $r12: .cfa -16 + ^ .cfa: $rsp 16 +
STACK CFI a0083 $rbp: .cfa -24 + ^ .cfa: $rsp 24 +
STACK CFI a0084 $rbx: .cfa -32 + ^ .cfa: $rsp 32 +
STACK CFI a008b .cfa: $rsp 48 +
STACK CFI a0098 .cfa: $rsp 32 +
STACK CFI a0099 .cfa: $rsp 24 +
STACK CFI a009a .cfa: $rsp 16 +
STACK CFI a009c .cfa: $rsp 8 +
STACK CFI a00a0 .cfa: $rsp 48 +
STACK CFI a011e .cfa: $rsp 32 +
STACK CFI a011f .cfa: $rsp 24 +
STACK CFI a0120 .cfa: $rsp 16 +
STACK CFI a0122 .cfa: $rsp 8 +
STACK CFI a0128 .cfa: $rsp 48 +
STACK CFI INIT a01c0 6a1 .cfa: $rsp 8 + .ra: .cfa -8 + ^
STACK CFI a01c1 $rbp: .cfa -16 + ^ .cfa: $rsp 16 +
STACK CFI a01c4 .cfa: $rbp 16 +
STACK CFI a01c6 $r15: .cfa -24 + ^
STACK CFI a01cf $r12: .cfa -48 + ^ $r13: .cfa -40 + ^ $r14: .cfa -32 + ^
STACK CFI a01da $rbx: .cfa -56 + ^
STACK CFI a01f1 .cfa: $rsp 8 +
STACK CFI a01f8 .cfa: $rbp 16 +
STACK CFI a02f0 .cfa: $rsp 8 +
STACK CFI a02f8 .cfa: $rbp 16 +
STACK CFI INIT 1cf6f 2a $r12: .cfa -48 + ^ $r13: .cfa -40 + ^ $r14: .cfa -32 + ^ $r15: .cfa -24 + ^ $rbp: .cfa -16 + ^ $rbx: .cfa -56 + ^ .cfa: $rbp 16 + .ra: .cfa -8 + ^
STACK CFI INIT a3ec0 17 .cfa: $rsp 8 + .ra: .cfa -8 + ^
STACK CFI INIT a3ee0 17 .cfa: $rsp 8 + .ra: .cfa -8 + ^
STACK CFI INIT a3f00 17 .cfa: $rsp 8 + .ra: .cfa -8 + ^
STACK CFI INIT a3f20 17 .cfa: $rsp 8 + .ra: .cfa -8 + ^
STACK CFI INIT a3f40 17 .cfa: $rsp 8 + .ra: .cfa -8 + ^
STACK CFI INIT a3f60 17 .cfa: $rsp 8 + .ra: .cfa -8 + ^
STACK CFI INIT a3f80 17 .cfa: $rsp 8 + .ra: .cfa -8 + ^
STACK CFI INIT a3fa0 17 .cfa: $rsp 8 + .ra: .cfa -8 + ^
STACK CFI INIT a3fc0 17 .cfa: $rsp 8 + .ra: .cfa -8 + ^
STACK CFI INIT a3fe0 17 .cfa: $rsp 8 + .ra: .cfa -8 + ^
STACK CFI INIT a4000 17 .cfa: $rsp 8 + .ra: .cfa -8 + ^
STACK CFI INIT a4020 17 .cfa: $rsp 8 + .ra: .cfa -8 + ^
STACK CFI INIT a4040 ce2 .cfa: $rsp 8 + .ra: .cfa -8 + ^
STACK CFI a4042 $r15: .cfa -16 + ^ .cfa: $rsp 16 +
STACK CFI a4044 $r14: .cfa -24 + ^ .cfa: $rsp 24 +
STACK CFI a4046 $r13: .cfa -32 + ^ .cfa: $rsp 32 +
STACK CFI a4048 $r12: .cfa -40 + ^ .cfa: $rsp 40 +
STACK CFI a4049 $rbp: .cfa -48 + ^ .cfa: $rsp 48 +
STACK CFI a404a $rbx: .cfa -56 + ^ .cfa: $rsp 56 +
STACK CFI a405a .cfa: $rsp 352 +
STACK CFI a46de .cfa: $rsp 56 +
STACK CFI a46df .cfa: $rsp 48 +
STACK CFI a46e0 .cfa: $rsp 40 +
STACK CFI a46e2 .cfa: $rsp 32 +
STACK CFI a46e4 .cfa: $rsp 24 +
STACK CFI a46e6 .cfa: $rsp 16 +
STACK CFI a46e8 .cfa: $rsp 8 +
STACK CFI a46f0 .cfa: $rsp 352 +
STACK CFI INIT a4d30 4d .cfa: $rsp 8 + .ra: .cfa -8 + ^
STACK CFI a4d32 $r14: .cfa -16 + ^ .cfa: $rsp 16 +
STACK CFI a4d37 $r13: .cfa -24 + ^ .cfa: $rsp 24 +
STACK CFI a4d3c $r12: .cfa -32 + ^ .cfa: $rsp 32 +
STACK CFI a4d40 $rbp: .cfa -40 + ^ .cfa: $rsp 40 +
STACK CFI a4d47 .cfa: $rsp 48 +
STACK CFI a4d74 .cfa: $rsp 40 +
STACK CFI a4d75 .cfa: $rsp 32 +
STACK CFI a4d77 .cfa: $rsp 24 +
STACK CFI a4d79 .cfa: $rsp 16 +
STACK CFI a4d7b .cfa: $rsp 8 +
STACK CFI INIT a4d80 27 .cfa: $rsp 8 + .ra: .cfa -8 + ^
STACK CFI a4d88 $rbp: .cfa -16 + ^ .cfa: $rsp 16 +
STACK CFI a4da2 .cfa: $rsp 8 +
STACK CFI INIT a4db0 27 .cfa: $rsp 8 + .ra: .cfa -8 + ^
STACK CFI a4db8 $rbp: .cfa -16 + ^ .cfa: $rsp 16 +
STACK CFI a4dd2 .cfa: $rsp 8 +
STACK CFI INIT a4de0 39 .cfa: $rsp 8 + .ra: .cfa -8 + ^
STACK CFI a4de2 $r12: .cfa -16 + ^ .cfa: $rsp 16 +
STACK CFI a4de6 $rbp: .cfa -24 + ^ .cfa: $rsp 24 +
STACK CFI a4ded .cfa: $rsp 32 +
STACK CFI a4e14 .cfa: $rsp 24 +
STACK CFI a4e15 .cfa: $rsp 16 +
STACK CFI a4e17 .cfa: $rsp 8 +
STACK CFI INIT a4e20 39 .cfa: $rsp 8 + .ra: .cfa -8 + ^
STACK CFI a4e22 $r12: .cfa -16 + ^ .cfa: $rsp 16 +
STACK CFI a4e26 $rbp: .cfa -24 + ^ .cfa: $rsp 24 +
STACK CFI a4e2d .cfa: $rsp 32 +
STACK CFI a4e54 .cfa: $rsp 24 +
STACK CFI a4e55 .cfa: $rsp 16 +
STACK CFI a4e57 .cfa: $rsp 8 +
STACK CFI INIT a4e60 39 .cfa: $rsp 8 + .ra: .cfa -8 + ^
STACK CFI a4e62 $r12: .cfa -16 + ^ .cfa: $rsp 16 +
STACK CFI a4e66 $rbp: .cfa -24 + ^ .cfa: $rsp 24 +
STACK CFI a4e6d .cfa: $rsp 32 +
STACK CFI a4e94 .cfa: $rsp 24 +
STACK CFI a4e95 .cfa: $rsp 16 +
STACK CFI a4e97 .cfa: $rsp 8 +
STACK CFI INIT a4ea0 39 .cfa: $rsp 8 + .ra: .cfa -8 + ^
STACK CFI a4ea2 $r12: .cfa -16 + ^ .cfa: $rsp 16 +
STACK CFI a4ea6 $rbp: .cfa -24 + ^ .cfa: $rsp 24 +
STACK CFI a4ead .cfa: $rsp 32 +
STACK CFI a4ed4 .cfa: $rsp 24 +
STACK CFI a4ed5 .cfa: $rsp 16 +
STACK CFI a4ed7 .cfa: $rsp 8 +
STACK CFI INIT a4ee0 3b .cfa: $rsp 8 + .ra: .cfa -8 + ^
STACK CFI a4ee9 $r13: .cfa -16 + ^ .cfa: $rsp 16 +
STACK CFI a4eee $r12: .cfa -24 + ^ .cfa: $rsp 24 +
STACK CFI a4ef2 $rbp: .cfa -32 + ^ .cfa: $rsp 32 +
STACK CFI a4f12 .cfa: $rsp 24 +
STACK CFI a4f14 .cfa: $rsp 16 +
STACK CFI a4f19 .cfa: $rsp 8 +
STACK CFI INIT a4f20 3b .cfa: $rsp 8 + .ra: .cfa -8 + ^
STACK CFI a4f29 $r13: .cfa -16 + ^ .cfa: $rsp 16 +
STACK CFI a4f2e $r12: .cfa -24 + ^ .cfa: $rsp 24 +
STACK CFI a4f32 $rbp: .cfa -32 + ^ .cfa: $rsp 32 +
STACK CFI a4f52 .cfa: $rsp 24 +
STACK CFI a4f54 .cfa: $rsp 16 +
STACK CFI a4f59 .cfa: $rsp 8 +
STACK CFI INIT a4f60 3b .cfa: $rsp 8 + .ra: .cfa -8 + ^
STACK CFI a4f69 $r13: .cfa -16 + ^ .cfa: $rsp 16 +
STACK CFI a4f6e $r12: .cfa -24 + ^ .cfa: $rsp 24 +
STACK CFI a4f72 $rbp: .cfa -32 + ^ .cfa: $rsp 32 +
STACK CFI a4f92 .cfa: $rsp 24 +
STACK CFI a4f94 .cfa: $rsp 16 +
STACK CFI a4f99 .cfa: $rsp 8 +
STACK CFI INIT a4fa0 3b .cfa: $rsp 8 + .ra: .cfa -8 + ^
STACK CFI a4fa9 $r13: .cfa -16 + ^ .cfa: $rsp 16 +
STACK CFI a4fae $r12: .cfa -24 + ^ .cfa: $rsp 24 +
STACK CFI a4fb2 $rbp: .cfa -32 + ^ .cfa: $rsp 32 +
STACK CFI a4fd2 .cfa: $rsp 24 +
STACK CFI a4fd4 .cfa: $rsp 16 +
STACK CFI a4fd9 .cfa: $rsp 8 +
STACK CFI INIT a4fe0 3b .cfa: $rsp 8 + .ra: .cfa -8 + ^
STACK CFI a4fe9 $r13: .cfa -16 + ^ .cfa: $rsp 16 +
STACK CFI a4fee $r12: .cfa -24 + ^ .cfa: $rsp 24 +
STACK CFI a4ff2 $rbp: .cfa -32 + ^ .cfa: $rsp 32 +
STACK CFI a5012 .cfa: $rsp 24 +
STACK CFI a5014 .cfa: $rsp 16 +
STACK CFI a5019 .cfa: $rsp 8 +
STACK CFI INIT a5020 3b .cfa: $rsp 8 + .ra: .cfa -8 + ^
STACK CFI a5029 $r13: .cfa -16 + ^ .cfa: $rsp 16 +
STACK CFI a502e $r12: .cfa -24 + ^ .cfa: $rsp 24 +
STACK CFI a5032 $rbp: .cfa -32 + ^ .cfa: $rsp 32 +
STACK CFI a5052 .cfa: $rsp 24 +
STACK CFI a5054 .cfa: $rsp 16 +
STACK CFI a5059 .cfa: $rsp 8 +
STACK CFI INIT a5060 3b .cfa: $rsp 8 + .ra: .cfa -8 + ^
STACK CFI a5069 $r13: .cfa -16 + ^ .cfa: $rsp 16 +
STACK CFI a506e $r12: .cfa -24 + ^ .cfa: $rsp 24 +
STACK CFI a5072 $rbp: .cfa -32 + ^ .cfa: $rsp 32 +
STACK CFI a5092 .cfa: $rsp 24 +
STACK CFI a5094 .cfa: $rsp 16 +
STACK CFI a5099 .cfa: $rsp 8 +
STACK CFI INIT a50a0 3b .cfa: $rsp 8 + .ra: .cfa -8 + ^
STACK CFI a50a9 $r13: .cfa -16 + ^ .cfa: $rsp 16 +
STACK CFI a50ae $r12: .cfa -24 + ^ .cfa: $rsp 24 +
STACK CFI a50b2 $rbp: .cfa -32 + ^ .cfa: $rsp 32 +
STACK CFI a50d2 .cfa: $rsp 24 +
STACK CFI a50d4 .cfa: $rsp 16 +
STACK CFI a50d9 .cfa: $rsp 8 +
STACK CFI INIT a50e0 3b .cfa: $rsp 8 + .ra: .cfa -8 + ^
STACK CFI a50e9 $r13: .cfa -16 + ^ .cfa: $rsp 16 +
STACK CFI a50ee $r12: .cfa -24 + ^ .cfa: $rsp 24 +
STACK CFI a50f2 $rbp: .cfa -32 + ^ .cfa: $rsp 32 +
STACK CFI a5112 .cfa: $rsp 24 +
STACK CFI a5114 .cfa: $rsp 16 +
STACK CFI a5119 .cfa: $rsp 8 +
STACK CFI INIT a5120 3b .cfa: $rsp 8 + .ra: .cfa -8 + ^
STACK CFI a5129 $r13: .cfa -16 + ^ .cfa: $rsp 16 +
STACK CFI a512e $r12: .cfa -24 + ^ .cfa: $rsp 24 +
STACK CFI a5132 $rbp: .cfa -32 + ^ .cfa: $rsp 32 +
STACK CFI a5152 .cfa: $rsp 24 +
STACK CFI a5154 .cfa: $rsp 16 +
STACK CFI a5159 .cfa: $rsp 8 +
STACK CFI INIT a5160 3b .cfa: $rsp 8 + .ra: .cfa -8 + ^
STACK CFI a5169 $r13: .cfa -16 + ^ .cfa: $rsp 16 +
STACK CFI a516e $r12: .cfa -24 + ^ .cfa: $rsp 24 +
STACK CFI a5172 $rbp: .cfa -32 + ^ .cfa: $rsp 32 +
STACK CFI a5192 .cfa: $rsp 24 +
STACK CFI a5194 .cfa: $rsp 16 +
STACK CFI a5199 .cfa: $rsp 8 +
STACK CFI INIT a51a0 3b .cfa: $rsp 8 + .ra: .cfa -8 + ^
STACK CFI a51a9 $r13: .cfa -16 + ^ .cfa: $rsp 16 +
STACK CFI a51ae $r12: .cfa -24 + ^ .cfa: $rsp 24 +
STACK CFI a51b2 $rbp: .cfa -32 + ^ .cfa: $rsp 32 +
STACK CFI a51d2 .cfa: $rsp 24 +
STACK CFI a51d4 .cfa: $rsp 16 +
STACK CFI a51d9 .cfa: $rsp 8 +
STACK CFI INIT a51e0 3b .cfa: $rsp 8 + .ra: .cfa -8 + ^
STACK CFI a51e9 $r13: .cfa -16 + ^ .cfa: $rsp 16 +
STACK CFI a51ee $r12: .cfa -24 + ^ .cfa: $rsp 24 +
STACK CFI a51f2 $rbp: .cfa -32 + ^ .cfa: $rsp 32 +
STACK CFI a5212 .cfa: $rsp 24 +
STACK CFI a5214 .cfa: $rsp 16 +
STACK CFI a5219 .cfa: $rsp 8 +
STACK CFI INIT a5220 3b .cfa: $rsp 8 + .ra: .cfa -8 + ^
STACK CFI a5229 $r13: .cfa -16 + ^ .cfa: $rsp 16 +
STACK CFI a522e $r12: .cfa -24 + ^ .cfa: $rsp 24 +
STACK CFI a5232 $rbp: .cfa -32 + ^ .cfa: $rsp 32 +
STACK CFI a5252 .cfa: $rsp 24 +
STACK CFI a5254 .cfa: $rsp 16 +
STACK CFI a5259 .cfa: $rsp 8 +
STACK CFI INIT a5260 3b .cfa: $rsp 8 + .ra: .cfa -8 + ^
STACK CFI a5269 $r13: .cfa -16 + ^ .cfa: $rsp 16 +
STACK CFI a526e $r12: .cfa -24 + ^ .cfa: $rsp 24 +
STACK CFI a5272 $rbp: .cfa -32 + ^ .cfa: $rsp 32 +
STACK CFI a5292 .cfa: $rsp 24 +
STACK CFI a5294 .cfa: $rsp 16 +
STACK CFI a5299 .cfa: $rsp 8 +
STACK CFI INIT a52a0 3b .cfa: $rsp 8 + .ra: .cfa -8 + ^
STACK CFI a52a9 $r13: .cfa -16 + ^ .cfa: $rsp 16 +
STACK CFI a52ae $r12: .cfa -24 + ^ .cfa: $rsp 24 +
STACK CFI a52b2 $rbp: .cfa -32 + ^ .cfa: $rsp 32 +
STACK CFI a52d2 .cfa: $rsp 24 +
STACK CFI a52d4 .cfa: $rsp 16 +
STACK CFI a52d9 .cfa: $rsp 8 +
STACK CFI INIT a52e0 3b .cfa: $rsp 8 + .ra: .cfa -8 + ^
STACK CFI a52e9 $r13: .cfa -16 + ^ .cfa: $rsp 16 +
STACK CFI a52ee $r12: .cfa -24 + ^ .cfa: $rsp 24 +
STACK CFI a52f2 $rbp: .cfa -32 + ^ .cfa: $rsp 32 +
STACK CFI a5312 .cfa: $rsp 24 +
STACK CFI a5314 .cfa: $rsp 16 +
STACK CFI a5319 .cfa: $rsp 8 +
STACK CFI INIT a5320 3b .cfa: $rsp 8 + .ra: .cfa -8 + ^
STACK CFI a5329 $r13: .cfa -16 + ^ .cfa: $rsp 16 +
STACK CFI a532e $r12: .cfa -24 + ^ .cfa: $rsp 24 +
STACK CFI a5332 $rbp: .cfa -32 + ^ .cfa: $rsp 32 +
STACK CFI a5352 .cfa: $rsp 24 +
STACK CFI a5354 .cfa: $rsp 16 +
STACK CFI a5359 .cfa: $rsp 8 +
STACK CFI INIT a5360 3b .cfa: $rsp 8 + .ra: .cfa -8 + ^
STACK CFI a5369 $r13: .cfa -16 + ^ .cfa: $rsp 16 +
STACK CFI a536e $r12: .cfa -24 + ^ .cfa: $rsp 24 +
STACK CFI a5372 $rbp: .cfa -32 + ^ .cfa: $rsp 32 +
STACK CFI a5392 .cfa: $rsp 24 +
STACK CFI a5394 .cfa: $rsp 16 +
STACK CFI a5399 .cfa: $rsp 8 +
STACK CFI INIT a53a0 3b .cfa: $rsp 8 + .ra: .cfa -8 + ^
STACK CFI a53a9 $r13: .cfa -16 + ^ .cfa: $rsp 16 +
STACK CFI a53ae $r12: .cfa -24 + ^ .cfa: $rsp 24 +
STACK CFI a53b2 $rbp: .cfa -32 + ^ .cfa: $rsp 32 +
STACK CFI a53d2 .cfa: $rsp 24 +
STACK CFI a53d4 .cfa: $rsp 16 +
STACK CFI a53d9 .cfa: $rsp 8 +
STACK CFI INIT a53e0 3b .cfa: $rsp 8 + .ra: .cfa -8 + ^
STACK CFI a53e9 $r13: .cfa -16 + ^ .cfa: $rsp 16 +
STACK CFI a53ee $r12: .cfa -24 + ^ .cfa: $rsp 24 +
STACK CFI a53f2 $rbp: .cfa -32 + ^ .cfa: $rsp 32 +
STACK CFI a5412 .cfa: $rsp 24 +
STACK CFI a5414 .cfa: $rsp 16 +
STACK CFI a5419 .cfa: $rsp 8 +
STACK CFI INIT a5420 3b .cfa: $rsp 8 + .ra: .cfa -8 + ^
STACK CFI a5429 $r13: .cfa -16 + ^ .cfa: $rsp 16 +
STACK CFI a542e $r12: .cfa -24 + ^ .cfa: $rsp 24 +
STACK CFI a5432 $rbp: .cfa -32 + ^ .cfa: $rsp 32 +
STACK CFI a5452 .cfa: $rsp 24 +
STACK CFI a5454 .cfa: $rsp 16 +
STACK CFI a5459 .cfa: $rsp 8 +
STACK CFI INIT a5460 3b .cfa: $rsp 8 + .ra: .cfa -8 + ^
STACK CFI a5469 $r13: .cfa -16 + ^ .cfa: $rsp 16 +
STACK CFI a546e $r12: .cfa -24 + ^ .cfa: $rsp 24 +
STACK CFI a5472 $rbp: .cfa -32 + ^ .cfa: $rsp 32 +
STACK CFI a5492 .cfa: $rsp 24 +
STACK CFI a5494 .cfa: $rsp 16 +
STACK CFI a5499 .cfa: $rsp 8 +
STACK CFI INIT a54a0 3b .cfa: $rsp 8 + .ra: .cfa -8 + ^
STACK CFI a54a9 $r13: .cfa -16 + ^ .cfa: $rsp 16 +
STACK CFI a54ae $r12: .cfa -24 + ^ .cfa: $rsp 24 +
STACK CFI a54b2 $rbp: .cfa -32 + ^ .cfa: $rsp 32 +
STACK CFI a54d2 .cfa: $rsp 24 +
STACK CFI a54d4 .cfa: $rsp 16 +
STACK CFI a54d9 .cfa: $rsp 8 +
STACK CFI INIT a54e0 3b .cfa: $rsp 8 + .ra: .cfa -8 + ^
STACK CFI a54e9 $r13: .cfa -16 + ^ .cfa: $rsp 16 +
STACK CFI a54ee $r12: .cfa -24 + ^ .cfa: $rsp 24 +
STACK CFI a54f2 $rbp: .cfa -32 + ^ .cfa: $rsp 32 +
STACK CFI a5512 .cfa: $rsp 24 +
STACK CFI a5514 .cfa: $rsp 16 +
STACK CFI a5519 .cfa: $rsp 8 +
STACK CFI INIT a5520 3b .cfa: $rsp 8 + .ra: .cfa -8 + ^
STACK CFI a5529 $r13: .cfa -16 + ^ .cfa: $rsp 16 +
STACK CFI a552e $r12: .cfa -24 + ^ .cfa: $rsp 24 +
STACK CFI a5532 $rbp: .cfa -32 + ^ .cfa: $rsp 32 +
STACK CFI a5552 .cfa: $rsp 24 +
STACK CFI a5554 .cfa: $rsp 16 +
STACK CFI a5559 .cfa: $rsp 8 +
STACK CFI INIT a5560 3b .cfa: $rsp 8 + .ra: .cfa -8 + ^
STACK CFI a5569 $r13: .cfa -16 + ^ .cfa: $rsp 16 +
STACK CFI a556e $r12: .cfa -24 + ^ .cfa: $rsp 24 +
STACK CFI a5572 $rbp: .cfa -32 + ^ .cfa: $rsp 32 +
STACK CFI a5592 .cfa: $rsp 24 +
STACK CFI a5594 .cfa: $rsp 16 +
STACK CFI a5599 .cfa: $rsp 8 +
STACK CFI INIT a55a0 3b .cfa: $rsp 8 + .ra: .cfa -8 + ^
STACK CFI a55a9 $r13: .cfa -16 + ^ .cfa: $rsp 16 +
STACK CFI a55ae $r12: .cfa -24 + ^ .cfa: $rsp 24 +
STACK CFI a55b2 $rbp: .cfa -32 + ^ .cfa: $rsp 32 +
STACK CFI a55d2 .cfa: $rsp 24 +
STACK CFI a55d4 .cfa: $rsp 16 +
STACK CFI a55d9 .cfa: $rsp 8 +
STACK CFI INIT a55e0 3b .cfa: $rsp 8 + .ra: .cfa -8 + ^
STACK CFI a55e9 $r13: .cfa -16 + ^ .cfa: $rsp 16 +
STACK CFI a55ee $r12: .cfa -24 + ^ .cfa: $rsp 24 +
STACK CFI a55f2 $rbp: .cfa -32 + ^ .cfa: $rsp 32 +
STACK CFI a5612 .cfa: $rsp 24 +
STACK CFI a5614 .cfa: $rsp 16 +
STACK CFI a5619 .cfa: $rsp 8 +
STACK CFI INIT a5620 3b .cfa: $rsp 8 + .ra: .cfa -8 + ^
STACK CFI a5629 $r13: .cfa -16 + ^ .cfa: $rsp 16 +
STACK CFI a562e $r12: .cfa -24 + ^ .cfa: $rsp 24 +
STACK CFI a5632 $rbp: .cfa -32 + ^ .cfa: $rsp 32 +
STACK CFI a5652 .cfa: $rsp 24 +
STACK CFI a5654 .cfa: $rsp 16 +
STACK CFI a5659 .cfa: $rsp 8 +
STACK CFI INIT a5660 4d .cfa: $rsp 8 + .ra: .cfa -8 + ^
STACK CFI a5662 $r14: .cfa -16 + ^ .cfa: $rsp 16 +
STACK CFI a5667 $r13: .cfa -24 + ^ .cfa: $rsp 24 +
STACK CFI a566c $r12: .cfa -32 + ^ .cfa: $rsp 32 +
STACK CFI a5670 $rbp: .cfa -40 + ^ .cfa: $rsp 40 +
STACK CFI a5677 .cfa: $rsp 48 +
STACK CFI a56a4 .cfa: $rsp 40 +
STACK CFI a56a5 .cfa: $rsp 32 +
STACK CFI a56a7 .cfa: $rsp 24 +
STACK CFI a56a9 .cfa: $rsp 16 +
STACK CFI a56ab .cfa: $rsp 8 +
STACK CFI INIT a56b0 4d .cfa: $rsp 8 + .ra: .cfa -8 + ^
STACK CFI a56b2 $r14: .cfa -16 + ^ .cfa: $rsp 16 +
STACK CFI a56b7 $r13: .cfa -24 + ^ .cfa: $rsp 24 +
STACK CFI a56bc $r12: .cfa -32 + ^ .cfa: $rsp 32 +
STACK CFI a56c0 $rbp: .cfa -40 + ^ .cfa: $rsp 40 +
STACK CFI a56c7 .cfa: $rsp 48 +
STACK CFI a56f4 .cfa: $rsp 40 +
STACK CFI a56f5 .cfa: $rsp 32 +
STACK CFI a56f7 .cfa: $rsp 24 +
STACK CFI a56f9 .cfa: $rsp 16 +
STACK CFI a56fb .cfa: $rsp 8 +
STACK CFI INIT a5700 4d .cfa: $rsp 8 + .ra: .cfa -8 + ^
STACK CFI a5702 $r14: .cfa -16 + ^ .cfa: $rsp 16 +
STACK CFI a5707 $r13: .cfa -24 + ^ .cfa: $rsp 24 +
STACK CFI a570c $r12: .cfa -32 + ^ .cfa: $rsp 32 +
STACK CFI a5710 $rbp: .cfa -40 + ^ .cfa: $rsp 40 +
STACK CFI a5717 .cfa: $rsp 48 +
STACK CFI a5744 .cfa: $rsp 40 +
STACK CFI a5745 .cfa: $rsp 32 +
STACK CFI a5747 .cfa: $rsp 24 +
STACK CFI a5749 .cfa: $rsp 16 +
STACK CFI a574b .cfa: $rsp 8 +
STACK CFI INIT a5750 4d .cfa: $rsp 8 + .ra: .cfa -8 + ^
STACK CFI a5752 $r14: .cfa -16 + ^ .cfa: $rsp 16 +
STACK CFI a5757 $r13: .cfa -24 + ^ .cfa: $rsp 24 +
STACK CFI a575c $r12: .cfa -32 + ^ .cfa: $rsp 32 +
STACK CFI a5760 $rbp: .cfa -40 + ^ .cfa: $rsp 40 +
STACK CFI a5767 .cfa: $rsp 48 +
STACK CFI a5794 .cfa: $rsp 40 +
STACK CFI a5795 .cfa: $rsp 32 +
STACK CFI a5797 .cfa: $rsp 24 +
STACK CFI a5799 .cfa: $rsp 16 +
STACK CFI a579b .cfa: $rsp 8 +
STACK CFI INIT a57a0 4d .cfa: $rsp 8 + .ra: .cfa -8 + ^
STACK CFI a57a2 $r14: .cfa -16 + ^ .cfa: $rsp 16 +
STACK CFI a57a7 $r13: .cfa -24 + ^ .cfa: $rsp 24 +
STACK CFI a57ac $r12: .cfa -32 + ^ .cfa: $rsp 32 +
STACK CFI a57b0 $rbp: .cfa -40 + ^ .cfa: $rsp 40 +
STACK CFI a57b7 .cfa: $rsp 48 +
STACK CFI a57e4 .cfa: $rsp 40 +
STACK CFI a57e5 .cfa: $rsp 32 +
STACK CFI a57e7 .cfa: $rsp 24 +
STACK CFI a57e9 .cfa: $rsp 16 +
STACK CFI a57eb .cfa: $rsp 8 +
STACK CFI INIT a57f0 63 .cfa: $rsp 8 + .ra: .cfa -8 + ^
STACK CFI a5804 .cfa: $rsp 16 +
STACK CFI a5823 .cfa: $rsp 8 +
STACK CFI a5828 .cfa: $rsp 16 +
STACK CFI INIT a5860 4 .cfa: $rsp 8 + .ra: .cfa -8 + ^
STACK CFI INIT a5870 26 .cfa: $rsp 8 + .ra: .cfa -8 + ^
STACK CFI a5871 $rbp: .cfa -16 + ^ .cfa: $rsp 16 +
STACK CFI a5895 .cfa: $rsp 8 +
STACK CFI INIT a58a0 8c .cfa: $rsp 8 + .ra: .cfa -8 + ^
STACK CFI a58a2 $r13: .cfa -16 + ^ .cfa: $rsp 16 +
STACK CFI a58a4 $r12: .cfa -24 + ^ .cfa: $rsp 24 +
STACK CFI a58a8 $rbp: .cfa -32 + ^ .cfa: $rsp 32 +
STACK CFI a58ac $rbx: .cfa -40 + ^ .cfa: $rsp 40 +
STACK CFI a58b3 .cfa: $rsp 48 +
STACK CFI a5922 .cfa: $rsp 40 +
STACK CFI a5926 .cfa: $rsp 32 +
STACK CFI a5927 .cfa: $rsp 24 +
STACK CFI a5929 .cfa: $rsp 16 +
STACK CFI a592b .cfa: $rsp 8 +
STACK CFI INIT a5930 e9 .cfa: $rsp 8 + .ra: .cfa -8 + ^
STACK CFI a5932 $r13: .cfa -16 + ^ .cfa: $rsp 16 +
STACK CFI a5937 $r12: .cfa -24 + ^ .cfa: $rsp 24 +
STACK CFI a593b $rbp: .cfa -32 + ^ .cfa: $rsp 32 +
STACK CFI a593f $rbx: .cfa -40 + ^ .cfa: $rsp 40 +
STACK CFI a5946 .cfa: $rsp 48 +
STACK CFI a5968 .cfa: $rsp 40 +
STACK CFI a5969 .cfa: $rsp 32 +
STACK CFI a596a .cfa: $rsp 24 +
STACK CFI a596c .cfa: $rsp 16 +
STACK CFI a596e .cfa: $rsp 8 +
STACK CFI a5970 .cfa: $rsp 48 +
STACK CFI a59fd .cfa: $rsp 40 +
STACK CFI a5a01 .cfa: $rsp 32 +
STACK CFI a5a02 .cfa: $rsp 24 +
STACK CFI a5a04 .cfa: $rsp 16 +
STACK CFI a5a06 .cfa: $rsp 8 +
STACK CFI a5a10 .cfa: $rsp 48 +
STACK CFI INIT a5a20 9b .cfa: $rsp 8 + .ra: .cfa -8 + ^
STACK CFI a5a22 $r13: .cfa -16 + ^ .cfa: $rsp 16 +
STACK CFI a5a27 $r12: .cfa -24 + ^ .cfa: $rsp 24 +
STACK CFI a5a2b $rbp: .cfa -32 + ^ .cfa: $rsp 32 +
STACK CFI a5a2f $rbx: .cfa -40 + ^ .cfa: $rsp 40 +
STACK CFI a5a36 .cfa: $rsp 48 +
STACK CFI a5a63 .cfa: $rsp 40 +
STACK CFI a5a66 .cfa: $rsp 32 +
STACK CFI a5a67 .cfa: $rsp 24 +
STACK CFI a5a69 .cfa: $rsp 16 +
STACK CFI a5a6b .cfa: $rsp 8 +
STACK CFI a5a70 .cfa: $rsp 48 +
STACK CFI a5aaf .cfa: $rsp 40 +
STACK CFI a5ab5 .cfa: $rsp 32 +
STACK CFI a5ab6 .cfa: $rsp 24 +
STACK CFI a5ab8 .cfa: $rsp 16 +
STACK CFI a5aba .cfa: $rsp 8 +
STACK CFI INIT a5ac0 92 .cfa: $rsp 8 + .ra: .cfa -8 + ^
STACK CFI a5ac2 $r12: .cfa -16 + ^ .cfa: $rsp 16 +
STACK CFI a5ac6 $rbp: .cfa -24 + ^ .cfa: $rsp 24 +
STACK CFI a5aca $rbx: .cfa -32 + ^ .cfa: $rsp 32 +
STACK CFI a5af6 .cfa: $rsp 24 +
STACK CFI a5af9 .cfa: $rsp 16 +
STACK CFI a5afb .cfa: $rsp 8 +
STACK CFI a5b00 .cfa: $rsp 32 +
STACK CFI a5b45 .cfa: $rsp 24 +
STACK CFI a5b4f .cfa: $rsp 16 +
STACK CFI a5b51 .cfa: $rsp 8 +
STACK CFI INIT a5b60 92 .cfa: $rsp 8 + .ra: .cfa -8 + ^
STACK CFI a5b62 $r12: .cfa -16 + ^ .cfa: $rsp 16 +
STACK CFI a5b66 $rbp: .cfa -24 + ^ .cfa: $rsp 24 +
STACK CFI a5b6a $rbx: .cfa -32 + ^ .cfa: $rsp 32 +
STACK CFI a5b96 .cfa: $rsp 24 +
STACK CFI a5b99 .cfa: $rsp 16 +
STACK CFI a5b9b .cfa: $rsp 8 +
STACK CFI a5ba0 .cfa: $rsp 32 +
STACK CFI a5be5 .cfa: $rsp 24 +
STACK CFI a5bef .cfa: $rsp 16 +
STACK CFI a5bf1 .cfa: $rsp 8 +
STACK CFI INIT a5c00 b5 .cfa: $rsp 8 + .ra: .cfa -8 + ^
STACK CFI a5c02 $r12: .cfa -16 + ^ .cfa: $rsp 16 +
STACK CFI a5c06 $rbp: .cfa -24 + ^ .cfa: $rsp 24 +
STACK CFI a5c0a $rbx: .cfa -32 + ^ .cfa: $rsp 32 +
STACK CFI a5c38 .cfa: $rsp 24 +
STACK CFI a5c39 .cfa: $rsp 16 +
STACK CFI a5c3b .cfa: $rsp 8 +
