MODULE Linux x86_64 7FD85B95D7A18ECAE3EB2E066340A0D90 libStrapDUA.so
INFO CODE_ID 955BD87FA1D7CA8EE3EB2E066340A0D90E923508
PUBLIC 4b000 0 _init
PUBLIC 51900 0 deregister_tm_clones
PUBLIC 51930 0 register_tm_clones
PUBLIC 51970 0 __do_global_dtors_aux
PUBLIC 519b0 0 frame_dummy
PUBLIC 519b5 0 vpi_db_access
PUBLIC 519bb 0 Strap_InitCustom
PUBLIC 51a81 0 cb1525
PUBLIC 51aab 0 cb1524
PUBLIC 51ad5 0 cb1523
PUBLIC 51aff 0 cb1522
PUBLIC 51b29 0 cb1521
PUBLIC 51b53 0 cb1520
PUBLIC 51b7d 0 cb1519
PUBLIC 51ba7 0 cb1518
PUBLIC 51bd1 0 cb1517
PUBLIC 51bfb 0 cb1516
PUBLIC 51c25 0 cb1515
PUBLIC 51c4f 0 cb1514
PUBLIC 51c79 0 cb1513
PUBLIC 51ca3 0 cb1512
PUBLIC 51ccd 0 cb1511
PUBLIC 51cf7 0 cb1510
PUBLIC 51d21 0 cb1509
PUBLIC 51d4b 0 cb1508
PUBLIC 51d75 0 cb1507
PUBLIC 51d9f 0 cb1506
PUBLIC 51dc9 0 cb1505
PUBLIC 51df3 0 cb1504
PUBLIC 51e1d 0 cb1503
PUBLIC 51e47 0 cb1502
PUBLIC 51e71 0 cb1501
PUBLIC 51e9b 0 cb1500
PUBLIC 51ec5 0 cb1499
PUBLIC 51eef 0 cb1498
PUBLIC 51f19 0 cb1497
PUBLIC 51f43 0 cb1496
PUBLIC 51f6d 0 cb1495
PUBLIC 51f97 0 cb1494
PUBLIC 51fc1 0 cb1493
PUBLIC 51feb 0 cb1492
PUBLIC 52015 0 cb1491
PUBLIC 5203f 0 cb1490
PUBLIC 52069 0 cb1489
PUBLIC 52093 0 cb1488
PUBLIC 520bd 0 cb1487
PUBLIC 520e7 0 cb1486
PUBLIC 52111 0 cb1485
PUBLIC 5213b 0 cb1484
PUBLIC 52165 0 cb1483
PUBLIC 5218f 0 cb1482
PUBLIC 521b9 0 cb1481
PUBLIC 521e3 0 cb1480
PUBLIC 5220d 0 cb1479
PUBLIC 52237 0 cb1478
PUBLIC 52261 0 cb1477
PUBLIC 5227b 0 cb1476
PUBLIC 522bc 0 cb1475
PUBLIC 522fd 0 cb1474
PUBLIC 5233e 0 cb1473
PUBLIC 5237f 0 cb1472
PUBLIC 523c0 0 cb1471
PUBLIC 52401 0 cb1470
PUBLIC 52442 0 cb1469
PUBLIC 52483 0 cb1468
PUBLIC 524c4 0 cb1467
PUBLIC 52505 0 cb1466
PUBLIC 52546 0 cb1465
PUBLIC 52587 0 cb1464
PUBLIC 525c8 0 cb1463
PUBLIC 52609 0 cb1462
PUBLIC 5264a 0 cb1461
PUBLIC 5268b 0 cb1460
PUBLIC 526cc 0 cb1459
PUBLIC 5270d 0 cb1458
PUBLIC 5274e 0 cb1457
PUBLIC 5278f 0 cb1456
PUBLIC 527d0 0 cb1455
PUBLIC 52811 0 cb1454
PUBLIC 52852 0 cb1453
PUBLIC 52893 0 cb1452
PUBLIC 528d4 0 cb1451
PUBLIC 52915 0 cb1450
PUBLIC 52956 0 cb1449
PUBLIC 52997 0 cb1448
PUBLIC 529d8 0 cb1447
PUBLIC 52a19 0 cb1446
PUBLIC 52a5a 0 cb1445
PUBLIC 52a9b 0 cb1444
PUBLIC 52adc 0 cb1443
PUBLIC 52b1d 0 cb1442
PUBLIC 52b5e 0 cb1441
PUBLIC 52b9f 0 cb1440
PUBLIC 52be0 0 cb1439
PUBLIC 52c21 0 cb1438
PUBLIC 52c62 0 cb1437
PUBLIC 52ca3 0 cb1436
PUBLIC 52ce4 0 cb1435
PUBLIC 52d25 0 cb1434
PUBLIC 52d66 0 cb1433
PUBLIC 52da7 0 cb1432
PUBLIC 52de8 0 cb1431
PUBLIC 52e29 0 cb1430
PUBLIC 52e6a 0 cb1429
PUBLIC 52eab 0 cb1428
PUBLIC 52eec 0 cb1427
PUBLIC 52f2d 0 cb1426
PUBLIC 52f6e 0 cb1425
PUBLIC 52faf 0 cb1424
PUBLIC 52ff0 0 cb1423
PUBLIC 53031 0 cb1422
PUBLIC 53072 0 cb1421
PUBLIC 530b3 0 cb1420
PUBLIC 530f4 0 cb1419
PUBLIC 53135 0 cb1418
PUBLIC 53176 0 cb1417
PUBLIC 531b7 0 cb1416
PUBLIC 531f8 0 cb1415
PUBLIC 53239 0 cb1414
PUBLIC 5327a 0 cb1413
PUBLIC 532bb 0 cb1412
PUBLIC 532fc 0 cb1411
PUBLIC 5333d 0 cb1410
PUBLIC 5337e 0 cb1409
PUBLIC 533bf 0 cb1408
PUBLIC 53400 0 cb1407
PUBLIC 53441 0 cb1406
PUBLIC 53482 0 cb1405
PUBLIC 534c3 0 cb1404
PUBLIC 53504 0 cb1403
PUBLIC 53545 0 cb1402
PUBLIC 53586 0 cb1401
PUBLIC 535c7 0 cb1400
PUBLIC 53608 0 cb1399
PUBLIC 53649 0 cb1398
PUBLIC 5368a 0 cb1397
PUBLIC 536cb 0 cb1396
PUBLIC 5370c 0 cb1395
PUBLIC 5374d 0 cb1394
PUBLIC 5378e 0 cb1393
PUBLIC 537cf 0 cb1392
PUBLIC 53810 0 cb1391
PUBLIC 53851 0 cb1390
PUBLIC 53892 0 cb1389
PUBLIC 538d3 0 cb1388
PUBLIC 53914 0 cb1387
PUBLIC 53955 0 cb1386
PUBLIC 53996 0 cb1385
PUBLIC 539d7 0 cb1384
PUBLIC 53a18 0 cb1383
PUBLIC 53a59 0 cb1382
PUBLIC 53a9a 0 cb1381
PUBLIC 53adb 0 cb1380
PUBLIC 53b1c 0 cb1379
PUBLIC 53b5d 0 cb1378
PUBLIC 53b9e 0 cb1377
PUBLIC 53bdf 0 cb1376
PUBLIC 53c20 0 cb1375
PUBLIC 53c61 0 cb1374
PUBLIC 53ca2 0 cb1373
PUBLIC 53ce3 0 cb1372
PUBLIC 53d24 0 cb1371
PUBLIC 53d65 0 cb1370
PUBLIC 53da6 0 cb1369
PUBLIC 53de7 0 cb1368
PUBLIC 53e28 0 cb1367
PUBLIC 53e69 0 cb1366
PUBLIC 53eaa 0 cb1365
PUBLIC 53eeb 0 cb1364
PUBLIC 53f2c 0 cb1363
PUBLIC 53f6d 0 cb1362
PUBLIC 53fae 0 cb1361
PUBLIC 53fef 0 cb1360
PUBLIC 54030 0 cb1359
PUBLIC 54071 0 cb1358
PUBLIC 540b2 0 cb1357
PUBLIC 540f3 0 cb1356
PUBLIC 54134 0 cb1355
PUBLIC 54175 0 cb1354
PUBLIC 541b6 0 cb1353
PUBLIC 541f7 0 cb1352
PUBLIC 54238 0 cb1351
PUBLIC 54279 0 cb1350
PUBLIC 542ba 0 cb1349
PUBLIC 542fb 0 cb1348
PUBLIC 5433c 0 cb1347
PUBLIC 5437d 0 cb1346
PUBLIC 543be 0 cb1345
PUBLIC 543ff 0 cb1344
PUBLIC 54440 0 cb1343
PUBLIC 54481 0 cb1342
PUBLIC 544c2 0 cb1341
PUBLIC 54503 0 cb1340
PUBLIC 54544 0 cb1339
PUBLIC 54585 0 cb1338
PUBLIC 545c6 0 cb1337
PUBLIC 54607 0 cb1336
PUBLIC 54648 0 cb1335
PUBLIC 54689 0 cb1334
PUBLIC 546ca 0 cb1333
PUBLIC 5470b 0 cb1332
PUBLIC 5474c 0 cb1331
PUBLIC 5478d 0 cb1330
PUBLIC 547ce 0 cb1329
PUBLIC 5480f 0 cb1328
PUBLIC 54850 0 cb1327
PUBLIC 54891 0 cb1326
PUBLIC 548d2 0 cb1325
PUBLIC 54913 0 cb1324
PUBLIC 54954 0 cb1323
PUBLIC 54995 0 cb1322
PUBLIC 549d6 0 cb1321
PUBLIC 54a17 0 cb1320
PUBLIC 54a58 0 cb1319
PUBLIC 54a99 0 cb1318
PUBLIC 54ada 0 cb1317
PUBLIC 54b1b 0 cb1316
PUBLIC 54b5c 0 cb1315
PUBLIC 54b9d 0 cb1314
PUBLIC 54bde 0 cb1313
PUBLIC 54c1f 0 cb1312
PUBLIC 54c60 0 cb1311
PUBLIC 54ca1 0 cb1310
PUBLIC 54ce2 0 cb1309
PUBLIC 54d23 0 cb1308
PUBLIC 54d64 0 cb1307
PUBLIC 54da5 0 cb1306
PUBLIC 54de6 0 cb1305
PUBLIC 54e27 0 cb1304
PUBLIC 54e68 0 cb1303
PUBLIC 54ea9 0 cb1302
PUBLIC 54eea 0 cb1301
PUBLIC 54f2b 0 cb1300
PUBLIC 54f6c 0 cb1299
PUBLIC 54fad 0 cb1298
PUBLIC 54fee 0 cb1297
PUBLIC 5502f 0 cb1296
PUBLIC 55070 0 cb1295
PUBLIC 550b1 0 cb1294
PUBLIC 550f2 0 cb1293
PUBLIC 55133 0 cb1292
PUBLIC 55174 0 cb1291
PUBLIC 551b5 0 cb1290
PUBLIC 551f6 0 cb1289
PUBLIC 55237 0 cb1288
PUBLIC 55278 0 cb1287
PUBLIC 552b9 0 cb1286
PUBLIC 552fa 0 cb1285
PUBLIC 5533b 0 cb1284
PUBLIC 5537c 0 cb1283
PUBLIC 553bd 0 cb1282
PUBLIC 553fe 0 cb1281
PUBLIC 5543f 0 cb1280
PUBLIC 55480 0 cb1279
PUBLIC 554c1 0 cb1278
PUBLIC 55502 0 cb1277
PUBLIC 55543 0 cb1276
PUBLIC 55584 0 cb1275
PUBLIC 555c5 0 cb1274
PUBLIC 55606 0 cb1273
PUBLIC 55647 0 cb1272
PUBLIC 55688 0 cb1271
PUBLIC 556c9 0 cb1270
PUBLIC 5570a 0 cb1269
PUBLIC 5574b 0 cb1268
PUBLIC 55784 0 cb1267
PUBLIC 557bd 0 cb1266
PUBLIC 557f6 0 cb1265
PUBLIC 5582f 0 cb1264
PUBLIC 55868 0 cb1263
PUBLIC 558a1 0 cb1262
PUBLIC 558da 0 cb1261
PUBLIC 55913 0 cb1260
PUBLIC 5594c 0 cb1259
PUBLIC 55985 0 cb1258
PUBLIC 559be 0 cb1257
PUBLIC 559f7 0 cb1256
PUBLIC 55a30 0 cb1255
PUBLIC 55a69 0 cb1254
PUBLIC 55aa2 0 cb1253
PUBLIC 55adb 0 cb1252
PUBLIC 55b14 0 cb1251
PUBLIC 55b4d 0 cb1250
PUBLIC 55b86 0 cb1249
PUBLIC 55bbf 0 cb1248
PUBLIC 55bf8 0 cb1247
PUBLIC 55c31 0 cb1246
PUBLIC 55c6a 0 cb1245
PUBLIC 55ca3 0 cb1244
PUBLIC 55cdc 0 cb1243
PUBLIC 55d15 0 cb1242
PUBLIC 55d4e 0 cb1241
PUBLIC 55d87 0 cb1240
PUBLIC 55dc0 0 cb1239
PUBLIC 55df9 0 cb1238
PUBLIC 55e32 0 cb1237
PUBLIC 55e6b 0 cb1236
PUBLIC 55ea4 0 cb1235
PUBLIC 55edd 0 cb1234
PUBLIC 55f16 0 cb1233
PUBLIC 55f4f 0 cb1232
PUBLIC 55f88 0 cb1231
PUBLIC 55fc1 0 cb1230
PUBLIC 55ffa 0 cb1229
PUBLIC 56033 0 cb1228
PUBLIC 5606c 0 cb1227
PUBLIC 560a5 0 cb1226
PUBLIC 560de 0 cb1225
PUBLIC 56117 0 cb1224
PUBLIC 56150 0 cb1223
PUBLIC 56189 0 cb1222
PUBLIC 561c2 0 cb1221
PUBLIC 561fb 0 cb1220
PUBLIC 56234 0 cb1219
PUBLIC 5626d 0 cb1218
PUBLIC 562a6 0 cb1217
PUBLIC 562df 0 cb1216
PUBLIC 56318 0 cb1215
PUBLIC 56351 0 cb1214
PUBLIC 5638a 0 cb1213
PUBLIC 563c3 0 cb1212
PUBLIC 563fc 0 cb1211
PUBLIC 56435 0 cb1210
PUBLIC 5646e 0 cb1209
PUBLIC 564a7 0 cb1208
PUBLIC 564e0 0 cb1207
PUBLIC 56519 0 cb1206
PUBLIC 56552 0 cb1205
PUBLIC 5658b 0 cb1204
PUBLIC 565c4 0 cb1203
PUBLIC 565fd 0 cb1202
PUBLIC 56636 0 cb1201
PUBLIC 5666f 0 cb1200
PUBLIC 566a8 0 cb1199
PUBLIC 566e1 0 cb1198
PUBLIC 5671a 0 cb1197
PUBLIC 56753 0 cb1196
PUBLIC 5678c 0 cb1195
PUBLIC 567c5 0 cb1194
PUBLIC 567fe 0 cb1193
PUBLIC 56837 0 cb1192
PUBLIC 56870 0 cb1191
PUBLIC 568a9 0 cb1190
PUBLIC 568e2 0 cb1189
PUBLIC 5691b 0 cb1188
PUBLIC 56954 0 cb1187
PUBLIC 5698d 0 cb1186
PUBLIC 569c6 0 cb1185
PUBLIC 569ff 0 cb1184
PUBLIC 56a38 0 cb1183
PUBLIC 56a71 0 cb1182
PUBLIC 56aaa 0 cb1181
PUBLIC 56ae3 0 cb1180
PUBLIC 56b1c 0 cb1179
PUBLIC 56b55 0 cb1178
PUBLIC 56b8e 0 cb1177
PUBLIC 56bc7 0 cb1176
PUBLIC 56c00 0 cb1175
PUBLIC 56c39 0 cb1174
PUBLIC 56c72 0 cb1173
PUBLIC 56cab 0 cb1172
PUBLIC 56ce4 0 cb1171
PUBLIC 56d1d 0 cb1170
PUBLIC 56d56 0 cb1169
PUBLIC 56d8f 0 cb1168
PUBLIC 56dc8 0 cb1167
PUBLIC 56e01 0 cb1166
PUBLIC 56e3a 0 cb1165
PUBLIC 56e73 0 cb1164
PUBLIC 56eac 0 cb1163
PUBLIC 56ee5 0 cb1162
PUBLIC 56f1e 0 cb1161
PUBLIC 56f57 0 cb1160
PUBLIC 56f90 0 cb1159
PUBLIC 56fc9 0 cb1158
PUBLIC 57002 0 cb1157
PUBLIC 5703b 0 cb1156
PUBLIC 57074 0 cb1155
PUBLIC 570ad 0 cb1154
PUBLIC 570e6 0 cb1153
PUBLIC 5711f 0 cb1152
PUBLIC 57158 0 cb1151
PUBLIC 57191 0 cb1150
PUBLIC 571ca 0 cb1149
PUBLIC 57203 0 cb1148
PUBLIC 5723c 0 cb1147
PUBLIC 57275 0 cb1146
PUBLIC 572ae 0 cb1145
PUBLIC 572e7 0 cb1144
PUBLIC 57320 0 cb1143
PUBLIC 57359 0 cb1142
PUBLIC 57392 0 cb1141
PUBLIC 573cb 0 cb1140
PUBLIC 57404 0 cb1139
PUBLIC 5743d 0 cb1138
PUBLIC 57476 0 cb1137
PUBLIC 574af 0 cb1136
PUBLIC 574e8 0 cb1135
PUBLIC 57521 0 cb1134
PUBLIC 5755a 0 cb1133
PUBLIC 57593 0 cb1132
PUBLIC 575cc 0 cb1131
PUBLIC 57605 0 cb1130
PUBLIC 5763e 0 cb1129
PUBLIC 57677 0 cb1128
PUBLIC 576b0 0 cb1127
PUBLIC 576e9 0 cb1126
PUBLIC 57722 0 cb1125
PUBLIC 5775b 0 cb1124
PUBLIC 57794 0 cb1123
PUBLIC 577cd 0 cb1122
PUBLIC 57806 0 cb1121
PUBLIC 5783f 0 cb1120
PUBLIC 57878 0 cb1119
PUBLIC 578b1 0 cb1118
PUBLIC 578ea 0 cb1117
PUBLIC 57923 0 cb1116
PUBLIC 5795c 0 cb1115
PUBLIC 57995 0 cb1114
PUBLIC 579ce 0 cb1113
PUBLIC 57a07 0 cb1112
PUBLIC 57a40 0 cb1111
PUBLIC 57a79 0 cb1110
PUBLIC 57ab2 0 cb1109
PUBLIC 57aeb 0 cb1108
PUBLIC 57b24 0 cb1107
PUBLIC 57b5d 0 cb1106
PUBLIC 57b96 0 cb1105
PUBLIC 57bcf 0 cb1104
PUBLIC 57c08 0 cb1103
PUBLIC 57c41 0 cb1102
PUBLIC 57c7a 0 cb1101
PUBLIC 57cb3 0 cb1100
PUBLIC 57cec 0 cb1099
PUBLIC 57d25 0 cb1098
PUBLIC 57d5e 0 cb1097
PUBLIC 57d97 0 cb1096
PUBLIC 57dd0 0 cb1095
PUBLIC 57e09 0 cb1094
PUBLIC 57e42 0 cb1093
PUBLIC 57e7b 0 cb1092
PUBLIC 57eb4 0 cb1091
PUBLIC 57eed 0 cb1090
PUBLIC 57f26 0 cb1089
PUBLIC 57f5f 0 cb1088
PUBLIC 57f98 0 cb1087
PUBLIC 57fd1 0 cb1086
PUBLIC 5800a 0 cb1085
PUBLIC 58043 0 cb1084
PUBLIC 5807c 0 cb1083
PUBLIC 580b5 0 cb1082
PUBLIC 580ee 0 cb1081
PUBLIC 58127 0 cb1080
PUBLIC 58160 0 cb1079
PUBLIC 58199 0 cb1078
PUBLIC 581d2 0 cb1077
PUBLIC 5820b 0 cb1076
PUBLIC 58244 0 cb1075
PUBLIC 5827d 0 cb1074
PUBLIC 582b6 0 cb1073
PUBLIC 582ef 0 cb1072
PUBLIC 58328 0 cb1071
PUBLIC 58361 0 cb1070
PUBLIC 5839a 0 cb1069
PUBLIC 583d3 0 cb1068
PUBLIC 5840c 0 cb1067
PUBLIC 58445 0 cb1066
PUBLIC 5847e 0 cb1065
PUBLIC 584b7 0 cb1064
PUBLIC 584f0 0 cb1063
PUBLIC 58529 0 cb1062
PUBLIC 58562 0 cb1061
PUBLIC 5859b 0 cb1060
PUBLIC 585d4 0 cb1059
PUBLIC 5860d 0 cb1058
PUBLIC 58646 0 cb1057
PUBLIC 5867f 0 cb1056
PUBLIC 586b8 0 cb1055
PUBLIC 586f1 0 cb1054
PUBLIC 5872a 0 cb1053
PUBLIC 58763 0 cb1052
PUBLIC 5879c 0 cb1051
PUBLIC 587d5 0 cb1050
PUBLIC 5880e 0 cb1049
PUBLIC 58847 0 cb1048
PUBLIC 58880 0 cb1047
PUBLIC 588b9 0 cb1046
PUBLIC 588f2 0 cb1045
PUBLIC 5892b 0 cb1044
PUBLIC 58964 0 cb1043
PUBLIC 5899d 0 cb1042
PUBLIC 589d6 0 cb1041
PUBLIC 58a0f 0 cb1040
PUBLIC 58a48 0 cb1039
PUBLIC 58a81 0 cb1038
PUBLIC 58aba 0 cb1037
PUBLIC 58af3 0 cb1036
PUBLIC 58b2c 0 cb1035
PUBLIC 58b65 0 cb1034
PUBLIC 58b9e 0 cb1033
PUBLIC 58bd7 0 cb1032
PUBLIC 58c10 0 cb1031
PUBLIC 58c49 0 cb1030
PUBLIC 58c82 0 cb1029
PUBLIC 58cbb 0 cb1028
PUBLIC 58cf4 0 cb1027
PUBLIC 58d2d 0 cb1026
PUBLIC 58d66 0 cb1025
PUBLIC 58d9f 0 cb1024
PUBLIC 58dd8 0 cb1023
PUBLIC 58e11 0 cb1022
PUBLIC 58e4a 0 cb1021
PUBLIC 58e83 0 cb1020
PUBLIC 58ebc 0 cb1019
PUBLIC 58ef5 0 cb1018
PUBLIC 58f2e 0 cb1017
PUBLIC 58f67 0 cb1016
PUBLIC 58fa0 0 cb1015
PUBLIC 58fd9 0 cb1014
PUBLIC 59012 0 cb1013
PUBLIC 5904b 0 cb1012
PUBLIC 59084 0 cb1011
PUBLIC 590bd 0 cb1010
PUBLIC 590f6 0 cb1009
PUBLIC 5912f 0 cb1008
PUBLIC 59168 0 cb1007
PUBLIC 591a1 0 cb1006
PUBLIC 591da 0 cb1005
PUBLIC 59213 0 cb1004
PUBLIC 5924c 0 cb1003
PUBLIC 59285 0 cb1002
PUBLIC 592be 0 cb1001
PUBLIC 592f7 0 cb1000
PUBLIC 59330 0 cb1705
PUBLIC 5934a 0 cb1704
PUBLIC 5936a 0 cb1703
PUBLIC 5938a 0 cb1702
PUBLIC 593aa 0 cb1701
PUBLIC 593ca 0 cb1700
PUBLIC 593e8 0 cb1699
PUBLIC 59406 0 cb1698
PUBLIC 59424 0 cb1697
PUBLIC 59442 0 cb1696
PUBLIC 59460 0 cb1695
PUBLIC 5947e 0 cb1694
PUBLIC 5949c 0 cb1693
PUBLIC 594ba 0 cb1692
PUBLIC 594e8 0 cb1691
PUBLIC 59516 0 cb1690
PUBLIC 59544 0 cb1689
PUBLIC 59572 0 cb1688
PUBLIC 595a0 0 cb1687
PUBLIC 595ce 0 cb1686
PUBLIC 595fc 0 cb1685
PUBLIC 5962a 0 cb1684
PUBLIC 59658 0 cb1683
PUBLIC 59686 0 cb1682
PUBLIC 596b4 0 cb1681
PUBLIC 596e2 0 cb1680
PUBLIC 59710 0 cb1679
PUBLIC 5973e 0 cb1678
PUBLIC 5976c 0 cb1677
PUBLIC 5979a 0 cb1676
PUBLIC 597c8 0 cb1675
PUBLIC 597f6 0 cb1674
PUBLIC 59824 0 cb1673
PUBLIC 59852 0 cb1672
PUBLIC 59880 0 cb1671
PUBLIC 598ae 0 cb1670
PUBLIC 598dc 0 cb1669
PUBLIC 5990a 0 cb1668
PUBLIC 59938 0 cb1667
PUBLIC 59966 0 cb1666
PUBLIC 59994 0 cb1665
PUBLIC 599c2 0 cb1664
PUBLIC 599f0 0 cb1663
PUBLIC 59a1e 0 cb1662
PUBLIC 59a4a 0 cb1661
PUBLIC 59a76 0 cb1660
PUBLIC 59aa2 0 cb1659
PUBLIC 59ace 0 cb1658
PUBLIC 59afa 0 cb1657
PUBLIC 59b26 0 cb1656
PUBLIC 59b52 0 cb1655
PUBLIC 59b7e 0 cb1654
PUBLIC 59baa 0 cb1653
PUBLIC 59bd6 0 cb1652
PUBLIC 59c02 0 cb1651
PUBLIC 59c2e 0 cb1650
PUBLIC 59c5a 0 cb1649
PUBLIC 59c86 0 cb1648
PUBLIC 59cb2 0 cb1647
PUBLIC 59cde 0 cb1646
PUBLIC 59d0a 0 cb1645
PUBLIC 59d36 0 cb1644
PUBLIC 59d62 0 cb1643
PUBLIC 59d8e 0 cb1642
PUBLIC 59db8 0 cb1641
PUBLIC 59de2 0 cb1640
PUBLIC 59e0c 0 cb1639
PUBLIC 59e36 0 cb1638
PUBLIC 59e60 0 cb1637
PUBLIC 59e8a 0 cb1636
PUBLIC 59eb4 0 cb1635
PUBLIC 59ede 0 cb1634
PUBLIC 59f08 0 cb1633
PUBLIC 59f32 0 cb1632
PUBLIC 59f5c 0 cb1631
PUBLIC 59f86 0 cb1630
PUBLIC 59fb0 0 cb1629
PUBLIC 59fda 0 cb1628
PUBLIC 5a004 0 cb1627
PUBLIC 5a02e 0 cb1626
PUBLIC 5a058 0 cb1625
PUBLIC 5a082 0 cb1624
PUBLIC 5a0ac 0 cb1623
PUBLIC 5a0d6 0 cb1622
PUBLIC 5a100 0 cb1621
PUBLIC 5a12a 0 cb1620
PUBLIC 5a154 0 cb1619
PUBLIC 5a17e 0 cb1618
PUBLIC 5a1a4 0 cb1617
PUBLIC 5a1ca 0 cb1616
PUBLIC 5a1f0 0 cb1615
PUBLIC 5a216 0 cb1614
PUBLIC 5a23c 0 cb1613
PUBLIC 5a262 0 cb1612
PUBLIC 5a288 0 cb1611
PUBLIC 5a2ae 0 cb1610
PUBLIC 5a2d4 0 cb1609
PUBLIC 5a2fa 0 cb1608
PUBLIC 5a320 0 cb1607
PUBLIC 5a346 0 cb1606
PUBLIC 5a36c 0 cb1605
PUBLIC 5a392 0 cb1604
PUBLIC 5a3b8 0 cb1603
PUBLIC 5a3de 0 cb1602
PUBLIC 5a402 0 cb1601
PUBLIC 5a426 0 cb1600
PUBLIC 5a44a 0 cb1599
PUBLIC 5a46e 0 cb1598
PUBLIC 5a492 0 cb1597
PUBLIC 5a4b6 0 cb1596
PUBLIC 5a4da 0 cb1595
PUBLIC 5a4fe 0 cb1594
PUBLIC 5a526 0 cb1593
PUBLIC 5a54e 0 cb1592
PUBLIC 5a576 0 cb1591
PUBLIC 5a59e 0 cb1590
PUBLIC 5a5c6 0 cb1589
PUBLIC 5a5ee 0 cb1588
PUBLIC 5a616 0 cb1587
PUBLIC 5a63e 0 cb1586
PUBLIC 5a666 0 cb1585
PUBLIC 5a68e 0 cb1584
PUBLIC 5a6b6 0 cb1583
PUBLIC 5a6de 0 cb1582
PUBLIC 5a706 0 cb1581
PUBLIC 5a72e 0 cb1580
PUBLIC 5a756 0 cb1579
PUBLIC 5a77e 0 cb1578
PUBLIC 5a7a8 0 cb1577
PUBLIC 5a7d2 0 cb1576
PUBLIC 5a7fc 0 cb1575
PUBLIC 5a826 0 cb1574
PUBLIC 5a850 0 cb1573
PUBLIC 5a87a 0 cb1572
PUBLIC 5a8a4 0 cb1571
PUBLIC 5a8ce 0 cb1570
PUBLIC 5a8f8 0 cb1569
PUBLIC 5a922 0 cb1568
PUBLIC 5a94c 0 cb1567
PUBLIC 5a976 0 cb1566
PUBLIC 5a9a0 0 cb1565
PUBLIC 5a9ca 0 cb1564
PUBLIC 5a9f4 0 cb1563
PUBLIC 5aa1e 0 cb1562
PUBLIC 5aa48 0 cb1561
PUBLIC 5aa72 0 cb1560
PUBLIC 5aa9c 0 cb1559
PUBLIC 5aac6 0 cb1558
PUBLIC 5aaf0 0 cb1557
PUBLIC 5ab1a 0 cb1556
PUBLIC 5ab44 0 cb1555
PUBLIC 5ab6e 0 cb1554
PUBLIC 5ab98 0 cb1553
PUBLIC 5abc2 0 cb1552
PUBLIC 5abec 0 cb1551
PUBLIC 5ac16 0 cb1550
PUBLIC 5ac40 0 cb1549
PUBLIC 5ac6a 0 cb1548
PUBLIC 5ac94 0 cb1547
PUBLIC 5acbe 0 cb1546
PUBLIC 5ace8 0 cb1545
PUBLIC 5ad12 0 cb1544
PUBLIC 5ad3c 0 cb1543
PUBLIC 5ad66 0 cb1542
PUBLIC 5ad90 0 cb1541
PUBLIC 5adba 0 cb1540
PUBLIC 5ade4 0 cb1539
PUBLIC 5ae0e 0 cb1538
PUBLIC 5ae38 0 cb1537
PUBLIC 5ae62 0 cb1536
PUBLIC 5ae8c 0 cb1535
PUBLIC 5aeb6 0 cb1534
PUBLIC 5aee0 0 cb1533
PUBLIC 5aefa 0 cb1532
PUBLIC 5af14 0 cb1531
PUBLIC 5af2e 0 cb1530
PUBLIC 5af48 0 cb1529
PUBLIC 5af62 0 cb1528
PUBLIC 5af7c 0 cb1527
PUBLIC 5af96 0 cb1526
PUBLIC 5afb0 0 Strap_BufferCreate
PUBLIC 5b016 0 Strap_BufferDelete
PUBLIC 5b06a 0 Strap_BufferAppend
PUBLIC 5b1a6 0 Strap_BufferAppendEOT
PUBLIC 5b1c0 0 Strap_BufferGet
PUBLIC 5b404 0 Strap_BufferClear
PUBLIC 5b444 0 StrapSimIsReady
PUBLIC 5b458 0 StrapPliErrorCB
PUBLIC 5b473 0 StrapUpdateFileDescriptorUsage
PUBLIC 5b556 0 StrapAcceptConnect
PUBLIC 5b5a4 0 StrapHandleDisconnect
PUBLIC 5b5c6 0 StrapEventLoopHandler
PUBLIC 5b652 0 StrapDoOneEventCB
PUBLIC 5b668 0 StrapLaunchNoWait
PUBLIC 5cb18 0 Strap_Launch_Int
PUBLIC 5ccb4 0 Strap_doAllEvents
PUBLIC 5cccb 0 Strap_GetServDesc
PUBLIC 5ccd3 0 Strap_LaunchSimVision
PUBLIC 5cce9 0 Strap_LaunchIndago
PUBLIC 5ce50 0 Strap_CheckPendingEvents
PUBLIC 5ce56 0 Strap_PhraseDefine
PUBLIC 5ce8e 0 Strap_PhraseLookup
PUBLIC 5ceb3 0 Strap_ConnectorAttrsAdd
PUBLIC 5ceeb 0 Strap_Init
PUBLIC 5d8f4 0 Strap_ConnectorFormCode
PUBLIC 5d950 0 Strap_IsConnected
PUBLIC 5d95f 0 Strap_OutReportEnabled
PUBLIC 5d966 0 Strap_IsStrapFileDescriptor
PUBLIC 5d988 0 Strap_InitProtocol
PUBLIC 5db6f 0 Strap_ProcessEvents
PUBLIC 5dc1a 0 Strap_SimvisionCommand
PUBLIC 5ddd5 0 Strap_SetAttrs
PUBLIC 5de03 0 Strap_EnterPPE
PUBLIC 5de2a 0 strapSnapshotAvail
PUBLIC 5de39 0 Strap_Restart
PUBLIC 5de9f 0 Strap_ReportsEnabled
PUBLIC 5dea6 0 Strap_TerminateConnection
PUBLIC 5decd 0 Strap_GetClientName
PUBLIC 5ded5 0 Strap_RemoveCmdChkTclEvntCallbckReg
PUBLIC 5dee0 0 repOutputDisable
PUBLIC 5def2 0 InputChannelHandler
PUBLIC 5df34 0 PauseCmd
PUBLIC 5dfc8 0 InCmd
PUBLIC 5e144 0 ReadStdin
PUBLIC 5e20c 0 StrapOutHistoryInit
PUBLIC 5e25e 0 StrapOutHistoryAddText
PUBLIC 5e475 0 Strap_InitRepOutput
PUBLIC 5e4ff 0 Strap_InitRawIO
PUBLIC 5e65c 0 Strap_InitIO
PUBLIC 5e6ea 0 StrapRead
PUBLIC 5e840 0 Strap_SendOutput
PUBLIC 5e8e7 0 Strap_PromptActive
PUBLIC 5e940 0 StrapWriteOutput
PUBLIC 5eb4e 0 repOutputEnable
PUBLIC 5ec8c 0 Strap_OutHistoryControl
PUBLIC 5eca3 0 CleanupInCmd
PUBLIC 5ed61 0 Strap_OutHistoryReinit
PUBLIC 5edb1 0 Strap_SNWriteOutput
PUBLIC 5ee33 0 FormsCmd
PUBLIC 5eecd 0 Strap_InitForms
PUBLIC 5ef00 0 PwListEntryCmp
PUBLIC 5ef1b 0 CleanupPasswordCmd
PUBLIC 5ef46 0 PwConvertTilde
PUBLIC 5efcf 0 PasswordCmd
PUBLIC 5f4bd 0 Strap_InitPassword
PUBLIC 5f545 0 Strap_PwListCreate
PUBLIC 5f58a 0 Strap_PwListDelete
PUBLIC 5f61a 0 Strap_PwListSetDefault
PUBLIC 5f6cd 0 Strap_PwListGetDefault
PUBLIC 5f705 0 Strap_PwListAdd
PUBLIC 5f7fb 0 Strap_PwListRead
PUBLIC 5fa0d 0 Strap_PwListWrite
PUBLIC 5fcad 0 Strap_GetSeconds
PUBLIC 5fcc0 0 Strap_AssignPassword
PUBLIC 608aa 0 repDobjEnable
PUBLIC 60921 0 repDobjStatusMessage
PUBLIC 60c1f 0 repDobj_disabled
PUBLIC 60c37 0 repDobj_enabled
PUBLIC 60c4f 0 repDobjDisable
PUBLIC 60c78 0 Strap_InitRepDobj
PUBLIC 60cf6 0 Strap_DobjAttrsForAlias
PUBLIC 60d24 0 Strap_DobjAttrsForSearchPoint
PUBLIC 60dcb 0 Strap_DobjAttrsForBreakpt
PUBLIC 61065 0 Strap_DobjAttrsForDb
PUBLIC 6117c 0 Strap_DobjAttrsForForce
PUBLIC 611d5 0 Strap_DobjAttrsForCoverage
PUBLIC 61214 0 Strap_DobjAttrsForProbe
PUBLIC 61267 0 Strap_DobjAttrsForVar
PUBLIC 612db 0 repDobjMessage
PUBLIC 61b36 0 repDobj_refreshed
PUBLIC 61b98 0 repDobj_changed
PUBLIC 61bfa 0 repDobj_deleted
PUBLIC 61c75 0 repDobj_new
PUBLIC 61cf0 0 repStateDisable
PUBLIC 61cf8 0 strapSuppressPliErrorCB
PUBLIC 61cfe 0 repState_randomize
PUBLIC 61d55 0 repStateFormatCoverage
PUBLIC 61de6 0 repState_specman
PUBLIC 62000 0 repState_coverage
PUBLIC 6208d 0 repState_progress
PUBLIC 62179 0 repState_exit
PUBLIC 62289 0 strapCallStacksSame
PUBLIC 624eb 0 strapCallStackCreateFrame
PUBLIC 62853 0 strapCallStackCreateStack
PUBLIC 629ea 0 strapCallStackFree
PUBLIC 62a61 0 repStateFormatSimTime
PUBLIC 62eed 0 repState_time
PUBLIC 62ff5 0 repState_ppe
PUBLIC 6308e 0 repStateCleanup
PUBLIC 63145 0 repStateAddLibName
PUBLIC 63300 0 Strap_InitRepState
PUBLIC 6341e 0 repStateAddScope
PUBLIC 63aab 0 repStateFormatStack
PUBLIC 63cde 0 repState_scope
PUBLIC 63f45 0 repStateFormatPosition
PUBLIC 64093 0 repState_position
PUBLIC 641bc 0 repState_misc
PUBLIC 646b4 0 repStateEnable
PUBLIC 649b1 0 CleanupReportCmd
PUBLIC 64a02 0 ReportEnable
PUBLIC 64b9a 0 ReportStatus
PUBLIC 64e52 0 ReportCmd
PUBLIC 65070 0 Strap_InitReports
PUBLIC 650a4 0 Strap_ReportGetBuffer
PUBLIC 650e5 0 Strap_ReportDisableAll
PUBLIC 65134 0 repAppendStr
PUBLIC 651a9 0 repCmpStr
PUBLIC 651cb 0 repStateCreateConstraintItem
PUBLIC 6520b 0 repCopyStr
PUBLIC 6522d 0 repStateGetRandType
PUBLIC 65297 0 repStateConstraintDecompile
PUBLIC 65b05 0 repStateExtractHeapIndex
PUBLIC 65c8e 0 repStateUpdateHeapIndexClassNameHT
PUBLIC 65d20 0 repStateGetObjName
PUBLIC 66144 0 repStateRandomizedVars_recurse
PUBLIC 664b9 0 repStateRandRefedVars_recurse
PUBLIC 66c84 0 repStateRandRefedVars
PUBLIC 66e8e 0 repStateFormatVpiConstraint
PUBLIC 6717a 0 repStateDestroyConstraintItem
PUBLIC 671a3 0 repStateDestroyItemList
PUBLIC 671eb 0 repStateDestroyHT
PUBLIC 6723a 0 repStateTrimObjRef
PUBLIC 67300 0 repStateGetCurrRandState
PUBLIC 67308 0 repStateSetCurrRandState
PUBLIC 673aa 0 repStateFormatUdmConstraint
PUBLIC 6746d 0 repStateFormatRandState
PUBLIC 6817c 0 repStateRandomize
PUBLIC 683d7 0 strapAddDerivedClass
PUBLIC 6840e 0 strapAddTopClass
PUBLIC 68453 0 strapConstructClassHier
PUBLIC 684a2 0 strapAddClassHierHT
PUBLIC 684ef 0 strapDestroyClassCollection
PUBLIC 68509 0 strapDestroyClassHier
PUBLIC 6852f 0 strapConstructClassHierHT
PUBLIC 6854f 0 strapTopClassesStdPkg
PUBLIC 6864a 0 strapRemoveTopClasses
PUBLIC 68685 0 strapAddBaseClass
PUBLIC 686bc 0 strapWalkEHierForClassDefn
PUBLIC 688ad 0 strapExtendedClass
PUBLIC 6897b 0 strapProcessClassDefn.localalias
PUBLIC 68aef 0 strapProcessClassDefns
PUBLIC 68af5 0 strapWalkHdlHierForClassDefn
PUBLIC 68d4d 0 strapClassLoadData
PUBLIC 68ff7 0 strapAddClassDefnBasicProps
PUBLIC 690a0 0 strapIsAutomatic
PUBLIC 6918c 0 strapIsClassDataMember
PUBLIC 69265 0 strapIsWithinClassDefn.localalias
PUBLIC 69554 0 strapGetTopClasses
PUBLIC 696af 0 strapAppendDCToResult
PUBLIC 6977e 0 strapDerivedEClasses
PUBLIC 6980e 0 strapDerivedHdlClasses
PUBLIC 69908 0 strapGetDerivedClasses
PUBLIC 69a41 0 strapIsParameterizedClass
PUBLIC 69ab4 0 strapIsParameterizedClassTypespec
PUBLIC 69b59 0 strapIsParameterizedClassInst
PUBLIC 69bd4 0 strapIsUninstParameterizedClass
PUBLIC 69c52 0 strapGetClassTypespec
PUBLIC 69cf3 0 strapExtractSpecialization
PUBLIC 69dac 0 strapDumpClassHierHT_int
PUBLIC 6a1bd 0 strapDumpClassHierHT
PUBLIC 6a276 0 strapPrintClassHierHT_int
PUBLIC 6a55f 0 strapStackTrace
PUBLIC 6a6ab 0 strapDebugEnd
PUBLIC 6a6fa 0 strapDebugInit
PUBLIC 6a94f 0 strapDebugPrint
PUBLIC 6aa8d 0 strapDebugGetVal
PUBLIC 6ab1e 0 strapDebugGetStr
PUBLIC 6ad3d 0 strapCanonicalizeFileName
PUBLIC 6ae7c 0 strapFixupFileName
PUBLIC 6af54 0 strapGenFileObjName
PUBLIC 6afb3 0 strapFileObjTableCreate
PUBLIC 6b02b 0 strapFileObjTableDelete
PUBLIC 6b0e8 0 strapGetFileObj
PUBLIC 6b103 0 strapGetFileObjNameActive
PUBLIC 6b3e9 0 strapGetFileObjName
PUBLIC 6b3ff 0 strapDumpFileObjHT
PUBLIC 6b5cd 0 strapFileObjTableRefresh
PUBLIC 6b61e 0 strapGet
PUBLIC 6dc5f 0 Strap_InitGet
PUBLIC 6df51 0 strapGetBreak
PUBLIC 6e1c5 0 strapGetBreakList
PUBLIC 6e2f4 0 strapGetProbe
PUBLIC 6e48f 0 strapGetProbeList
PUBLIC 6e55b 0 strapGetForce
PUBLIC 6e73e 0 strapGetForceList
PUBLIC 6e85f 0 strapGetDb
PUBLIC 6e9fa 0 strapGetDbList
PUBLIC 6eac6 0 strapGetAlias
PUBLIC 6ebc2 0 strapGetAliasList
PUBLIC 6ec8e 0 strapGetTclVar
PUBLIC 6ed8a 0 strapGetTclVarList
PUBLIC 6ee9d 0 strapGetSnapshot
PUBLIC 6ef54 0 strapGetSnapshotList
PUBLIC 6f01c 0 strapGetSearchPoint
PUBLIC 6f141 0 strapGetSearchPointsList
PUBLIC 6f204 0 strapGetWatchObjList
PUBLIC 6f28e 0 strapDestroyDuCacheElementWithCast
PUBLIC 6f31d 0 strapGetAnameName
PUBLIC 6f382 0 strapGetDuCacheElement
PUBLIC 6f451 0 strapGetAnameIter
PUBLIC 6f4ef 0 duNamesHtDataAddUniqueHandle
PUBLIC 6f5b4 0 getPseudoScope
PUBLIC 6f61f 0 strapDuaHandleByNameVhIndex_internal
PUBLIC 6f7cd 0 strapDuaIterateForName
PUBLIC 6f942 0 duNamesHtDataGetIdxHandle
PUBLIC 6f968 0 strapDuaNextToken
PUBLIC 6fbcf 0 strapClearDuCache
PUBLIC 6fbe4 0 strapDumpDuCache_int
PUBLIC 6ff40 0 strapDumpDuCache
PUBLIC 6ff88 0 strapDumpDuCache_c
PUBLIC 70008 0 strapDumpDuCacheNames_int
PUBLIC 700e8 0 strapDumpDuNames_c
PUBLIC 701f3 0 strapEnclosingDu.localalias
PUBLIC 702a0 0 strapDuLoad
PUBLIC 70e4c 0 strapAddDuaNameLookup
PUBLIC 710a6 0 strapAddPrimChildScopeNamesLookup
PUBLIC 711e5 0 strapDuaHandleByName_internal
PUBLIC 7186a 0 strapDuaHandleByOomrName_internal
PUBLIC 7198d 0 strapDuaHandleByOomrName
PUBLIC 71aea 0 strapDuaHandleByName
PUBLIC 71fe0 0 strapDuaNameByHandle
PUBLIC 720d2 0 strapDuExtractDuName
PUBLIC 72352 0 strapDuIsCrcNamePresent
PUBLIC 7242b 0 strapConstructDefObj
PUBLIC 72446 0 strapAddDef
PUBLIC 7244c 0 strapWalkHier
PUBLIC 72a0a 0 strapGetDefInitHdl
PUBLIC 72d0e 0 strapGetDefInitE
PUBLIC 72d26 0 strapGetDefInit
PUBLIC 72d51 0 strapGetDef
PUBLIC 74716 0 strapGetServiceAttrs
PUBLIC 75121 0 strapGetDesign
PUBLIC 75a5a 0 strapEvalConstExprInternal
PUBLIC 76075 0 strapGetIndexSpecVh
PUBLIC 7614f 0 strapOpString
PUBLIC 765ea 0 strapEntityDesignator
PUBLIC 76656 0 strapPredefAttrString
PUBLIC 769ba 0 strapOperatorNotation
PUBLIC 76ad7 0 strapConstructRange
PUBLIC 76afd 0 strapConstructCopyRange
PUBLIC 76b35 0 strapDestroyRange
PUBLIC 76b49 0 strapDestroyRangeList
PUBLIC 76b80 0 strapGetRangeInfo
PUBLIC 76c2f 0 strapGetParentRangeInfo
PUBLIC 76d7c 0 strapConstructOperand
PUBLIC 771ee 0 strapDestroyOperand
PUBLIC 7720b 0 strapDestroyOperandList
PUBLIC 77242 0 strapCollaseRanges
PUBLIC 772be 0 strapCombineRanges
PUBLIC 7748f 0 strapCombineOperands
PUBLIC 77533 0 strapCombinedPortConnection
PUBLIC 7764f 0 strapPortConnection
PUBLIC 7765f 0 strapFormatConcatOp
PUBLIC 778bc 0 strapConcatOp
PUBLIC 779a5 0 strapBuildFuncCallExpr
PUBLIC 77a94 0 strapPortConnectionInner
PUBLIC 7b127 0 strapPortConnectionWithFlags
PUBLIC 7b13a 0 strapGetPortIndex
PUBLIC 7b2b0 0 strapGetPortObjName
PUBLIC 7b3f6 0 strapVolunteerDfltConstr
PUBLIC 7b476 0 strapGetObjName
PUBLIC 7b4b7 0 strapCheckForScopesInDecls
PUBLIC 7b7a4 0 strapAddInternalScopeNames
PUBLIC 7b86a 0 strapAddInstArrDuaNameLookup
PUBLIC 7b8e1 0 strapProcessGenIndex
PUBLIC 7ba59 0 strapCheckForScopesInStmts
PUBLIC 7bb4b 0 strapAddVirtualPortBasicProps
PUBLIC 7bc8b 0 strapDestroyStringList
PUBLIC 7bc9f 0 strapProcessGenLabel
PUBLIC 7bd76 0 strapAddChildVarProp
PUBLIC 7d2ff 0 strapAddChildScopeProp
PUBLIC 7f99e 0 strapAddSchemScopeProps
PUBLIC 7fbbb 0 strapGetScopeStdPkg
PUBLIC 8005a 0 strapAddCheckerPortProp
PUBLIC 80261 0 strapGetScopeConvPoints
PUBLIC 804b6 0 convertDefNameFormat2LCV
PUBLIC 80627 0 strapGetSVMSScopeOomr
PUBLIC 8062d 0 strapGetScope
PUBLIC 820dd 0 strapSetArrayTypeIndexVals
PUBLIC 8210c 0 strapGetConstraint
PUBLIC 82199 0 strapCheckAttrRadixSpec
PUBLIC 821f2 0 strapCheckSignedProp
PUBLIC 82271 0 strapReinitTypeObj
PUBLIC 82389 0 strapDestroyMemberInfoListContents
PUBLIC 823e5 0 strapRenderRealAsWreal
PUBLIC 82429 0 strapCheckMemberTypes
PUBLIC 8292b 0 strapCheckBinFormat
PUBLIC 829c8 0 strapGetEleTypeObj
PUBLIC 82a27 0 strapEnumVals
PUBLIC 82ea6 0 strapConstructTypeObj
PUBLIC 82f0e 0 strapCloneTypeObj
PUBLIC 83093 0 strapResolveSubType
PUBLIC 83333 0 strapNumArrayTypespecDims.localalias
PUBLIC 834db 0 strapIsUDTypeEnabled
PUBLIC 8355f 0 strapAddUDNBaseName
PUBLIC 836d6 0 strapGetType
PUBLIC 837c1 0 strapGenTypeObjPaddingForTypeScReg
PUBLIC 838a4 0 strapGenTypeObjForTypeScReg
PUBLIC 83f22 0 strapGenTypeObjForVar
PUBLIC 85fb1 0 strapGetTypeObjName
PUBLIC 86520 0 strapCleanIndexTypeObj
PUBLIC 86630 0 strapGetTypeName
PUBLIC 866c4 0 strapGetTypeNameByObj
PUBLIC 86707 0 strapForceMemberType
PUBLIC 86aa0 0 strapArrayTypeObj
PUBLIC 875f2 0 strapLogicArrayTypeObj
PUBLIC 879a6 0 strapGenTypeObjForTypeVl.localalias
PUBLIC 897ab 0 strapGenArrayTypeVl
PUBLIC 89b14 0 strapGenTypeObjForArrayVl
PUBLIC 8a3b4 0 strapConstantTypeObj_int
PUBLIC 8a6d4 0 strapConstantTypeObj
PUBLIC 8a953 0 strapGenTypeObjForExpr
PUBLIC 8aa89 0 strapMultiDimArrayTypeObjVl
PUBLIC 8ada6 0 strapGenTypeObjForTypeVh
PUBLIC 8b5e1 0 strapAssertionTypeObj
PUBLIC 8ba7c 0 strapIsGenScope
PUBLIC 8bab0 0 strapBuildPathName
PUBLIC 8bc62 0 strapDuaPathName_int
PUBLIC 8bd7d 0 strapIsMultiDimQDA
PUBLIC 8be37 0 strapGetVarValue
PUBLIC 8bf7f 0 strapGetVarElementValues
PUBLIC 8c404 0 strapGetScopeWithParent
PUBLIC 8c486 0 strapVarProcessDrivers
PUBLIC 8d903 0 strapGetVarStdPkg
PUBLIC 8dd74 0 get_assertion_handle
PUBLIC 8de3f 0 strapGetVar
PUBLIC 8f904 0 strapBits
PUBLIC 8f926 0 strapVpiPrintMnemonic
PUBLIC 8fa34 0 strapVpiPrintXValString
PUBLIC 8fa9c 0 strapNextExtToken
PUBLIC 8fb3b 0 isThreadInTestBenchContext
PUBLIC 8fc12 0 setSVMSEnabled
PUBLIC 8fc32 0 setSVMSDisabled
PUBLIC 8fc4c 0 strapTclDStringAppend
PUBLIC 8fcb4 0 add_metadata_element
PUBLIC 8fd6c 0 add_comma_separator
PUBLIC 8fd86 0 strapDestroyArrayOfStr
PUBLIC 8fdc9 0 strapDestroyTypeObj
PUBLIC 8fea3 0 strapDestroyDefObj
PUBLIC 8feb7 0 opname
PUBLIC 9031a 0 strapTclDStringAppendElement
PUBLIC 90383 0 save_index_name_pair
PUBLIC 903ea 0 strapCheckForPotential
PUBLIC 90436 0 strapResolveFrameScope
PUBLIC 904ae 0 strapAddNameWithCheck
PUBLIC 90590 0 strapFindInIteration
PUBLIC 9064c 0 strapAllocBuf
PUBLIC 906a2 0 strapExtractSubpSignature
PUBLIC 907c1 0 strapFormatDelineatedList
PUBLIC 90824 0 strapPartialPortConnElems
PUBLIC 9098d 0 strapPartialPortConn
PUBLIC 90dc5 0 OSTicksToMS
PUBLIC 90e36 0 strapGI
PUBLIC 90e41 0 strapEngineIsVerilogXL
PUBLIC 90e5f 0 strapEngineIsSpecman
PUBLIC 90e93 0 strapDisableMacroInclude
PUBLIC 90ed7 0 strapEscapeStringChars
PUBLIC 9100e 0 strapMinNumEles
PUBLIC 91077 0 strapBinStrToHexStr
PUBLIC 912cb 0 strapGetForceData
PUBLIC 9132d 0 strapForceClearCache
PUBLIC 91396 0 strapAddForceElem
PUBLIC 914f4 0 strapUpdateForceInformation
PUBLIC 917f3 0 strapLwdIsValidToIterate
PUBLIC 9185c 0 strapAppendPathDelim
PUBLIC 918b9 0 strapGetLangList
PUBLIC 91941 0 strapAppendLiteralName
PUBLIC 919e4 0 strapNextScopeToken.localalias
PUBLIC 91b63 0 strapIndexExprToken
PUBLIC 91bf6 0 strapLastScopeToken
PUBLIC 91c63 0 strapExtractGenStmtLabel
PUBLIC 91d23 0 strapMinScopePath
PUBLIC 91f51 0 strapCompareScopeDepths
PUBLIC 91fc5 0 strapIsTemporalObj
PUBLIC 92121 0 strapIsTemporalObjActive
PUBLIC 92170 0 strapIsBusSubElement
PUBLIC 921ca 0 strapVhpiGetValueUtil
PUBLIC 923d5 0 strapFormatScalar
PUBLIC 92607 0 strapFormatRepeating
PUBLIC 928dd 0 strapSetArrayEleFlags
PUBLIC 92943 0 strapGetItemAtPos
PUBLIC 92987 0 strapDestroyHT
PUBLIC 929fb 0 strapConnInfoInit
PUBLIC 931c9 0 strapConnInfoReset
PUBLIC 939c0 0 strapConnInfoEventHandler
PUBLIC 93a67 0 strapConnEdgeInit
PUBLIC 93add 0 strapConnEdgeDelete
PUBLIC 93aeb 0 strapEdgeInfoDelete
PUBLIC 93b15 0 strapConnInfoDelete
PUBLIC 93b23 0 strapGetInfoDelete
PUBLIC 93e99 0 strapDumpPwrDomainHT
PUBLIC 93fad 0 strapDumpPwrModeHT
PUBLIC 940c1 0 strapDumpNominalCondHT
PUBLIC 941d5 0 strapOption2String
PUBLIC 94320 0 strapFormatPliErrorMesg
PUBLIC 944a0 0 strapSetResultWithBasicPropErrorMesg
PUBLIC 94572 0 strapGetModportPortRefedObj
PUBLIC 948dc 0 strapGetModportPortRefedObjName
PUBLIC 94a7e 0 strapGetSimulatorTime
PUBLIC 94b9e 0 strapSimTimeSame
PUBLIC 94bce 0 strapCopySimTime
PUBLIC 94beb 0 strapFormatTimeScale
PUBLIC 94d7c 0 strapSyscProcessProps
PUBLIC 95147 0 strapFindDefObjHashEntryHdl
PUBLIC 9517c 0 strapFindDefObjHashEntryE
PUBLIC 951b7 0 strapFindDefObjHashEntry
PUBLIC 951d1 0 strapAddAssertionBasicProps
PUBLIC 95589 0 strapAddLangProp
PUBLIC 956ae 0 strapAddLocProp
PUBLIC 95780 0 strapAddFileObjProp
PUBLIC 958f6 0 strapGetAndAddLocProp
PUBLIC 95aec 0 strapAddTypeObjProp
PUBLIC 9624b 0 strapDumpTypeObjHT
PUBLIC 96367 0 strapGetOperands
PUBLIC 96443 0 strapIsUnaryOp
PUBLIC 96490 0 strapIsBinaryOp
PUBLIC 964f3 0 strapIsTernaryOp
PUBLIC 9653d 0 strapStaticIntExprValue
PUBLIC 96584 0 strapEvalStaticIntSysFunc
PUBLIC 96601 0 strapEvalStaticIntExprVl_int
PUBLIC 9686c 0 strapEvalClog2
PUBLIC 96966 0 strapEvalStaticIntExprVl
PUBLIC 969e2 0 strapAddSourceChunksVl
PUBLIC 96cda 0 strapAddSourceChunksVh
PUBLIC 96ebb 0 strapStrcmp
PUBLIC 96ef7 0 strapStrncmp
PUBLIC 96f3a 0 strapStringIsSuffix
PUBLIC 96fa7 0 strapInstallRegionName
PUBLIC 97027 0 strapProcessIODecl
PUBLIC 971f4 0 strapHandleByName
PUBLIC 97213 0 strapHandleByNameSlice
PUBLIC 97405 0 strapDestroyFileObj
PUBLIC 97426 0 strapGetLang
PUBLIC 974b8 0 strapVpiGetType
PUBLIC 97521 0 strapGetContainingScope
PUBLIC 97939 0 strapGetDesignRoot
PUBLIC 979f8 0 strapGetModuleDefH.localalias
PUBLIC 97c44 0 strapInstance
PUBLIC 97ef6 0 strapIsWithinPackage
PUBLIC 97f2e 0 strapAddScopeFileLineProps
PUBLIC 98057 0 strapFormalPortPosition
PUBLIC 9853c 0 strapCheckObjForLocalDecl
PUBLIC 9860f 0 strapGetRootConfigName
PUBLIC 98650 0 strapGetFullPathVHDL
PUBLIC 98879 0 strapReadAccess.localalias
PUBLIC 9898b 0 strapConnectivityAccess
PUBLIC 98a16 0 strapVhpiGetProp
PUBLIC 98a93 0 strapFormatTimeScaleVh
PUBLIC 98d66 0 strapGetIntRangeVh
PUBLIC 99035 0 strapGetRangeSpecVh
PUBLIC 99147 0 strapGetRootName
PUBLIC 99671 0 strapVpiIsProtected
PUBLIC 9969a 0 strapParseAnalogValue
PUBLIC 997a9 0 strapVpiIsScope
PUBLIC 998c9 0 strapGetViewName
PUBLIC 999c4 0 strapGetLibName
PUBLIC 99aaa 0 strapIsInterfaceItem
PUBLIC 99bda 0 strapIsPackageItem
PUBLIC 99cdf 0 strapIsProgramItem
PUBLIC 99dd6 0 strapIsInstanceItem
PUBLIC 99ed9 0 strapModportFullHierName
PUBLIC 9a367 0 strapGetStateRetentionRule
PUBLIC 9a414 0 strapGetRetainedObj
PUBLIC 9a443 0 strapOSElapsedTime
PUBLIC 9a47b 0 appendStringKeyValueElement
PUBLIC 9a4b1 0 recordUserThreadHandleInfo
PUBLIC 9a66c 0 strapGetUserThreadsInfo
PUBLIC 9a7dc 0 strapLocateSystemCProcessInfo
PUBLIC 9a8b7 0 strapSysCDynamicDeep
PUBLIC 9a8c5 0 strapAddIntegerProperty
PUBLIC 9a916 0 strapGetLastIterItem
PUBLIC 9a964 0 strapGetIterElemCnt
PUBLIC 9a9ed 0 strapGetNthIterItem
PUBLIC 9aa41 0 strapIsUnsupported
PUBLIC 9aa7f 0 strapGetRangeSpecVl.localalias
PUBLIC 9bbe0 0 handle_leaf
PUBLIC 9c455 0 add_slice_argument
PUBLIC 9c4f8 0 collect_arguments
PUBLIC 9c601 0 metadata_handle_property
PUBLIC 9c7dd 0 collect_expression_meta_data
PUBLIC 9d120 0 handle_property
PUBLIC 9d25e 0 collect_disable_condition_data
PUBLIC 9d2cb 0 extract_meta_data_from_clock_expression
PUBLIC 9d381 0 collect_clock_data
PUBLIC 9d633 0 collect_assertion_meta_data
PUBLIC 9d8f5 0 handle_leaf_part
PUBLIC 9d925 0 strapScopeHasOomr.localalias
PUBLIC 9da40 0 strapIsIncrDecrOp
PUBLIC 9daaf 0 strapIsAssignmentOp
PUBLIC 9db41 0 strapFixupClassMemberName
PUBLIC 9dc26 0 strapGatherExpressions.localalias
PUBLIC 9ddd0 0 findLhsMatchOfAssignment
PUBLIC 9e242 0 findIoDeclAssignments
PUBLIC 9e97a 0 strapIsArrayMember
PUBLIC 9e9a2 0 strapIsStructUnionMember
PUBLIC 9eab7 0 strapFullDuaName_int
PUBLIC 9f59f 0 strapFullDuaName
PUBLIC 9f6f5 0 strapFullHierName_int
PUBLIC 9f871 0 strapFullHierName
PUBLIC 9fbaf 0 strapGetTypedefValue.localalias
PUBLIC a0034 0 strapGetMailboxParamType
PUBLIC a0114 0 strapGetValue.localalias
PUBLIC a4894 0 strapDumpObjHToTypeObjHT
PUBLIC a4a4d 0 strapDumpRegionNameHT
PUBLIC a4c9e 0 strapAddDepPackageProp
PUBLIC a4d6c 0 strapAddSourceChunksProp
PUBLIC a54d8 0 strapGetVHDLPath
PUBLIC a588f 0 strapResolveTaskIoDeclRefdir
PUBLIC a5cd3 0 strapVpiIsDirection
PUBLIC a5dbb 0 add_assertion_name
PUBLIC a5e69 0 explore_assertion_arguments
PUBLIC a5efa 0 explore_assertion_expression
PUBLIC a613b 0 extract_clock_from_clocking_block
PUBLIC a6213 0 explore_default_clock
PUBLIC a6279 0 add_assertion_clock
PUBLIC a62fe 0 add_assertion_disable_condition
PUBLIC a6372 0 misc_assertion_attributes
PUBLIC a65e2 0 strapIsArrayOfStructMember
PUBLIC a6687 0 strapGetTextRefs
PUBLIC a90f0 0 strapGetFauxMacroRefs
PUBLIC a91d2 0 strapGetClassTextRefs
PUBLIC a940e 0 strapAddTextRefProp_int
PUBLIC a9de0 0 strapAddTextRefProp
PUBLIC a9e67 0 strapStrArgsToH
PUBLIC aa301 0 strapIsNcMirrorCall
PUBLIC aa3fa 0 strapScopeKindPropVal
PUBLIC aa9d7 0 strapAddRepChildProp_internal
PUBLIC aab43 0 strapGenRegionName
PUBLIC ab004 0 strapIterateForUnnamedRegions
PUBLIC ab2e1 0 strapGenScopeUnnamedRegions
PUBLIC ab501 0 strapWalkHierForUnnamedRegions.localalias
PUBLIC ab704 0 strapGenUnnamedRegionName
PUBLIC ab76d 0 strapGetNcMirrorRegionName
PUBLIC ab97d 0 strapVhdlTops
PUBLIC aba90 0 strapGetRegionName
PUBLIC ac102 0 strapIsBlockScope
PUBLIC ac16d 0 strapHandleByNameInFrame
PUBLIC ac586 0 strapGetIterItem
PUBLIC ac5d2 0 strapIsDotStarConnection
PUBLIC ac6b2 0 strapIsDotStarPortConnection
PUBLIC ac718 0 strapAddPortDirProp.localalias
PUBLIC aca6b 0 strapGetPortBasicProps
PUBLIC ae07d 0 strapDuaGenScopeName
PUBLIC ae18d 0 strapGetGenScopeRegionName
PUBLIC ae278 0 strapIsInstArray
PUBLIC ae30d 0 strapIsPrimitive
PUBLIC ae39d 0 strapIsStdPkg
PUBLIC ae701 0 strapParameterizedMailboxTypes
PUBLIC ae7a7 0 strapResolveLogicalPath
PUBLIC aeb6d 0 Strap_EnableLWDProcessing
PUBLIC aeb75 0 strapIsLWDProcessingEnabled
PUBLIC aeb7d 0 strapFormatFullDefName
PUBLIC aee7b 0 strapGetScopeDefName
PUBLIC af369 0 strapIsSVMSEnabled
PUBLIC af36f 0 strapAddIEs
PUBLIC af3c6 0 strapIsSubcktPrimitive
PUBLIC af43d 0 strapIsInstPrimitive
PUBLIC af4b1 0 strapAddMxNetProp
PUBLIC af58b 0 strapAddKernelKindProp
PUBLIC af7d0 0 strapGetVarBasicProps
PUBLIC b1102 0 strapIterateForAssertionBasicProps
PUBLIC b2426 0 strapIterateForVarBasicProps
PUBLIC b2996 0 strapAddUnitLevelAssertionProps
PUBLIC b2c6b 0 strapIterateForAssertions
PUBLIC b2fcb 0 strapAddAssertions.localalias
PUBLIC b3f95 0 strapIsSpiceSkeleton
PUBLIC b4106 0 strapIsSpice
PUBLIC b4198 0 strapGetSpice
PUBLIC b419e 0 strapGetScopeBasicProps
PUBLIC b5fe2 0 strapAddDefObjProp
PUBLIC b6001 0 strapDumpDefObjHT_internal
PUBLIC b619d 0 strapDumpDefObjHT
PUBLIC b6223 0 strapIterateForPortBasicPropsInner
PUBLIC b6ae0 0 strapIterateForPortBasicProps
PUBLIC b6afd 0 strapIterateForPortBasicPropsWithFlags
PUBLIC b6b1d 0 Strap_InitSVMS
PUBLIC b6b9b 0 strapIsReleaseDriverEnabled
PUBLIC b6bef 0 strapHasRhs
PUBLIC b6c3b 0 sfbStackPush
PUBLIC b6c5e 0 sfbNextExprToken
PUBLIC b6ca1 0 useDalCreateDataObj
PUBLIC b6cc6 0 useDalGetFullName
PUBLIC b6cde 0 util_get_mode
PUBLIC b6d29 0 sfbVpiGetType
PUBLIC b6d65 0 sfbGetArrayType
PUBLIC b6dbd 0 sfbVpiParent
PUBLIC b6de9 0 sfbVpiReadAccess
PUBLIC b6e78 0 sfbVpiLineNo
PUBLIC b6f20 0 sfbHasUnresolvableIndex_int
PUBLIC b6fd7 0 sfbHasUnresolvableConstantIndex
PUBLIC b7086 0 sfbSignalHasUnresolvableIndex
PUBLIC b71b3 0 sfbAddDrivers
PUBLIC b7252 0 sfbVpiKeepStringForAWhile
PUBLIC b72c7 0 sfbNetType
PUBLIC b73ab 0 sfbGetGenvar
PUBLIC b7447 0 sfbUsesUnprocessedGenvarIndex
PUBLIC b7517 0 sfbUsesUnprocessedGenvar
PUBLIC b75b5 0 sfbVpiHierarchicalName
PUBLIC b75d6 0 sfbVpiInstanceName
PUBLIC b767b 0 intToEnumliteral
PUBLIC b76d8 0 sfbVpiFileName
PUBLIC b7747 0 internal_for_subp
PUBLIC b7993 0 vhdl_sfb_print_process_stmt
PUBLIC b7c3e 0 sfb_get_vhdl_value
PUBLIC b7d8b 0 vhdl_sfb_print_expr
PUBLIC b87ba 0 vhdl_sfb_print_funcCall
PUBLIC b8906 0 vhdl_sfb_print_assert_stmt
PUBLIC b8b29 0 vhdl_sfb_print_case_stmt
PUBLIC b8c38 0 vhdl_sfb_print_condSigAssign_stmt
PUBLIC b91b4 0 vhdl_sfb_print_exit_stmt
PUBLIC b94d7 0 vhdl_sfb_print_if_stmt
PUBLIC b965d 0 vhdl_sfb_print_report_stmt
PUBLIC b9802 0 vhdl_sfb_print_subtype_indication
PUBLIC b9a82 0 vhdl_sfb_get_type
PUBLIC b9ac0 0 vhdl_sfb_print_next_stmt
PUBLIC b9de3 0 vhdl_sfb_print_procCall_stmt
PUBLIC b9ffb 0 vhdl_sfb_print_return_stmt
PUBLIC ba186 0 vhdl_sfb_print_selectSigAssign_stmt
PUBLIC ba6c1 0 vhdl_sfb_print_simpleSigAssign_stmt
PUBLIC baa41 0 vhdl_sfb_print_varAssign_stmt
PUBLIC bad35 0 vhdl_sfb_print_wait_stmt
PUBLIC baff7 0 sfbDetermineGenvarValue_int
PUBLIC bb288 0 add_protected_source_error_mesg
PUBLIC bb2c6 0 getUseExprSignalHT
PUBLIC bb30a 0 vhdl_sfb_print_loop_stmt
PUBLIC bb7fe 0 vhdl_sfb_stmt
PUBLIC bd236 0 vhdl_sfb_decl
PUBLIC c00c1 0 vhdl_sfb_stmt_part
PUBLIC c00fd 0 strapDestroyOomrRefs
PUBLIC c0116 0 sfbProcessingDrivers
PUBLIC c0120 0 sfbVpiConnectivityAccess
PUBLIC c0220 0 sfbVpiContainingScope.localalias
PUBLIC c04da 0 sfbVhpiGetStmtScope
PUBLIC c05ff 0 sfbIsElementOfArray
PUBLIC c06be 0 sfbIsArray
PUBLIC c0738 0 strapDestroyGenvarList
PUBLIC c07d3 0 sfbGenvarOperand.localalias
PUBLIC c08a9 0 sfbExprStackPush
PUBLIC c08d7 0 sfbExprStackPop
PUBLIC c091c 0 sfbExprStackDestroy
PUBLIC c0964 0 sfbVpiResolveGenvarIndex
PUBLIC c0e2b 0 sfbIsProcessedGenvar
PUBLIC c0f68 0 sfbVpiCompareObjects
PUBLIC c1048 0 sfbVpiIntExprValue
PUBLIC c108f 0 sfbGetAllDimIndexes
PUBLIC c1276 0 sfbArrayElemParent_int
PUBLIC c134f 0 sfbArrayElemParent
PUBLIC c156a 0 sfbGetParentArrayType
PUBLIC c15b2 0 sfbGenvarProcessing
PUBLIC c1c7a 0 sfbCompareTrimmedObjs
PUBLIC c1de4 0 sfbGetValue
PUBLIC c1ff0 0 sfbObjStaticIndexes
PUBLIC c21e9 0 format_lhs_gets_rhs
PUBLIC c28eb 0 PowerDomainValueExpr
PUBLIC c2bfa 0 sfbVpiGetModule.localalias
PUBLIC c31c4 0 sfb_get_expr_inputs_recurse
PUBLIC c424f 0 sfb_get_expr_inputs
PUBLIC c4376 0 sfbVpiGetModuleForComplexStatement
PUBLIC c4438 0 sfbDetermineDirection
PUBLIC c4506 0 sfbHandleWhole.localalias
PUBLIC c46a8 0 strapVpiGetDriverValue
PUBLIC c4905 0 strapVpiFreeDriver
PUBLIC c49ba 0 strapVpiFreeDriversArray
PUBLIC c49f6 0 strapVpiCreateDriver
PUBLIC c4a2e 0 strapVpiCopyDriver
PUBLIC c4b95 0 strapVpiFreeDriverList
PUBLIC c4bb4 0 strapSfbIsDriverLoadDuplicate
PUBLIC c4c3c 0 strapCombineListsNoDups
PUBLIC c4d42 0 strapVpiFreeDriverInputsArray
PUBLIC c4d9c 0 sfbVhpiAssertExprHasOperands
PUBLIC c515e 0 sfbVhpiGetExprInputs_recurse
PUBLIC c568f 0 sfbVhpiGetExprInputs
PUBLIC c5776 0 strapVpiListOutputPortLowContribs
PUBLIC c5985 0 strapVpiListDriverInputs
PUBLIC c69eb 0 sfbVpiGetPullDriverInfo
PUBLIC c6a93 0 sfbVpiGetPortDriverInfo
PUBLIC c7540 0 sfbVpiGetCheckerPortDriverInfo
PUBLIC c7863 0 sfbVpiGetParamAssignDriverInfo
PUBLIC c7b61 0 sfbVpiGetInitExprDriverInfo
PUBLIC c7e60 0 doHandlesMatchWithCache
PUBLIC c8099 0 sfbTracePrintLine
PUBLIC c834a 0 checkExprForDriver
PUBLIC c88a1 0 strapCheckExprForDriver
PUBLIC c8935 0 freeBlockUsageData
PUBLIC c8963 0 createBlockUsageData
PUBLIC c8ffb 0 getNextBlock
PUBLIC c912c 0 strapBlockUsageChkProcesses
PUBLIC c915b 0 strapBlockUsageChkContAssigns
PUBLIC c9178 0 strapBlockUsageChkInstances
PUBLIC c9348 0 sfbVhpiGetBlkPortActual
PUBLIC c9411 0 sfbVhpiIsSigAssmtForSameSig
PUBLIC c950f 0 sfbVhpiGetStmtRefDesign
PUBLIC c96c3 0 sfbVhpiGetProcessDeclInfo
PUBLIC c97da 0 sfbVhpiGetPortDir
PUBLIC c987c 0 sfbVhpiGetPortDeclInfo
PUBLIC c9b80 0 sfbVhpiGetStmtDriverInfo
PUBLIC c9f70 0 sfbVhpiGetCondDriverInfo
PUBLIC ca0e5 0 sfbVhpiGetSeqStmts.localalias
PUBLIC ca318 0 sfbVhpiGetSigAsmtInProcess
PUBLIC ca7fb 0 sfbVhpiGetDriverInfo
PUBLIC ca8a5 0 sfbVpiGetDriverInfo
PUBLIC ccaee 0 checkModulePortsForDriver
PUBLIC cd7cb 0 checkInstancePortsForDriver
PUBLIC cd9d1 0 strapIsNet
PUBLIC cda37 0 strapHasLhs
PUBLIC cda83 0 checkAtomicStmt
PUBLIC cdc89 0 getDriverFromAtomicStatement
PUBLIC cdd9b 0 checkStmt
PUBLIC ce778 0 strapDriverListPrepend
PUBLIC ce790 0 strapTraverseCheckStmt
PUBLIC ceb3a 0 strapTraverseIterateForStmts
PUBLIC cec55 0 strapOomrCheck
PUBLIC cef50 0 strapOomrCheckStmt
PUBLIC cf73d 0 strapOomrIterateForStmts
PUBLIC cf7b0 0 strapOomrProcessScope
PUBLIC cf8d8 0 strapPrintTraverseData
PUBLIC cfc1c 0 strapCreateOomrObjRefs
PUBLIC cfc3c 0 strapDestroyOomrObjRefs
PUBLIC cfc5b 0 strapOomrGetRef
PUBLIC cfc84 0 strapOomrAddRefScope
PUBLIC cfc99 0 strapOomrAddRef
PUBLIC cfdca 0 strapTraverseProcessScope
PUBLIC cff97 0 strapTraverseDesign_internal.localalias
PUBLIC d00a1 0 strapTraverseDesign
PUBLIC d01ed 0 strapCreateProcessedScopes
PUBLIC d020d 0 strapDestroyProcessedScopes
PUBLIC d022a 0 strapOomrRefCheck
PUBLIC d036b 0 strapCreateReqOptions
PUBLIC d03f4 0 strapDestroyReqOptions
PUBLIC d0431 0 strapLwdVhGetPortDeclInfo
PUBLIC d09d0 0 strapAddNameToPath
PUBLIC d0b8e 0 strapAddScopeToPath
PUBLIC d0bec 0 strapTrimScopeFromPath
PUBLIC d0db7 0 strapAddGenScope
PUBLIC d0e06 0 strapRemoveGenScope
PUBLIC d0e4b 0 strapDuaLibCellViewObjName
PUBLIC d0f0e 0 sfbTrimAndCompare
PUBLIC d106a 0 sfbCheckExprForPartSelectMatch
PUBLIC d11f1 0 sfbSmartCompareObjects
PUBLIC d145e 0 sfbCheckExprRangeForMatch
PUBLIC d18d1 0 findAssignments
PUBLIC d2505 0 findForces
PUBLIC d2578 0 ListDrivers_recurse_widx
PUBLIC d3a8b 0 strapVpiListDriversLoads
PUBLIC d44fd 0 ListDrivers_recurse
PUBLIC d4510 0 TraceDelayDeviceTerm
PUBLIC d4af8 0 ListContributors_basic
PUBLIC d5279 0 GetLoadInfo
PUBLIC d53eb 0 argIsRelevant
PUBLIC d54b5 0 sfbDebugMesg
PUBLIC d5512 0 sfbDumpDriver
PUBLIC d55f2 0 sfbDumpDrivers
PUBLIC d564e 0 sfbDumpDriverInput
PUBLIC d56fe 0 sfbDumpDriverInputs
PUBLIC d5757 0 sfbDumpHandle
PUBLIC d59fe 0 GetVHDLLoadContextOutputs
PUBLIC d5b4c 0 sfbDumpDriverInputsHT
PUBLIC d5c2d 0 sfbDumpHandleError
PUBLIC d5c3b 0 CheckExprForLoad
PUBLIC d64c8 0 CheckInitExprsForLoad
PUBLIC d6560 0 CheckModulePortsForLoad.localalias
PUBLIC d6e27 0 CheckStmtForLoad
PUBLIC d8235 0 FindRefs
PUBLIC d8d7f 0 ListLoads_recurse
PUBLIC d9531 0 ListLoads
PUBLIC d96f8 0 GetLoadOutputs
PUBLIC d9dc3 0 strapVpiListLoadOutputs
PUBLIC da54c 0 GetCaseItemLoadsContext
PUBLIC da59d 0 strapVpiListInputPortLowContribs
PUBLIC da710 0 strapVpiListLoadContextOutputs
PUBLIC daadd 0 process_vpiInstance
PUBLIC dabab 0 strapConstructVPort
PUBLIC dac2a 0 process_expr
PUBLIC dbcf1 0 process_vpiContAssign
PUBLIC dbd7b 0 process_vhpiProcCall
PUBLIC dbfad 0 process_vhpiSeqStmts
PUBLIC dc57a 0 process_vhpiConcStmts
PUBLIC dd02a 0 process_vpiStmts
PUBLIC dd788 0 process_vpiGenScope
PUBLIC ddde4 0 process_vpiScope
PUBLIC de546 0 strapDestroyVPort
PUBLIC de584 0 strapDestroyVPortList
PUBLIC de5bc 0 strapListScopeConnections
PUBLIC ded54 0 strapChkSetScopeDelete
PUBLIC defaf 0 strapGetChkSetTable
PUBLIC defba 0 strapGetScdbH
PUBLIC defc5 0 strapChkSetObjCreate
PUBLIC df0fd 0 strapChkSetObjDelete
PUBLIC df389 0 strapChkSetObjTableCreate
PUBLIC df3b6 0 strapChkSetObjTableDelete
PUBLIC df407 0 strapReadAssertion
PUBLIC dfa91 0 strapAddChkSetStatusProp
PUBLIC dfb01 0 strapReadChkSetAssertion
PUBLIC dfb0f 0 strapReadChkSetBranchEnables
PUBLIC dfb1d 0 strapReadChkSetFsms
PUBLIC dfb2b 0 strapReadChkSetXChecks
PUBLIC dfb39 0 strapReadChkSetXProps
PUBLIC dfb47 0 strapReadChkSetCovers
PUBLIC dfb55 0 strapReadChkSetBusCheck
PUBLIC dfb63 0 strapReadChkSetRangeOverflow
PUBLIC dfb71 0 strapReadChkSetToggleCheck
PUBLIC dfb7f 0 strapReadChkSets
PUBLIC dfc24 0 strapGetChkSetObj
PUBLIC dfc3f 0 strapDumpChkSetScope
PUBLIC dfc40 0 strapDumpChkSetObj
PUBLIC dfd99 0 strapDumpChkSetObjHT
PUBLIC dfeae 0 strapChkSetIsGroupDebug
PUBLIC dfed2 0 strapChkSetIsTrigger
PUBLIC dfef6 0 strapReadChkSet
PUBLIC e0688 0 strapVarObjUpdate
PUBLIC e0740 0 strapChkSetObjUpdate
PUBLIC e0bbd 0 strapChkSetNotify
PUBLIC e10db 0 strapGetChkSetAssertionValue
PUBLIC e11b0 0 strapConvertDepthToString
PUBLIC e120c 0 strapGetTriggerStatus
PUBLIC e12bf 0 strapGetWitnessStatus
PUBLIC e1372 0 strapGetChkSetAssertionBasicProps
PUBLIC e199c 0 strapGetBranchEnableBasicProps
PUBLIC e1aca 0 strapGetFsmBasicProps
PUBLIC e1bf8 0 strapGetXCheckBasicProps
PUBLIC e1cd6 0 strapGetXPropBasicProps
PUBLIC e1db4 0 strapGetCoverBasicProps
PUBLIC e1ee2 0 strapGetBusCheckBasicProps
PUBLIC e1fc0 0 strapGetRangeOverflowBasicProps
PUBLIC e209e 0 strapGetToggleCheckBasicProps
PUBLIC e217c 0 strapGetChkSetDynProp
PUBLIC e227d 0 strapGetChkSetBasicProps
PUBLIC e2cc9 0 strapGetChkSetScopeChildren
PUBLIC e2e03 0 strapGetChkSetScopePtr
PUBLIC e2f0e 0 strapGetChkSetVars
PUBLIC e2f82 0 strapGetChkSetVar
PUBLIC e30e4 0 strapGetChkSet
PUBLIC e316e 0 strapGetChkSetBranchEnableVars
PUBLIC e31e2 0 strapGetChkSetBranchEnableVar
PUBLIC e3289 0 strapGetChkSetFsmVars
PUBLIC e32fd 0 strapGetChkSetFsmVar
PUBLIC e33a4 0 strapGetChkSetXCheckVars
PUBLIC e3418 0 strapGetChkSetXCheckVar
PUBLIC e34bf 0 strapGetChkSetCoverVars
PUBLIC e3533 0 strapGetChkSetCoverVar
PUBLIC e35da 0 strapGetChkSetBusCheckVars
PUBLIC e364e 0 strapGetChkSetBusCheckVar
PUBLIC e36f5 0 strapGetChkSetRangeOverflowVars
PUBLIC e3769 0 strapGetChkSetRangeOverflowVar
PUBLIC e3810 0 strapGetChkSetAllVars.localalias
PUBLIC e3b40 0 strapGetIFVCovData.localalias
PUBLIC e4405 0 itcStartProcess
PUBLIC e44d3 0 strapExec
PUBLIC e454d 0 Strap_InitExec
PUBLIC e4580 0 strapESW
PUBLIC e4614 0 Strap_InitESW
PUBLIC e4647 0 strapInterruptSim
PUBLIC e468a 0 strapEdgeVhpiValueChangeCB
PUBLIC e469d 0 strapEdgeScpiValueChangeCB
PUBLIC e46b5 0 strapEdgeVpiValueChangeCB
PUBLIC e46cd 0 Strap_InitEdge
PUBLIC e4730 0 strapEdgeRegisterCB
PUBLIC e4c23 0 strapEdgeClearCallbacks
PUBLIC e4cde 0 strapEdge
PUBLIC e4d7d 0 closeAllFiles
PUBLIC e4e45 0 strapReinvokePPE
PUBLIC e5013 0 strapReinvokeOp
PUBLIC e50f5 0 Strap_InitReinvoke
PUBLIC e5128 0 strapDestroyIterObj
PUBLIC e5193 0 strapInitIterObj
PUBLIC e51d3 0 strapResetIterObj
PUBLIC e5293 0 strapConstructIterObj
PUBLIC e5302 0 strapPliIterate
PUBLIC e5365 0 strapDestroyIterObjList
PUBLIC e53a2 0 strapInitIter
PUBLIC e55cf 0 strapCleanUpIter
PUBLIC e57df 0 strapIterate
PUBLIC e58d7 0 strapScan
PUBLIC e5a62 0 strapRegeneratingIter
PUBLIC e5a77 0 strapAdjustCurrIterCnt
PUBLIC e5a80 0 strapStatus2String
PUBLIC e5ae7 0 strapDumpIterObjHT
PUBLIC e5dde 0 VisaMsgHandler
PUBLIC e5de4 0 strapProcessStatusMessage
PUBLIC e5f48 0 strapSyscProcessCB
PUBLIC e5fcd 0 strapSyscHierChangeCB
PUBLIC e612f 0 strapSyscMemMapChangeCB
PUBLIC e61fe 0 visadevInitAlterCdsLib
PUBLIC e6226 0 visadevInitAlterCdsTmplib
PUBLIC e6267 0 visadevInitTmpDir
PUBLIC e6291 0 visadevInitAlterTmpDir
PUBLIC e62ba 0 visadevInit
PUBLIC e62e4 0 visadevLoad
PUBLIC e62fa 0 visadevLoad_op
PUBLIC e6310 0 visadevClose
PUBLIC e632b 0 visadevNclibHandle
PUBLIC e633e 0 visadevNclibGet
PUBLIC e6351 0 strapWritePliMesg
PUBLIC e641f 0 strapPliErrorMesg
PUBLIC e660b 0 Strap_VisaWarningHandler
PUBLIC e67ee 0 strapPliErrorCB
PUBLIC e69bb 0 strapRegisterPliErrorCB
PUBLIC e6a7a 0 strapClearPliErrorCB
PUBLIC e6add 0 strapRegisterSyscProcessCB
PUBLIC e6ba9 0 strapClearSyscProcessCB
PUBLIC e6c0c 0 strapRegisterSyscMemMapChangeCB
PUBLIC e6cde 0 strapClearSyscMemMapChangeCB
PUBLIC e6d41 0 strapRegisterSyscHierChangeCB
PUBLIC e6e13 0 strapClearSyscHierChangeCB
PUBLIC e6e76 0 strapSuspend
PUBLIC e7407 0 Strap_InitSuspend
PUBLIC e7465 0 makeFullName
PUBLIC e74d1 0 strapRtlCreatePortList
PUBLIC e74e4 0 addNameToRegion
PUBLIC e7613 0 getCorrectHdlArrayPart
PUBLIC e76fd 0 _getHdlName
PUBLIC e7b76 0 strapRtlAddPort
PUBLIC e7c2b 0 strapRtlAddElement
PUBLIC e7ca7 0 getScopesForInit
PUBLIC e7d5d 0 isConstantZero
PUBLIC e7e68 0 getDriverName
PUBLIC e850e 0 getScopesForDelay
PUBLIC e862a 0 getScopesForWire
PUBLIC e8836 0 getScopesForResolve
PUBLIC e89af 0 getScopesForLatch
PUBLIC e8ba7 0 getScopesForFF
PUBLIC e8f38 0 strapRtlConvertToStrap
PUBLIC e9954 0 strapCPI_DestroyHandles
PUBLIC e999c 0 strapCPI_IsRTLObject
PUBLIC e99bb 0 strapCPI_getVar
PUBLIC e99c1 0 strapCPI_getScope
PUBLIC e9a8f 0 strapCPI_Init
PUBLIC ea269 0 strapCPI_AddElements
PUBLIC ea457 0 strapCPI_IsModuleBlackBoxed
PUBLIC ea52c 0 check_for_map_to_cont_assign
PUBLIC ea576 0 NatRTL_detach_node
PUBLIC ea5d8 0 NatRTL_find_rule_in_library
PUBLIC ea650 0 check_for_NYI_nodes
PUBLIC ea68a 0 NatRTL_count_tree_nodes
PUBLIC ea6cb 0 getNodeFromTable
PUBLIC ea712 0 NatRTL_translate_ast_to_sig
PUBLIC ea865 0 createSignal
PUBLIC ea879 0 isPosEdge
PUBLIC ea8a5 0 strIsAllZs
PUBLIC ea8db 0 analyzeExpression
PUBLIC ea980 0 isCombExpression
PUBLIC ea9b2 0 isConstExpression
PUBLIC ea9e4 0 isEventExpression
PUBLIC eaa12 0 NatRTL_append_node
PUBLIC eaa60 0 NatRTL_add_entry_to_table
PUBLIC eaab7 0 NatRTL_dist_ast_get_outputs
PUBLIC eab33 0 NatRTL_create_node
PUBLIC eaba0 0 NatRTL_push_new_node
PUBLIC eabb7 0 NatRTL_process_reg_net_expr
PUBLIC eac88 0 NatRTL_dist_ast_stripped_copy
PUBLIC eacff 0 NatRTL_push_copy
PUBLIC ead4e 0 copy_tree
PUBLIC ead9d 0 NatRTL_translate_vhdlOp
PUBLIC eb03d 0 getName
PUBLIC eb0ba 0 getFullName
PUBLIC eb0cd 0 NatRTL_process_expr
PUBLIC ebbc4 0 get_all_rhs_nodes
PUBLIC ebc38 0 check_output_chain
PUBLIC ebe2d 0 get_all_lhs_nodes
PUBLIC ebea9 0 get_primary_io
PUBLIC ebfae 0 get_primary_inputs
PUBLIC ebff0 0 NatRTL_vhdl_get_value
PUBLIC ec1e7 0 NatRTL_get_value
PUBLIC ec2c5 0 NatRTL_add_unique_entry_to_table
PUBLIC ec339 0 isAllZeroes
PUBLIC ec3c0 0 get_inst_name
PUBLIC ec474 0 NatRTL_destroy_sig_table
PUBLIC ec4ad 0 isValue
PUBLIC ec539 0 NatRTL_delete_tree
PUBLIC ec612 0 simplify_condition
PUBLIC ec7fd 0 NatRTL_dist_ast_remove_dead_code
PUBLIC ec8c1 0 NatRTL_map_case_to_mux
PUBLIC ecf34 0 NatRTL_map_flow_to_mux
PUBLIC ed335 0 gen_unknown_block
PUBLIC ed4fb 0 endBody
PUBLIC ed537 0 strIsAllOnes
PUBLIC ed58b 0 isAllOnes
PUBLIC ed5e3 0 isIdentical
PUBLIC ed751 0 makeFullName
PUBLIC ed7bd 0 makeTempName
PUBLIC ed803 0 isInSensitivityList
PUBLIC ed923 0 NatRTL_getDriverName
PUBLIC ee1fd 0 NatRTL_get_expression_signal_name
PUBLIC ee26c 0 add_io
PUBLIC ee5f4 0 add_in
PUBLIC ee806 0 addInput
PUBLIC ee828 0 addOutput
PUBLIC ee84a 0 NatRTL_sig_gen_assign_block
PUBLIC ee985 0 NatRTL_sig_gen_n_assigns
PUBLIC eee58 0 copy_tree_to_signature
PUBLIC eefdd 0 copy_expression_to_signature
PUBLIC ef201 0 NatRTL_sig_gen_assign
PUBLIC ef511 0 NatRTL_sig_generate
PUBLIC f00d1 0 NatRTL_make_signature
PUBLIC f01ac 0 NatRTL_process_late_rules
PUBLIC f02ed 0 NatRTL_sig_gen_n_copies
PUBLIC f07e3 0 NatRTL_process_vhpiStmts
PUBLIC f0d88 0 NatRTL_process_vpiStmts
PUBLIC f1314 0 NatRTL_process_code
PUBLIC f22f4 0 strapRtl_AddElements
PUBLIC f2595 0 NatRTL_sch_gen_e_b_dff
PUBLIC f28c4 0 NatRTL_sch_gen_e_shifter
PUBLIC f2b9f 0 NatRTL_sch_gen_e_fifo
PUBLIC f2fcc 0 NatRTL_sch_gen_e_tri
PUBLIC f31cc 0 NatRTL_sch_gen_l_cl_ul
PUBLIC f33be 0 NatRTL_sch_gen_l_cl_dff
PUBLIC f35cf 0 NatRTL_sch_gen_l_cl_dff_lc_sc
PUBLIC f3be3 0 NatRTL_sch_gen_l_cl_dff_sc
PUBLIC f3f13 0 NatRTL_sch_gen_l_cl_dff_sr
PUBLIC f41b8 0 NatRTL_sch_gen_l_cl_dff_ld_nc
PUBLIC f4357 0 NatRTL_sch_gen_l_fsm
PUBLIC f47b6 0 NatRTL_sch_gen_l_cl_jkff_sc
PUBLIC f4ae9 0 NatRTL_sch_gen_vhdl_jkff
PUBLIC f4da7 0 NatRTL_sch_gen_vhdl_l_cl_dff
PUBLIC f4ff0 0 NatRTL_sch_gen_l_cl_lat
PUBLIC f50dd 0 NatRTL_sch_gen_vhdl_l_cl_lat
PUBLIC f520f 0 NatRTL_sch_gen_vhdl_decoder
PUBLIC f555a 0 strapEmulator
PUBLIC f560d 0 Strap_InitEmulator
PUBLIC f5640 0 makeFullName
PUBLIC f5694 0 addNameToRegion
PUBLIC f57cd 0 strapRtlCreatePortList
PUBLIC f57e0 0 strapRtlDestroyPortList
PUBLIC f583a 0 strapRtlCreateElementList
PUBLIC f584d 0 strapRtlDestroyElementList
PUBLIC f58b4 0 strapRtlAddPort
PUBLIC f5969 0 strapRtlAddElementB
PUBLIC f5b4d 0 checkConsistency
PUBLIC f5c06 0 strapRtlConvertToStrap
PUBLIC f6438 0 strapRtl_DestroyHandles
PUBLIC f6491 0 strapRtl_IsRTLObject
PUBLIC f64b0 0 strapRtl_getVar
PUBLIC f653e 0 strapRtl_getScope
PUBLIC f6757 0 repEventEnable
PUBLIC f67a1 0 repEvent_send
PUBLIC f6840 0 repEventDisable
PUBLIC f6869 0 Strap_InitRepEvent
PUBLIC f68e7 0 strapGetCountProperties
PUBLIC f6bc9 0 strapGetCheck
PUBLIC f6c8e 0 strapGetCategories
PUBLIC f6df4 0 strapGetTagExtendedMessage
PUBLIC f6e52 0 strapGetMessageBasicProperties
PUBLIC f7052 0 strapGetTagBasicProperties
PUBLIC f72e4 0 strapGetTags
PUBLIC f740e 0 strapCheckNotify
PUBLIC f754f 0 add_driver_marks_to_tree
PUBLIC f75cc 0 validate_dly_usage
PUBLIC f7614 0 normalize_all_delays
PUBLIC f7653 0 find_longest_delay
PUBLIC f7688 0 find_most_relevant_nyi
PUBLIC f7871 0 has_function
PUBLIC f78b3 0 detach_node
PUBLIC f7910 0 distribute_delays
PUBLIC f79a4 0 append_node
PUBLIC f79e3 0 delete_tree
PUBLIC f7a77 0 subst_with_child
PUBLIC f7b39 0 xform_reduce_proc_blocks
PUBLIC f7bc9 0 xform_strip_unmarked_blocks
PUBLIC f7c68 0 xform_strip_unmarked_assignments
PUBLIC f7cac 0 xform_reduce_assignment
PUBLIC f7d24 0 xform_and_ones
PUBLIC f7e36 0 merge_ds_message
PUBLIC f7eaf 0 create_node
PUBLIC f7f39 0 push_new_node
PUBLIC f7f50 0 remove_event_list
PUBLIC f7fe7 0 insert_node
PUBLIC f809a 0 xform_events_p1
PUBLIC f81ba 0 xform_events_p2
PUBLIC f82ac 0 xform_reduce_if_then_else
PUBLIC f838b 0 getFullName
PUBLIC f8404 0 xform_noncontributors
PUBLIC f851b 0 translate_vhdlOp
PUBLIC f880c 0 process_expr
PUBLIC f915e 0 check_special_assignment_op
PUBLIC f92aa 0 get_constant_value
PUBLIC f9655 0 simplify_condition
PUBLIC f985b 0 accumulate_delays
PUBLIC f9910 0 generate_time_units
PUBLIC f9bc6 0 report_nyi_node
PUBLIC f9d4a 0 duplicate_tree
PUBLIC f9df8 0 xform_reduce_case_statements
PUBLIC fa346 0 transform_tree_to_expression2
PUBLIC fa399 0 process_vpiStmts
PUBLIC fa9fb 0 process_vhpiStmts
PUBLIC faf5a 0 handle_special_assignment
PUBLIC fb083 0 build_tree
PUBLIC fbdc2 0 strapDriverGrading_Reinit
PUBLIC fbe6b 0 drgrStackCreate
PUBLIC fbe76 0 drgrStackDestroy
PUBLIC fbe81 0 drgrStackPush
PUBLIC fbea4 0 drgrStackPop
PUBLIC fbeac 0 adjust_expr
PUBLIC fbf0f 0 generate_expression
PUBLIC fcf27 0 processDriver
PUBLIC fdc4e 0 drgrProcessDriver
PUBLIC fdd11 0 drgrProcessPrimitive
PUBLIC fe1fb 0 strapAddFsmsInfo
PUBLIC feab9 0 strapCreateFsmElement
PUBLIC feb19 0 strapDestroyFsmElement
PUBLIC feb48 0 strapStateVarFullName
PUBLIC feca8 0 strapFsmFileLine
PUBLIC fff59 0 strapFsmFile
PUBLIC fffc9 0 strapLwdFsmFile
PUBLIC 100325 0 strapStateVarFsmVl
PUBLIC 1003f7 0 strapAddFsmStateInfoVl
PUBLIC 100596 0 strapAddFsmTransitionInfoVl
PUBLIC 1007f3 0 strapAddFsmInfoVl
PUBLIC 100871 0 strapSetChkErrorFlag
PUBLIC 100d51 0 strapChkErr
PUBLIC 100db6 0 strapPeekSuppressPliError
PUBLIC 100e17 0 strapPopSuppressPliError
PUBLIC 100e75 0 strapPushSuppressPliError
PUBLIC 100ec1 0 strapCreateSuppressPliErrorStack
PUBLIC 100f05 0 strapDestroySuppressPliErrorStack
PUBLIC 100f36 0 strap_vpi_handle
PUBLIC 10105a 0 strapVpiHandle
PUBLIC 10107d 0 strap_vpi_handle_by_name
PUBLIC 101167 0 strapVpiHandleByName
PUBLIC 10118a 0 strap_vpi_handle_by_index
PUBLIC 10126b 0 strapVpiHandleByIndex
PUBLIC 10128e 0 strap_vpi_handle_by_multi_index
PUBLIC 10137b 0 strapVpiHandleByMultiIndex
PUBLIC 10139e 0 strap_vpi_iterate
PUBLIC 1014be 0 strap_vpi_scan
PUBLIC 10158d 0 strapVpiScan
PUBLIC 1015b0 0 strap_vpi_get
PUBLIC 10169d 0 strapVpiIterate
PUBLIC 101798 0 strapVpiGet
PUBLIC 1017b8 0 strap_vpi_get_long
PUBLIC 101899 0 strapVpiGetLong
PUBLIC 1018bc 0 strap_vpi_get_str
PUBLIC 1019ae 0 strapVpiGetStr
PUBLIC 1019db 0 strap_vpi_get_value
PUBLIC 101ab1 0 strapVpiGetValue
PUBLIC 101ac9 0 strap_vhpi_handle
PUBLIC 101b58 0 strapVhpiHandle
PUBLIC 101b7b 0 strap_vhpi_handle_by_name
PUBLIC 101c0a 0 strapVhpiHandleByName
PUBLIC 101c2d 0 strap_vhpi_handle_by_index
PUBLIC 101cd1 0 strapVhpiHandleByIndex
PUBLIC 101cf4 0 strap_vhpi_iterator
PUBLIC 101d83 0 strapVhpiIterator
PUBLIC 101da6 0 strap_vhpi_get
PUBLIC 101e35 0 strapVhpiGet
PUBLIC 101e55 0 strap_vhpi_get_dynamic
PUBLIC 101ef9 0 strapVhpiGetDynamic
PUBLIC 101f19 0 strap_vhpi_get_dyn_object_value
PUBLIC 101fbd 0 strap_vhpi_get_long
PUBLIC 10204c 0 strapVhpiGetLong
PUBLIC 10206f 0 strap_vhpi_get_phys
PUBLIC 1020fe 0 strapVhpiGetPhys
PUBLIC 102141 0 strap_vhpi_get_real
PUBLIC 1021e1 0 strapVhpiGetReal
PUBLIC 102208 0 strap_vhpi_get_str
PUBLIC 102297 0 strapVhpiGetStr
PUBLIC 1022ba 0 strap_vhpi_get_value
PUBLIC 102349 0 strapVhpiGetValue
PUBLIC 102369 0 strap_scpi_handle_by_name
PUBLIC 1023f8 0 strapScpiHandleByName
PUBLIC 10241b 0 strap_dlsym
PUBLIC 10245e 0 strapEpiGetValue
PUBLIC 1024cf 0 strapRemoveIndexInfo
PUBLIC 102526 0 strapEpiGet
PUBLIC 10257a 0 strapEpiGetError
PUBLIC 1025c0 0 strapEpiGetStr
PUBLIC 102614 0 strapGenERecordObject
PUBLIC 102656 0 strapEpiHandle
PUBLIC 1026aa 0 strapETestPhaseChangeCB
PUBLIC 102829 0 strapGenETypeObject
PUBLIC 102a49 0 strapEpiIterator
PUBLIC 102a9d 0 strapEpiRegisterCb
PUBLIC 102ae3 0 strapEpiRemoveCb
PUBLIC 102b29 0 strapEpiScan
PUBLIC 102b6f 0 strapEpiUvmIterate
PUBLIC 102bc1 0 strapEpiUvmScan
PUBLIC 102c05 0 strapEpiUvmFreeObject
PUBLIC 102c42 0 strapEpiUvmGetStr
PUBLIC 102c94 0 strapEpiUvmGet
PUBLIC 102ce6 0 strapEpiUvmHandle
PUBLIC 102d38 0 strapEpiUvmHandleByName
PUBLIC 102d8c 0 strapEpiUvmPackagePresent
PUBLIC 102dd0 0 strapEpiGetVarValue
PUBLIC 102e8d 0 strapEpiHandleByName
PUBLIC 102f59 0 strapEpiWeoHandleByName
PUBLIC 102faf 0 strapEpiControl
PUBLIC 103008 0 strapEpiGetTimeResolution
PUBLIC 103053 0 strapEpiGetSimulationTime
PUBLIC 10309e 0 strapEpi_udmGetCallStack
PUBLIC 1030f7 0 strapEpiGetAllBreaks
PUBLIC 103150 0 strapEpiGetAllWEOs
PUBLIC 1031a9 0 strapEpiGetAllFiles
PUBLIC 103200 0 strapRegisterETestPhaseChangeCB
PUBLIC 103307 0 strapRegisterEUnitTreeUpdateCB
PUBLIC 10340e 0 strapClearETestPhaseChangeCB
PUBLIC 103462 0 strapClearEUnitTreeUpdateCB
PUBLIC 1034b6 0 strapUnitHandleByName
PUBLIC 1034d8 0 strapGetSpecmanConnectionFileInner
PUBLIC 103523 0 strapGetSpecmanConnectionFile
PUBLIC 10354f 0 strapInstallUnitName
PUBLIC 1035e1 0 Strap_InitSpecman
PUBLIC 1035e7 0 specmanSupportsUniSB
PUBLIC 1035ed 0 Strap_InitHandshake
PUBLIC 1035ee 0 strapSpecmanModeHidden
PUBLIC 1035f4 0 strapSpecmanGetTimeResolution
PUBLIC 103607 0 strapSpecmanGetSimulationTime
PUBLIC 10361a 0 strapGetWEO
PUBLIC 10382a 0 strapWrapEItem
PUBLIC 103889 0 strapEpiIterateForPortBasicProps
PUBLIC 1039e6 0 strapEUnitTreeUpdateCB
PUBLIC 103c5b 0 strapProcessUnitLabel
PUBLIC 103dd0 0 strapAddEpathProp
PUBLIC 103f70 0 strapGetUnitBasicProps
PUBLIC 104346 0 strapIterateForChildUnits
PUBLIC 104699 0 strapIterateForUnitChildVars
PUBLIC 1048a5 0 strapIsWrappedEItem
PUBLIC 1048e0 0 strapUnwrapEItem
PUBLIC 10491a 0 strapEFiles
PUBLIC 104a5b 0 strapIterateForName
PUBLIC 104ad7 0 strapAddCpfSourceChunks
PUBLIC 104c4a 0 strapPwrDomainBasicProps
PUBLIC 104faa 0 strapCheckPortFormals
PUBLIC 10501c 0 strapPortPosInCompInst
PUBLIC 10552d 0 strapIterateForPortSpec
PUBLIC 105fcc 0 strapIterateForRuleBasicProps
PUBLIC 1067f9 0 strapGetPwrSupplyPorts
PUBLIC 1069e6 0 strapGetPwrSupplyNets
PUBLIC 106d85 0 strapGetPwrSupplySets
PUBLIC 106fcc 0 strapGetPwrSwitches
PUBLIC 1072f6 0 strapGetPwrDomains
PUBLIC 1073f7 0 strapGetPwrModes
PUBLIC 107611 0 strapGetNominalConds
PUBLIC 10779c 0 strapGetPwrDomain
PUBLIC 107d1c 0 strapGetPwrSupplyNet
PUBLIC 107e87 0 strapGetPwrSwitch
PUBLIC 107ff2 0 strapIterateDesignSrchScope
PUBLIC 1081cb 0 strapDesignSrch
PUBLIC 108222 0 strapDestroyMacroObj
PUBLIC 108236 0 strapCreateMacroObj
PUBLIC 10833f 0 strapGetMacro
PUBLIC 1087f0 0 strapDumpMacroObjHT
PUBLIC 1089b3 0 strapGetMemMapProps
PUBLIC 108beb 0 strapGetMemMap
PUBLIC 108c58 0 strapMemMaps
PUBLIC 108cb0 0 strapGetVSPLogThemeProps
PUBLIC 108f35 0 strapGetVSPLogTheme
PUBLIC 10909e 0 strapGetVSPLogThemeList
PUBLIC 109138 0 strapHandleInit
PUBLIC 109162 0 strapHandleAlloc
PUBLIC 1091a6 0 strapHandleFree
PUBLIC 1091ba 0 strapHandleH
PUBLIC 1091c7 0 strapHandleSetH
PUBLIC 1091de 0 strapHandleType
PUBLIC 1092a7 0 strapHandleLang
PUBLIC 1092da 0 strapGetUP
PUBLIC 109449 0 strapFormalVerifier
PUBLIC 109513 0 Strap_InitFormalVerifier
PUBLIC 109546 0 strap_dlsym
PUBLIC 10968c 0 strapSizeUvmEnableStack
PUBLIC 1096ba 0 strapEnableDPIExportFunc
PUBLIC 10971a 0 strapDisableDPIExportFunc
PUBLIC 10977f 0 strapUvmGetTable
PUBLIC 1097c3 0 strapUvmGetTableByName
PUBLIC 109809 0 strapUvmGetTableName
PUBLIC 10984f 0 strapUvmGetRoot
PUBLIC 1098a3 0 strapUvmGetChildCount
PUBLIC 1098e9 0 strapUvmGetChild
PUBLIC 10993d 0 strapUvmNodeToString
PUBLIC 109991 0 strapUvmDumpNode
PUBLIC 1099de 0 strapUvmGetColumn
PUBLIC 109a32 0 strapUvmInit2
PUBLIC 109a86 0 strapUvmResetTable
PUBLIC 109ac5 0 strapUvmGetColumnIdxByName
PUBLIC 109b1b 0 strapUvmLPN_getLPNTranslationService
PUBLIC 109b66 0 strapUvmLPN_LPN2Node
PUBLIC 109bbc 0 strapUvmLPN_Handle2LPN
PUBLIC 109c12 0 strapUvmLPN_update
PUBLIC 109c61 0 strapUvmGetValueSVstringAsChar
PUBLIC 109cb7 0 strapUvmGetValueStringAsChar
PUBLIC 109d0d 0 strapUvmGetValueIntAsInt
PUBLIC 109d63 0 strapUvmNextComponentName
PUBLIC 109da7 0 strapUvmClose
PUBLIC 109de3 0 strapUvmGetUnderlyingHandle
PUBLIC 109e82 0 strapFilterUvmComp
PUBLIC 10a039 0 strapGetUvmCompBasicProps
PUBLIC 10a2a3 0 strapGetUvmCompProps
PUBLIC 10a371 0 strapIsSvLibReqd
PUBLIC 10a3a7 0 strapIsELibReqd
PUBLIC 10a3c0 0 strapGenTypeObjForUvm
PUBLIC 10a46c 0 strapGetUvmRegBasicProps
PUBLIC 10a902 0 strapGetUvmPhaseState
PUBLIC 10a909 0 strapSetUvmPhaseState
PUBLIC 10a910 0 strapGetCurrentUvmPhaseState
PUBLIC 10aa80 0 strapResetUvmPhaseState
PUBLIC 10aaa9 0 strapIsUvmApiAvailable
PUBLIC 10b002 0 strapGetTopUvmRegs
PUBLIC 10b0a1 0 strapGetUvmReg
PUBLIC 10b2d6 0 strapGetTopUvmComps
PUBLIC 10b40e 0 strapGetUvmComp
PUBLIC 10b644 0 strapCreateUvmEnableStack
PUBLIC 10b688 0 strapDestroyUvmEnableStack
PUBLIC 10b6b9 0 strapGetUvmFilterList
PUBLIC 10b75a 0 sfbStackPush
PUBLIC 10b77d 0 strapDumpLwdOomrs_int
PUBLIC 10bbf6 0 strapLwdOomrRefsAllFound
PUBLIC 10bc88 0 strapLwdOomrCheck
PUBLIC 10c1e0 0 strapLwdOomrCheckStmt
PUBLIC 10cbc9 0 strapLwdOomrIterateForStmts
PUBLIC 10cc64 0 strapLwdOomrProcessScope
PUBLIC 10d142 0 strapCreateOomrElement
PUBLIC 10d174 0 strapDestroyOomrElement
PUBLIC 10d194 0 strapCreateOomrDetails
PUBLIC 10d1b9 0 strapCreateOomrRef
PUBLIC 10d239 0 strapDestroyOomrRef
PUBLIC 10d276 0 strapDestroyOomrDetails
PUBLIC 10d2e1 0 strapDumpLwdOomrs
PUBLIC 10d331 0 strapDumpLwdOomrs_c
PUBLIC 10d3be 0 strapAddRefToDetailsNoDups
PUBLIC 10d505 0 strapOpenLwdFile
PUBLIC 10d60d 0 strapOomrNextToken
PUBLIC 10d88d 0 strapLwdOomrFile
PUBLIC 10e304 0 strapFindLwdOomrRefs
PUBLIC 10e8a9 0 strapLwdRefFullName
PUBLIC 10e912 0 strapLwdOomrAppendPortion
PUBLIC 10ea4c 0 strapLwdOomrRefFullName
PUBLIC 10f016 0 strapLwdLoadOomrData
PUBLIC 10f068 0 strapRemoveExtIdBraces
PUBLIC 10f0b1 0 strapDumpOomrDBMesg
PUBLIC 10f114 0 strapGetIdxLenNum
PUBLIC 10f1b1 0 strapGetLwdDir
PUBLIC 10f259 0 strapGetLwdDatabaseFullPath
PUBLIC 10f2d2 0 strapDumpOomrDBEntry
PUBLIC 10f472 0 strapSimOomrDBSearch
PUBLIC 10f7d9 0 strapLwdOomrDB
PUBLIC 10ffc7 0 strapPopulateLwdOomr
PUBLIC 1105b3 0 strapLwdOomrReplaceWithVarIdx
PUBLIC 11087d 0 strapLwdOomrDBRefFullNameFromSrcRep
PUBLIC 110db0 0 strapLwdGetCoercionFlag
PUBLIC 110e04 0 strapOomrDBGetDerivedClassInfo
PUBLIC 110f9f 0 strap_dlsym
PUBLIC 111179 0 strapIdaGetMethod
PUBLIC 1111cf 0 strapIdaGetVarName
PUBLIC 111215 0 strapIdaGetVarIdentifierName
PUBLIC 11125b 0 strapIdaGetMethodVars
PUBLIC 1112b1 0 strapIdaGetLhsVars
PUBLIC 111307 0 strapIdaGetRhsVars
PUBLIC 11135d 0 strapIdaGetCtrlData
PUBLIC 1113c2 0 strapIdaGetVarKindStr
PUBLIC 111408 0 strapIdaGetMethodLwd
PUBLIC 111472 0 strapIdaGetVarIdentifierNameLwd
PUBLIC 1114c8 0 strapIdaGetMethodVarsLwd
PUBLIC 111532 0 strapIdaGetLhsVarsLwd
PUBLIC 11159c 0 strapIdaGetRhsVarsLwd
PUBLIC 111606 0 strapIdaGetCtrlDataLwd
PUBLIC 11167d 0 ida_linked_list_new_
PUBLIC 1116c8 0 ida_linked_list_init_
PUBLIC 111717 0 ida_linked_list_size_
PUBLIC 11175d 0 ida_linked_list_add_
PUBLIC 1117ac 0 ida_linked_list_set_head_
PUBLIC 1117eb 0 ida_linked_list_next_
PUBLIC 111831 0 strapVars
PUBLIC 111928 0 ida_linked_list_get_
PUBLIC 11197c 0 ida_linked_list_delete_
PUBLIC 1119c9 0 ida_linked_list_free_
PUBLIC 111a08 0 strapGetIda
PUBLIC 111de0 0 strapExecCmd
PUBLIC 111e74 0 strapGetSpecmanLibDirPath
PUBLIC 111f7a 0 strapGenPathForLib.localalias
PUBLIC 112194 0 strapLwdVhCheckExpr
PUBLIC 1124db 0 strapLwdVhFinishDriver
PUBLIC 112546 0 strapLwdVhCheckPorts
PUBLIC 112a31 0 strapLwdVhCheckStmt
PUBLIC 1138e4 0 strapLwdVhAssignments
PUBLIC 113b19 0 strapLwdVhDrivers
PUBLIC 113c58 0 strapLwdVhLoads
PUBLIC 113d6d 0 strapDumpLwdXprop_int
PUBLIC 113f3f 0 strapDumpLwdXprop
PUBLIC 113f8f 0 strapDumpLwdXprop_c
PUBLIC 11401c 0 strapLwdXpropFile
PUBLIC 1145d8 0 strapLwdXprop
PUBLIC 1148ca 0 loadInitLibVisadev
PUBLIC 115993 0 initLibVisadevTray
PUBLIC 115a06 0 strapUnorderedMapByNameNew
PUBLIC 115a57 0 strapUnorderedMapByNameSize
PUBLIC 115a67 0 strapUnorderedMapByNameBegin
PUBLIC 115a88 0 strapUnorderedMapByNameEnd
PUBLIC 115aab 0 strapUnorderedMapByNameIterNext
PUBLIC 115abd 0 strapUnorderedMapByNameIterEq
PUBLIC 115adc 0 strapUnorderedMapByNameKeyFromIter
PUBLIC 115aed 0 strapUnorderedMapByNameValueFromIter
PUBLIC 115afe 0 strapUnorderedMapByNameFreeIterHandle
PUBLIC 115b17 0 strapMapByNameNew
PUBLIC 115b4d 0 strapMapByNameSize
PUBLIC 115b5d 0 strapMapByNameBegin
PUBLIC 115b7e 0 strapMapByNameEnd
PUBLIC 115b9f 0 strapMapByNameIterNext
PUBLIC 115bb8 0 strapMapByNameIterEq
PUBLIC 115bd7 0 strapMapByNameKeyFromIter
PUBLIC 115be8 0 strapMapByNameValueFromIter
PUBLIC 115bf9 0 strapMapByNameFreeIterHandle
PUBLIC 115c12 0 strapAmsspice::isDebug()
PUBLIC 115c52 0 strapRemoveVerilogEscape
PUBLIC 115d02 0 strapFreeSpiceMappedPortName
PUBLIC 115d16 0 strapVpiHandleMapClear
PUBLIC 115d2b 0 strapMapByNameDelete
PUBLIC 115d4d 0 strapAmsspice::tokenizeToVector(std::__cxx11::basic_string<char, std::char_traits<char>, std::allocator<char> > const&, std::__cxx11::basic_string<char, std::char_traits<char>, std::allocator<char> >)
PUBLIC 115eec 0 strapMapByNameFind
PUBLIC 115f74 0 strapMapByNameInsert
PUBLIC 115fb8 0 strapAmsspice::tolowercase(std::__cxx11::basic_string<char, std::char_traits<char>, std::allocator<char> > const&)
PUBLIC 11601c 0 strapMapByNameClear
PUBLIC 1160eb 0 strapPortbindGetFileName
PUBLIC 116261 0 strapGetSpiceMappedPortName
PUBLIC 116dbe 0 strapUnorderedMapByNameDelete
PUBLIC 116ded 0 strapUnorderedMapByNameClear
PUBLIC 116e8b 0 strapUnorderedMapByNameFind
PUBLIC 116f56 0 strapLoadSvmsIPPEDB
PUBLIC 117409 0 strapQuerySvmsIPPEDB
PUBLIC 117830 0 strapPreprocessPPEQuery
PUBLIC 117942 0 strapVpiHandleMapFind
PUBLIC 1179ea 0 strapUnorderedMapByNameInsert
PUBLIC 117a2e 0 (anonymous namespace)::getVersionProperties()
PUBLIC 117d67 0 (anonymous namespace)::getStringVersionProperty(std::__cxx11::basic_string<char, std::char_traits<char>, std::allocator<char> > const&)
PUBLIC 117ea5 0 (anonymous namespace)::getIntVersionProperty(char const*)
PUBLIC 11800a 0 strapGetRealAsWreal
PUBLIC 11806c 0 strapGetRealsRecorded
PUBLIC 1180ce 0 strapMatchXLMVersion
PUBLIC 1181d1 0 (anonymous namespace)::getStringVersionFeature(std::__cxx11::basic_string<char, std::char_traits<char>, std::allocator<char> > const&)
PUBLIC 11844c 0 strapIsLwdVersionFeatureEnabled
PUBLIC 11889c 0 strapGetLwdVersionFeature
PUBLIC 118936 0 _GLOBAL__sub_I_strapLwdCppUtils.cc
PUBLIC 118a58 0 boost::property_tree::json_parser::detail::external_ascii_superset_encoding::is_ws(char) const
PUBLIC 118a7c 0 boost::property_tree::json_parser::detail::external_ascii_superset_encoding::is_minus(char) const
PUBLIC 118a84 0 boost::property_tree::json_parser::detail::external_ascii_superset_encoding::is_plusminus(char) const
PUBLIC 118a90 0 boost::property_tree::json_parser::detail::external_ascii_superset_encoding::is_dot(char) const
PUBLIC 118a98 0 boost::property_tree::json_parser::detail::external_ascii_superset_encoding::is_eE(char) const
PUBLIC 118aa4 0 boost::property_tree::json_parser::detail::external_ascii_superset_encoding::is_0(char) const
PUBLIC 118aac 0 boost::property_tree::json_parser::detail::external_ascii_superset_encoding::is_digit(char) const
PUBLIC 118ab8 0 boost::property_tree::json_parser::detail::external_ascii_superset_encoding::is_digit0(char) const
PUBLIC 118ac4 0 boost::property_tree::json_parser::detail::external_ascii_superset_encoding::is_quote(char) const
PUBLIC 118acc 0 boost::property_tree::json_parser::detail::external_ascii_superset_encoding::is_backslash(char) const
PUBLIC 118ad4 0 boost::property_tree::json_parser::detail::external_ascii_superset_encoding::is_slash(char) const
PUBLIC 118adc 0 boost::property_tree::json_parser::detail::external_ascii_superset_encoding::is_comma(char) const
PUBLIC 118ae4 0 boost::property_tree::json_parser::detail::external_ascii_superset_encoding::is_open_bracket(char) const
PUBLIC 118aec 0 boost::property_tree::json_parser::detail::external_ascii_superset_encoding::is_close_bracket(char) const
PUBLIC 118af4 0 boost::property_tree::json_parser::detail::external_ascii_superset_encoding::is_colon(char) const
PUBLIC 118afc 0 boost::property_tree::json_parser::detail::external_ascii_superset_encoding::is_open_brace(char) const
PUBLIC 118b04 0 boost::property_tree::json_parser::detail::external_ascii_superset_encoding::is_close_brace(char) const
PUBLIC 118b0c 0 boost::property_tree::json_parser::detail::external_ascii_superset_encoding::is_a(char) const
PUBLIC 118b14 0 boost::property_tree::json_parser::detail::external_ascii_superset_encoding::is_b(char) const
PUBLIC 118b1c 0 boost::property_tree::json_parser::detail::external_ascii_superset_encoding::is_e(char) const
PUBLIC 118b24 0 boost::property_tree::json_parser::detail::external_ascii_superset_encoding::is_f(char) const
PUBLIC 118b2c 0 boost::property_tree::json_parser::detail::external_ascii_superset_encoding::is_l(char) const
PUBLIC 118b34 0 boost::property_tree::json_parser::detail::external_ascii_superset_encoding::is_n(char) const
PUBLIC 118b3c 0 boost::property_tree::json_parser::detail::external_ascii_superset_encoding::is_r(char) const
PUBLIC 118b44 0 boost::property_tree::json_parser::detail::external_ascii_superset_encoding::is_s(char) const
PUBLIC 118b4c 0 boost::property_tree::json_parser::detail::external_ascii_superset_encoding::is_t(char) const
PUBLIC 118b54 0 boost::property_tree::json_parser::detail::external_ascii_superset_encoding::is_u(char) const
PUBLIC 118b5c 0 boost::property_tree::ptree_error::~ptree_error()
PUBLIC 118b78 0 boost::property_tree::ptree_error::~ptree_error()
PUBLIC 118b9e 0 boost::property_tree::ptree_bad_path::~ptree_bad_path()
PUBLIC 118bd8 0 boost::property_tree::ptree_bad_data::~ptree_bad_data()
PUBLIC 118c12 0 boost::property_tree::file_parser_error::~file_parser_error()
PUBLIC 118c60 0 boost::property_tree::ptree_bad_data::~ptree_bad_data()
PUBLIC 118ca6 0 boost::property_tree::ptree_bad_path::~ptree_bad_path()
PUBLIC 118cec 0 boost::property_tree::json_parser::detail::standard_callbacks<boost::property_tree::basic_ptree<std::__cxx11::basic_string<char, std::char_traits<char>, std::allocator<char> >, std::__cxx11::basic_string<char, std::char_traits<char>, std::allocator<char> >, std::less<std::__cxx11::basic_string<char, std::char_traits<char>, std::allocator<char> > > > >::on_code_unit(char)
PUBLIC 118d68 0 boost::property_tree::json_parser::json_parser_error::~json_parser_error()
PUBLIC 118db6 0 boost::property_tree::file_parser_error::~file_parser_error()
PUBLIC 118e12 0 boost::property_tree::json_parser::json_parser_error::~json_parser_error()
PUBLIC 118e6e 0 boost::exception_detail::error_info_injector<boost::property_tree::json_parser::json_parser_error>::~error_info_injector()
PUBLIC 118ee8 0 non-virtual thunk to boost::exception_detail::error_info_injector<boost::property_tree::json_parser::json_parser_error>::~error_info_injector()
PUBLIC 118f72 0 virtual thunk to boost::exception_detail::clone_impl<boost::exception_detail::error_info_injector<boost::property_tree::json_parser::json_parser_error> >::~clone_impl()
PUBLIC 119008 0 non-virtual thunk to boost::exception_detail::clone_impl<boost::exception_detail::error_info_injector<boost::property_tree::json_parser::json_parser_error> >::~clone_impl()
PUBLIC 1190a4 0 boost::exception_detail::clone_impl<boost::exception_detail::error_info_injector<boost::property_tree::json_parser::json_parser_error> >::~clone_impl()
PUBLIC 119134 0 non-virtual thunk to boost::exception_detail::error_info_injector<boost::property_tree::json_parser::json_parser_error>::~error_info_injector()
PUBLIC 1191cc 0 boost::exception_detail::error_info_injector<boost::property_tree::json_parser::json_parser_error>::~error_info_injector()
PUBLIC 119254 0 non-virtual thunk to boost::exception_detail::clone_impl<boost::exception_detail::error_info_injector<boost::property_tree::json_parser::json_parser_error> >::~clone_impl()
PUBLIC 1192fd 0 virtual thunk to boost::exception_detail::clone_impl<boost::exception_detail::error_info_injector<boost::property_tree::json_parser::json_parser_error> >::~clone_impl()
PUBLIC 1193a0 0 boost::exception_detail::clone_impl<boost::exception_detail::error_info_injector<boost::property_tree::json_parser::json_parser_error> >::~clone_impl()
PUBLIC 11943c 0 boost::property_tree::basic_ptree<std::__cxx11::basic_string<char, std::char_traits<char>, std::allocator<char> >, std::__cxx11::basic_string<char, std::char_traits<char>, std::allocator<char> >, std::less<std::__cxx11::basic_string<char, std::char_traits<char>, std::allocator<char> > > >::basic_ptree()
PUBLIC 1194db 0 std::__cxx11::basic_string<char, std::char_traits<char>, std::allocator<char> > std::operator+<char, std::char_traits<char>, std::allocator<char> >(std::__cxx11::basic_string<char, std::char_traits<char>, std::allocator<char> >&&, char const*)
PUBLIC 11956a 0 std::vector<std::__cxx11::basic_string<char, std::char_traits<char>, std::allocator<char> >, std::allocator<std::__cxx11::basic_string<char, std::char_traits<char>, std::allocator<char> > > >::~vector()
PUBLIC 1195ac 0 std::_Hashtable<void*, void*, std::allocator<void*>, std::__detail::_Identity, std::equal_to<void*>, std::hash<void*>, std::__detail::_Mod_range_hashing, std::__detail::_Default_ranged_hash, std::__detail::_Prime_rehash_policy, std::__detail::_Hashtable_traits<false, true, true> >::clear()
PUBLIC 119600 0 std::unordered_set<void*, std::hash<void*>, std::equal_to<void*>, std::allocator<void*> >::~unordered_set()
PUBLIC 11961c 0 std::_Rb_tree<std::__cxx11::basic_string<char, std::char_traits<char>, std::allocator<char> >, std::pair<std::__cxx11::basic_string<char, std::char_traits<char>, std::allocator<char> > const, void*>, std::_Select1st<std::pair<std::__cxx11::basic_string<char, std::char_traits<char>, std::allocator<char> > const, void*> >, std::less<std::__cxx11::basic_string<char, std::char_traits<char>, std::allocator<char> > >, std::allocator<std::pair<std::__cxx11::basic_string<char, std::char_traits<char>, std::allocator<char> > const, void*> > >::_M_erase(std::_Rb_tree_node<std::pair<std::__cxx11::basic_string<char, std::char_traits<char>, std::allocator<char> > const, void*> >*)
PUBLIC 119664 0 std::_Rb_tree<std::__cxx11::basic_string<char, std::char_traits<char>, std::allocator<char> >, std::pair<std::__cxx11::basic_string<char, std::char_traits<char>, std::allocator<char> > const, void*>, std::_Select1st<std::pair<std::__cxx11::basic_string<char, std::char_traits<char>, std::allocator<char> > const, void*> >, std::less<std::__cxx11::basic_string<char, std::char_traits<char>, std::allocator<char> > >, std::allocator<std::pair<std::__cxx11::basic_string<char, std::char_traits<char>, std::allocator<char> > const, void*> > >::find(std::__cxx11::basic_string<char, std::char_traits<char>, std::allocator<char> > const&)
PUBLIC 11971c 0 std::_Rb_tree<std::__cxx11::basic_string<char, std::char_traits<char>, std::allocator<char> >, std::pair<std::__cxx11::basic_string<char, std::char_traits<char>, std::allocator<char> > const, std::__cxx11::basic_string<char, std::char_traits<char>, std::allocator<char> > >, std::_Select1st<std::pair<std::__cxx11::basic_string<char, std::char_traits<char>, std::allocator<char> > const, std::__cxx11::basic_string<char, std::char_traits<char>, std::allocator<char> > > >, std::less<std::__cxx11::basic_string<char, std::char_traits<char>, std::allocator<char> > >, std::allocator<std::pair<std::__cxx11::basic_string<char, std::char_traits<char>, std::allocator<char> > const, std::__cxx11::basic_string<char, std::char_traits<char>, std::allocator<char> > > > >::find(std::__cxx11::basic_string<char, std::char_traits<char>, std::allocator<char> > const&)
PUBLIC 1197d4 0 std::_Rb_tree<std::__cxx11::basic_string<char, std::char_traits<char>, std::allocator<char> >, std::__cxx11::basic_string<char, std::char_traits<char>, std::allocator<char> >, std::_Identity<std::__cxx11::basic_string<char, std::char_traits<char>, std::allocator<char> > >, std::less<std::__cxx11::basic_string<char, std::char_traits<char>, std::allocator<char> > >, std::allocator<std::__cxx11::basic_string<char, std::char_traits<char>, std::allocator<char> > > >::find(std::__cxx11::basic_string<char, std::char_traits<char>, std::allocator<char> > const&) const
PUBLIC 11988c 0 std::_Rb_tree<std::__cxx11::basic_string<char, std::char_traits<char>, std::allocator<char> >, std::pair<std::__cxx11::basic_string<char, std::char_traits<char>, std::allocator<char> > const, std::__cxx11::basic_string<char, std::char_traits<char>, std::allocator<char> > >, std::_Select1st<std::pair<std::__cxx11::basic_string<char, std::char_traits<char>, std::allocator<char> > const, std::__cxx11::basic_string<char, std::char_traits<char>, std::allocator<char> > > >, std::less<std::__cxx11::basic_string<char, std::char_traits<char>, std::allocator<char> > >, std::allocator<std::pair<std::__cxx11::basic_string<char, std::char_traits<char>, std::allocator<char> > const, std::__cxx11::basic_string<char, std::char_traits<char>, std::allocator<char> > > > >::find(std::__cxx11::basic_string<char, std::char_traits<char>, std::allocator<char> > const&) const
PUBLIC 119944 0 std::_Rb_tree<std::__cxx11::basic_string<char, std::char_traits<char>, std::allocator<char> >, std::__cxx11::basic_string<char, std::char_traits<char>, std::allocator<char> >, std::_Identity<std::__cxx11::basic_string<char, std::char_traits<char>, std::allocator<char> > >, std::less<std::__cxx11::basic_string<char, std::char_traits<char>, std::allocator<char> > >, std::allocator<std::__cxx11::basic_string<char, std::char_traits<char>, std::allocator<char> > > >::_M_erase(std::_Rb_tree_node<std::__cxx11::basic_string<char, std::char_traits<char>, std::allocator<char> > >*)
PUBLIC 11998c 0 std::_Rb_tree<std::__cxx11::basic_string<char, std::char_traits<char>, std::allocator<char> >, std::pair<std::__cxx11::basic_string<char, std::char_traits<char>, std::allocator<char> > const, std::__cxx11::basic_string<char, std::char_traits<char>, std::allocator<char> > >, std::_Select1st<std::pair<std::__cxx11::basic_string<char, std::char_traits<char>, std::allocator<char> > const, std::__cxx11::basic_string<char, std::char_traits<char>, std::allocator<char> > > >, std::less<std::__cxx11::basic_string<char, std::char_traits<char>, std::allocator<char> > >, std::allocator<std::pair<std::__cxx11::basic_string<char, std::char_traits<char>, std::allocator<char> > const, std::__cxx11::basic_string<char, std::char_traits<char>, std::allocator<char> > > > >::_M_erase(std::_Rb_tree_node<std::pair<std::__cxx11::basic_string<char, std::char_traits<char>, std::allocator<char> > const, std::__cxx11::basic_string<char, std::char_traits<char>, std::allocator<char> > > >*)
PUBLIC 1199e6 0 strapAmsspice::FileNameTable::~FileNameTable()
PUBLIC 119a0a 0 strapAmsspice::PortTable::~PortTable()
PUBLIC 119a2a 0 std::_Rb_tree<std::__cxx11::basic_string<char, std::char_traits<char>, std::allocator<char> >, std::pair<std::__cxx11::basic_string<char, std::char_traits<char>, std::allocator<char> > const, strapAmsspice::PortTable>, std::_Select1st<std::pair<std::__cxx11::basic_string<char, std::char_traits<char>, std::allocator<char> > const, strapAmsspice::PortTable> >, std::less<std::__cxx11::basic_string<char, std::char_traits<char>, std::allocator<char> > >, std::allocator<std::pair<std::__cxx11::basic_string<char, std::char_traits<char>, std::allocator<char> > const, strapAmsspice::PortTable> > >::find(std::__cxx11::basic_string<char, std::char_traits<char>, std::allocator<char> > const&)
PUBLIC 119ae2 0 std::_Rb_tree<std::__cxx11::basic_string<char, std::char_traits<char>, std::allocator<char> >, std::pair<std::__cxx11::basic_string<char, std::char_traits<char>, std::allocator<char> > const, void*>, std::_Select1st<std::pair<std::__cxx11::basic_string<char, std::char_traits<char>, std::allocator<char> > const, void*> >, std::less<std::__cxx11::basic_string<char, std::char_traits<char>, std::allocator<char> > >, std::allocator<std::pair<std::__cxx11::basic_string<char, std::char_traits<char>, std::allocator<char> > const, void*> > >::_M_get_insert_unique_pos(std::__cxx11::basic_string<char, std::char_traits<char>, std::allocator<char> > const&)
PUBLIC 119bc6 0 void std::vector<std::__cxx11::basic_string<char, std::char_traits<char>, std::allocator<char> >, std::allocator<std::__cxx11::basic_string<char, std::char_traits<char>, std::allocator<char> > > >::_M_realloc_insert<std::__cxx11::basic_string<char, std::char_traits<char>, std::allocator<char> > >(__gnu_cxx::__normal_iterator<std::__cxx11::basic_string<char, std::char_traits<char>, std::allocator<char> >*, std::vector<std::__cxx11::basic_string<char, std::char_traits<char>, std::allocator<char> >, std::allocator<std::__cxx11::basic_string<char, std::char_traits<char>, std::allocator<char> > > > >, std::__cxx11::basic_string<char, std::char_traits<char>, std::allocator<char> >&&)
PUBLIC 119dc4 0 std::_Rb_tree<std::__cxx11::basic_string<char, std::char_traits<char>, std::allocator<char> >, std::pair<std::__cxx11::basic_string<char, std::char_traits<char>, std::allocator<char> > const, std::__cxx11::basic_string<char, std::char_traits<char>, std::allocator<char> > >, std::_Select1st<std::pair<std::__cxx11::basic_string<char, std::char_traits<char>, std::allocator<char> > const, std::__cxx11::basic_string<char, std::char_traits<char>, std::allocator<char> > > >, std::less<std::__cxx11::basic_string<char, std::char_traits<char>, std::allocator<char> > >, std::allocator<std::pair<std::__cxx11::basic_string<char, std::char_traits<char>, std::allocator<char> > const, std::__cxx11::basic_string<char, std::char_traits<char>, std::allocator<char> > > > >::_M_get_insert_unique_pos(std::__cxx11::basic_string<char, std::char_traits<char>, std::allocator<char> > const&)
PUBLIC 119ea8 0 std::_Rb_tree<std::__cxx11::basic_string<char, std::char_traits<char>, std::allocator<char> >, std::pair<std::__cxx11::basic_string<char, std::char_traits<char>, std::allocator<char> > const, std::__cxx11::basic_string<char, std::char_traits<char>, std::allocator<char> > >, std::_Select1st<std::pair<std::__cxx11::basic_string<char, std::char_traits<char>, std::allocator<char> > const, std::__cxx11::basic_string<char, std::char_traits<char>, std::allocator<char> > > >, std::less<std::__cxx11::basic_string<char, std::char_traits<char>, std::allocator<char> > >, std::allocator<std::pair<std::__cxx11::basic_string<char, std::char_traits<char>, std::allocator<char> > const, std::__cxx11::basic_string<char, std::char_traits<char>, std::allocator<char> > > > >::_M_insert_node(std::_Rb_tree_node_base*, std::_Rb_tree_node_base*, std::_Rb_tree_node<std::pair<std::__cxx11::basic_string<char, std::char_traits<char>, std::allocator<char> > const, std::__cxx11::basic_string<char, std::char_traits<char>, std::allocator<char> > > >*)
PUBLIC 119efa 0 std::_Rb_tree<std::__cxx11::basic_string<char, std::char_traits<char>, std::allocator<char> >, std::__cxx11::basic_string<char, std::char_traits<char>, std::allocator<char> >, std::_Identity<std::__cxx11::basic_string<char, std::char_traits<char>, std::allocator<char> > >, std::less<std::__cxx11::basic_string<char, std::char_traits<char>, std::allocator<char> > >, std::allocator<std::__cxx11::basic_string<char, std::char_traits<char>, std::allocator<char> > > >::_M_get_insert_unique_pos(std::__cxx11::basic_string<char, std::char_traits<char>, std::allocator<char> > const&)
PUBLIC 119fde 0 std::_Rb_tree<std::__cxx11::basic_string<char, std::char_traits<char>, std::allocator<char> >, std::pair<std::__cxx11::basic_string<char, std::char_traits<char>, std::allocator<char> > const, strapAmsspice::PortTable>, std::_Select1st<std::pair<std::__cxx11::basic_string<char, std::char_traits<char>, std::allocator<char> > const, strapAmsspice::PortTable> >, std::less<std::__cxx11::basic_string<char, std::char_traits<char>, std::allocator<char> > >, std::allocator<std::pair<std::__cxx11::basic_string<char, std::char_traits<char>, std::allocator<char> > const, strapAmsspice::PortTable> > >::_M_get_insert_unique_pos(std::__cxx11::basic_string<char, std::char_traits<char>, std::allocator<char> > const&)
PUBLIC 11a0c2 0 void std::vector<unsigned long, std::allocator<unsigned long> >::_M_realloc_insert<unsigned long>(__gnu_cxx::__normal_iterator<unsigned long*, std::vector<unsigned long, std::allocator<unsigned long> > >, unsigned long&&)
PUBLIC 11a1ee 0 void std::__cxx11::basic_string<char, std::char_traits<char>, std::allocator<char> >::_M_construct<char const*>(char const*, char const*, std::forward_iterator_tag)
PUBLIC 11a284 0 std::pair<std::_Rb_tree_iterator<std::pair<std::__cxx11::basic_string<char, std::char_traits<char>, std::allocator<char> > const, void*> >, bool> std::_Rb_tree<std::__cxx11::basic_string<char, std::char_traits<char>, std::allocator<char> >, std::pair<std::__cxx11::basic_string<char, std::char_traits<char>, std::allocator<char> > const, void*>, std::_Select1st<std::pair<std::__cxx11::basic_string<char, std::char_traits<char>, std::allocator<char> > const, void*> >, std::less<std::__cxx11::basic_string<char, std::char_traits<char>, std::allocator<char> > >, std::allocator<std::pair<std::__cxx11::basic_string<char, std::char_traits<char>, std::allocator<char> > const, void*> > >::_M_emplace_unique<std::pair<char const*, void*> >(std::pair<char const*, void*>&&)
PUBLIC 11a39a 0 void std::__cxx11::basic_string<char, std::char_traits<char>, std::allocator<char> >::_M_construct<char*>(char*, char*, std::forward_iterator_tag)
PUBLIC 11a430 0 std::pair<std::_Rb_tree_iterator<std::pair<std::__cxx11::basic_string<char, std::char_traits<char>, std::allocator<char> > const, std::__cxx11::basic_string<char, std::char_traits<char>, std::allocator<char> > > >, bool> std::_Rb_tree<std::__cxx11::basic_string<char, std::char_traits<char>, std::allocator<char> >, std::pair<std::__cxx11::basic_string<char, std::char_traits<char>, std::allocator<char> > const, std::__cxx11::basic_string<char, std::char_traits<char>, std::allocator<char> > >, std::_Select1st<std::pair<std::__cxx11::basic_string<char, std::char_traits<char>, std::allocator<char> > const, std::__cxx11::basic_string<char, std::char_traits<char>, std::allocator<char> > > >, std::less<std::__cxx11::basic_string<char, std::char_traits<char>, std::allocator<char> > >, std::allocator<std::pair<std::__cxx11::basic_string<char, std::char_traits<char>, std::allocator<char> > const, std::__cxx11::basic_string<char, std::char_traits<char>, std::allocator<char> > > > >::_M_emplace_unique<std::__cxx11::basic_string<char, std::char_traits<char>, std::allocator<char> >&, std::__cxx11::basic_string<char, std::char_traits<char>, std::allocator<char> >&>(std::__cxx11::basic_string<char, std::char_traits<char>, std::allocator<char> >&, std::__cxx11::basic_string<char, std::char_traits<char>, std::allocator<char> >&)
PUBLIC 11a52e 0 strapAmsspice::FileNameTable::readMappingFile(char const*)
PUBLIC 11ab04 0 strapAmsspice::MapName::getSpiceName[abi:cxx11]() const
PUBLIC 11af2c 0 std::pair<std::_Rb_tree_iterator<std::pair<std::__cxx11::basic_string<char, std::char_traits<char>, std::allocator<char> > const, std::__cxx11::basic_string<char, std::char_traits<char>, std::allocator<char> > > >, bool> std::_Rb_tree<std::__cxx11::basic_string<char, std::char_traits<char>, std::allocator<char> >, std::pair<std::__cxx11::basic_string<char, std::char_traits<char>, std::allocator<char> > const, std::__cxx11::basic_string<char, std::char_traits<char>, std::allocator<char> > >, std::_Select1st<std::pair<std::__cxx11::basic_string<char, std::char_traits<char>, std::allocator<char> > const, std::__cxx11::basic_string<char, std::char_traits<char>, std::allocator<char> > > >, std::less<std::__cxx11::basic_string<char, std::char_traits<char>, std::allocator<char> > >, std::allocator<std::pair<std::__cxx11::basic_string<char, std::char_traits<char>, std::allocator<char> > const, std::__cxx11::basic_string<char, std::char_traits<char>, std::allocator<char> > > > >::_M_emplace_unique<std::__cxx11::basic_string<char, std::char_traits<char>, std::allocator<char> >&, std::__cxx11::basic_string<char, std::char_traits<char>, std::allocator<char> > const&>(std::__cxx11::basic_string<char, std::char_traits<char>, std::allocator<char> >&, std::__cxx11::basic_string<char, std::char_traits<char>, std::allocator<char> > const&)
PUBLIC 11b02a 0 std::pair<std::_Rb_tree_iterator<std::pair<std::__cxx11::basic_string<char, std::char_traits<char>, std::allocator<char> > const, strapAmsspice::PortTable> >, bool> std::_Rb_tree<std::__cxx11::basic_string<char, std::char_traits<char>, std::allocator<char> >, std::pair<std::__cxx11::basic_string<char, std::char_traits<char>, std::allocator<char> > const, strapAmsspice::PortTable>, std::_Select1st<std::pair<std::__cxx11::basic_string<char, std::char_traits<char>, std::allocator<char> > const, strapAmsspice::PortTable> >, std::less<std::__cxx11::basic_string<char, std::char_traits<char>, std::allocator<char> > >, std::allocator<std::pair<std::__cxx11::basic_string<char, std::char_traits<char>, std::allocator<char> > const, strapAmsspice::PortTable> > >::_M_emplace_unique<std::__cxx11::basic_string<char, std::char_traits<char>, std::allocator<char> > const&, strapAmsspice::PortTable>(std::__cxx11::basic_string<char, std::char_traits<char>, std::allocator<char> > const&, strapAmsspice::PortTable&&)
PUBLIC 11b25a 0 void std::vector<std::__cxx11::basic_string<char, std::char_traits<char>, std::allocator<char> >, std::allocator<std::__cxx11::basic_string<char, std::char_traits<char>, std::allocator<char> > > >::_M_realloc_insert<std::__cxx11::basic_string<char, std::char_traits<char>, std::allocator<char> > const&>(__gnu_cxx::__normal_iterator<std::__cxx11::basic_string<char, std::char_traits<char>, std::allocator<char> >*, std::vector<std::__cxx11::basic_string<char, std::char_traits<char>, std::allocator<char> >, std::allocator<std::__cxx11::basic_string<char, std::char_traits<char>, std::allocator<char> > > > >, std::__cxx11::basic_string<char, std::char_traits<char>, std::allocator<char> > const&)
PUBLIC 11b46a 0 std::pair<std::_Rb_tree_iterator<std::__cxx11::basic_string<char, std::char_traits<char>, std::allocator<char> > >, bool> std::_Rb_tree<std::__cxx11::basic_string<char, std::char_traits<char>, std::allocator<char> >, std::__cxx11::basic_string<char, std::char_traits<char>, std::allocator<char> >, std::_Identity<std::__cxx11::basic_string<char, std::char_traits<char>, std::allocator<char> > >, std::less<std::__cxx11::basic_string<char, std::char_traits<char>, std::allocator<char> > >, std::allocator<std::__cxx11::basic_string<char, std::char_traits<char>, std::allocator<char> > > >::_M_insert_unique<std::__cxx11::basic_string<char, std::char_traits<char>, std::allocator<char> > const&>(std::__cxx11::basic_string<char, std::char_traits<char>, std::allocator<char> > const&)
PUBLIC 11b532 0 strapAmsspice::PortBindingReader::readPortTable()
PUBLIC 11bd3a 0 strapAmsspice::PortBindingReader::PortBindingReader(std::__cxx11::basic_string<char, std::char_traits<char>, std::allocator<char> > const&, char const*)
PUBLIC 11c4d6 0 virtual thunk to boost::exception_detail::clone_impl<boost::exception_detail::error_info_injector<boost::property_tree::json_parser::json_parser_error> >::clone() const
PUBLIC 11c730 0 boost::exception_detail::clone_impl<boost::exception_detail::error_info_injector<boost::property_tree::json_parser::json_parser_error> >::clone() const
PUBLIC 11c982 0 std::_Hashtable<void*, void*, std::allocator<void*>, std::__detail::_Identity, std::equal_to<void*>, std::hash<void*>, std::__detail::_Mod_range_hashing, std::__detail::_Default_ranged_hash, std::__detail::_Prime_rehash_policy, std::__detail::_Hashtable_traits<false, true, true> >::_M_find_before_node(unsigned long, void* const&, unsigned long) const
PUBLIC 11c9cc 0 std::__detail::_Hashtable_alloc<std::allocator<std::__detail::_Hash_node<std::pair<std::__cxx11::basic_string<char, std::char_traits<char>, std::allocator<char> > const, void*>, true> > >::_M_deallocate_node(std::__detail::_Hash_node<std::pair<std::__cxx11::basic_string<char, std::char_traits<char>, std::allocator<char> > const, void*>, true>*)
PUBLIC 11c9ec 0 std::_Hashtable<std::__cxx11::basic_string<char, std::char_traits<char>, std::allocator<char> >, std::pair<std::__cxx11::basic_string<char, std::char_traits<char>, std::allocator<char> > const, void*>, std::allocator<std::pair<std::__cxx11::basic_string<char, std::char_traits<char>, std::allocator<char> > const, void*> >, std::__detail::_Select1st, std::equal_to<std::__cxx11::basic_string<char, std::char_traits<char>, std::allocator<char> > >, std::hash<std::__cxx11::basic_string<char, std::char_traits<char>, std::allocator<char> > >, std::__detail::_Mod_range_hashing, std::__detail::_Default_ranged_hash, std::__detail::_Prime_rehash_policy, std::__detail::_Hashtable_traits<true, false, true> >::clear()
PUBLIC 11ca42 0 std::_Hashtable<std::__cxx11::basic_string<char, std::char_traits<char>, std::allocator<char> >, std::pair<std::__cxx11::basic_string<char, std::char_traits<char>, std::allocator<char> > const, void*>, std::allocator<std::pair<std::__cxx11::basic_string<char, std::char_traits<char>, std::allocator<char> > const, void*> >, std::__detail::_Select1st, std::equal_to<std::__cxx11::basic_string<char, std::char_traits<char>, std::allocator<char> > >, std::hash<std::__cxx11::basic_string<char, std::char_traits<char>, std::allocator<char> > >, std::__detail::_Mod_range_hashing, std::__detail::_Default_ranged_hash, std::__detail::_Prime_rehash_policy, std::__detail::_Hashtable_traits<true, false, true> >::_M_find_before_node(unsigned long, std::__cxx11::basic_string<char, std::char_traits<char>, std::allocator<char> > const&, unsigned long) const
PUBLIC 11cad2 0 std::__detail::_Hashtable_alloc<std::allocator<std::__detail::_Hash_node<std::pair<std::__cxx11::basic_string<char, std::char_traits<char>, std::allocator<char> > const, std::__cxx11::basic_string<char, std::char_traits<char>, std::allocator<char> > >, true> > >::_M_deallocate_node(std::__detail::_Hash_node<std::pair<std::__cxx11::basic_string<char, std::char_traits<char>, std::allocator<char> > const, std::__cxx11::basic_string<char, std::char_traits<char>, std::allocator<char> > >, true>*)
PUBLIC 11cb04 0 std::unordered_map<std::__cxx11::basic_string<char, std::char_traits<char>, std::allocator<char> >, std::__cxx11::basic_string<char, std::char_traits<char>, std::allocator<char> >, std::hash<std::__cxx11::basic_string<char, std::char_traits<char>, std::allocator<char> > >, std::equal_to<std::__cxx11::basic_string<char, std::char_traits<char>, std::allocator<char> > >, std::allocator<std::pair<std::__cxx11::basic_string<char, std::char_traits<char>, std::allocator<char> > const, std::__cxx11::basic_string<char, std::char_traits<char>, std::allocator<char> > > > >::~unordered_map()
PUBLIC 11cb6a 0 std::_Hashtable<std::__cxx11::basic_string<char, std::char_traits<char>, std::allocator<char> >, std::pair<std::__cxx11::basic_string<char, std::char_traits<char>, std::allocator<char> > const, std::__cxx11::basic_string<char, std::char_traits<char>, std::allocator<char> > >, std::allocator<std::pair<std::__cxx11::basic_string<char, std::char_traits<char>, std::allocator<char> > const, std::__cxx11::basic_string<char, std::char_traits<char>, std::allocator<char> > > >, std::__detail::_Select1st, std::equal_to<std::__cxx11::basic_string<char, std::char_traits<char>, std::allocator<char> > >, std::hash<std::__cxx11::basic_string<char, std::char_traits<char>, std::allocator<char> > >, std::__detail::_Mod_range_hashing, std::__detail::_Default_ranged_hash, std::__detail::_Prime_rehash_policy, std::__detail::_Hashtable_traits<true, false, true> >::_M_find_before_node(unsigned long, std::__cxx11::basic_string<char, std::char_traits<char>, std::allocator<char> > const&, unsigned long) const
PUBLIC 11cbfa 0 std::_Hashtable<std::__cxx11::basic_string<char, std::char_traits<char>, std::allocator<char> >, std::pair<std::__cxx11::basic_string<char, std::char_traits<char>, std::allocator<char> > const, std::__cxx11::basic_string<char, std::char_traits<char>, std::allocator<char> > >, std::allocator<std::pair<std::__cxx11::basic_string<char, std::char_traits<char>, std::allocator<char> > const, std::__cxx11::basic_string<char, std::char_traits<char>, std::allocator<char> > > >, std::__detail::_Select1st, std::equal_to<std::__cxx11::basic_string<char, std::char_traits<char>, std::allocator<char> > >, std::hash<std::__cxx11::basic_string<char, std::char_traits<char>, std::allocator<char> > >, std::__detail::_Mod_range_hashing, std::__detail::_Default_ranged_hash, std::__detail::_Prime_rehash_policy, std::__detail::_Hashtable_traits<true, false, true> >::find(std::__cxx11::basic_string<char, std::char_traits<char>, std::allocator<char> > const&)
PUBLIC 11cc4e 0 std::_Hashtable<std::__cxx11::basic_string<char, std::char_traits<char>, std::allocator<char> >, std::pair<std::__cxx11::basic_string<char, std::char_traits<char>, std::allocator<char> > const, std::__cxx11::basic_string<char, std::char_traits<char>, std::allocator<char> > >, std::allocator<std::pair<std::__cxx11::basic_string<char, std::char_traits<char>, std::allocator<char> > const, std::__cxx11::basic_string<char, std::char_traits<char>, std::allocator<char> > > >, std::__detail::_Select1st, std::equal_to<std::__cxx11::basic_string<char, std::char_traits<char>, std::allocator<char> > >, std::hash<std::__cxx11::basic_string<char, std::char_traits<char>, std::allocator<char> > >, std::__detail::_Mod_range_hashing, std::__detail::_Default_ranged_hash, std::__detail::_Prime_rehash_policy, std::__detail::_Hashtable_traits<true, false, true> >::_M_rehash(unsigned long, unsigned long const&)
PUBLIC 11cd64 0 std::_Hashtable<std::__cxx11::basic_string<char, std::char_traits<char>, std::allocator<char> >, std::pair<std::__cxx11::basic_string<char, std::char_traits<char>, std::allocator<char> > const, std::__cxx11::basic_string<char, std::char_traits<char>, std::allocator<char> > >, std::allocator<std::pair<std::__cxx11::basic_string<char, std::char_traits<char>, std::allocator<char> > const, std::__cxx11::basic_string<char, std::char_traits<char>, std::allocator<char> > > >, std::__detail::_Select1st, std::equal_to<std::__cxx11::basic_string<char, std::char_traits<char>, std::allocator<char> > >, std::hash<std::__cxx11::basic_string<char, std::char_traits<char>, std::allocator<char> > >, std::__detail::_Mod_range_hashing, std::__detail::_Default_ranged_hash, std::__detail::_Prime_rehash_policy, std::__detail::_Hashtable_traits<true, false, true> >::_M_insert_unique_node(unsigned long, unsigned long, std::__detail::_Hash_node<std::pair<std::__cxx11::basic_string<char, std::char_traits<char>, std::allocator<char> > const, std::__cxx11::basic_string<char, std::char_traits<char>, std::allocator<char> > >, true>*, unsigned long)
PUBLIC 11ce54 0 std::__detail::_Map_base<std::__cxx11::basic_string<char, std::char_traits<char>, std::allocator<char> >, std::pair<std::__cxx11::basic_string<char, std::char_traits<char>, std::allocator<char> > const, std::__cxx11::basic_string<char, std::char_traits<char>, std::allocator<char> > >, std::allocator<std::pair<std::__cxx11::basic_string<char, std::char_traits<char>, std::allocator<char> > const, std::__cxx11::basic_string<char, std::char_traits<char>, std::allocator<char> > > >, std::__detail::_Select1st, std::equal_to<std::__cxx11::basic_string<char, std::char_traits<char>, std::allocator<char> > >, std::hash<std::__cxx11::basic_string<char, std::char_traits<char>, std::allocator<char> > >, std::__detail::_Mod_range_hashing, std::__detail::_Default_ranged_hash, std::__detail::_Prime_rehash_policy, std::__detail::_Hashtable_traits<true, false, true>, true>::operator[](std::__cxx11::basic_string<char, std::char_traits<char>, std::allocator<char> > const&)
PUBLIC 11cf34 0 std::__detail::_Map_base<std::__cxx11::basic_string<char, std::char_traits<char>, std::allocator<char> >, std::pair<std::__cxx11::basic_string<char, std::char_traits<char>, std::allocator<char> > const, std::__cxx11::basic_string<char, std::char_traits<char>, std::allocator<char> > >, std::allocator<std::pair<std::__cxx11::basic_string<char, std::char_traits<char>, std::allocator<char> > const, std::__cxx11::basic_string<char, std::char_traits<char>, std::allocator<char> > > >, std::__detail::_Select1st, std::equal_to<std::__cxx11::basic_string<char, std::char_traits<char>, std::allocator<char> > >, std::hash<std::__cxx11::basic_string<char, std::char_traits<char>, std::allocator<char> > >, std::__detail::_Mod_range_hashing, std::__detail::_Default_ranged_hash, std::__detail::_Prime_rehash_policy, std::__detail::_Hashtable_traits<true, false, true>, true>::operator[](std::__cxx11::basic_string<char, std::char_traits<char>, std::allocator<char> >&&)
PUBLIC 11d018 0 __gnu_cxx::__normal_iterator<char*, std::__cxx11::basic_string<char, std::char_traits<char>, std::allocator<char> > > std::__find_if<__gnu_cxx::__normal_iterator<char*, std::__cxx11::basic_string<char, std::char_traits<char>, std::allocator<char> > >, __gnu_cxx::__ops::_Iter_equals_val<char const> >(__gnu_cxx::__normal_iterator<char*, std::__cxx11::basic_string<char, std::char_traits<char>, std::allocator<char> > >, __gnu_cxx::__normal_iterator<char*, std::__cxx11::basic_string<char, std::char_traits<char>, std::allocator<char> > >, __gnu_cxx::__ops::_Iter_equals_val<char const>, std::random_access_iterator_tag)
PUBLIC 11d09a 0 boost::property_tree::string_path<std::__cxx11::basic_string<char, std::char_traits<char>, std::allocator<char> >, boost::property_tree::id_translator<std::__cxx11::basic_string<char, std::char_traits<char>, std::allocator<char> > > >::reduce()
PUBLIC 11d252 0 boost::property_tree::basic_ptree<std::__cxx11::basic_string<char, std::char_traits<char>, std::allocator<char> >, std::__cxx11::basic_string<char, std::char_traits<char>, std::allocator<char> >, std::less<std::__cxx11::basic_string<char, std::char_traits<char>, std::allocator<char> > > >::walk_path(boost::property_tree::string_path<std::__cxx11::basic_string<char, std::char_traits<char>, std::allocator<char> >, boost::property_tree::id_translator<std::__cxx11::basic_string<char, std::char_traits<char>, std::allocator<char> > > >&) const
PUBLIC 11d38c 0 boost::property_tree::basic_ptree<std::__cxx11::basic_string<char, std::char_traits<char>, std::allocator<char> >, std::__cxx11::basic_string<char, std::char_traits<char>, std::allocator<char> >, std::less<std::__cxx11::basic_string<char, std::char_traits<char>, std::allocator<char> > > >::get_child_optional(boost::property_tree::string_path<std::__cxx11::basic_string<char, std::char_traits<char>, std::allocator<char> >, boost::property_tree::id_translator<std::__cxx11::basic_string<char, std::char_traits<char>, std::allocator<char> > > > const&) const
PUBLIC 11d432 0 boost::optional<std::__cxx11::basic_string<char, std::char_traits<char>, std::allocator<char> > > boost::property_tree::basic_ptree<std::__cxx11::basic_string<char, std::char_traits<char>, std::allocator<char> >, std::__cxx11::basic_string<char, std::char_traits<char>, std::allocator<char> >, std::less<std::__cxx11::basic_string<char, std::char_traits<char>, std::allocator<char> > > >::get_optional<std::__cxx11::basic_string<char, std::char_traits<char>, std::allocator<char> > >(boost::property_tree::string_path<std::__cxx11::basic_string<char, std::char_traits<char>, std::allocator<char> >, boost::property_tree::id_translator<std::__cxx11::basic_string<char, std::char_traits<char>, std::allocator<char> > > > const&) const
PUBLIC 11d47d 0 __gnu_cxx::__normal_iterator<char*, std::__cxx11::basic_string<char, std::char_traits<char>, std::allocator<char> > > std::__remove_if<__gnu_cxx::__normal_iterator<char*, std::__cxx11::basic_string<char, std::char_traits<char>, std::allocator<char> > >, __gnu_cxx::__ops::_Iter_equals_val<char const> >(__gnu_cxx::__normal_iterator<char*, std::__cxx11::basic_string<char, std::char_traits<char>, std::allocator<char> > >, __gnu_cxx::__normal_iterator<char*, std::__cxx11::basic_string<char, std::char_traits<char>, std::allocator<char> > >, __gnu_cxx::__ops::_Iter_equals_val<char const>)
PUBLIC 11d4c2 0 std::_Hashtable<void*, void*, std::allocator<void*>, std::__detail::_Identity, std::equal_to<void*>, std::hash<void*>, std::__detail::_Mod_range_hashing, std::__detail::_Default_ranged_hash, std::__detail::_Prime_rehash_policy, std::__detail::_Hashtable_traits<false, true, true> >::_M_rehash(unsigned long, unsigned long const&)
PUBLIC 11d5d8 0 std::_Hashtable<void*, void*, std::allocator<void*>, std::__detail::_Identity, std::equal_to<void*>, std::hash<void*>, std::__detail::_Mod_range_hashing, std::__detail::_Default_ranged_hash, std::__detail::_Prime_rehash_policy, std::__detail::_Hashtable_traits<false, true, true> >::_M_insert_unique_node(unsigned long, unsigned long, std::__detail::_Hash_node<void*, false>*, unsigned long)
PUBLIC 11d6c2 0 std::_Hashtable<std::__cxx11::basic_string<char, std::char_traits<char>, std::allocator<char> >, std::pair<std::__cxx11::basic_string<char, std::char_traits<char>, std::allocator<char> > const, void*>, std::allocator<std::pair<std::__cxx11::basic_string<char, std::char_traits<char>, std::allocator<char> > const, void*> >, std::__detail::_Select1st, std::equal_to<std::__cxx11::basic_string<char, std::char_traits<char>, std::allocator<char> > >, std::hash<std::__cxx11::basic_string<char, std::char_traits<char>, std::allocator<char> > >, std::__detail::_Mod_range_hashing, std::__detail::_Default_ranged_hash, std::__detail::_Prime_rehash_policy, std::__detail::_Hashtable_traits<true, false, true> >::_M_rehash(unsigned long, unsigned long const&)
PUBLIC 11d7d8 0 std::_Hashtable<std::__cxx11::basic_string<char, std::char_traits<char>, std::allocator<char> >, std::pair<std::__cxx11::basic_string<char, std::char_traits<char>, std::allocator<char> > const, void*>, std::allocator<std::pair<std::__cxx11::basic_string<char, std::char_traits<char>, std::allocator<char> > const, void*> >, std::__detail::_Select1st, std::equal_to<std::__cxx11::basic_string<char, std::char_traits<char>, std::allocator<char> > >, std::hash<std::__cxx11::basic_string<char, std::char_traits<char>, std::allocator<char> > >, std::__detail::_Mod_range_hashing, std::__detail::_Default_ranged_hash, std::__detail::_Prime_rehash_policy, std::__detail::_Hashtable_traits<true, false, true> >::_M_insert_unique_node(unsigned long, unsigned long, std::__detail::_Hash_node<std::pair<std::__cxx11::basic_string<char, std::char_traits<char>, std::allocator<char> > const, void*>, true>*, unsigned long)
PUBLIC 11d8c8 0 std::pair<std::__detail::_Node_iterator<std::pair<std::__cxx11::basic_string<char, std::char_traits<char>, std::allocator<char> > const, void*>, false, true>, bool> std::_Hashtable<std::__cxx11::basic_string<char, std::char_traits<char>, std::allocator<char> >, std::pair<std::__cxx11::basic_string<char, std::char_traits<char>, std::allocator<char> > const, void*>, std::allocator<std::pair<std::__cxx11::basic_string<char, std::char_traits<char>, std::allocator<char> > const, void*> >, std::__detail::_Select1st, std::equal_to<std::__cxx11::basic_string<char, std::char_traits<char>, std::allocator<char> > >, std::hash<std::__cxx11::basic_string<char, std::char_traits<char>, std::allocator<char> > >, std::__detail::_Mod_range_hashing, std::__detail::_Default_ranged_hash, std::__detail::_Prime_rehash_policy, std::__detail::_Hashtable_traits<true, false, true> >::_M_emplace<std::pair<char const*, void*> >(std::integral_constant<bool, true>, std::pair<char const*, void*>&&)
PUBLIC 11d9ce 0 std::istreambuf_iterator<char, std::char_traits<char> >::_M_get() const
PUBLIC 11da08 0 boost::property_tree::json_parser::detail::source<boost::property_tree::json_parser::detail::encoding<char>, std::istreambuf_iterator<char, std::char_traits<char> >, std::istreambuf_iterator<char, std::char_traits<char> > >::next()
PUBLIC 11da7e 0 bool boost::property_tree::json_parser::detail::source<boost::property_tree::json_parser::detail::encoding<char>, std::istreambuf_iterator<char, std::char_traits<char> >, std::istreambuf_iterator<char, std::char_traits<char> > >::have<boost::property_tree::json_parser::detail::source<boost::property_tree::json_parser::detail::encoding<char>, std::istreambuf_iterator<char, std::char_traits<char> >, std::istreambuf_iterator<char, std::char_traits<char> > >::DoNothing>(bool (boost::property_tree::json_parser::detail::encoding<char>::*)(char) const, boost::property_tree::json_parser::detail::source<boost::property_tree::json_parser::detail::encoding<char>, std::istreambuf_iterator<char, std::char_traits<char> >, std::istreambuf_iterator<char, std::char_traits<char> > >::DoNothing&)
PUBLIC 11db7e 0 boost::exception_detail::error_info_injector<boost::property_tree::json_parser::json_parser_error>::error_info_injector(boost::exception_detail::error_info_injector<boost::property_tree::json_parser::json_parser_error> const&)
PUBLIC 11dc94 0 boost::exception_detail::clone_impl<boost::exception_detail::error_info_injector<boost::property_tree::json_parser::json_parser_error> >::rethrow() const
PUBLIC 11dd14 0 virtual thunk to boost::exception_detail::clone_impl<boost::exception_detail::error_info_injector<boost::property_tree::json_parser::json_parser_error> >::rethrow() const
PUBLIC 11dd9c 0 void std::vector<boost::property_tree::json_parser::detail::standard_callbacks<boost::property_tree::basic_ptree<std::__cxx11::basic_string<char, std::char_traits<char>, std::allocator<char> >, std::__cxx11::basic_string<char, std::char_traits<char>, std::allocator<char> >, std::less<std::__cxx11::basic_string<char, std::char_traits<char>, std::allocator<char> > > > >::layer, std::allocator<boost::property_tree::json_parser::detail::standard_callbacks<boost::property_tree::basic_ptree<std::__cxx11::basic_string<char, std::char_traits<char>, std::allocator<char> >, std::__cxx11::basic_string<char, std::char_traits<char>, std::allocator<char> >, std::less<std::__cxx11::basic_string<char, std::char_traits<char>, std::allocator<char> > > > >::layer> >::_M_realloc_insert<boost::property_tree::json_parser::detail::standard_callbacks<boost::property_tree::basic_ptree<std::__cxx11::basic_string<char, std::char_traits<char>, std::allocator<char> >, std::__cxx11::basic_string<char, std::char_traits<char>, std::allocator<char> >, std::less<std::__cxx11::basic_string<char, std::char_traits<char>, std::allocator<char> > > > >::layer const&>(__gnu_cxx::__normal_iterator<boost::property_tree::json_parser::detail::standard_callbacks<boost::property_tree::basic_ptree<std::__cxx11::basic_string<char, std::char_traits<char>, std::allocator<char> >, std::__cxx11::basic_string<char, std::char_traits<char>, std::allocator<char> >, std::less<std::__cxx11::basic_string<char, std::char_traits<char>, std::allocator<char> > > > >::layer*, std::vector<boost::property_tree::json_parser::detail::standard_callbacks<boost::property_tree::basic_ptree<std::__cxx11::basic_string<char, std::char_traits<char>, std::allocator<char> >, std::__cxx11::basic_string<char, std::char_traits<char>, std::allocator<char> >, std::less<std::__cxx11::basic_string<char, std::char_traits<char>, std::allocator<char> > > > >::layer, std::allocator<boost::property_tree::json_parser::detail::standard_callbacks<boost::property_tree::basic_ptree<std::__cxx11::basic_string<char, std::char_traits<char>, std::allocator<char> >, std::__cxx11::basic_string<char, std::char_traits<char>, std::allocator<char> >, std::less<std::__cxx11::basic_string<char, std::char_traits<char>, std::allocator<char> > > > >::layer> > >, boost::property_tree::json_parser::detail::standard_callbacks<boost::property_tree::basic_ptree<std::__cxx11::basic_string<char, std::char_traits<char>, std::allocator<char> >, std::__cxx11::basic_string<char, std::char_traits<char>, std::allocator<char> >, std::less<std::__cxx11::basic_string<char, std::char_traits<char>, std::allocator<char> > > > >::layer const&)
PUBLIC 11decc 0 void boost::detail::allocator::destroy<std::pair<std::__cxx11::basic_string<char, std::char_traits<char>, std::allocator<char> > const, boost::property_tree::basic_ptree<std::__cxx11::basic_string<char, std::char_traits<char>, std::allocator<char> >, std::__cxx11::basic_string<char, std::char_traits<char>, std::allocator<char> >, std::less<std::__cxx11::basic_string<char, std::char_traits<char>, std::allocator<char> > > > > >(std::pair<std::__cxx11::basic_string<char, std::char_traits<char>, std::allocator<char> > const, boost::property_tree::basic_ptree<std::__cxx11::basic_string<char, std::char_traits<char>, std::allocator<char> >, std::__cxx11::basic_string<char, std::char_traits<char>, std::allocator<char> >, std::less<std::__cxx11::basic_string<char, std::char_traits<char>, std::allocator<char> > > > > const*)
PUBLIC 11deec 0 boost::property_tree::basic_ptree<std::__cxx11::basic_string<char, std::char_traits<char>, std::allocator<char> >, std::__cxx11::basic_string<char, std::char_traits<char>, std::allocator<char> >, std::less<std::__cxx11::basic_string<char, std::char_traits<char>, std::allocator<char> > > >::~basic_ptree()
PUBLIC 11df78 0 std::pair<std::__cxx11::basic_string<char, std::char_traits<char>, std::allocator<char> > const, boost::property_tree::basic_ptree<std::__cxx11::basic_string<char, std::char_traits<char>, std::allocator<char> >, std::__cxx11::basic_string<char, std::char_traits<char>, std::allocator<char> >, std::less<std::__cxx11::basic_string<char, std::char_traits<char>, std::allocator<char> > > > >::~pair()
PUBLIC 11df98 0 std::pair<std::__cxx11::basic_string<char, std::char_traits<char>, std::allocator<char> >, boost::property_tree::basic_ptree<std::__cxx11::basic_string<char, std::char_traits<char>, std::allocator<char> >, std::__cxx11::basic_string<char, std::char_traits<char>, std::allocator<char> >, std::less<std::__cxx11::basic_string<char, std::char_traits<char>, std::allocator<char> > > > >::~pair()
PUBLIC 11dfb8 0 boost::exception_detail::clone_impl<boost::exception_detail::error_info_injector<boost::property_tree::json_parser::json_parser_error> >::clone_impl(boost::exception_detail::error_info_injector<boost::property_tree::json_parser::json_parser_error> const&)
PUBLIC 11e1e9 0 void boost::throw_exception<boost::exception_detail::error_info_injector<boost::property_tree::json_parser::json_parser_error> >(boost::exception_detail::error_info_injector<boost::property_tree::json_parser::json_parser_error> const&)
PUBLIC 11e256 0 void boost::exception_detail::throw_exception_<boost::property_tree::json_parser::json_parser_error>(boost::property_tree::json_parser::json_parser_error const&, char const*, char const*, int)
PUBLIC 11e354 0 boost::property_tree::json_parser::detail::source<boost::property_tree::json_parser::detail::encoding<char>, std::istreambuf_iterator<char, std::char_traits<char> >, std::istreambuf_iterator<char, std::char_traits<char> > >::parse_error(char const*)
PUBLIC 11ea34 0 boost::property_tree::json_parser::detail::parser<boost::property_tree::json_parser::detail::standard_callbacks<boost::property_tree::basic_ptree<std::__cxx11::basic_string<char, std::char_traits<char>, std::allocator<char> >, std::__cxx11::basic_string<char, std::char_traits<char>, std::allocator<char> >, std::less<std::__cxx11::basic_string<char, std::char_traits<char>, std::allocator<char> > > > >, boost::property_tree::json_parser::detail::encoding<char>, std::istreambuf_iterator<char, std::char_traits<char> >, std::istreambuf_iterator<char, std::char_traits<char> > >::parse_error(char const*)
PUBLIC 11ea42 0 boost::property_tree::json_parser::detail::parser<boost::property_tree::json_parser::detail::standard_callbacks<boost::property_tree::basic_ptree<std::__cxx11::basic_string<char, std::char_traits<char>, std::allocator<char> >, std::__cxx11::basic_string<char, std::char_traits<char>, std::allocator<char> >, std::less<std::__cxx11::basic_string<char, std::char_traits<char>, std::allocator<char> > > > >, boost::property_tree::json_parser::detail::encoding<char>, std::istreambuf_iterator<char, std::char_traits<char> >, std::istreambuf_iterator<char, std::char_traits<char> > >::parse_hex_quad()
PUBLIC 11ec48 0 boost::property_tree::json_parser::detail::parser<boost::property_tree::json_parser::detail::standard_callbacks<boost::property_tree::basic_ptree<std::__cxx11::basic_string<char, std::char_traits<char>, std::allocator<char> >, std::__cxx11::basic_string<char, std::char_traits<char>, std::allocator<char> >, std::less<std::__cxx11::basic_string<char, std::char_traits<char>, std::allocator<char> > > > >, boost::property_tree::json_parser::detail::encoding<char>, std::istreambuf_iterator<char, std::char_traits<char> >, std::istreambuf_iterator<char, std::char_traits<char> > >::parse_codepoint_ref()
PUBLIC 11f01b 0 boost::multi_index::detail::copy_map_entry<boost::multi_index::detail::sequenced_index_node<boost::multi_index::detail::ordered_index_node<boost::multi_index::detail::null_augment_policy, boost::multi_index::detail::index_node_base<std::pair<std::__cxx11::basic_string<char, std::char_traits<char>, std::allocator<char> > const, boost::property_tree::basic_ptree<std::__cxx11::basic_string<char, std::char_traits<char>, std::allocator<char> >, std::__cxx11::basic_string<char, std::char_traits<char>, std::allocator<char> >, std::less<std::__cxx11::basic_string<char, std::char_traits<char>, std::allocator<char> > > > >, std::allocator<std::pair<std::__cxx11::basic_string<char, std::char_traits<char>, std::allocator<char> > const, boost::property_tree::basic_ptree<std::__cxx11::basic_string<char, std::char_traits<char>, std::allocator<char> >, std::__cxx11::basic_string<char, std::char_traits<char>, std::allocator<char> >, std::less<std::__cxx11::basic_string<char, std::char_traits<char>, std::allocator<char> > > > > > > > > > const* std::__lower_bound<boost::multi_index::detail::copy_map_entry<boost::multi_index::detail::sequenced_index_node<boost::multi_index::detail::ordered_index_node<boost::multi_index::detail::null_augment_policy, boost::multi_index::detail::index_node_base<std::pair<std::__cxx11::basic_string<char, std::char_traits<char>, std::allocator<char> > const, boost::property_tree::basic_ptree<std::__cxx11::basic_string<char, std::char_traits<char>, std::allocator<char> >, std::__cxx11::basic_string<char, std::char_traits<char>, std::allocator<char> >, std::less<std::__cxx11::basic_string<char, std::char_traits<char>, std::allocator<char> > > > >, std::allocator<std::pair<std::__cxx11::basic_string<char, std::char_traits<char>, std::allocator<char> > const, boost::property_tree::basic_ptree<std::__cxx11::basic_string<char, std::char_traits<char>, std::allocator<char> >, std::__cxx11::basic_string<char, std::char_traits<char>, std::allocator<char> >, std::less<std::__cxx11::basic_string<char, std::char_traits<char>, std::allocator<char> > > > > > > > > > const*, boost::multi_index::detail::copy_map_entry<boost::multi_index::detail::sequenced_index_node<boost::multi_index::detail::ordered_index_node<boost::multi_index::detail::null_augment_policy, boost::multi_index::detail::index_node_base<std::pair<std::__cxx11::basic_string<char, std::char_traits<char>, std::allocator<char> > const, boost::property_tree::basic_ptree<std::__cxx11::basic_string<char, std::char_traits<char>, std::allocator<char> >, std::__cxx11::basic_string<char, std::char_traits<char>, std::allocator<char> >, std::less<std::__cxx11::basic_string<char, std::char_traits<char>, std::allocator<char> > > > >, std::allocator<std::pair<std::__cxx11::basic_string<char, std::char_traits<char>, std::allocator<char> > const, boost::property_tree::basic_ptree<std::__cxx11::basic_string<char, std::char_traits<char>, std::allocator<char> >, std::__cxx11::basic_string<char, std::char_traits<char>, std::allocator<char> >, std::less<std::__cxx11::basic_string<char, std::char_traits<char>, std::allocator<char> > > > > > > > > >, __gnu_cxx::__ops::_Iter_less_val>(boost::multi_index::detail::copy_map_entry<boost::multi_index::detail::sequenced_index_node<boost::multi_index::detail::ordered_index_node<boost::multi_index::detail::null_augment_policy, boost::multi_index::detail::index_node_base<std::pair<std::__cxx11::basic_string<char, std::char_traits<char>, std::allocator<char> > const, boost::property_tree::basic_ptree<std::__cxx11::basic_string<char, std::char_traits<char>, std::allocator<char> >, std::__cxx11::basic_string<char, std::char_traits<char>, std::allocator<char> >, std::less<std::__cxx11::basic_string<char, std::char_traits<char>, std::allocator<char> > > > >, std::allocator<std::pair<std::__cxx11::basic_string<char, std::char_traits<char>, std::allocator<char> > const, boost::property_tree::basic_ptree<std::__cxx11::basic_string<char, std::char_traits<char>, std::allocator<char> >, std::__cxx11::basic_string<char, std::char_traits<char>, std::allocator<char> >, std::less<std::__cxx11::basic_string<char, std::char_traits<char>, std::allocator<char> > > > > > > > > > const*, boost::multi_index::detail::copy_map_entry<boost::multi_index::detail::sequenced_index_node<boost::multi_index::detail::ordered_index_node<boost::multi_index::detail::null_augment_policy, boost::multi_index::detail::index_node_base<std::pair<std::__cxx11::basic_string<char, std::char_traits<char>, std::allocator<char> > const, boost::property_tree::basic_ptree<std::__cxx11::basic_string<char, std::char_traits<char>, std::allocator<char> >, std::__cxx11::basic_string<char, std::char_traits<char>, std::allocator<char> >, std::less<std::__cxx11::basic_string<char, std::char_traits<char>, std::allocator<char> > > > >, std::allocator<std::pair<std::__cxx11::basic_string<char, std::char_traits<char>, std::allocator<char> > const, boost::property_tree::basic_ptree<std::__cxx11::basic_string<char, std::char_traits<char>, std::allocator<char> >, std::__cxx11::basic_string<char, std::char_traits<char>, std::allocator<char> >, std::less<std::__cxx11::basic_string<char, std::char_traits<char>, std::allocator<char> > > > > > > > > > const*, boost::multi_index::detail::copy_map_entry<boost::multi_index::detail::sequenced_index_node<boost::multi_index::detail::ordered_index_node<boost::multi_index::detail::null_augment_policy, boost::multi_index::detail::index_node_base<std::pair<std::__cxx11::basic_string<char, std::char_traits<char>, std::allocator<char> > const, boost::property_tree::basic_ptree<std::__cxx11::basic_string<char, std::char_traits<char>, std::allocator<char> >, std::__cxx11::basic_string<char, std::char_traits<char>, std::allocator<char> >, std::less<std::__cxx11::basic_string<char, std::char_traits<char>, std::allocator<char> > > > >, std::allocator<std::pair<std::__cxx11::basic_string<char, std::char_traits<char>, std::allocator<char> > const, boost::property_tree::basic_ptree<std::__cxx11::basic_string<char, std::char_traits<char>, std::allocator<char> >, std::__cxx11::basic_string<char, std::char_traits<char>, std::allocator<char> >, std::less<std::__cxx11::basic_string<char, std::char_traits<char>, std::allocator<char> > > > > > > > > > const&, __gnu_cxx::__ops::_Iter_less_val)
PUBLIC 11f055 0 void std::__unguarded_linear_insert<boost::multi_index::detail::copy_map_entry<boost::multi_index::detail::sequenced_index_node<boost::multi_index::detail::ordered_index_node<boost::multi_index::detail::null_augment_policy, boost::multi_index::detail::index_node_base<std::pair<std::__cxx11::basic_string<char, std::char_traits<char>, std::allocator<char> > const, boost::property_tree::basic_ptree<std::__cxx11::basic_string<char, std::char_traits<char>, std::allocator<char> >, std::__cxx11::basic_string<char, std::char_traits<char>, std::allocator<char> >, std::less<std::__cxx11::basic_string<char, std::char_traits<char>, std::allocator<char> > > > >, std::allocator<std::pair<std::__cxx11::basic_string<char, std::char_traits<char>, std::allocator<char> > const, boost::property_tree::basic_ptree<std::__cxx11::basic_string<char, std::char_traits<char>, std::allocator<char> >, std::__cxx11::basic_string<char, std::char_traits<char>, std::allocator<char> >, std::less<std::__cxx11::basic_string<char, std::char_traits<char>, std::allocator<char> > > > > > > > > >*, __gnu_cxx::__ops::_Val_less_iter>(boost::multi_index::detail::copy_map_entry<boost::multi_index::detail::sequenced_index_node<boost::multi_index::detail::ordered_index_node<boost::multi_index::detail::null_augment_policy, boost::multi_index::detail::index_node_base<std::pair<std::__cxx11::basic_string<char, std::char_traits<char>, std::allocator<char> > const, boost::property_tree::basic_ptree<std::__cxx11::basic_string<char, std::char_traits<char>, std::allocator<char> >, std::__cxx11::basic_string<char, std::char_traits<char>, std::allocator<char> >, std::less<std::__cxx11::basic_string<char, std::char_traits<char>, std::allocator<char> > > > >, std::allocator<std::pair<std::__cxx11::basic_string<char, std::char_traits<char>, std::allocator<char> > const, boost::property_tree::basic_ptree<std::__cxx11::basic_string<char, std::char_traits<char>, std::allocator<char> >, std::__cxx11::basic_string<char, std::char_traits<char>, std::allocator<char> >, std::less<std::__cxx11::basic_string<char, std::char_traits<char>, std::allocator<char> > > > > > > > > >*, __gnu_cxx::__ops::_Val_less_iter)
PUBLIC 11f085 0 void std::__insertion_sort<boost::multi_index::detail::copy_map_entry<boost::multi_index::detail::sequenced_index_node<boost::multi_index::detail::ordered_index_node<boost::multi_index::detail::null_augment_policy, boost::multi_index::detail::index_node_base<std::pair<std::__cxx11::basic_string<char, std::char_traits<char>, std::allocator<char> > const, boost::property_tree::basic_ptree<std::__cxx11::basic_string<char, std::char_traits<char>, std::allocator<char> >, std::__cxx11::basic_string<char, std::char_traits<char>, std::allocator<char> >, std::less<std::__cxx11::basic_string<char, std::char_traits<char>, std::allocator<char> > > > >, std::allocator<std::pair<std::__cxx11::basic_string<char, std::char_traits<char>, std::allocator<char> > const, boost::property_tree::basic_ptree<std::__cxx11::basic_string<char, std::char_traits<char>, std::allocator<char> >, std::__cxx11::basic_string<char, std::char_traits<char>, std::allocator<char> >, std::less<std::__cxx11::basic_string<char, std::char_traits<char>, std::allocator<char> > > > > > > > > >*, __gnu_cxx::__ops::_Iter_less_iter>(boost::multi_index::detail::copy_map_entry<boost::multi_index::detail::sequenced_index_node<boost::multi_index::detail::ordered_index_node<boost::multi_index::detail::null_augment_policy, boost::multi_index::detail::index_node_base<std::pair<std::__cxx11::basic_string<char, std::char_traits<char>, std::allocator<char> > const, boost::property_tree::basic_ptree<std::__cxx11::basic_string<char, std::char_traits<char>, std::allocator<char> >, std::__cxx11::basic_string<char, std::char_traits<char>, std::allocator<char> >, std::less<std::__cxx11::basic_string<char, std::char_traits<char>, std::allocator<char> > > > >, std::allocator<std::pair<std::__cxx11::basic_string<char, std::char_traits<char>, std::allocator<char> > const, boost::property_tree::basic_ptree<std::__cxx11::basic_string<char, std::char_traits<char>, std::allocator<char> >, std::__cxx11::basic_string<char, std::char_traits<char>, std::allocator<char> >, std::less<std::__cxx11::basic_string<char, std::char_traits<char>, std::allocator<char> > > > > > > > > >*, boost::multi_index::detail::copy_map_entry<boost::multi_index::detail::sequenced_index_node<boost::multi_index::detail::ordered_index_node<boost::multi_index::detail::null_augment_policy, boost::multi_index::detail::index_node_base<std::pair<std::__cxx11::basic_string<char, std::char_traits<char>, std::allocator<char> > const, boost::property_tree::basic_ptree<std::__cxx11::basic_string<char, std::char_traits<char>, std::allocator<char> >, std::__cxx11::basic_string<char, std::char_traits<char>, std::allocator<char> >, std::less<std::__cxx11::basic_string<char, std::char_traits<char>, std::allocator<char> > > > >, std::allocator<std::pair<std::__cxx11::basic_string<char, std::char_traits<char>, std::allocator<char> > const, boost::property_tree::basic_ptree<std::__cxx11::basic_string<char, std::char_traits<char>, std::allocator<char> >, std::__cxx11::basic_string<char, std::char_traits<char>, std::allocator<char> >, std::less<std::__cxx11::basic_string<char, std::char_traits<char>, std::allocator<char> > > > > > > > > >*, __gnu_cxx::__ops::_Iter_less_iter)
PUBLIC 11f0ec 0 boost::multi_index::detail::ordered_index_node_impl<boost::multi_index::detail::null_augment_policy, std::allocator<char> >::rebalance(boost::multi_index::detail::ordered_index_node_impl<boost::multi_index::detail::null_augment_policy, std::allocator<char> >*, boost::multi_index::detail::ordered_index_node_compressed_base<boost::multi_index::detail::null_augment_policy, std::allocator<char> >::parent_ref)
PUBLIC 11f412 0 void std::__adjust_heap<boost::multi_index::detail::copy_map_entry<boost::multi_index::detail::sequenced_index_node<boost::multi_index::detail::ordered_index_node<boost::multi_index::detail::null_augment_policy, boost::multi_index::detail::index_node_base<std::pair<std::__cxx11::basic_string<char, std::char_traits<char>, std::allocator<char> > const, boost::property_tree::basic_ptree<std::__cxx11::basic_string<char, std::char_traits<char>, std::allocator<char> >, std::__cxx11::basic_string<char, std::char_traits<char>, std::allocator<char> >, std::less<std::__cxx11::basic_string<char, std::char_traits<char>, std::allocator<char> > > > >, std::allocator<std::pair<std::__cxx11::basic_string<char, std::char_traits<char>, std::allocator<char> > const, boost::property_tree::basic_ptree<std::__cxx11::basic_string<char, std::char_traits<char>, std::allocator<char> >, std::__cxx11::basic_string<char, std::char_traits<char>, std::allocator<char> >, std::less<std::__cxx11::basic_string<char, std::char_traits<char>, std::allocator<char> > > > > > > > > >*, long, boost::multi_index::detail::copy_map_entry<boost::multi_index::detail::sequenced_index_node<boost::multi_index::detail::ordered_index_node<boost::multi_index::detail::null_augment_policy, boost::multi_index::detail::index_node_base<std::pair<std::__cxx11::basic_string<char, std::char_traits<char>, std::allocator<char> > const, boost::property_tree::basic_ptree<std::__cxx11::basic_string<char, std::char_traits<char>, std::allocator<char> >, std::__cxx11::basic_string<char, std::char_traits<char>, std::allocator<char> >, std::less<std::__cxx11::basic_string<char, std::char_traits<char>, std::allocator<char> > > > >, std::allocator<std::pair<std::__cxx11::basic_string<char, std::char_traits<char>, std::allocator<char> > const, boost::property_tree::basic_ptree<std::__cxx11::basic_string<char, std::char_traits<char>, std::allocator<char> >, std::__cxx11::basic_string<char, std::char_traits<char>, std::allocator<char> >, std::less<std::__cxx11::basic_string<char, std::char_traits<char>, std::allocator<char> > > > > > > > > >, __gnu_cxx::__ops::_Iter_less_iter>(boost::multi_index::detail::copy_map_entry<boost::multi_index::detail::sequenced_index_node<boost::multi_index::detail::ordered_index_node<boost::multi_index::detail::null_augment_policy, boost::multi_index::detail::index_node_base<std::pair<std::__cxx11::basic_string<char, std::char_traits<char>, std::allocator<char> > const, boost::property_tree::basic_ptree<std::__cxx11::basic_string<char, std::char_traits<char>, std::allocator<char> >, std::__cxx11::basic_string<char, std::char_traits<char>, std::allocator<char> >, std::less<std::__cxx11::basic_string<char, std::char_traits<char>, std::allocator<char> > > > >, std::allocator<std::pair<std::__cxx11::basic_string<char, std::char_traits<char>, std::allocator<char> > const, boost::property_tree::basic_ptree<std::__cxx11::basic_string<char, std::char_traits<char>, std::allocator<char> >, std::__cxx11::basic_string<char, std::char_traits<char>, std::allocator<char> >, std::less<std::__cxx11::basic_string<char, std::char_traits<char>, std::allocator<char> > > > > > > > > >*, long, long, boost::multi_index::detail::copy_map_entry<boost::multi_index::detail::sequenced_index_node<boost::multi_index::detail::ordered_index_node<boost::multi_index::detail::null_augment_policy, boost::multi_index::detail::index_node_base<std::pair<std::__cxx11::basic_string<char, std::char_traits<char>, std::allocator<char> > const, boost::property_tree::basic_ptree<std::__cxx11::basic_string<char, std::char_traits<char>, std::allocator<char> >, std::__cxx11::basic_string<char, std::char_traits<char>, std::allocator<char> >, std::less<std::__cxx11::basic_string<char, std::char_traits<char>, std::allocator<char> > > > >, std::allocator<std::pair<std::__cxx11::basic_string<char, std::char_traits<char>, std::allocator<char> > const, boost::property_tree::basic_ptree<std::__cxx11::basic_string<char, std::char_traits<char>, std::allocator<char> >, std::__cxx11::basic_string<char, std::char_traits<char>, std::allocator<char> >, std::less<std::__cxx11::basic_string<char, std::char_traits<char>, std::allocator<char> > > > > > > > > >, __gnu_cxx::__ops::_Iter_less_iter)
PUBLIC 11f519 0 void std::__introsort_loop<boost::multi_index::detail::copy_map_entry<boost::multi_index::detail::sequenced_index_node<boost::multi_index::detail::ordered_index_node<boost::multi_index::detail::null_augment_policy, boost::multi_index::detail::index_node_base<std::pair<std::__cxx11::basic_string<char, std::char_traits<char>, std::allocator<char> > const, boost::property_tree::basic_ptree<std::__cxx11::basic_string<char, std::char_traits<char>, std::allocator<char> >, std::__cxx11::basic_string<char, std::char_traits<char>, std::allocator<char> >, std::less<std::__cxx11::basic_string<char, std::char_traits<char>, std::allocator<char> > > > >, std::allocator<std::pair<std::__cxx11::basic_string<char, std::char_traits<char>, std::allocator<char> > const, boost::property_tree::basic_ptree<std::__cxx11::basic_string<char, std::char_traits<char>, std::allocator<char> >, std::__cxx11::basic_string<char, std::char_traits<char>, std::allocator<char> >, std::less<std::__cxx11::basic_string<char, std::char_traits<char>, std::allocator<char> > > > > > > > > >*, long, __gnu_cxx::__ops::_Iter_less_iter>(boost::multi_index::detail::copy_map_entry<boost::multi_index::detail::sequenced_index_node<boost::multi_index::detail::ordered_index_node<boost::multi_index::detail::null_augment_policy, boost::multi_index::detail::index_node_base<std::pair<std::__cxx11::basic_string<char, std::char_traits<char>, std::allocator<char> > const, boost::property_tree::basic_ptree<std::__cxx11::basic_string<char, std::char_traits<char>, std::allocator<char> >, std::__cxx11::basic_string<char, std::char_traits<char>, std::allocator<char> >, std::less<std::__cxx11::basic_string<char, std::char_traits<char>, std::allocator<char> > > > >, std::allocator<std::pair<std::__cxx11::basic_string<char, std::char_traits<char>, std::allocator<char> > const, boost::property_tree::basic_ptree<std::__cxx11::basic_string<char, std::char_traits<char>, std::allocator<char> >, std::__cxx11::basic_string<char, std::char_traits<char>, std::allocator<char> >, std::less<std::__cxx11::basic_string<char, std::char_traits<char>, std::allocator<char> > > > > > > > > >*, boost::multi_index::detail::copy_map_entry<boost::multi_index::detail::sequenced_index_node<boost::multi_index::detail::ordered_index_node<boost::multi_index::detail::null_augment_policy, boost::multi_index::detail::index_node_base<std::pair<std::__cxx11::basic_string<char, std::char_traits<char>, std::allocator<char> > const, boost::property_tree::basic_ptree<std::__cxx11::basic_string<char, std::char_traits<char>, std::allocator<char> >, std::__cxx11::basic_string<char, std::char_traits<char>, std::allocator<char> >, std::less<std::__cxx11::basic_string<char, std::char_traits<char>, std::allocator<char> > > > >, std::allocator<std::pair<std::__cxx11::basic_string<char, std::char_traits<char>, std::allocator<char> > const, boost::property_tree::basic_ptree<std::__cxx11::basic_string<char, std::char_traits<char>, std::allocator<char> >, std::__cxx11::basic_string<char, std::char_traits<char>, std::allocator<char> >, std::less<std::__cxx11::basic_string<char, std::char_traits<char>, std::allocator<char> > > > > > > > > >*, long, __gnu_cxx::__ops::_Iter_less_iter)
PUBLIC 11f73a 0 boost::property_tree::basic_ptree<std::__cxx11::basic_string<char, std::char_traits<char>, std::allocator<char> >, std::__cxx11::basic_string<char, std::char_traits<char>, std::allocator<char> >, std::less<std::__cxx11::basic_string<char, std::char_traits<char>, std::allocator<char> > > >::basic_ptree(boost::property_tree::basic_ptree<std::__cxx11::basic_string<char, std::char_traits<char>, std::allocator<char> >, std::__cxx11::basic_string<char, std::char_traits<char>, std::allocator<char> >, std::less<std::__cxx11::basic_string<char, std::char_traits<char>, std::allocator<char> > > > const&)
PUBLIC 11fcb0 0 void boost::detail::allocator::construct<std::pair<std::__cxx11::basic_string<char, std::char_traits<char>, std::allocator<char> > const, boost::property_tree::basic_ptree<std::__cxx11::basic_string<char, std::char_traits<char>, std::allocator<char> >, std::__cxx11::basic_string<char, std::char_traits<char>, std::allocator<char> >, std::less<std::__cxx11::basic_string<char, std::char_traits<char>, std::allocator<char> > > > > >(void*, std::pair<std::__cxx11::basic_string<char, std::char_traits<char>, std::allocator<char> > const, boost::property_tree::basic_ptree<std::__cxx11::basic_string<char, std::char_traits<char>, std::allocator<char> >, std::__cxx11::basic_string<char, std::char_traits<char>, std::allocator<char> >, std::less<std::__cxx11::basic_string<char, std::char_traits<char>, std::allocator<char> > > > > const&)
PUBLIC 11fcfe 0 boost::property_tree::json_parser::detail::standard_callbacks<boost::property_tree::basic_ptree<std::__cxx11::basic_string<char, std::char_traits<char>, std::allocator<char> >, std::__cxx11::basic_string<char, std::char_traits<char>, std::allocator<char> >, std::less<std::__cxx11::basic_string<char, std::char_traits<char>, std::allocator<char> > > > >::new_tree()
PUBLIC 120606 0 boost::property_tree::json_parser::detail::standard_callbacks<boost::property_tree::basic_ptree<std::__cxx11::basic_string<char, std::char_traits<char>, std::allocator<char> >, std::__cxx11::basic_string<char, std::char_traits<char>, std::allocator<char> >, std::less<std::__cxx11::basic_string<char, std::char_traits<char>, std::allocator<char> > > > >::new_value()
PUBLIC 12065e 0 boost::property_tree::json_parser::detail::parser<boost::property_tree::json_parser::detail::standard_callbacks<boost::property_tree::basic_ptree<std::__cxx11::basic_string<char, std::char_traits<char>, std::allocator<char> >, std::__cxx11::basic_string<char, std::char_traits<char>, std::allocator<char> >, std::less<std::__cxx11::basic_string<char, std::char_traits<char>, std::allocator<char> > > > >, boost::property_tree::json_parser::detail::encoding<char>, std::istreambuf_iterator<char, std::char_traits<char> >, std::istreambuf_iterator<char, std::char_traits<char> > >::parse_boolean()
PUBLIC 1209d8 0 bool boost::property_tree::json_parser::detail::source<boost::property_tree::json_parser::detail::encoding<char>, std::istreambuf_iterator<char, std::char_traits<char> >, std::istreambuf_iterator<char, std::char_traits<char> > >::have<boost::property_tree::json_parser::detail::number_callback_adapter<boost::property_tree::json_parser::detail::standard_callbacks<boost::property_tree::basic_ptree<std::__cxx11::basic_string<char, std::char_traits<char>, std::allocator<char> >, std::__cxx11::basic_string<char, std::char_traits<char>, std::allocator<char> >, std::less<std::__cxx11::basic_string<char, std::char_traits<char>, std::allocator<char> > > > >, boost::property_tree::json_parser::detail::encoding<char>, std::istreambuf_iterator<char, std::char_traits<char> >, std::input_iterator_tag> >(bool (boost::property_tree::json_parser::detail::encoding<char>::*)(char) const, boost::property_tree::json_parser::detail::number_callback_adapter<boost::property_tree::json_parser::detail::standard_callbacks<boost::property_tree::basic_ptree<std::__cxx11::basic_string<char, std::char_traits<char>, std::allocator<char> >, std::__cxx11::basic_string<char, std::char_traits<char>, std::allocator<char> >, std::less<std::__cxx11::basic_string<char, std::char_traits<char>, std::allocator<char> > > > >, boost::property_tree::json_parser::detail::encoding<char>, std::istreambuf_iterator<char, std::char_traits<char> >, std::input_iterator_tag>&)
PUBLIC 120bb4 0 boost::property_tree::json_parser::detail::parser<boost::property_tree::json_parser::detail::standard_callbacks<boost::property_tree::basic_ptree<std::__cxx11::basic_string<char, std::char_traits<char>, std::allocator<char> >, std::__cxx11::basic_string<char, std::char_traits<char>, std::allocator<char> >, std::less<std::__cxx11::basic_string<char, std::char_traits<char>, std::allocator<char> > > > >, boost::property_tree::json_parser::detail::encoding<char>, std::istreambuf_iterator<char, std::char_traits<char> >, std::istreambuf_iterator<char, std::char_traits<char> > >::parse_string()
PUBLIC 1214bc 0 boost::property_tree::json_parser::detail::parser<boost::property_tree::json_parser::detail::standard_callbacks<boost::property_tree::basic_ptree<std::__cxx11::basic_string<char, std::char_traits<char>, std::allocator<char> >, std::__cxx11::basic_string<char, std::char_traits<char>, std::allocator<char> >, std::less<std::__cxx11::basic_string<char, std::char_traits<char>, std::allocator<char> > > > >, boost::property_tree::json_parser::detail::encoding<char>, std::istreambuf_iterator<char, std::char_traits<char> >, std::istreambuf_iterator<char, std::char_traits<char> > >::parse_object()
PUBLIC 121d94 0 boost::property_tree::json_parser::detail::parser<boost::property_tree::json_parser::detail::standard_callbacks<boost::property_tree::basic_ptree<std::__cxx11::basic_string<char, std::char_traits<char>, std::allocator<char> >, std::__cxx11::basic_string<char, std::char_traits<char>, std::allocator<char> >, std::less<std::__cxx11::basic_string<char, std::char_traits<char>, std::allocator<char> > > > >, boost::property_tree::json_parser::detail::encoding<char>, std::istreambuf_iterator<char, std::char_traits<char> >, std::istreambuf_iterator<char, std::char_traits<char> > >::parse_value()
PUBLIC 122060 0 void boost::property_tree::json_parser::detail::read_json_internal<std::istreambuf_iterator<char, std::char_traits<char> >, std::istreambuf_iterator<char, std::char_traits<char> >, boost::property_tree::json_parser::detail::encoding<char>, boost::property_tree::json_parser::detail::standard_callbacks<boost::property_tree::basic_ptree<std::__cxx11::basic_string<char, std::char_traits<char>, std::allocator<char> >, std::__cxx11::basic_string<char, std::char_traits<char>, std::allocator<char> >, std::less<std::__cxx11::basic_string<char, std::char_traits<char>, std::allocator<char> > > > > >(std::istreambuf_iterator<char, std::char_traits<char> >, std::istreambuf_iterator<char, std::char_traits<char> >, boost::property_tree::json_parser::detail::encoding<char>&, boost::property_tree::json_parser::detail::standard_callbacks<boost::property_tree::basic_ptree<std::__cxx11::basic_string<char, std::char_traits<char>, std::allocator<char> >, std::__cxx11::basic_string<char, std::char_traits<char>, std::allocator<char> >, std::less<std::__cxx11::basic_string<char, std::char_traits<char>, std::allocator<char> > > > >&, std::__cxx11::basic_string<char, std::char_traits<char>, std::allocator<char> > const&)
PUBLIC 122567 0 void boost::property_tree::json_parser::detail::read_json_internal<boost::property_tree::basic_ptree<std::__cxx11::basic_string<char, std::char_traits<char>, std::allocator<char> >, std::__cxx11::basic_string<char, std::char_traits<char>, std::allocator<char> >, std::less<std::__cxx11::basic_string<char, std::char_traits<char>, std::allocator<char> > > > >(std::basic_istream<boost::property_tree::basic_ptree<std::__cxx11::basic_string<char, std::char_traits<char>, std::allocator<char> >, std::__cxx11::basic_string<char, std::char_traits<char>, std::allocator<char> >, std::less<std::__cxx11::basic_string<char, std::char_traits<char>, std::allocator<char> > > >::key_type::value_type, std::char_traits<boost::property_tree::basic_ptree<std::__cxx11::basic_string<char, std::char_traits<char>, std::allocator<char> >, std::__cxx11::basic_string<char, std::char_traits<char>, std::allocator<char> >, std::less<std::__cxx11::basic_string<char, std::char_traits<char>, std::allocator<char> > > >::key_type::value_type> >&, boost::property_tree::basic_ptree<std::__cxx11::basic_string<char, std::char_traits<char>, std::allocator<char> >, std::__cxx11::basic_string<char, std::char_traits<char>, std::allocator<char> >, std::less<std::__cxx11::basic_string<char, std::char_traits<char>, std::allocator<char> > > >&, std::__cxx11::basic_string<char, std::char_traits<char>, std::allocator<char> > const&)
PUBLIC 1226f6 0 boost::property_tree::json_parser::detail::parser<boost::property_tree::json_parser::detail::standard_callbacks<boost::property_tree::basic_ptree<std::__cxx11::basic_string<char, std::char_traits<char>, std::allocator<char> >, std::__cxx11::basic_string<char, std::char_traits<char>, std::allocator<char> >, std::less<std::__cxx11::basic_string<char, std::char_traits<char>, std::allocator<char> > > > >, boost::property_tree::json_parser::detail::encoding<char>, std::istreambuf_iterator<char, std::char_traits<char> >, std::istreambuf_iterator<char, std::char_traits<char> > >::parse_array()
PUBLIC 122cfd 0 Stf_StackInit
PUBLIC 122d13 0 Stf_StackDelete
PUBLIC 122d3f 0 Stf_StackPush
PUBLIC 122dba 0 Stf_StackPop
PUBLIC 122de0 0 Stf_StackPeek
PUBLIC 122dfe 0 Stf_StackGetValue
PUBLIC 122e1a 0 Stf_ChainAllocLink
PUBLIC 122e70 0 Stf_ChainNewLink
PUBLIC 122ec5 0 Stf_ChainInit
PUBLIC 122ee4 0 Stf_ChainCreate
PUBLIC 122f2a 0 Stf_ChainReset
PUBLIC 122f61 0 Stf_ChainDestroy
PUBLIC 122f7a 0 Stf_ChainLinkAfter
PUBLIC 122fd8 0 Stf_ChainLinkBefore
PUBLIC 123033 0 Stf_ChainUnlinkLink
PUBLIC 1230c7 0 Stf_ChainDeleteLink
PUBLIC 1230eb 0 Stf_ChainAppend
PUBLIC 123119 0 Stf_ChainPrepend
PUBLIC 123147 0 Stf_ChainGetNthLink
PUBLIC 123172 0 Stf_ChainSort
PUBLIC 12324e 0 Stf_ListCreateNode
PUBLIC 12334f 0 Stf_ListInit
PUBLIC 123369 0 Stf_ListCreate
PUBLIC 1233bd 0 Stf_ListReset
PUBLIC 1233f7 0 Stf_ListDestroy
PUBLIC 123410 0 Stf_ListLinkAfter
PUBLIC 123467 0 Stf_ListLinkBefore
PUBLIC 1234bb 0 Stf_ListUnlinkNode
PUBLIC 12350d 0 Stf_ListGetNode
PUBLIC 1235fe 0 Stf_ListDeleteNode
PUBLIC 123611 0 Stf_ListDeleteNodeByKey
PUBLIC 12362c 0 Stf_ListNewAppend
PUBLIC 12365a 0 Stf_ListNewPrepend
PUBLIC 123688 0 Stf_ListGetNthNode
PUBLIC 1236d5 0 Stf_ListSort
PUBLIC 1237b1 0 Stf_Panic
PUBLIC 123865 0 ScrambleNum
PUBLIC 123998 0 Cipher_EncodeRaw
PUBLIC 123b5f 0 Cipher_DecodeRaw
PUBLIC 123e02 0 Cipher_EncodeMime
PUBLIC 123fd4 0 Cipher_Encode
PUBLIC 12400c 0 Cipher_DecodeMime
PUBLIC 12431f 0 Cipher_Decode
PUBLIC 124364 0 dvguiStoa
PUBLIC 124515 0 dvguiStoafree
PUBLIC 12455b 0 findExeName
PUBLIC 124679 0 dyn_load
PUBLIC 1246e9 0 dvld_dyn_lookup
PUBLIC 124755 0 dvld_dyn_unload
PUBLIC 1247a5 0 dvld_dyn_syminfo
PUBLIC 1248fa 0 dvld_dyn_syminfof
PUBLIC 1249d7 0 dvld_dyn_libinfo
PUBLIC 1249e8 0 dvld_dyn_load
PUBLIC 124c66 0 dvld_find_lib
PUBLIC 124d60 0 dvld_find_exe_name
PUBLIC 124d8c 0 dvld_exe_name
PUBLIC 124d97 0 dvguiAddarg
PUBLIC 124ecc 0 dvguiAddorarg
PUBLIC 125045 0 dvguiAdderrarg
PUBLIC 1251c0 0 DcEventRequestAdapter
PUBLIC 125220 0 dcGetHostName.part.0
PUBLIC 125330 0 dcGetConnectState
PUBLIC 125380 0 dcCreateCommand
PUBLIC 125420 0 dcDisconnect
PUBLIC 125510 0 dcCleanup
PUBLIC 125680 0 dcConnect
PUBLIC 125c20 0 dcEstablishConnection
PUBLIC 125f10 0 dcDoEvent
PUBLIC 126080 0 dcDoOneEventTimed
PUBLIC 1265b0 0 dcDoOneEvent
PUBLIC 1265c0 0 dcDoOneEventWait
PUBLIC 1265d0 0 dcDoOneEventWaitTime
PUBLIC 126610 0 dcGenErrorText
PUBLIC 126620 0 dcGetBinData
PUBLIC 126630 0 dcGetBinDataLen
PUBLIC 126640 0 dcGetInterp
PUBLIC 126690 0 dcGetStringResult
PUBLIC 1266b0 0 dcSetEventRequestHandler
PUBLIC 126720 0 dcIsEventRequestHandler
PUBLIC 126730 0 dcInit
PUBLIC 1267e0 0 dcIsSpawned
PUBLIC 126850 0 dcProcessEvents
PUBLIC 1268a0 0 dcSend
PUBLIC 126900 0 dcGetServices
PUBLIC 126b30 0 dcSendWithBinary
PUBLIC 126bb0 0 dcSendWithCallback
PUBLIC 126c30 0 dcSendWithCallbackBinary
PUBLIC 126cc0 0 dcCancelSendCallback
PUBLIC 126d10 0 dcSetDisconnectHandler
PUBLIC 126d70 0 dcGetMsgId
PUBLIC 126d80 0 dcSendResult
PUBLIC 126d90 0 dcSetStringResult
PUBLIC 126dc0 0 dcSpawn
PUBLIC 126f30 0 dcGetHostName
PUBLIC 126f60 0 dcOfferService
PUBLIC 1277e0 0 dcStartService
PUBLIC 127810 0 dcStopService
PUBLIC 127960 0 dcGetServiceAttributes
PUBLIC 127aa0 0 dcGetServiceAttrs
PUBLIC 127ad0 0 dcGetServiceAttribute
PUBLIC 127b40 0 dcSetFileHandler
PUBLIC 127cc0 0 dcCreateFileHandler
PUBLIC 127cd0 0 dcDeleteFileHandler
PUBLIC 127ce0 0 dcSuspendChannelRead
PUBLIC 127d00 0 dcResumeChannelRead
PUBLIC 127d10 0 dcGetSocket
PUBLIC 127d20 0 dcIsPreestablished
PUBLIC 127d40 0 dcIsInitialized
PUBLIC 127d60 0 dcCheckHostProcess
PUBLIC 127e90 0 DcSetIoNonblocking(int)
PUBLIC 127ec0 0 DcGiveServicesCmd
PUBLIC 127f60 0 DcComputeHandshakeHash(dcHandshakeStateRec*, unsigned char const*, unsigned int)
PUBLIC 128010 0 DcDumpMessage(int, unsigned int, unsigned char, char const*, unsigned int, unsigned char const*, unsigned int)
PUBLIC 128480 0 DcDeleteActivationRecord(dcConnectionRec*, Tcl_HashEntry*)
PUBLIC 1284f0 0 DcCreateSocketAndBind(int, addrinfo*, int*)
PUBLIC 1286c0 0 DcFindInheritance(char const*, int, int*)
PUBLIC 128970 0 DcRegisterClientCmd
PUBLIC 128a00 0 DcCreateInterp(dcConnectionRec*)
PUBLIC 128ab0 0 DcGenerateRandomBytes(unsigned char*, unsigned long) [clone .constprop.0]
PUBLIC 128c40 0 DcInitialize
PUBLIC 128e50 0 DcGenerateServiceKey
PUBLIC 128ee0 0 DcDeleteConnection
PUBLIC 128f80 0 DcInterpDeleteCb
PUBLIC 128ff0 0 DcCancelSendCallback
PUBLIC 129060 0 DcAbortActiveRpcs
PUBLIC 129150 0 DcGetMsgId
PUBLIC 129180 0 DcRegisterService
PUBLIC 1294f0 0 DcSetEventCallback
PUBLIC 1295b0 0 DcCreateConnection
PUBLIC 129890 0 DcUnregisterService
PUBLIC 129940 0 DcUserCmdCB
PUBLIC 129960 0 DcAddToChannelList
PUBLIC 1299a0 0 DcRemoveFromChannelList
PUBLIC 129a20 0 DcProvidedServiceHandshakeAbort
PUBLIC 129a60 0 DcProvidedServiceFree
PUBLIC 129af0 0 DcCreateSocketClient
PUBLIC 12a280 0 DcCreateSocketServer
PUBLIC 12a540 0 DcCreateSocketPair
PUBLIC 12a630 0 DcAddInheritance
PUBLIC 12a900 0 DcReclaimInheritance
PUBLIC 12a9a0 0 DcCloseConnection
PUBLIC 12ab50 0 DcReadInput
PUBLIC 12af40 0 DcFlushOutput
PUBLIC 12b350 0 DcSendMessage(dcConnectionRec*, unsigned char, unsigned int, char const*, unsigned char const*, int)
PUBLIC 12b5c0 0 DcSendResult
PUBLIC 12b660 0 DcSend
PUBLIC 12ba40 0 DcPerformHandshake
PUBLIC 12bd40 0 DcProcessInput
PUBLIC 12c6f0 0 DcAcceptConnectedSocket
PUBLIC 12c850 0 DcAcceptConnection
PUBLIC 12c9e0 0 DcClaimInheritance
PUBLIC 12cad0 0 genErrorText(int)
PUBLIC 12cb90 0 genErrorAllocate(char const*, int*)
PUBLIC 12cc30 0 genErrorFree(int)
PUBLIC 12cc80 0 daiTclReComp
PUBLIC 12d220 0 moresubs
PUBLIC 12d316 0 freev
PUBLIC 12d3fb 0 makesearch
PUBLIC 12d545 0 parse
PUBLIC 12d764 0 parsebranch
PUBLIC 12d86b 0 parseqatom
PUBLIC 12e6a4 0 nonword
PUBLIC 12e750 0 word
PUBLIC 12e771 0 scannum
PUBLIC 12e7d8 0 repeat
PUBLIC 12eb49 0 bracket
PUBLIC 12eb99 0 cbracket
PUBLIC 12eefd 0 brackpart
PUBLIC 12f1a7 0 scanplain
PUBLIC 12f1f3 0 leaders
PUBLIC 12f356 0 onechr
PUBLIC 12f3c8 0 dovec
PUBLIC 12f815 0 nextleader
PUBLIC 12f865 0 wordchrs
PUBLIC 12f8f5 0 subre
PUBLIC 12f9d6 0 freesubre
PUBLIC 12fa2c 0 freesrnode
PUBLIC 12fa88 0 optst
PUBLIC 12fad1 0 numst
PUBLIC 12fb03 0 markst
PUBLIC 12fb2d 0 cleanst
PUBLIC 12fb7a 0 nfatree
PUBLIC 12fbdc 0 nfanode
PUBLIC 12fcc9 0 newlacon
PUBLIC 12fda5 0 freelacons
PUBLIC 12fddd 0 rfree
PUBLIC 12fe5e 0 dump
PUBLIC 12fe5f 0 dumpst
PUBLIC 12fe92 0 stdump
PUBLIC 1300ed 0 stid
PUBLIC 13012d 0 lexstart
PUBLIC 13016b 0 prefixes
PUBLIC 130398 0 lexnest
PUBLIC 1303b1 0 lexword
PUBLIC 1303cd 0 next
PUBLIC 130d07 0 lexescape
PUBLIC 131094 0 lexdigits
PUBLIC 131178 0 brenext
PUBLIC 131432 0 skip
PUBLIC 1314a5 0 newline
PUBLIC 1314ab 0 chrnamed
PUBLIC 131518 0 initcm
PUBLIC 1315ac 0 freecm
PUBLIC 13161b 0 cmtreefree
PUBLIC 13169f 0 setcolor
PUBLIC 1317d2 0 maxcolor
PUBLIC 1317e7 0 newcolor
PUBLIC 131972 0 freecolor
PUBLIC 131aa1 0 pseudocolor
PUBLIC 131ae1 0 subcolor
PUBLIC 131b78 0 newsub
PUBLIC 131bf1 0 subrange
PUBLIC 131cd2 0 subblock
PUBLIC 131f1b 0 okcolors
PUBLIC 132033 0 colorchain
PUBLIC 13204d 0 uncolorchain
PUBLIC 13209b 0 singleton
PUBLIC 1320dd 0 rainbow
PUBLIC 132185 0 colorcomplement
PUBLIC 132234 0 newnfa
PUBLIC 1323b0 0 freenfa
PUBLIC 132426 0 newstate
PUBLIC 1324f3 0 newfstate
PUBLIC 132505 0 dropstate
PUBLIC 132557 0 freestate
PUBLIC 1325b0 0 destroystate
PUBLIC 1325f9 0 newarc
PUBLIC 1326aa 0 allocarc
PUBLIC 132797 0 freearc
PUBLIC 132873 0 findarc
PUBLIC 13289d 0 cparc
PUBLIC 1328ba 0 moveins
PUBLIC 132908 0 copyins
PUBLIC 13293b 0 moveouts
PUBLIC 132989 0 copyouts
PUBLIC 1329bc 0 cloneouts
PUBLIC 1329ff 0 delsub
PUBLIC 132a3f 0 deltraverse
PUBLIC 132abc 0 dupnfa
PUBLIC 132b1f 0 duptraverse
PUBLIC 132bb7 0 cleartraverse
PUBLIC 132c02 0 specialcolors
PUBLIC 132c65 0 optimize
PUBLIC 132d3a 0 pullback
PUBLIC 132e5a 0 pull
PUBLIC 132fb3 0 pushfwd
PUBLIC 1330d4 0 push
PUBLIC 13322d 0 combine
PUBLIC 133345 0 fixempties
PUBLIC 133400 0 unempty
PUBLIC 1334d9 0 cleanup
PUBLIC 133563 0 markreachable
PUBLIC 1335c9 0 markcanreach
PUBLIC 13362f 0 analyze
PUBLIC 133680 0 compact
PUBLIC 133867 0 carcsort
PUBLIC 1338b9 0 freecnfa
PUBLIC 1338d7 0 dumpnfa
PUBLIC 1338d8 0 dumpcnfa
PUBLIC 1338d9 0 newcvec
PUBLIC 133977 0 clearcvec
PUBLIC 1339b5 0 addchr
PUBLIC 1339c3 0 addrange
PUBLIC 1339e0 0 addmcce
PUBLIC 133a47 0 haschr
PUBLIC 133a9c 0 getcvec
PUBLIC 133b49 0 freecvec
PUBLIC 133b57 0 nmcces
PUBLIC 133b5d 0 nleaders
PUBLIC 133b63 0 allmcces
PUBLIC 133b74 0 element
PUBLIC 133c5b 0 range
PUBLIC 133d7b 0 before
PUBLIC 133d84 0 eclass
PUBLIC 133e36 0 cclass
PUBLIC 134508 0 allcases
PUBLIC 1345cc 0 cmp
PUBLIC 1345ed 0 casecmp
PUBLIC 134644 0 daiTclReError
PUBLIC 134788 0 daiTclReExec
PUBLIC 134a89 0 find
PUBLIC 134cfc 0 cfind
PUBLIC 134dfc 0 cfindloop
PUBLIC 134fdc 0 zapsubs
PUBLIC 135002 0 zapmem
PUBLIC 13508c 0 subset
PUBLIC 1350c9 0 dissect
PUBLIC 135168 0 condissect
PUBLIC 135327 0 altdissect
PUBLIC 1353c4 0 cdissect
PUBLIC 13547d 0 ccondissect
PUBLIC 13568a 0 crevdissect
PUBLIC 135899 0 cbrdissect
PUBLIC 1359f5 0 caltdissect
PUBLIC 135b13 0 longest
PUBLIC 135d49 0 shortest
PUBLIC 135feb 0 lastcold
PUBLIC 13601e 0 newdfa
PUBLIC 1361e4 0 freedfa
PUBLIC 136240 0 hash
PUBLIC 13625d 0 initialize
PUBLIC 136339 0 miss
PUBLIC 1366ed 0 lacon
PUBLIC 1367c3 0 getvacant
PUBLIC 1369b0 0 pickss
PUBLIC 136b1c 0 daiTclReFree
PUBLIC 136b30 0 daiTclpAlloc
PUBLIC 136b40 0 daiTclpFree
PUBLIC 136b4e 0 daiTclpRealloc
PUBLIC 136b60 0 daiTcl_AsyncCreate
PUBLIC 136bce 0 daiTcl_AsyncMark
PUBLIC 136be8 0 daiTcl_AsyncInvoke
PUBLIC 136c59 0 daiTcl_AsyncDelete
PUBLIC 136cbc 0 daiTcl_AsyncReady
PUBLIC 136cc4 0 daiTcl_CreateInterp
PUBLIC 137122 0 daiTclHideUnsafeCommands
PUBLIC 137170 0 daiTcl_CallWhenDeleted
PUBLIC 137224 0 daiTcl_DontCallWhenDeleted
PUBLIC 137285 0 daiTcl_SetAssocData
PUBLIC 137324 0 daiTcl_DeleteAssocData
PUBLIC 137390 0 daiTcl_GetAssocData
PUBLIC 1373d4 0 daiTcl_InterpDeleted
PUBLIC 1373de 0 daiTcl_DeleteInterp
PUBLIC 137409 0 DeleteInterpProc
PUBLIC 1376c1 0 daiTcl_HideCommand
PUBLIC 137851 0 daiTcl_ExposeCommand
PUBLIC 1379e3 0 daiTcl_CreateCommand
PUBLIC 137b8f 0 daiTcl_CreateObjCommand
PUBLIC 137d63 0 daiTclInvokeStringCommand
PUBLIC 137e0a 0 daiTclInvokeObjectCommand
PUBLIC 137fc6 0 daiTclRenameCommand
PUBLIC 1381cd 0 daiTcl_SetCommandInfo
PUBLIC 13823e 0 daiTcl_GetCommandInfo
PUBLIC 1382b0 0 daiTcl_GetCommandName
PUBLIC 1382dd 0 daiTcl_GetCommandFullName
PUBLIC 138378 0 daiTcl_DeleteCommand
PUBLIC 1383a6 0 daiTcl_DeleteCommandFromToken
PUBLIC 138437 0 daiTclCleanupCommand
PUBLIC 13844e 0 daiTcl_CreateMathFunc
PUBLIC 1384f4 0 daiTcl_EvalObjEx
PUBLIC 1388a9 0 ProcessUnexpectedResult
PUBLIC 138941 0 RecordTracebackInfo
PUBLIC 138a12 0 daiTcl_ExprLong
PUBLIC 138b37 0 daiTcl_ExprDouble
PUBLIC 138c5e 0 daiTcl_ExprBoolean
PUBLIC 138d92 0 daiTcl_ExprLongObj
PUBLIC 138e33 0 daiTcl_ExprDoubleObj
PUBLIC 138ed6 0 daiTcl_ExprBooleanObj
PUBLIC 138f88 0 daiTclInvoke
PUBLIC 1390be 0 daiTclGlobalInvoke
PUBLIC 1390fc 0 daiTclObjInvokeGlobal
PUBLIC 13913a 0 daiTclObjInvoke
PUBLIC 1394a6 0 daiTcl_ExprString
PUBLIC 13968f 0 daiTcl_ExprObj
PUBLIC 139af3 0 daiTcl_CreateTrace
PUBLIC 139b64 0 daiTcl_DeleteTrace
PUBLIC 139bbe 0 daiTcl_AddErrorInfo
PUBLIC 139bd1 0 daiTcl_AddObjErrorInfo
PUBLIC 139cd0 0 daiTcl_VarEvalVA
PUBLIC 139d3f 0 daiTcl_VarEval
PUBLIC 139dd4 0 daiTcl_GlobalEval
PUBLIC 139e12 0 daiTcl_SetRecursionLimit
PUBLIC 139e23 0 daiTcl_AllowExceptions
PUBLIC 139e2b 0 daiTcl_GetVersion
PUBLIC 139e5c 0 daiTcl_NewByteArrayObj
PUBLIC 139edc 0 daiTcl_DbNewByteArrayObj
PUBLIC 139eea 0 daiTcl_SetByteArrayObj
PUBLIC 139f8d 0 daiTcl_GetByteArrayFromObj
PUBLIC 139fcf 0 daiTcl_SetByteArrayLength
PUBLIC 13a08b 0 SetByteArrayFromAny
PUBLIC 13a148 0 FreeByteArrayInternalRep
PUBLIC 13a15a 0 DupByteArrayInternalRep
PUBLIC 13a1cc 0 UpdateStringOfByteArray
PUBLIC 13a27d 0 daiTcl_BinaryObjCmd
PUBLIC 13b54b 0 GetFormatSpec
PUBLIC 13b5f3 0 FormatNumber
PUBLIC 13b7c2 0 ScanNumber
PUBLIC 13b898 0 daiTcl_Alloc
PUBLIC 13b8de 0 daiTcl_DbCkalloc
PUBLIC 13b953 0 daiTcl_Realloc
PUBLIC 13b999 0 daiTcl_DbCkrealloc
PUBLIC 13ba0e 0 daiTcl_Free
PUBLIC 13ba1c 0 daiTcl_DbCkfree
PUBLIC 13ba2f 0 daiTcl_InitMemory
PUBLIC 13ba30 0 daiTcl_DumpActiveMemory
PUBLIC 13ba36 0 daiTcl_ValidateAllMemory
PUBLIC 13ba37 0 daiTclDumpMemoryInfo
PUBLIC 13ba38 0 daiTclFinalizeMemorySubsystem
PUBLIC 13ba3c 0 daiTcl_ClockObjCmd
PUBLIC 13be14 0 FormatClock
PUBLIC 13bf7c 0 daiTcl_BreakObjCmd
PUBLIC 13bfae 0 daiTcl_CaseObjCmd
PUBLIC 13c224 0 daiTcl_CatchObjCmd
PUBLIC 13c314 0 daiTcl_CdObjCmd
PUBLIC 13c3fd 0 daiTcl_ConcatObjCmd
PUBLIC 13c424 0 daiTcl_ContinueObjCmd
PUBLIC 13c456 0 daiTcl_EncodingObjCmd
PUBLIC 13c665 0 daiTcl_ErrorObjCmd
PUBLIC 13c72e 0 daiTcl_EvalObjCmd
PUBLIC 13c7d7 0 daiTcl_ExitObjCmd
PUBLIC 13c83f 0 daiTcl_ExprObjCmd
PUBLIC 13c97d 0 daiTcl_FileObjCmd
PUBLIC 13d401 0 SplitPath
PUBLIC 13d4bc 0 CheckAccess
PUBLIC 13d553 0 GetStatBuf
PUBLIC 13d631 0 StoreStatData
PUBLIC 13d8ae 0 GetTypeFromMode
PUBLIC 13d952 0 daiTcl_ForObjCmd
PUBLIC 13da84 0 daiTcl_ForeachObjCmd
PUBLIC 13e018 0 daiTcl_FormatObjCmd
PUBLIC 13e85a 0 StringifyObjects
PUBLIC 13e8b0 0 daiTcl_IfObjCmd
PUBLIC 13ea72 0 daiTcl_IncrObjCmd
PUBLIC 13eb25 0 daiTcl_InfoObjCmd
PUBLIC 13ed63 0 InfoArgsCmd
PUBLIC 13ee53 0 InfoBodyCmd
PUBLIC 13ef18 0 InfoCmdCountCmd
PUBLIC 13ef5d 0 InfoCommandsCmd
PUBLIC 13f1ae 0 InfoCompleteCmd
PUBLIC 13f213 0 InfoDefaultCmd
PUBLIC 13f3e7 0 InfoExistsCmd
PUBLIC 13f45e 0 InfoGlobalsCmd
PUBLIC 13f55f 0 InfoHostnameCmd
PUBLIC 13f5eb 0 InfoLevelCmd
PUBLIC 13f741 0 InfoLibraryCmd
PUBLIC 13f7dc 0 InfoLoadedCmd
PUBLIC 13f829 0 InfoLocalsCmd
PUBLIC 13f8df 0 AppendLocals
PUBLIC 13fa1c 0 InfoNameOfExecutableCmd
PUBLIC 13fa8a 0 InfoPatchLevelCmd
PUBLIC 13fb09 0 InfoProcsCmd
PUBLIC 13fcd8 0 InfoScriptCmd
PUBLIC 13fd2d 0 InfoSharedlibCmd
PUBLIC 13fd78 0 InfoTclVersionCmd
PUBLIC 13fdf7 0 InfoVarsCmd
PUBLIC 1400c4 0 daiTcl_JoinObjCmd
PUBLIC 1401c0 0 daiTcl_LindexObjCmd
PUBLIC 1402a1 0 daiTcl_LinsertObjCmd
PUBLIC 14049e 0 daiTcl_ListObjCmd
PUBLIC 1404e1 0 daiTcl_LlengthObjCmd
PUBLIC 14054f 0 daiTcl_LrangeObjCmd
PUBLIC 14068c 0 daiTcl_LreplaceObjCmd
PUBLIC 1408a6 0 daiTcl_LsearchObjCmd
PUBLIC 140a5e 0 daiTcl_LsortObjCmd
PUBLIC 140db8 0 MergeSort
PUBLIC 140e7b 0 MergeLists
PUBLIC 140f32 0 SortCompare
PUBLIC 1412a4 0 DictionaryCompare
PUBLIC 1414bc 0 daiTcl_PwdObjCmd
PUBLIC 141529 0 daiTcl_RegexpObjCmd
PUBLIC 1419b5 0 daiTcl_RegsubObjCmd
PUBLIC 141e11 0 daiTcl_RenameObjCmd
PUBLIC 141e82 0 daiTcl_ReturnObjCmd
PUBLIC 1421ae 0 daiTcl_SourceObjCmd
PUBLIC 1421ee 0 daiTcl_SplitObjCmd
PUBLIC 142399 0 daiTcl_StringObjCmd
PUBLIC 143e9a 0 daiTcl_SubstObjCmd
PUBLIC 14419c 0 daiTcl_SwitchObjCmd
PUBLIC 1444dc 0 daiTcl_TimeObjCmd
PUBLIC 14461f 0 daiTcl_TraceObjCmd
PUBLIC 1449d1 0 TraceVarProc
PUBLIC 144bcb 0 daiTcl_WhileObjCmd
PUBLIC 144c90 0 daiTclCompileBreakCmd
PUBLIC 144d14 0 daiTclCompileCatchCmd
PUBLIC 1452df 0 daiTclCompileContinueCmd
PUBLIC 145363 0 daiTclCompileExprCmd
PUBLIC 1453c8 0 daiTclCompileForCmd
PUBLIC 145a2d 0 daiTclCompileForeachCmd
PUBLIC 14646d 0 DupForeachInfo
PUBLIC 146507 0 FreeForeachInfo
PUBLIC 14653c 0 daiTclCompileIfCmd
PUBLIC 146bfa 0 daiTclCompileIncrCmd
PUBLIC 1474f7 0 daiTclCompileSetCmd
PUBLIC 147f4a 0 daiTclCompileWhileCmd
PUBLIC 148434 0 daiTclCompileExpr
PUBLIC 1485ee 0 daiTclFinalizeCompilation
PUBLIC 148616 0 CompileSubExpr
PUBLIC 148bc0 0 CompileLandOrLorExpr
PUBLIC 148fcc 0 CompileCondExpr
PUBLIC 149181 0 CompileMathFuncCall
PUBLIC 149484 0 LogSyntaxError
PUBLIC 1494f8 0 daiTclSetByteCodeFromAny
PUBLIC 1496b4 0 SetByteCodeFromAny
PUBLIC 1496cc 0 DupByteCodeInternalRep
PUBLIC 1496cd 0 FreeByteCodeInternalRep
PUBLIC 1496f5 0 daiTclCleanupByteCode
PUBLIC 1497cf 0 daiTclInitCompileEnv
PUBLIC 1498ea 0 daiTclFreeCompileEnv
PUBLIC 149956 0 daiTclCompileScript
PUBLIC 14a128 0 daiTclCompileTokens
PUBLIC 14aa5b 0 daiTclCompileCmdWord
PUBLIC 14aabf 0 daiTclCompileExprWords
PUBLIC 14ada5 0 daiTclInitByteCodeObj
PUBLIC 14b031 0 LogCompilationInfo
PUBLIC 14b0d4 0 daiTclFindCompiledLocal
PUBLIC 14b1f8 0 daiTclInitCompiledLocals
PUBLIC 14b38a 0 daiTclExpandCodeArray
PUBLIC 14b42f 0 EnterCmdStartData
PUBLIC 14b53d 0 EnterCmdExtentData
PUBLIC 14b5c6 0 daiTclCreateExceptRange
PUBLIC 14b6ea 0 daiTclCreateAuxData
PUBLIC 14b814 0 daiTclInitJumpFixupArray
PUBLIC 14b831 0 daiTclExpandJumpFixupArray
PUBLIC 14b8b6 0 daiTclFreeJumpFixupArray
PUBLIC 14b8cd 0 daiTclEmitForwardJump
PUBLIC 14b967 0 daiTclFixupForwardJump
PUBLIC 14bad3 0 daiTclGetInstructionTable
PUBLIC 14badb 0 daiTclRegisterAuxDataType
PUBLIC 14bb3c 0 daiTclGetAuxDataType
PUBLIC 14bb8b 0 daiTclInitAuxDataTypeTable
PUBLIC 14bbbb 0 daiTclFinalizeAuxDataTypeTable
PUBLIC 14bbe3 0 GetCmdLocEncodingSize
PUBLIC 14bd26 0 EncodeCmdLocMap
PUBLIC 14bf0b 0 daiTclPrintInstruction
PUBLIC 14c204 0 daiTclPrintObject
PUBLIC 14c24a 0 daiTclPrintSource
PUBLIC 14c388 0 TclDateerror
PUBLIC 14c389 0 ToSeconds
PUBLIC 14c4b0 0 Convert
PUBLIC 14c735 0 DSTcorrect
PUBLIC 14c7cf 0 NamedDay
PUBLIC 14c870 0 NamedMonth
PUBLIC 14c91b 0 RelativeMonth
PUBLIC 14ca4a 0 RelativeDay
PUBLIC 14ca68 0 LookupWord
PUBLIC 14cd4c 0 TclDatelex
PUBLIC 14cefd 0 daiTclGetDate
PUBLIC 14d225 0 daiTclDateparse
PUBLIC 14e0a0 0 daiTclInitEncodingSubsystem
PUBLIC 14e199 0 daiTclFinalizeEncodingSubsystem
PUBLIC 14e1fd 0 daiTcl_GetDefaultEncodingDir
PUBLIC 14e208 0 daiTcl_SetDefaultEncodingDir
PUBLIC 14e240 0 daiTcl_GetEncoding
PUBLIC 14e2a1 0 daiTcl_FreeEncoding
PUBLIC 14e2af 0 FreeEncoding
PUBLIC 14e2f1 0 daiTcl_GetEncodingName
PUBLIC 14e301 0 daiTcl_GetEncodingNames
PUBLIC 14e566 0 daiTcl_SetSystemEncoding
PUBLIC 14e5a4 0 daiTcl_CreateEncoding
PUBLIC 14e682 0 daiTcl_ExternalToUtfDString
PUBLIC 14e7af 0 daiTcl_ExternalToUtf
PUBLIC 14e89c 0 daiTcl_UtfToExternalDString
PUBLIC 14e9e2 0 daiTcl_UtfToExternal
PUBLIC 14ead3 0 daiTcl_FindExecutable
PUBLIC 14ebb9 0 LoadEncodingFile
PUBLIC 14ed5e 0 OpenEncodingFile
PUBLIC 14ee04 0 LoadTableEncoding
PUBLIC 14f305 0 LoadEscapeEncoding
PUBLIC 14f632 0 BinaryProc
PUBLIC 14f67a 0 UtfToUtfProc
PUBLIC 14f75e 0 UnicodeToUtfProc
PUBLIC 14f814 0 UtfToUnicodeProc
PUBLIC 14f8e8 0 TableToUtfProc
PUBLIC 14fa26 0 TableFromUtfProc
PUBLIC 14fb9a 0 TableFreeProc
PUBLIC 14fbc0 0 EscapeToUtfProc
PUBLIC 14fe91 0 EscapeFromUtfProc
PUBLIC 150210 0 EscapeFreeProc
PUBLIC 150272 0 GetTableEncoding
PUBLIC 1502e2 0 unilen
PUBLIC 1502f9 0 daiTclFindEncodings
PUBLIC 1503e8 0 daiTclSetupEnv
PUBLIC 150540 0 daiTclSetEnv
PUBLIC 1506dc 0 daiTcl_PutEnv
PUBLIC 15075b 0 daiTclUnsetEnv
PUBLIC 1507a4 0 daiTclGetEnv
PUBLIC 150852 0 EnvTraceProc
PUBLIC 150952 0 ReplaceString
PUBLIC 150b2b 0 daiTclFinalizeEnvironment
PUBLIC 150b60 0 daiTcl_BackgroundError
PUBLIC 150d00 0 HandleBgErrors
PUBLIC 150f82 0 BgErrorDeleteProc
PUBLIC 150fea 0 daiTcl_CreateExitHandler
PUBLIC 151030 0 daiTcl_DeleteExitHandler
PUBLIC 151085 0 daiTcl_CreateThreadExitHandler
PUBLIC 1510df 0 daiTcl_DeleteThreadExitHandler
PUBLIC 151147 0 daiTcl_Exit
PUBLIC 151156 0 daiTclSetLibraryPath
PUBLIC 1511b0 0 daiTclGetLibraryPath
PUBLIC 1511ce 0 daiTclInitSubsystems
PUBLIC 151262 0 daiTcl_Finalize
PUBLIC 151398 0 daiTcl_FinalizeThread
PUBLIC 1513f6 0 daiTclInExit
PUBLIC 151413 0 daiTcl_VwaitObjCmd
PUBLIC 15151b 0 VwaitVarProc
PUBLIC 151527 0 daiTcl_UpdateObjCmd
PUBLIC 1515e8 0 InitByteCodeExecution
PUBLIC 15162a 0 daiTclCreateExecEnv
PUBLIC 151695 0 daiTclDeleteExecEnv
PUBLIC 1516ab 0 daiTclFinalizeExecution
PUBLIC 1516c3 0 GrowEvaluationStack
PUBLIC 15175b 0 daiTclExecuteByteCode
PUBLIC 1552d2 0 IllegalExprOperandType
PUBLIC 155402 0 CallTraceProcedure
PUBLIC 1554f7 0 GetSrcInfoForPc
PUBLIC 1556a5 0 GetExceptRangeForPc
PUBLIC 155717 0 VerifyExprObjType
PUBLIC 155809 0 ExprUnaryFunc
PUBLIC 155907 0 ExprBinaryFunc
PUBLIC 155a5a 0 ExprAbsFunc
PUBLIC 155bd8 0 ExprDoubleFunc
PUBLIC 155c80 0 ExprIntFunc
PUBLIC 155dda 0 ExprRandFunc
PUBLIC 155ed8 0 ExprRoundFunc
PUBLIC 156057 0 ExprSrandFunc
PUBLIC 15614b 0 ExprCallMathFunc
PUBLIC 156416 0 daiTclExprFloatError
PUBLIC 156593 0 daiTclMathInProgress
PUBLIC 1565af 0 daiTcl_GetCommandFromObj
PUBLIC 15667d 0 daiTclSetCmdNameObj
PUBLIC 156746 0 FreeCmdNameInternalRep
PUBLIC 15676b 0 DupCmdNameInternalRep
PUBLIC 15678f 0 SetCmdNameFromAny
PUBLIC 15686c 0 daiTclFileRenameCmd
PUBLIC 15687f 0 daiTclFileCopyCmd
PUBLIC 156892 0 FileCopyRename
PUBLIC 156ae8 0 daiTclFileMakeDirsCmd
PUBLIC 156cd2 0 daiTclFileDeleteCmd
PUBLIC 156f1b 0 CopyRenameOneFile
PUBLIC 157395 0 FileForceOption
PUBLIC 15744d 0 FileBasename
PUBLIC 15755c 0 daiTclFileAttrsCmd
PUBLIC 1577c0 0 FileNameInit
PUBLIC 157808 0 FileNameCleanup
PUBLIC 157839 0 ExtractWinRoot
PUBLIC 157a74 0 daiTcl_GetPathType
PUBLIC 157b8d 0 daiTcl_SplitPath
PUBLIC 157c97 0 SplitUnixPath
PUBLIC 157d44 0 SplitWinPath
PUBLIC 157e14 0 SplitMacPath
PUBLIC 1581a3 0 daiTcl_JoinPath
PUBLIC 15861f 0 daiTcl_TranslateFileName
PUBLIC 15874c 0 daiTclGetExtension
PUBLIC 158823 0 DoTildeSubst
PUBLIC 158928 0 daiTcl_GlobObjCmd
PUBLIC 1593b5 0 daiTclGlob
PUBLIC 1595b0 0 SkipToChar
PUBLIC 159612 0 daiTclDoGlob
PUBLIC 159c4c 0 daiTcl_GetInt
PUBLIC 159dc2 0 daiTclGetLong
PUBLIC 159f2f 0 daiTcl_GetDouble
PUBLIC 15a062 0 daiTcl_GetBoolean
PUBLIC 15a258 0 daiTcl_InitHashTable
PUBLIC 15a2ed 0 daiTcl_DeleteHashEntry
PUBLIC 15a34d 0 daiTcl_DeleteHashTable
PUBLIC 15a3b7 0 daiTcl_FirstHashEntry
PUBLIC 15a3da 0 daiTcl_NextHashEntry
PUBLIC 15a41f 0 daiTcl_HashStats
PUBLIC 15a5bf 0 HashString
PUBLIC 15a5d8 0 StringFind
PUBLIC 15a630 0 StringCreate
PUBLIC 15a713 0 OneWordFind
PUBLIC 15a749 0 OneWordCreate
PUBLIC 15a7f7 0 ArrayFind
PUBLIC 15a868 0 ArrayCreate
PUBLIC 15a987 0 BogusFind
PUBLIC 15a9a6 0 BogusCreate
PUBLIC 15a9c5 0 RebuildTable
PUBLIC 15aad4 0 daiTcl_RecordAndEval
PUBLIC 15ab82 0 daiTcl_RecordAndEvalObj
PUBLIC 15ac3c 0 daiTclInitIOSubsystem
PUBLIC 15ac56 0 daiTclFinalizeIOSubsystem
PUBLIC 15ad33 0 daiTcl_SetStdChannel
PUBLIC 15ada3 0 daiTcl_GetStdChannel
PUBLIC 15ae9c 0 daiTcl_CreateCloseHandler
PUBLIC 15aee7 0 daiTcl_DeleteCloseHandler
PUBLIC 15af2c 0 GetChannelTable
PUBLIC 15aff9 0 DeleteChannelTable
PUBLIC 15b0fe 0 CheckForStdChannelsBeingClosed
PUBLIC 15b199 0 daiTcl_RegisterChannel
PUBLIC 15b238 0 daiTcl_UnregisterChannel
PUBLIC 15b318 0 daiTcl_GetChannel
PUBLIC 15b44e 0 daiTcl_CreateChannel
PUBLIC 15b6bd 0 daiTcl_StackChannel
PUBLIC 15b880 0 daiTcl_UnstackChannel
PUBLIC 15ba3b 0 daiTcl_GetStackedChannel
PUBLIC 15ba40 0 daiTcl_GetTopChannel
PUBLIC 15ba4b 0 daiTcl_GetChannelInstanceData
PUBLIC 15ba50 0 daiTcl_GetChannelType
PUBLIC 15ba55 0 daiTcl_GetChannelMode
PUBLIC 15ba5f 0 daiTcl_GetChannelName
PUBLIC 15ba66 0 daiTcl_GetChannelHandle
PUBLIC 15baa7 0 AllocChannelBuffer
PUBLIC 15bacf 0 RecycleBuffer
PUBLIC 15bb3b 0 DiscardOutputQueued
PUBLIC 15bb78 0 CheckForDeadChannel
PUBLIC 15bbb8 0 FlushChannel
PUBLIC 15bdd8 0 CloseChannel
PUBLIC 15bff8 0 daiTcl_Close
PUBLIC 15c19c 0 daiTcl_Write
PUBLIC 15c210 0 daiTcl_WriteRaw
PUBLIC 15c299 0 daiTcl_WriteChars
PUBLIC 15c364 0 daiTcl_WriteObj
PUBLIC 15c3f3 0 WriteBytes
PUBLIC 15c518 0 WriteChars
PUBLIC 15c79d 0 TranslateOutputEOL
PUBLIC 15c88b 0 CheckFlush
PUBLIC 15c8f6 0 daiTcl_Gets
PUBLIC 15c96b 0 daiTcl_GetsObj
PUBLIC 15cf26 0 FilterInputBytes
PUBLIC 15d13a 0 PeekAhead
PUBLIC 15d21e 0 CommonGetsCleanup
PUBLIC 15d2da 0 daiTcl_Read
PUBLIC 15d332 0 daiTcl_ReadRaw
PUBLIC 15d468 0 daiTcl_ReadChars
PUBLIC 15d632 0 ReadBytes
PUBLIC 15d74d 0 ReadChars
PUBLIC 15db00 0 TranslateInputEOL
PUBLIC 15dcfd 0 daiTcl_Ungets
PUBLIC 15de11 0 daiTcl_Flush
PUBLIC 15de7e 0 DiscardInputQueued
PUBLIC 15dee3 0 GetInput
PUBLIC 15e081 0 daiTcl_Seek
PUBLIC 15e262 0 daiTcl_Tell
PUBLIC 15e390 0 CheckChannelErrors
PUBLIC 15e416 0 daiTcl_Eof
PUBLIC 15e442 0 daiTcl_InputBlocked
PUBLIC 15e44f 0 daiTcl_InputBuffered
PUBLIC 15e496 0 daiTcl_ChannelBuffered
PUBLIC 15e4b7 0 daiTcl_SetChannelBufferSize
PUBLIC 15e507 0 daiTcl_GetChannelBufferSize
PUBLIC 15e511 0 daiTcl_BadChannelOption
PUBLIC 15e671 0 daiTcl_GetChannelOption
PUBLIC 15ebb4 0 daiTcl_SetChannelOption
PUBLIC 15f4ec 0 CleanupChannelHandlers
PUBLIC 15f57c 0 daiTcl_NotifyChannel
PUBLIC 15f6ae 0 UpdateInterest
PUBLIC 15f748 0 ChannelTimerProc
PUBLIC 15f7cf 0 daiTcl_CreateChannelHandler
PUBLIC 15f88b 0 daiTcl_DeleteChannelHandler
PUBLIC 15f963 0 DeleteScriptRecord
PUBLIC 15f9e2 0 CreateScriptRecord
PUBLIC 15fa9a 0 daiTclChannelEventScriptInvoker
PUBLIC 15fb1c 0 daiTcl_FileEventObjCmd
PUBLIC 15fca3 0 daiTclCopyChannel
PUBLIC 15fe42 0 CopyData
PUBLIC 160143 0 DoRead
PUBLIC 1601fb 0 CopyAndTranslateBuffer
PUBLIC 1604d6 0 CopyBuffer
PUBLIC 160592 0 DoWrite
PUBLIC 1607e7 0 CopyEventProc
PUBLIC 1607f5 0 StopCopy
PUBLIC 1608f2 0 StackSetBlockMode
PUBLIC 160943 0 SetBlockMode
PUBLIC 1609c4 0 daiTcl_GetChannelNames
PUBLIC 1609d7 0 daiTcl_GetChannelNamesEx
PUBLIC 160abe 0 daiTcl_ChannelName
PUBLIC 160ac2 0 daiTcl_ChannelVersion
PUBLIC 160ad5 0 daiTcl_ChannelBlockModeProc
PUBLIC 160ae6 0 daiTcl_ChannelCloseProc
PUBLIC 160aeb 0 daiTcl_ChannelClose2Proc
PUBLIC 160af0 0 daiTcl_ChannelInputProc
PUBLIC 160af5 0 daiTcl_ChannelOutputProc
PUBLIC 160afa 0 daiTcl_ChannelSeekProc
PUBLIC 160aff 0 daiTcl_ChannelSetOptionProc
PUBLIC 160b04 0 daiTcl_ChannelGetOptionProc
PUBLIC 160b09 0 daiTcl_ChannelWatchProc
PUBLIC 160b0e 0 daiTcl_ChannelGetHandleProc
PUBLIC 160b13 0 daiTcl_ChannelFlushProc
PUBLIC 160b18 0 daiTcl_ChannelHandlerProc
PUBLIC 160b20 0 daiTcl_PutsObjCmd
PUBLIC 160ceb 0 daiTcl_FlushObjCmd
PUBLIC 160dcb 0 daiTcl_GetsObjCmd
PUBLIC 160f91 0 daiTcl_ReadObjCmd
PUBLIC 161202 0 daiTcl_SeekObjCmd
PUBLIC 161349 0 daiTcl_TellObjCmd
PUBLIC 1613d6 0 daiTcl_CloseObjCmd
PUBLIC 161488 0 daiTcl_FconfigureObjCmd
PUBLIC 1615d1 0 daiTcl_EofObjCmd
PUBLIC 16165e 0 daiTcl_ExecObjCmd
PUBLIC 1618f2 0 daiTcl_FblockedObjCmd
PUBLIC 1619b6 0 daiTcl_OpenObjCmd
PUBLIC 161b48 0 TcpAcceptCallbacksDeleteProc
PUBLIC 161b8c 0 RegisterTcpServerInterpCleanup
PUBLIC 161c32 0 UnregisterTcpServerInterpCleanupProc
PUBLIC 161c64 0 AcceptCallbackProc
PUBLIC 161d6b 0 TcpServerCloseProc
PUBLIC 161d99 0 daiTcl_SocketObjCmd
PUBLIC 16212e 0 daiTcl_FcopyObjCmd
PUBLIC 162318 0 daiTclChannelTransform
PUBLIC 162512 0 ExecuteCallback
PUBLIC 162752 0 TransformBlockModeProc
PUBLIC 162767 0 TransformCloseProc
PUBLIC 162889 0 TransformInputProc
PUBLIC 162a37 0 TransformOutputProc
PUBLIC 162a9a 0 TransformSeekProc
PUBLIC 162b94 0 TransformSetOptionProc
PUBLIC 162c16 0 TransformGetOptionProc
PUBLIC 162c9c 0 TransformWatchProc
PUBLIC 162d60 0 TransformGetFileHandleProc
PUBLIC 162d99 0 TransformNotifyProc
PUBLIC 162dd5 0 TransformChannelHandlerTimer
PUBLIC 162e03 0 ResultClear
PUBLIC 162e2c 0 ResultInit
PUBLIC 162e42 0 ResultLength
PUBLIC 162e46 0 ResultCopy
PUBLIC 162eed 0 ResultAdd
PUBLIC 162f70 0 daiTclSockGetPort
PUBLIC 163074 0 daiTclSockMinimumBuffers
PUBLIC 163130 0 daiTclGetOpenMode
PUBLIC 1634e2 0 daiTcl_EvalFile
PUBLIC 163683 0 daiTcl_GetErrno
PUBLIC 163693 0 daiTcl_SetErrno
PUBLIC 16369f 0 daiTcl_PosixError
PUBLIC 1636f6 0 daiTclStat
PUBLIC 16372c 0 daiTclAccess
PUBLIC 163760 0 daiTcl_OpenFileChannel
PUBLIC 1637a8 0 daiTclStatInsertProc
PUBLIC 163800 0 daiTclStatDeleteProc
PUBLIC 163879 0 daiTclAccessInsertProc
PUBLIC 1638d1 0 daiTclAccessDeleteProc
PUBLIC 16394a 0 daiTclOpenFileChannelInsertProc
PUBLIC 1639a2 0 daiTclOpenFileChannelDeleteProc
PUBLIC 163a1c 0 daiTcl_GetIndexFromObj
PUBLIC 163a66 0 daiTcl_GetIndexFromObjStruct
PUBLIC 163c7d 0 SetIndexFromAny
PUBLIC 163ca4 0 daiTcl_WrongNumArgs
PUBLIC 163d9c 0 daiTclInterpInit
PUBLIC 163e5a 0 InterpInfoDeleteProc
PUBLIC 163f12 0 daiTcl_InterpObjCmd
PUBLIC 1647d9 0 GetInterp2
PUBLIC 164810 0 daiTcl_CreateAlias
PUBLIC 16491b 0 daiTcl_CreateAliasObj
PUBLIC 1649ac 0 daiTcl_GetAlias
PUBLIC 164abd 0 daiTcl_GetAliasObj
PUBLIC 164b98 0 daiTclPreventAliasLoop
PUBLIC 164c7c 0 AliasCreate
PUBLIC 164e38 0 AliasDelete
PUBLIC 164ef2 0 AliasDescribe
PUBLIC 164f5b 0 AliasList
PUBLIC 164fae 0 AliasObjCmd
PUBLIC 16512f 0 AliasObjCmdDeleteProc
PUBLIC 165182 0 daiTcl_CreateSlave
PUBLIC 1651e2 0 daiTcl_GetSlave
PUBLIC 165234 0 daiTcl_GetMaster
PUBLIC 16524a 0 daiTcl_GetInterpPath
PUBLIC 1652c4 0 GetInterp
PUBLIC 165392 0 SlaveCreate
PUBLIC 165567 0 SlaveObjCmd
PUBLIC 165844 0 SlaveObjCmdDeleteProc
PUBLIC 165873 0 SlaveEval
PUBLIC 165920 0 SlaveExpose
PUBLIC 1659d5 0 SlaveHide
PUBLIC 165a8a 0 SlaveHidden
PUBLIC 165af7 0 SlaveInvokeHidden
PUBLIC 165bbf 0 SlaveMarkTrusted
PUBLIC 165c22 0 daiTcl_IsSafe
PUBLIC 165c39 0 daiTcl_MakeSafe
PUBLIC 165d60 0 daiTcl_LinkVar
PUBLIC 165e4a 0 daiTcl_UnlinkVar
PUBLIC 165ebf 0 daiTcl_UpdateLinkedVar
PUBLIC 165f40 0 LinkTraceProc
PUBLIC 166277 0 StringValue
PUBLIC 16630c 0 daiTcl_NewListObj
PUBLIC 1663c9 0 daiTcl_DbNewListObj
PUBLIC 1663d7 0 daiTcl_SetListObj
PUBLIC 166498 0 daiTcl_ListObjGetElements
PUBLIC 1664f7 0 daiTcl_ListObjAppendList
PUBLIC 1665a9 0 daiTcl_ListObjAppendElement
PUBLIC 1666c3 0 daiTcl_ListObjIndex
PUBLIC 166735 0 daiTcl_ListObjLength
PUBLIC 166781 0 daiTcl_ListObjReplace
PUBLIC 166b32 0 FreeListInternalRep
PUBLIC 166b85 0 DupListInternalRep
PUBLIC 166bf6 0 SetListFromAny
PUBLIC 166e0a 0 UpdateStringOfList
PUBLIC 166f24 0 daiTclInitLiteralTable
PUBLIC 166f68 0 daiTclDeleteLiteralTable
PUBLIC 166fc9 0 daiTclRegisterLiteral
PUBLIC 167284 0 daiTclLookupLiteralEntry
PUBLIC 1672e5 0 daiTclHideLiteral
PUBLIC 16738b 0 daiTclAddLiteralObj
PUBLIC 16740d 0 AddLocalLiteralEntry
PUBLIC 1674a0 0 ExpandLocalLiteralArray
PUBLIC 1675e9 0 daiTclReleaseLiteral
PUBLIC 167716 0 HashString
PUBLIC 167738 0 RebuildLiteralTable
PUBLIC 16781c 0 daiTcl_LoadObjCmd
PUBLIC 167e94 0 daiTcl_StaticPackage
PUBLIC 167f9b 0 daiTclGetLoadedPackages
PUBLIC 1680ab 0 LoadCleanupProc
PUBLIC 1680c4 0 daiTclFinalizeLoad
PUBLIC 168108 0 daiTclpLoadFile
PUBLIC 1682d0 0 daiTclpUnloadFile
PUBLIC 1682de 0 daiTclGuessPackageName
PUBLIC 1682e4 0 daiTclSetStartupScriptFileName
PUBLIC 1682ec 0 daiTclGetStartupScriptFileName
PUBLIC 1682f4 0 daiTcl_Main
PUBLIC 16881c 0 daimatherr
PUBLIC 168858 0 daiTclInitNamespaceSubsystem
PUBLIC 16886d 0 daiTcl_GetCurrentNamespace
PUBLIC 168887 0 daiTcl_GetGlobalNamespace
PUBLIC 16888c 0 daiTcl_PushCallFrame
PUBLIC 16897e 0 daiTcl_PopCallFrame
PUBLIC 168a35 0 daiTcl_CreateNamespace
PUBLIC 168d7b 0 daiTcl_DeleteNamespace
PUBLIC 168e49 0 daiTclTeardownNamespace
PUBLIC 1690d4 0 NamespaceFree
PUBLIC 1690f3 0 daiTcl_Export
PUBLIC 16936a 0 daiTcl_AppendExportList
PUBLIC 1693dd 0 daiTcl_Import
PUBLIC 169826 0 daiTcl_ForgetImport
PUBLIC 16994d 0 daiTclGetOriginalCommand
PUBLIC 169981 0 InvokeImportedCmd
PUBLIC 169994 0 DeleteImportedCmd
PUBLIC 1699f7 0 daiTclGetNamespaceForQualName
PUBLIC 169d1f 0 daiTcl_FindNamespace
PUBLIC 169dc6 0 daiTcl_FindCommand
PUBLIC 169f7c 0 daiTcl_FindNamespaceVar
PUBLIC 16a132 0 daiTclResetShadowedCmdRefs
PUBLIC 16a2ce 0 GetNamespaceFromObj
PUBLIC 16a3b2 0 daiTcl_NamespaceObjCmd
PUBLIC 16a572 0 NamespaceChildrenCmd
PUBLIC 16a74c 0 NamespaceCodeCmd
PUBLIC 16a8e2 0 NamespaceCurrentCmd
PUBLIC 16a975 0 NamespaceDeleteCmd
PUBLIC 16aa69 0 NamespaceEvalCmd
PUBLIC 16abd2 0 NamespaceExportCmd
PUBLIC 16ad00 0 NamespaceForgetCmd
PUBLIC 16ad74 0 NamespaceImportCmd
PUBLIC 16ae26 0 NamespaceInscopeCmd
PUBLIC 16b045 0 NamespaceOriginCmd
PUBLIC 16b11c 0 NamespaceParentCmd
PUBLIC 16b202 0 NamespaceQualifiersCmd
PUBLIC 16b2cd 0 NamespaceTailCmd
PUBLIC 16b36e 0 NamespaceWhichCmd
PUBLIC 16b4c8 0 FreeNsNameInternalRep
PUBLIC 16b505 0 DupNsNameInternalRep
PUBLIC 16b521 0 SetNsNameFromAny
PUBLIC 16b5ff 0 UpdateStringOfNsName
PUBLIC 16b6b4 0 daiTclInitNotifier
PUBLIC 16b6ef 0 daiTclFinalizeNotifier
PUBLIC 16b73c 0 daiTcl_SetNotifier
PUBLIC 16b763 0 daiTcl_CreateEventSource
PUBLIC 16b7d2 0 daiTcl_DeleteEventSource
PUBLIC 16b841 0 daiTcl_QueueEvent
PUBLIC 16b881 0 daiTcl_ThreadQueueEvent
PUBLIC 16b8b8 0 QueueEvent
PUBLIC 16b933 0 daiTcl_DeleteEvents
PUBLIC 16b9c2 0 daiTcl_ServiceEvent
PUBLIC 16baec 0 daiTcl_GetServiceMode
PUBLIC 16bb09 0 daiTcl_SetServiceMode
PUBLIC 16bb4a 0 daiTcl_SetMaxBlockTime
PUBLIC 16bbb5 0 daiTcl_DoOneEvent
PUBLIC 16bd4c 0 daiTcl_ServiceAll
PUBLIC 16be41 0 daiTcl_ThreadAlert
PUBLIC 16be70 0 daiTclInitObjSubsystem
PUBLIC 16bef4 0 daiTclFinalizeCompExecEnv
PUBLIC 16bf34 0 daiTcl_RegisterObjType
PUBLIC 16bf87 0 daiTcl_AppendAllObjTypes
PUBLIC 16bfeb 0 daiTcl_GetObjType
PUBLIC 16c015 0 daiTcl_ConvertToType
PUBLIC 16c02e 0 daiTcl_NewObj
PUBLIC 16c07d 0 daiTcl_DbNewObj
PUBLIC 16c08b 0 daiTclAllocateFreeObjects
PUBLIC 16c0ee 0 daiTclFreeObj
PUBLIC 16c120 0 daiTcl_DuplicateObj
PUBLIC 16c20c 0 daiTcl_GetString
PUBLIC 16c246 0 daiTcl_GetStringFromObj
PUBLIC 16c2a8 0 daiTcl_InvalidateStringRep
PUBLIC 16c2d2 0 daiTcl_NewBooleanObj
PUBLIC 16c326 0 daiTcl_DbNewBooleanObj
PUBLIC 16c334 0 daiTcl_SetBooleanObj
PUBLIC 16c3ab 0 daiTcl_GetBooleanFromObj
PUBLIC 16c3e1 0 SetBooleanFromAny
PUBLIC 16c74a 0 UpdateStringOfBoolean
PUBLIC 16c77e 0 daiTcl_NewDoubleObj
PUBLIC 16c7d5 0 daiTcl_DbNewDoubleObj
PUBLIC 16c7e3 0 daiTcl_SetDoubleObj
PUBLIC 16c84d 0 daiTcl_GetDoubleFromObj
PUBLIC 16c8a0 0 SetDoubleFromAny
PUBLIC 16ca37 0 UpdateStringOfDouble
PUBLIC 16caac 0 daiTcl_NewIntObj
PUBLIC 16cafb 0 daiTcl_SetIntObj
PUBLIC 16cb6c 0 daiTcl_GetIntFromObj
PUBLIC 16cbfa 0 SetIntFromAny
PUBLIC 16cdcf 0 UpdateStringOfInt
PUBLIC 16ce25 0 daiTcl_NewLongObj
PUBLIC 16ce72 0 daiTcl_DbNewLongObj
PUBLIC 16ce80 0 daiTcl_SetLongObj
PUBLIC 16ceee 0 daiTcl_GetLongFromObj
PUBLIC 16cf41 0 daiTcl_DbIncrRefCount
PUBLIC 16cf44 0 daiTcl_DbDecrRefCount
PUBLIC 16cf59 0 daiTcl_DbIsShared
PUBLIC 16cf64 0 daiTcl_SetPanicProc
PUBLIC 16cf6f 0 daiTcl_PanicVA
PUBLIC 16d10f 0 daiTcl_Panic
PUBLIC 16d1a4 0 daiTcl_ParseCommand
PUBLIC 16d5dc 0 ParseTokens
PUBLIC 16d858 0 daiTcl_FreeParse
PUBLIC 16d88f 0 daiTclExpandTokenArray
PUBLIC 16d932 0 EvalObjv
PUBLIC 16dd4b 0 daiTcl_EvalObjv
PUBLIC 16de36 0 daiTcl_LogCommandInfo
PUBLIC 16df05 0 daiTcl_EvalTokens
PUBLIC 16e178 0 daiTcl_EvalEx
PUBLIC 16e4cf 0 daiTcl_Eval
PUBLIC 16e53f 0 daiTcl_EvalObj
PUBLIC 16e552 0 daiTcl_GlobalEvalObj
PUBLIC 16e565 0 daiTcl_ParseVarName
PUBLIC 16e852 0 daiTcl_ParseVar
PUBLIC 16e961 0 daiTcl_ParseBraces
PUBLIC 16ec5f 0 daiTcl_ParseQuotedString
PUBLIC 16ed51 0 CommandComplete
PUBLIC 16edc4 0 daiTcl_CommandComplete
PUBLIC 16edef 0 daiTclObjCommandComplete
PUBLIC 16ee0e 0 daiTclIsLocalScalar
PUBLIC 16ee6c 0 daiTcl_ParseExpr
PUBLIC 16efa1 0 ParseCondExpr
PUBLIC 16f0f2 0 ParseLorExpr
PUBLIC 16f18d 0 ParseLandExpr
PUBLIC 16f228 0 ParseBitOrExpr
PUBLIC 16f2c3 0 ParseBitXorExpr
PUBLIC 16f35e 0 ParseBitAndExpr
PUBLIC 16f3f9 0 ParseEqualityExpr
PUBLIC 16f482 0 ParseRelationalExpr
PUBLIC 16f511 0 ParseShiftExpr
PUBLIC 16f59a 0 ParseAddExpr
PUBLIC 16f623 0 ParseMultiplyExpr
PUBLIC 16f6ac 0 ParseUnaryExpr
PUBLIC 16f74f 0 ParsePrimaryExpr
PUBLIC 16fc5c 0 GetLexeme
PUBLIC 170192 0 PrependSubExprTokens
PUBLIC 17023a 0 LogSyntaxError
PUBLIC 1702c8 0 FileForRedirect
PUBLIC 1704b8 0 daiTcl_DetachPids
PUBLIC 1704fb 0 daiTcl_ReapDetachedProcs
PUBLIC 170579 0 daiTclCleanupChildren
PUBLIC 1708c5 0 daiTclCreatePipeline
PUBLIC 171377 0 daiTcl_OpenCommandChannel
PUBLIC 1714e4 0 daiTcl_PkgProvide
PUBLIC 1714f7 0 daiTcl_PkgProvideEx
PUBLIC 1715da 0 daiTcl_PkgRequire
PUBLIC 1715ee 0 daiTcl_PkgRequireEx
PUBLIC 1718d6 0 daiTcl_PkgPresent
PUBLIC 1718ea 0 daiTcl_PkgPresentEx
PUBLIC 171a66 0 daiTcl_PackageObjCmd
PUBLIC 1721a7 0 FindPackage
PUBLIC 172204 0 daiTclFreePackageInfo
PUBLIC 1722b2 0 CheckVersion
PUBLIC 17235e 0 ComparePkgVersions
PUBLIC 172414 0 daiTcl_ErrnoId
PUBLIC 17297e 0 daiTcl_ErrnoMsg
PUBLIC 172eeb 0 daiTcl_SignalId
PUBLIC 172ffe 0 daiTcl_SignalMsg
PUBLIC 173114 0 PreserveExitProc
PUBLIC 173151 0 daiTcl_Preserve
PUBLIC 1732a9 0 daiTcl_Release
PUBLIC 173374 0 daiTcl_EventuallyFree
PUBLIC 1733ea 0 daiTclHandleCreate
PUBLIC 173404 0 daiTclHandleFree
PUBLIC 17341f 0 daiTclHandlePreserve
PUBLIC 173426 0 daiTclHandleRelease
PUBLIC 173444 0 daiTcl_ProcObjCmd
PUBLIC 17367b 0 daiTclCreateProc
PUBLIC 173b8c 0 daiTclGetFrame
PUBLIC 173cc4 0 daiTcl_UplevelObjCmd
PUBLIC 173e00 0 daiTclFindProc
PUBLIC 173e49 0 daiTclIsProc
PUBLIC 173e73 0 daiTclProcInterpProc
PUBLIC 173fc3 0 daiTclObjInterpProc
PUBLIC 17430b 0 daiTclProcCompileProc
PUBLIC 174560 0 ProcessProcResultCode
PUBLIC 174655 0 daiTclProcDeleteProc
PUBLIC 17466c 0 daiTclProcCleanupProc
PUBLIC 1746e9 0 daiTclUpdateReturnInfo
PUBLIC 174786 0 daiTclGetInterpProc
PUBLIC 17478e 0 daiTclGetObjInterpProc
PUBLIC 174796 0 daiTclNewProcBodyObj
PUBLIC 1747d4 0 ProcBodyDup
PUBLIC 1747eb 0 ProcBodyFree
PUBLIC 174806 0 ProcBodySetFromAny
PUBLIC 174825 0 ProcBodyUpdateString
PUBLIC 174840 0 daiTcl_RegExpCompile
PUBLIC 174876 0 daiTcl_RegExpExec
PUBLIC 174938 0 daiTcl_RegExpRange
PUBLIC 1749ee 0 RegExpExecUniChar
PUBLIC 174a6e 0 daiTclRegExpRangeUniChar
PUBLIC 174ab9 0 daiTcl_RegExpMatch
PUBLIC 174b03 0 daiTcl_RegExpExecObj
PUBLIC 174ba3 0 daiTcl_RegExpMatchObj
PUBLIC 174c00 0 daiTcl_RegExpGetInfo
PUBLIC 174c16 0 daiTcl_GetRegExpFromObj
PUBLIC 174cc5 0 daiTclRegAbout
PUBLIC 174dab 0 daiTclRegError
PUBLIC 174e6d 0 FreeRegexpInternalRep
PUBLIC 174e88 0 DupRegexpInternalRep
PUBLIC 174ea3 0 SetRegexpFromAny
PUBLIC 174ebf 0 CompileRegexp
PUBLIC 17511d 0 FreeRegexp
PUBLIC 175144 0 FinalizeRegexp
PUBLIC 1751ac 0 daiTcl_AddInterpResolvers
PUBLIC 175288 0 daiTcl_GetInterpResolvers
PUBLIC 1752e9 0 daiTcl_RemoveInterpResolvers
PUBLIC 175380 0 BumpCmdRefEpochs
PUBLIC 1753b6 0 daiTcl_SetNamespaceResolvers
PUBLIC 1753d8 0 daiTcl_GetNamespaceResolvers
PUBLIC 175424 0 daiTcl_SaveResult
PUBLIC 1754f5 0 daiTcl_RestoreResult
PUBLIC 1755ad 0 daiTcl_DiscardResult
PUBLIC 175644 0 daiTcl_SetResult
PUBLIC 17572e 0 daiTcl_GetStringResult
PUBLIC 175779 0 daiTcl_SetObjResult
PUBLIC 17583b 0 daiTcl_GetObjResult
PUBLIC 17592b 0 daiTcl_AppendResultVA
PUBLIC 175b04 0 daiTcl_AppendResult
PUBLIC 175b99 0 daiTcl_AppendElement
PUBLIC 175c7c 0 SetupAppendBuffer
PUBLIC 175d75 0 daiTcl_FreeResult
PUBLIC 175db6 0 daiTcl_ResetResult
PUBLIC 175e0c 0 ResetObjResult
PUBLIC 175f2e 0 daiTcl_SetErrorCodeVA
PUBLIC 175f8e 0 daiTcl_SetErrorCode
PUBLIC 176023 0 daiTcl_SetObjErrorCode
PUBLIC 17604a 0 daiTclTransferResult
PUBLIC 17614c 0 BuildCharSet
PUBLIC 176365 0 CharInSet
PUBLIC 1763d8 0 ReleaseCharSet
PUBLIC 1763f7 0 ValidateFormat
PUBLIC 1768f6 0 daiTcl_ScanObjCmd
PUBLIC 177358 0 daiTcl_NewStringObj
PUBLIC 177429 0 daiTcl_DbNewStringObj
PUBLIC 177437 0 daiTcl_NewUnicodeObj
PUBLIC 177519 0 daiTcl_GetCharLength
PUBLIC 17757d 0 daiTcl_GetUniChar
PUBLIC 1775ed 0 daiTcl_GetUnicode
PUBLIC 177620 0 daiTcl_GetRange
PUBLIC 1776c5 0 daiTcl_SetStringObj
PUBLIC 1777b2 0 daiTcl_SetObjLength
PUBLIC 177883 0 daiTcl_SetUnicodeObj
PUBLIC 17792c 0 daiTcl_AppendToObj
PUBLIC 1779cf 0 daiTcl_AppendUnicodeToObj
PUBLIC 177a4a 0 daiTcl_AppendObjToObj
PUBLIC 177b59 0 AppendUnicodeToUnicodeRep
PUBLIC 177c3b 0 AppendUnicodeToUtfRep
PUBLIC 177ce3 0 AppendUtfToUnicodeRep
PUBLIC 177dae 0 AppendUtfToUtfRep
PUBLIC 177e74 0 daiTcl_AppendStringsToObjVA
PUBLIC 17801f 0 daiTcl_AppendStringsToObj
PUBLIC 1780b4 0 FillUnicodeRep
PUBLIC 178146 0 DupStringInternalRep
PUBLIC 178223 0 SetStringFromAny
PUBLIC 1782b2 0 UpdateStringOfString
PUBLIC 178381 0 FreeStringInternalRep
PUBLIC 178394 0 HasStubSupport
PUBLIC 1783bf 0 daiTcl_InitStubs
PUBLIC 1784bc 0 daiTcl_GetThreadData
PUBLIC 17851f 0 daiTclThreadDataKeyGet
PUBLIC 178523 0 daiTclThreadDataKeySet
PUBLIC 178527 0 RememberSyncObject
PUBLIC 1785b3 0 ForgetSyncObject
PUBLIC 1785da 0 daiTclRememberMutex
PUBLIC 1785ef 0 daiTcl_MutexFinalize
PUBLIC 178604 0 daiTclRememberDataKey
PUBLIC 178619 0 daiTclRememberCondition
PUBLIC 17862e 0 daiTcl_ConditionFinalize
PUBLIC 178643 0 daiTclFinalizeThreadData
PUBLIC 17868f 0 daiTclFinalizeSynchronization
PUBLIC 1786cd 0 daiTcl_ExitThread
PUBLIC 1786db 0 daiTcl_ConditionWait
PUBLIC 1786dc 0 daiTcl_ConditionNotify
PUBLIC 1786dd 0 daiTcl_MutexLock
PUBLIC 1786de 0 daiTcl_MutexUnlock
PUBLIC 1786e0 0 InitTimer
PUBLIC 178737 0 TimerExitProc
PUBLIC 178758 0 daiTcl_CreateTimerHandler
PUBLIC 17885f 0 daiTcl_DeleteTimerHandler
PUBLIC 1788a9 0 TimerSetupProc
PUBLIC 178964 0 TimerCheckProc
PUBLIC 178a3e 0 TimerHandlerEventProc
PUBLIC 178acf 0 daiTcl_DoWhenIdle
PUBLIC 178b58 0 daiTcl_CancelIdleCall
PUBLIC 178bcd 0 daiTcl_RunIdleNow
PUBLIC 178c43 0 daiTclServiceIdle
PUBLIC 178cdc 0 daiTcl_AfterObjCmd
PUBLIC 1791c3 0 GetAfterEvent
PUBLIC 17925f 0 AfterProc
PUBLIC 17930a 0 FreeAfterPtr
PUBLIC 17935b 0 AfterCleanupProc
PUBLIC 1793cc 0 FileBlockModeProc
PUBLIC 17944a 0 FileInputProc
PUBLIC 179477 0 FileOutputProc
PUBLIC 1794a4 0 FileCloseProc
PUBLIC 179526 0 FileSeekProc
PUBLIC 179568 0 FileWatchProc
PUBLIC 179595 0 FileGetHandleProc
PUBLIC 1795af 0 TtyCloseProc
PUBLIC 1795ee 0 TtySetOptionProc
PUBLIC 1796a3 0 TtyGetOptionProc
PUBLIC 179785 0 TtyGetSpeed
PUBLIC 1797f1 0 TtyGetBaud
PUBLIC 179834 0 TtyGetAttributes
PUBLIC 1798cd 0 TtySetAttributes
PUBLIC 179988 0 TtyParseMode
PUBLIC 179ab8 0 TtyInit
PUBLIC 179b64 0 daiTclpOpenFileChannel
PUBLIC 179de1 0 daiTcl_MakeFileChannel
PUBLIC 179eba 0 TcpBlockModeProc
PUBLIC 179f2c 0 WaitForConnect
PUBLIC 17a00c 0 TcpInputProc
PUBLIC 17a09a 0 TcpOutputProc
PUBLIC 17a117 0 TcpCloseProc
PUBLIC 17a161 0 TcpGetOptionProc
PUBLIC 17a51c 0 TcpWatchProc
PUBLIC 17a54f 0 TcpGetHandleProc
PUBLIC 17a55c 0 CreateSocket
PUBLIC 17a816 0 CreateSocketAddress
PUBLIC 17a903 0 daiTcl_OpenTcpClient
PUBLIC 17a9cc 0 daiTcl_MakeTcpClientChannel
PUBLIC 17aa80 0 daiTcl_OpenTcpServer
PUBLIC 17ab2d 0 TcpAccept
PUBLIC 17ac24 0 daiTclpGetDefaultStdChannel
PUBLIC 17ad7c 0 daiTcl_GetOpenFile
PUBLIC 17aeca 0 daiTclUnixWaitForFile
PUBLIC 17b1b4 0 daiTcl_Sleep
PUBLIC 17b2a4 0 daiTclpRenameFile
PUBLIC 17b33d 0 DoRenameFile
PUBLIC 17b4dc 0 daiTclpCopyFile
PUBLIC 17b571 0 DoCopyFile
PUBLIC 17b71e 0 CopyFile
PUBLIC 17b82d 0 daiTclpDeleteFile
PUBLIC 17b887 0 DoDeleteFile
PUBLIC 17b8a0 0 daiTclpCreateDirectory
PUBLIC 17b8fa 0 DoCreateDirectory
PUBLIC 17b94d 0 daiTclpCopyDirectory
PUBLIC 17b9ff 0 daiTclpRemoveDirectory
PUBLIC 17ba75 0 DoRemoveDirectory
PUBLIC 17bb1e 0 TraverseUnixTree
PUBLIC 17bd58 0 TraversalCopy
PUBLIC 17bdd5 0 TraversalDelete
PUBLIC 17be4f 0 CopyFileAtts
PUBLIC 17bed2 0 GetGroupAttribute
PUBLIC 17bfbf 0 GetOwnerAttribute
PUBLIC 17c0ab 0 GetPermissionsAttribute
PUBLIC 17c16e 0 SetGroupAttribute
PUBLIC 17c2ad 0 SetOwnerAttribute
PUBLIC 17c3de 0 SetPermissionsAttribute
PUBLIC 17c548 0 daiTclpListVolumes
PUBLIC 17c56f 0 GetModeFromPermString
PUBLIC 17c914 0 daiTclpFindExecutable
PUBLIC 17cb89 0 daiTclpMatchFilesTypes
PUBLIC 17cff2 0 daiTclpMatchFiles
PUBLIC 17d006 0 daiTclpGetUserHome
PUBLIC 17d0a0 0 daiTclpAccess
PUBLIC 17d0fc 0 daiTclpChdir
PUBLIC 17d154 0 daiTclpLstat
PUBLIC 17d1b7 0 daiTclpGetCwd
PUBLIC 17d243 0 daiTclpReadlink
PUBLIC 17d2dd 0 daiTclpStat
PUBLIC 17d340 0 daiTclSetPreInitScript
PUBLIC 17d34f 0 daiTclpInitPlatform
PUBLIC 17d374 0 daiTclpInitLibraryPath
PUBLIC 17d764 0 daiTclpSetInitialEncodings
PUBLIC 17d983 0 daiTclpSetVariables
PUBLIC 17dc06 0 daiTclpFindVariable
PUBLIC 17dcbe 0 daiTcl_Init
PUBLIC 17dd23 0 daiTcl_SourceRCFile
PUBLIC 17de1b 0 daiTclpCheckStackSpace
PUBLIC 17de24 0 daiTcl_InitNotifier
PUBLIC 17de3e 0 daiTcl_FinalizeNotifier
PUBLIC 17de3f 0 daiTcl_AlertNotifier
PUBLIC 17de40 0 daiTcl_SetTimer
PUBLIC 17de60 0 daiTcl_ServiceModeHook
PUBLIC 17de61 0 daiTcl_CreateFileHandler
PUBLIC 17dfa6 0 daiTcl_DeleteFileHandler
PUBLIC 17e0e1 0 FileHandlerEventProc
PUBLIC 17e13e 0 daiTcl_WaitForEvent
PUBLIC 17e2d8 0 daiTclpMakeFile
PUBLIC 17e2fb 0 daiTclpOpenFile
PUBLIC 17e3b2 0 daiTclpCreateTempFile
PUBLIC 17e4de 0 daiTclpCreatePipe
PUBLIC 17e570 0 daiTclpCloseFile
PUBLIC 17e58e 0 daiTclpCreateProcess
PUBLIC 17e8db 0 RestoreSignals
PUBLIC 17e9e3 0 SetupStdFile
PUBLIC 17eabf 0 daiTclpCreateCommandChannel
PUBLIC 17eb7e 0 daiTclGetAndDetachPids
PUBLIC 17ec3f 0 PipeBlockModeProc
PUBLIC 17ed13 0 PipeCloseProc
PUBLIC 17ee15 0 PipeInputProc
PUBLIC 17ee44 0 PipeOutputProc
PUBLIC 17ee73 0 PipeWatchProc
PUBLIC 17eef5 0 PipeGetHandleProc
PUBLIC 17ef2b 0 daiTcl_WaitPid
PUBLIC 17ef69 0 daiTcl_PidObjCmd
PUBLIC 17f074 0 daiTcl_GetHostName
PUBLIC 17f16a 0 daiTclpHasSockets
PUBLIC 17f170 0 daiTcl_CreateThread
PUBLIC 17f176 0 daiTcl_GetCurrentThread
PUBLIC 17f17c 0 daiTclpInitLock
PUBLIC 17f17d 0 daiTclpInitUnlock
PUBLIC 17f17e 0 daiTclpMasterLock
PUBLIC 17f17f 0 daiTclpMasterUnlock
PUBLIC 17f180 0 daiTcl_GetAllocMutex
PUBLIC 17f188 0 daiTclpGetSeconds
PUBLIC 17f19b 0 daiTclpGetClicks
PUBLIC 17f1c4 0 daiTclpGetTimeZone
PUBLIC 17f20a 0 daiTclpGetTime
PUBLIC 17f240 0 daiTclpGetDate
PUBLIC 17f259 0 daiTclpStrftime
PUBLIC 17f34c 0 UtfCount
PUBLIC 17f36b 0 daiTcl_UniCharToUtf
PUBLIC 17f3d9 0 daiTcl_UniCharToUtfDString
PUBLIC 17f461 0 daiTcl_UtfToUniChar
PUBLIC 17f4fc 0 daiTcl_UtfToUniCharDString
PUBLIC 17f5a9 0 daiTcl_UtfCharComplete
PUBLIC 17f5c1 0 daiTcl_NumUtfChars
PUBLIC 17f627 0 daiTcl_UtfFindFirst
PUBLIC 17f66b 0 daiTcl_UtfFindLast
PUBLIC 17f6b2 0 daiTcl_UtfNext
PUBLIC 17f6d8 0 daiTcl_UtfPrev
PUBLIC 17f72d 0 daiTcl_UniCharAtIndex
PUBLIC 17f760 0 daiTcl_UtfAtIndex
PUBLIC 17f791 0 daiTcl_UtfBackslash
PUBLIC 17f9fb 0 daiTcl_UtfToUpper
PUBLIC 17fa8c 0 daiTcl_UtfToLower
PUBLIC 17fb1d 0 daiTcl_UtfToTitle
PUBLIC 17fc11 0 daiTcl_UtfNcmp
PUBLIC 17fc81 0 daiTcl_UtfNcasecmp
PUBLIC 17fd19 0 daiTcl_UniCharToUpper
PUBLIC 17fd76 0 daiTcl_UniCharToLower
PUBLIC 17fdd5 0 daiTcl_UniCharToTitle
PUBLIC 17fe5c 0 daiTcl_UniCharLen
PUBLIC 17fe74 0 daiTcl_UniCharNcmp
PUBLIC 17fea5 0 daiTcl_UniCharIsAlnum
PUBLIC 17fee9 0 daiTcl_UniCharIsAlpha
PUBLIC 17ff2d 0 daiTcl_UniCharIsControl
PUBLIC 17ff70 0 daiTcl_UniCharIsDigit
PUBLIC 17ffb3 0 daiTcl_UniCharIsGraph
PUBLIC 180010 0 daiTcl_UniCharIsLower
PUBLIC 180053 0 daiTcl_UniCharIsPrint
PUBLIC 180097 0 daiTcl_UniCharIsPunct
PUBLIC 1800db 0 daiTcl_UniCharIsSpace
PUBLIC 180143 0 daiTcl_UniCharIsUpper
PUBLIC 180186 0 daiTcl_UniCharIsWordChar
PUBLIC 1801cc 0 daiTclFindElement
PUBLIC 180534 0 daiTclCopyAndCollapse
PUBLIC 1805b1 0 daiTcl_SplitList
PUBLIC 18078e 0 daiTcl_ScanElement
PUBLIC 1807a4 0 daiTcl_ScanCountedElement
PUBLIC 1808d5 0 daiTcl_ConvertElement
PUBLIC 1808ed 0 daiTcl_ConvertCountedElement
PUBLIC 180a26 0 daiTcl_Merge
PUBLIC 180afa 0 daiTcl_Backslash
PUBLIC 180b2c 0 daiTcl_Concat
PUBLIC 180c72 0 daiTcl_ConcatObj
PUBLIC 180ec4 0 daiTcl_StringMatch
PUBLIC 18105c 0 daiTcl_StringCaseMatch
PUBLIC 1812a5 0 daiTcl_DStringInit
PUBLIC 1812bf 0 daiTcl_DStringAppend
PUBLIC 181387 0 daiTcl_DStringAppendElement
PUBLIC 181445 0 daiTcl_DStringSetLength
PUBLIC 1814e2 0 daiTcl_DStringFree
PUBLIC 181512 0 daiTcl_DStringResult
PUBLIC 18159b 0 daiTcl_DStringGetResult
PUBLIC 1816ca 0 daiTcl_DStringStartSublist
PUBLIC 181705 0 daiTcl_DStringEndSublist
PUBLIC 18171f 0 daiTcl_PrintDouble
PUBLIC 181790 0 daiTclPrecTraceProc
PUBLIC 181921 0 daiTclNeedSpace
PUBLIC 1819b4 0 daiTclFormatInt
PUBLIC 181aa6 0 daiTclLooksLikeInt
PUBLIC 181b86 0 daiTclGetIntForIndex
PUBLIC 181cd2 0 daiTclCheckBadOctal
PUBLIC 181d83 0 daiTcl_GetNameOfExecutable
PUBLIC 181d8e 0 daiTcl_GetCwd
PUBLIC 181d9c 0 daiTcl_Chdir
PUBLIC 181daa 0 daiTcl_Access
PUBLIC 181db8 0 daiTcl_Stat
PUBLIC 181dc8 0 daiTclLookupVar
PUBLIC 1823cd 0 daiTcl_GetVar
PUBLIC 1823e2 0 daiTcl_GetVar2
PUBLIC 182415 0 daiTcl_ObjGetVar2
PUBLIC 18247f 0 daiTcl_GetVar2Ex
PUBLIC 1825a9 0 daiTclGetIndexedScalar
PUBLIC 182669 0 daiTclGetElementOfIndexedArray
PUBLIC 182808 0 daiTcl_SetObjCmd
PUBLIC 182889 0 daiTcl_SetVar
PUBLIC 1828a2 0 daiTcl_SetVar2
PUBLIC 182940 0 daiTcl_ObjSetVar2
PUBLIC 1829b8 0 daiTcl_SetVar2Ex
PUBLIC 182dc1 0 daiTclSetIndexedScalar
PUBLIC 182f66 0 daiTclSetElementOfIndexedArray
PUBLIC 1831fa 0 daiTclIncrVar2
PUBLIC 1832e7 0 daiTclIncrIndexedScalar
PUBLIC 1833c1 0 daiTclIncrElementOfIndexedArray
PUBLIC 1834a9 0 daiTcl_UnsetVar
PUBLIC 1834be 0 daiTcl_UnsetVar2
PUBLIC 183745 0 daiTcl_TraceVar
PUBLIC 183760 0 daiTcl_TraceVar2
PUBLIC 1837fc 0 daiTcl_UntraceVar
PUBLIC 183817 0 daiTcl_UntraceVar2
PUBLIC 1838ee 0 daiTcl_VarTraceInfo
PUBLIC 183909 0 daiTcl_VarTraceInfo2
PUBLIC 183998 0 daiTcl_UnsetObjCmd
PUBLIC 183a1a 0 daiTcl_AppendObjCmd
PUBLIC 183acd 0 daiTcl_LappendObjCmd
PUBLIC 183d88 0 daiTcl_ArrayObjCmd
PUBLIC 1844f5 0 daiTclArraySet
PUBLIC 1846fa 0 MakeUpvar
PUBLIC 184a59 0 daiTcl_UpVar
PUBLIC 184b16 0 daiTcl_UpVar2
PUBLIC 184b97 0 daiTcl_GetVariableFullName
PUBLIC 184c48 0 daiTcl_GlobalObjCmd
PUBLIC 184d44 0 daiTcl_VariableObjCmd
PUBLIC 184ec3 0 daiTcl_UpvarObjCmd
PUBLIC 185024 0 CallTraces
PUBLIC 18522f 0 NewVar
PUBLIC 18527f 0 ParseSearchId
PUBLIC 1853a8 0 DeleteSearches
PUBLIC 1853cd 0 daiTclDeleteVars
PUBLIC 18561a 0 daiTclDeleteCompiledLocalVars
PUBLIC 1857b3 0 DeleteArray
PUBLIC 185933 0 CleanupVar
PUBLIC 1859c7 0 VarErrMsg
PUBLIC 185a80 0 daiTclVarTraceExists
PUBLIC 185c00 0 OPENSSL_cpuid_setup
PUBLIC 185d80 0 OPENSSL_showfatal
PUBLIC 185e30 0 OPENSSL_isservice
PUBLIC 185e40 0 OPENSSL_die
PUBLIC 185f00 0 sha256_multi_block
PUBLIC 188700 0 sha256_multi_block_shaext
PUBLIC 188fa0 0 sha256_multi_block_avx
PUBLIC 18b0a0 0 sha256_multi_block_avx2
PUBLIC 18de80 0 sha256_block_data_order
PUBLIC 18f340 0 sha256_block_data_order_shaext
PUBLIC 18f680 0 sha256_block_data_order_ssse3
PUBLIC 190540 0 sha256_block_data_order_avx
PUBLIC 191440 0 sha256_block_data_order_avx2
PUBLIC 192850 0 SHA224_Init
PUBLIC 1928a0 0 SHA256_Init
PUBLIC 1928f0 0 SHA256_Update
PUBLIC 192b00 0 SHA224_Update
PUBLIC 192b10 0 SHA256_Transform
PUBLIC 192b20 0 SHA256_Final
PUBLIC 192db0 0 SHA224
PUBLIC 192e10 0 SHA256
PUBLIC 192e70 0 SHA224_Final
PUBLIC 192e80 0 OPENSSL_atomic_add
PUBLIC 192ea0 0 OPENSSL_rdtsc
PUBLIC 192eb0 0 OPENSSL_ia32_cpuid
PUBLIC 193070 0 OPENSSL_cleanse
PUBLIC 1930d0 0 CRYPTO_memcmp
PUBLIC 193100 0 OPENSSL_wipe_cpu
PUBLIC 193170 0 OPENSSL_instrument_bus
PUBLIC 1931c0 0 OPENSSL_instrument_bus2
PUBLIC 193230 0 OPENSSL_ia32_rdrand
PUBLIC 193250 0 OPENSSL_ia32_rdrand_bytes
PUBLIC 1932b0 0 OPENSSL_ia32_rdseed
PUBLIC 1932d0 0 OPENSSL_ia32_rdseed_bytes
PUBLIC 193325 0 dcBase64Encode32
PUBLIC 193348 0 dcBase64EncodeBuf
PUBLIC 19348d 0 dcCheckProcess
PUBLIC 1935e0 0 _fini
STACK CFI INIT 4b020 6770 .cfa: $rsp 16 + .ra: .cfa -8 + ^
STACK CFI 4b026 .cfa: $rsp 24 +
STACK CFI INIT 51790 110 .cfa: $rsp 8 + .ra: .cfa -8 + ^
STACK CFI INIT 519b5 6 .cfa: $rsp 8 + .ra: .cfa -8 + ^
STACK CFI INIT 519bb c6 .cfa: $rsp 8 + .ra: .cfa -8 + ^
STACK CFI 519bc $rbx: .cfa -16 + ^ .cfa: $rsp 16 +
STACK CFI 519c0 .cfa: $rsp 32 +
STACK CFI 51a64 .cfa: $rsp 16 +
STACK CFI 51a65 .cfa: $rsp 8 +
STACK CFI 51a66 .cfa: $rsp 32 +
STACK CFI INIT 51a81 2a .cfa: $rsp 8 + .ra: .cfa -8 + ^
STACK CFI 51a85 .cfa: $rsp 16 +
STACK CFI 51a87 .cfa: $rsp 24 +
STACK CFI 51a89 .cfa: $rsp 32 +
STACK CFI 51a8b .cfa: $rsp 40 +
STACK CFI 51a8d .cfa: $rsp 48 +
STACK CFI 51a8f .cfa: $rsp 56 +
STACK CFI 51a91 .cfa: $rsp 64 +
STACK CFI 51a93 .cfa: $rsp 72 +
STACK CFI 51a95 .cfa: $rsp 80 +
STACK CFI 51a97 .cfa: $rsp 88 +
STACK CFI 51a99 .cfa: $rsp 96 +
STACK CFI 51a9d .cfa: $rsp 104 +
STACK CFI 51aa1 .cfa: $rsp 112 +
STACK CFI 51aaa .cfa: $rsp 8 +
STACK CFI INIT 51aab 2a .cfa: $rsp 8 + .ra: .cfa -8 + ^
STACK CFI 51aaf .cfa: $rsp 16 +
STACK CFI 51ab1 .cfa: $rsp 24 +
STACK CFI 51ab3 .cfa: $rsp 32 +
STACK CFI 51ab5 .cfa: $rsp 40 +
STACK CFI 51ab7 .cfa: $rsp 48 +
STACK CFI 51ab9 .cfa: $rsp 56 +
STACK CFI 51abb .cfa: $rsp 64 +
STACK CFI 51abd .cfa: $rsp 72 +
STACK CFI 51abf .cfa: $rsp 80 +
STACK CFI 51ac1 .cfa: $rsp 88 +
STACK CFI 51ac3 .cfa: $rsp 96 +
STACK CFI 51ac7 .cfa: $rsp 104 +
STACK CFI 51acb .cfa: $rsp 112 +
STACK CFI 51ad4 .cfa: $rsp 8 +
STACK CFI INIT 51ad5 2a .cfa: $rsp 8 + .ra: .cfa -8 + ^
STACK CFI 51ad9 .cfa: $rsp 16 +
STACK CFI 51adb .cfa: $rsp 24 +
STACK CFI 51add .cfa: $rsp 32 +
STACK CFI 51adf .cfa: $rsp 40 +
STACK CFI 51ae1 .cfa: $rsp 48 +
STACK CFI 51ae3 .cfa: $rsp 56 +
STACK CFI 51ae5 .cfa: $rsp 64 +
STACK CFI 51ae7 .cfa: $rsp 72 +
STACK CFI 51ae9 .cfa: $rsp 80 +
STACK CFI 51aeb .cfa: $rsp 88 +
STACK CFI 51aed .cfa: $rsp 96 +
STACK CFI 51af1 .cfa: $rsp 104 +
STACK CFI 51af5 .cfa: $rsp 112 +
STACK CFI 51afe .cfa: $rsp 8 +
STACK CFI INIT 51aff 2a .cfa: $rsp 8 + .ra: .cfa -8 + ^
STACK CFI 51b03 .cfa: $rsp 16 +
STACK CFI 51b05 .cfa: $rsp 24 +
STACK CFI 51b07 .cfa: $rsp 32 +
STACK CFI 51b09 .cfa: $rsp 40 +
STACK CFI 51b0b .cfa: $rsp 48 +
STACK CFI 51b0d .cfa: $rsp 56 +
STACK CFI 51b0f .cfa: $rsp 64 +
STACK CFI 51b11 .cfa: $rsp 72 +
STACK CFI 51b13 .cfa: $rsp 80 +
STACK CFI 51b15 .cfa: $rsp 88 +
STACK CFI 51b17 .cfa: $rsp 96 +
STACK CFI 51b1b .cfa: $rsp 104 +
STACK CFI 51b1f .cfa: $rsp 112 +
STACK CFI 51b28 .cfa: $rsp 8 +
STACK CFI INIT 51b29 2a .cfa: $rsp 8 + .ra: .cfa -8 + ^
STACK CFI 51b2d .cfa: $rsp 16 +
STACK CFI 51b2f .cfa: $rsp 24 +
STACK CFI 51b31 .cfa: $rsp 32 +
STACK CFI 51b33 .cfa: $rsp 40 +
STACK CFI 51b35 .cfa: $rsp 48 +
STACK CFI 51b37 .cfa: $rsp 56 +
STACK CFI 51b39 .cfa: $rsp 64 +
STACK CFI 51b3b .cfa: $rsp 72 +
STACK CFI 51b3d .cfa: $rsp 80 +
STACK CFI 51b3f .cfa: $rsp 88 +
STACK CFI 51b41 .cfa: $rsp 96 +
STACK CFI 51b45 .cfa: $rsp 104 +
STACK CFI 51b49 .cfa: $rsp 112 +
STACK CFI 51b52 .cfa: $rsp 8 +
STACK CFI INIT 51b53 2a .cfa: $rsp 8 + .ra: .cfa -8 + ^
STACK CFI 51b57 .cfa: $rsp 16 +
STACK CFI 51b59 .cfa: $rsp 24 +
STACK CFI 51b5b .cfa: $rsp 32 +
STACK CFI 51b5d .cfa: $rsp 40 +
STACK CFI 51b5f .cfa: $rsp 48 +
STACK CFI 51b61 .cfa: $rsp 56 +
STACK CFI 51b63 .cfa: $rsp 64 +
STACK CFI 51b65 .cfa: $rsp 72 +
STACK CFI 51b67 .cfa: $rsp 80 +
STACK CFI 51b69 .cfa: $rsp 88 +
STACK CFI 51b6b .cfa: $rsp 96 +
STACK CFI 51b6f .cfa: $rsp 104 +
STACK CFI 51b73 .cfa: $rsp 112 +
STACK CFI 51b7c .cfa: $rsp 8 +
STACK CFI INIT 51b7d 2a .cfa: $rsp 8 + .ra: .cfa -8 + ^
STACK CFI 51b81 .cfa: $rsp 16 +
STACK CFI 51b83 .cfa: $rsp 24 +
STACK CFI 51b85 .cfa: $rsp 32 +
STACK CFI 51b87 .cfa: $rsp 40 +
STACK CFI 51b89 .cfa: $rsp 48 +
STACK CFI 51b8b .cfa: $rsp 56 +
STACK CFI 51b8d .cfa: $rsp 64 +
STACK CFI 51b8f .cfa: $rsp 72 +
STACK CFI 51b91 .cfa: $rsp 80 +
STACK CFI 51b93 .cfa: $rsp 88 +
STACK CFI 51b95 .cfa: $rsp 96 +
STACK CFI 51b99 .cfa: $rsp 104 +
STACK CFI 51b9d .cfa: $rsp 112 +
STACK CFI 51ba6 .cfa: $rsp 8 +
STACK CFI INIT 51ba7 2a .cfa: $rsp 8 + .ra: .cfa -8 + ^
STACK CFI 51bab .cfa: $rsp 16 +
STACK CFI 51bad .cfa: $rsp 24 +
STACK CFI 51baf .cfa: $rsp 32 +
STACK CFI 51bb1 .cfa: $rsp 40 +
STACK CFI 51bb3 .cfa: $rsp 48 +
STACK CFI 51bb5 .cfa: $rsp 56 +
STACK CFI 51bb7 .cfa: $rsp 64 +
STACK CFI 51bb9 .cfa: $rsp 72 +
STACK CFI 51bbb .cfa: $rsp 80 +
STACK CFI 51bbd .cfa: $rsp 88 +
STACK CFI 51bbf .cfa: $rsp 96 +
STACK CFI 51bc3 .cfa: $rsp 104 +
STACK CFI 51bc7 .cfa: $rsp 112 +
STACK CFI 51bd0 .cfa: $rsp 8 +
STACK CFI INIT 51bd1 2a .cfa: $rsp 8 + .ra: .cfa -8 + ^
STACK CFI 51bd5 .cfa: $rsp 16 +
STACK CFI 51bd7 .cfa: $rsp 24 +
STACK CFI 51bd9 .cfa: $rsp 32 +
STACK CFI 51bdb .cfa: $rsp 40 +
STACK CFI 51bdd .cfa: $rsp 48 +
STACK CFI 51bdf .cfa: $rsp 56 +
STACK CFI 51be1 .cfa: $rsp 64 +
STACK CFI 51be3 .cfa: $rsp 72 +
STACK CFI 51be5 .cfa: $rsp 80 +
STACK CFI 51be7 .cfa: $rsp 88 +
STACK CFI 51be9 .cfa: $rsp 96 +
STACK CFI 51bed .cfa: $rsp 104 +
STACK CFI 51bf1 .cfa: $rsp 112 +
STACK CFI 51bfa .cfa: $rsp 8 +
STACK CFI INIT 51bfb 2a .cfa: $rsp 8 + .ra: .cfa -8 + ^
STACK CFI 51bff .cfa: $rsp 16 +
STACK CFI 51c01 .cfa: $rsp 24 +
STACK CFI 51c03 .cfa: $rsp 32 +
STACK CFI 51c05 .cfa: $rsp 40 +
STACK CFI 51c07 .cfa: $rsp 48 +
STACK CFI 51c09 .cfa: $rsp 56 +
STACK CFI 51c0b .cfa: $rsp 64 +
STACK CFI 51c0d .cfa: $rsp 72 +
STACK CFI 51c0f .cfa: $rsp 80 +
STACK CFI 51c11 .cfa: $rsp 88 +
STACK CFI 51c13 .cfa: $rsp 96 +
STACK CFI 51c17 .cfa: $rsp 104 +
STACK CFI 51c1b .cfa: $rsp 112 +
STACK CFI 51c24 .cfa: $rsp 8 +
STACK CFI INIT 51c25 2a .cfa: $rsp 8 + .ra: .cfa -8 + ^
STACK CFI 51c29 .cfa: $rsp 16 +
STACK CFI 51c2b .cfa: $rsp 24 +
STACK CFI 51c2d .cfa: $rsp 32 +
STACK CFI 51c2f .cfa: $rsp 40 +
STACK CFI 51c31 .cfa: $rsp 48 +
STACK CFI 51c33 .cfa: $rsp 56 +
STACK CFI 51c35 .cfa: $rsp 64 +
STACK CFI 51c37 .cfa: $rsp 72 +
STACK CFI 51c39 .cfa: $rsp 80 +
STACK CFI 51c3b .cfa: $rsp 88 +
STACK CFI 51c3d .cfa: $rsp 96 +
STACK CFI 51c41 .cfa: $rsp 104 +
STACK CFI 51c45 .cfa: $rsp 112 +
STACK CFI 51c4e .cfa: $rsp 8 +
STACK CFI INIT 51c4f 2a .cfa: $rsp 8 + .ra: .cfa -8 + ^
STACK CFI 51c53 .cfa: $rsp 16 +
STACK CFI 51c55 .cfa: $rsp 24 +
STACK CFI 51c57 .cfa: $rsp 32 +
STACK CFI 51c59 .cfa: $rsp 40 +
STACK CFI 51c5b .cfa: $rsp 48 +
STACK CFI 51c5d .cfa: $rsp 56 +
STACK CFI 51c5f .cfa: $rsp 64 +
STACK CFI 51c61 .cfa: $rsp 72 +
STACK CFI 51c63 .cfa: $rsp 80 +
STACK CFI 51c65 .cfa: $rsp 88 +
STACK CFI 51c67 .cfa: $rsp 96 +
STACK CFI 51c6b .cfa: $rsp 104 +
STACK CFI 51c6f .cfa: $rsp 112 +
STACK CFI 51c78 .cfa: $rsp 8 +
STACK CFI INIT 51c79 2a .cfa: $rsp 8 + .ra: .cfa -8 + ^
STACK CFI 51c7d .cfa: $rsp 16 +
STACK CFI 51c7f .cfa: $rsp 24 +
STACK CFI 51c81 .cfa: $rsp 32 +
STACK CFI 51c83 .cfa: $rsp 40 +
STACK CFI 51c85 .cfa: $rsp 48 +
STACK CFI 51c87 .cfa: $rsp 56 +
STACK CFI 51c89 .cfa: $rsp 64 +
STACK CFI 51c8b .cfa: $rsp 72 +
STACK CFI 51c8d .cfa: $rsp 80 +
STACK CFI 51c8f .cfa: $rsp 88 +
STACK CFI 51c91 .cfa: $rsp 96 +
STACK CFI 51c95 .cfa: $rsp 104 +
STACK CFI 51c99 .cfa: $rsp 112 +
STACK CFI 51ca2 .cfa: $rsp 8 +
STACK CFI INIT 51ca3 2a .cfa: $rsp 8 + .ra: .cfa -8 + ^
STACK CFI 51ca7 .cfa: $rsp 16 +
STACK CFI 51ca9 .cfa: $rsp 24 +
STACK CFI 51cab .cfa: $rsp 32 +
STACK CFI 51cad .cfa: $rsp 40 +
STACK CFI 51caf .cfa: $rsp 48 +
STACK CFI 51cb1 .cfa: $rsp 56 +
STACK CFI 51cb3 .cfa: $rsp 64 +
STACK CFI 51cb5 .cfa: $rsp 72 +
STACK CFI 51cb7 .cfa: $rsp 80 +
STACK CFI 51cb9 .cfa: $rsp 88 +
STACK CFI 51cbb .cfa: $rsp 96 +
STACK CFI 51cbf .cfa: $rsp 104 +
STACK CFI 51cc3 .cfa: $rsp 112 +
STACK CFI 51ccc .cfa: $rsp 8 +
STACK CFI INIT 51ccd 2a .cfa: $rsp 8 + .ra: .cfa -8 + ^
STACK CFI 51cd1 .cfa: $rsp 16 +
STACK CFI 51cd3 .cfa: $rsp 24 +
STACK CFI 51cd5 .cfa: $rsp 32 +
STACK CFI 51cd7 .cfa: $rsp 40 +
STACK CFI 51cd9 .cfa: $rsp 48 +
STACK CFI 51cdb .cfa: $rsp 56 +
STACK CFI 51cdd .cfa: $rsp 64 +
STACK CFI 51cdf .cfa: $rsp 72 +
STACK CFI 51ce1 .cfa: $rsp 80 +
STACK CFI 51ce3 .cfa: $rsp 88 +
STACK CFI 51ce5 .cfa: $rsp 96 +
STACK CFI 51ce9 .cfa: $rsp 104 +
STACK CFI 51ced .cfa: $rsp 112 +
STACK CFI 51cf6 .cfa: $rsp 8 +
STACK CFI INIT 51cf7 2a .cfa: $rsp 8 + .ra: .cfa -8 + ^
STACK CFI 51cfb .cfa: $rsp 16 +
STACK CFI 51cfd .cfa: $rsp 24 +
STACK CFI 51cff .cfa: $rsp 32 +
STACK CFI 51d01 .cfa: $rsp 40 +
STACK CFI 51d03 .cfa: $rsp 48 +
STACK CFI 51d05 .cfa: $rsp 56 +
STACK CFI 51d07 .cfa: $rsp 64 +
STACK CFI 51d09 .cfa: $rsp 72 +
STACK CFI 51d0b .cfa: $rsp 80 +
STACK CFI 51d0d .cfa: $rsp 88 +
STACK CFI 51d0f .cfa: $rsp 96 +
STACK CFI 51d13 .cfa: $rsp 104 +
STACK CFI 51d17 .cfa: $rsp 112 +
STACK CFI 51d20 .cfa: $rsp 8 +
STACK CFI INIT 51d21 2a .cfa: $rsp 8 + .ra: .cfa -8 + ^
STACK CFI 51d25 .cfa: $rsp 16 +
STACK CFI 51d27 .cfa: $rsp 24 +
STACK CFI 51d29 .cfa: $rsp 32 +
STACK CFI 51d2b .cfa: $rsp 40 +
STACK CFI 51d2d .cfa: $rsp 48 +
STACK CFI 51d2f .cfa: $rsp 56 +
STACK CFI 51d31 .cfa: $rsp 64 +
STACK CFI 51d33 .cfa: $rsp 72 +
STACK CFI 51d35 .cfa: $rsp 80 +
STACK CFI 51d37 .cfa: $rsp 88 +
STACK CFI 51d39 .cfa: $rsp 96 +
STACK CFI 51d3d .cfa: $rsp 104 +
STACK CFI 51d41 .cfa: $rsp 112 +
STACK CFI 51d4a .cfa: $rsp 8 +
STACK CFI INIT 51d4b 2a .cfa: $rsp 8 + .ra: .cfa -8 + ^
STACK CFI 51d4f .cfa: $rsp 16 +
STACK CFI 51d51 .cfa: $rsp 24 +
STACK CFI 51d53 .cfa: $rsp 32 +
STACK CFI 51d55 .cfa: $rsp 40 +
STACK CFI 51d57 .cfa: $rsp 48 +
STACK CFI 51d59 .cfa: $rsp 56 +
STACK CFI 51d5b .cfa: $rsp 64 +
STACK CFI 51d5d .cfa: $rsp 72 +
STACK CFI 51d5f .cfa: $rsp 80 +
STACK CFI 51d61 .cfa: $rsp 88 +
STACK CFI 51d63 .cfa: $rsp 96 +
STACK CFI 51d67 .cfa: $rsp 104 +
STACK CFI 51d6b .cfa: $rsp 112 +
STACK CFI 51d74 .cfa: $rsp 8 +
STACK CFI INIT 51d75 2a .cfa: $rsp 8 + .ra: .cfa -8 + ^
STACK CFI 51d79 .cfa: $rsp 16 +
STACK CFI 51d7b .cfa: $rsp 24 +
STACK CFI 51d7d .cfa: $rsp 32 +
STACK CFI 51d7f .cfa: $rsp 40 +
STACK CFI 51d81 .cfa: $rsp 48 +
STACK CFI 51d83 .cfa: $rsp 56 +
STACK CFI 51d85 .cfa: $rsp 64 +
STACK CFI 51d87 .cfa: $rsp 72 +
STACK CFI 51d89 .cfa: $rsp 80 +
STACK CFI 51d8b .cfa: $rsp 88 +
STACK CFI 51d8d .cfa: $rsp 96 +
STACK CFI 51d91 .cfa: $rsp 104 +
STACK CFI 51d95 .cfa: $rsp 112 +
STACK CFI 51d9e .cfa: $rsp 8 +
STACK CFI INIT 51d9f 2a .cfa: $rsp 8 + .ra: .cfa -8 + ^
STACK CFI 51da3 .cfa: $rsp 16 +
STACK CFI 51da5 .cfa: $rsp 24 +
STACK CFI 51da7 .cfa: $rsp 32 +
STACK CFI 51da9 .cfa: $rsp 40 +
STACK CFI 51dab .cfa: $rsp 48 +
STACK CFI 51dad .cfa: $rsp 56 +
STACK CFI 51daf .cfa: $rsp 64 +
STACK CFI 51db1 .cfa: $rsp 72 +
STACK CFI 51db3 .cfa: $rsp 80 +
STACK CFI 51db5 .cfa: $rsp 88 +
STACK CFI 51db7 .cfa: $rsp 96 +
STACK CFI 51dbb .cfa: $rsp 104 +
STACK CFI 51dbf .cfa: $rsp 112 +
STACK CFI 51dc8 .cfa: $rsp 8 +
STACK CFI INIT 51dc9 2a .cfa: $rsp 8 + .ra: .cfa -8 + ^
STACK CFI 51dcd .cfa: $rsp 16 +
STACK CFI 51dcf .cfa: $rsp 24 +
STACK CFI 51dd1 .cfa: $rsp 32 +
STACK CFI 51dd3 .cfa: $rsp 40 +
STACK CFI 51dd5 .cfa: $rsp 48 +
STACK CFI 51dd7 .cfa: $rsp 56 +
STACK CFI 51dd9 .cfa: $rsp 64 +
STACK CFI 51ddb .cfa: $rsp 72 +
STACK CFI 51ddd .cfa: $rsp 80 +
STACK CFI 51ddf .cfa: $rsp 88 +
STACK CFI 51de1 .cfa: $rsp 96 +
STACK CFI 51de5 .cfa: $rsp 104 +
STACK CFI 51de9 .cfa: $rsp 112 +
STACK CFI 51df2 .cfa: $rsp 8 +
STACK CFI INIT 51df3 2a .cfa: $rsp 8 + .ra: .cfa -8 + ^
STACK CFI 51df7 .cfa: $rsp 16 +
STACK CFI 51df9 .cfa: $rsp 24 +
STACK CFI 51dfb .cfa: $rsp 32 +
STACK CFI 51dfd .cfa: $rsp 40 +
STACK CFI 51dff .cfa: $rsp 48 +
STACK CFI 51e01 .cfa: $rsp 56 +
STACK CFI 51e03 .cfa: $rsp 64 +
STACK CFI 51e05 .cfa: $rsp 72 +
STACK CFI 51e07 .cfa: $rsp 80 +
STACK CFI 51e09 .cfa: $rsp 88 +
STACK CFI 51e0b .cfa: $rsp 96 +
STACK CFI 51e0f .cfa: $rsp 104 +
STACK CFI 51e13 .cfa: $rsp 112 +
STACK CFI 51e1c .cfa: $rsp 8 +
STACK CFI INIT 51e1d 2a .cfa: $rsp 8 + .ra: .cfa -8 + ^
STACK CFI 51e21 .cfa: $rsp 16 +
STACK CFI 51e23 .cfa: $rsp 24 +
STACK CFI 51e25 .cfa: $rsp 32 +
STACK CFI 51e27 .cfa: $rsp 40 +
STACK CFI 51e29 .cfa: $rsp 48 +
STACK CFI 51e2b .cfa: $rsp 56 +
STACK CFI 51e2d .cfa: $rsp 64 +
STACK CFI 51e2f .cfa: $rsp 72 +
STACK CFI 51e31 .cfa: $rsp 80 +
STACK CFI 51e33 .cfa: $rsp 88 +
STACK CFI 51e35 .cfa: $rsp 96 +
STACK CFI 51e39 .cfa: $rsp 104 +
STACK CFI 51e3d .cfa: $rsp 112 +
STACK CFI 51e46 .cfa: $rsp 8 +
STACK CFI INIT 51e47 2a .cfa: $rsp 8 + .ra: .cfa -8 + ^
STACK CFI 51e4b .cfa: $rsp 16 +
STACK CFI 51e4d .cfa: $rsp 24 +
STACK CFI 51e4f .cfa: $rsp 32 +
STACK CFI 51e51 .cfa: $rsp 40 +
STACK CFI 51e53 .cfa: $rsp 48 +
STACK CFI 51e55 .cfa: $rsp 56 +
STACK CFI 51e57 .cfa: $rsp 64 +
STACK CFI 51e59 .cfa: $rsp 72 +
STACK CFI 51e5b .cfa: $rsp 80 +
STACK CFI 51e5d .cfa: $rsp 88 +
STACK CFI 51e5f .cfa: $rsp 96 +
STACK CFI 51e63 .cfa: $rsp 104 +
STACK CFI 51e67 .cfa: $rsp 112 +
STACK CFI 51e70 .cfa: $rsp 8 +
STACK CFI INIT 51e71 2a .cfa: $rsp 8 + .ra: .cfa -8 + ^
STACK CFI 51e75 .cfa: $rsp 16 +
STACK CFI 51e77 .cfa: $rsp 24 +
STACK CFI 51e79 .cfa: $rsp 32 +
STACK CFI 51e7b .cfa: $rsp 40 +
STACK CFI 51e7d .cfa: $rsp 48 +
STACK CFI 51e7f .cfa: $rsp 56 +
STACK CFI 51e81 .cfa: $rsp 64 +
STACK CFI 51e83 .cfa: $rsp 72 +
STACK CFI 51e85 .cfa: $rsp 80 +
STACK CFI 51e87 .cfa: $rsp 88 +
STACK CFI 51e89 .cfa: $rsp 96 +
STACK CFI 51e8d .cfa: $rsp 104 +
STACK CFI 51e91 .cfa: $rsp 112 +
STACK CFI 51e9a .cfa: $rsp 8 +
STACK CFI INIT 51e9b 2a .cfa: $rsp 8 + .ra: .cfa -8 + ^
STACK CFI 51e9f .cfa: $rsp 16 +
STACK CFI 51ea1 .cfa: $rsp 24 +
STACK CFI 51ea3 .cfa: $rsp 32 +
STACK CFI 51ea5 .cfa: $rsp 40 +
STACK CFI 51ea7 .cfa: $rsp 48 +
STACK CFI 51ea9 .cfa: $rsp 56 +
STACK CFI 51eab .cfa: $rsp 64 +
STACK CFI 51ead .cfa: $rsp 72 +
STACK CFI 51eaf .cfa: $rsp 80 +
STACK CFI 51eb1 .cfa: $rsp 88 +
STACK CFI 51eb3 .cfa: $rsp 96 +
STACK CFI 51eb7 .cfa: $rsp 104 +
STACK CFI 51ebb .cfa: $rsp 112 +
STACK CFI 51ec4 .cfa: $rsp 8 +
STACK CFI INIT 51ec5 2a .cfa: $rsp 8 + .ra: .cfa -8 + ^
STACK CFI 51ec9 .cfa: $rsp 16 +
STACK CFI 51ecb .cfa: $rsp 24 +
STACK CFI 51ecd .cfa: $rsp 32 +
STACK CFI 51ecf .cfa: $rsp 40 +
STACK CFI 51ed1 .cfa: $rsp 48 +
STACK CFI 51ed3 .cfa: $rsp 56 +
STACK CFI 51ed5 .cfa: $rsp 64 +
STACK CFI 51ed7 .cfa: $rsp 72 +
STACK CFI 51ed9 .cfa: $rsp 80 +
STACK CFI 51edb .cfa: $rsp 88 +
STACK CFI 51edd .cfa: $rsp 96 +
STACK CFI 51ee1 .cfa: $rsp 104 +
STACK CFI 51ee5 .cfa: $rsp 112 +
STACK CFI 51eee .cfa: $rsp 8 +
STACK CFI INIT 51eef 2a .cfa: $rsp 8 + .ra: .cfa -8 + ^
STACK CFI 51ef3 .cfa: $rsp 16 +
STACK CFI 51ef5 .cfa: $rsp 24 +
STACK CFI 51ef7 .cfa: $rsp 32 +
STACK CFI 51ef9 .cfa: $rsp 40 +
STACK CFI 51efb .cfa: $rsp 48 +
STACK CFI 51efd .cfa: $rsp 56 +
STACK CFI 51eff .cfa: $rsp 64 +
STACK CFI 51f01 .cfa: $rsp 72 +
STACK CFI 51f03 .cfa: $rsp 80 +
STACK CFI 51f05 .cfa: $rsp 88 +
STACK CFI 51f07 .cfa: $rsp 96 +
STACK CFI 51f0b .cfa: $rsp 104 +
STACK CFI 51f0f .cfa: $rsp 112 +
STACK CFI 51f18 .cfa: $rsp 8 +
STACK CFI INIT 51f19 2a .cfa: $rsp 8 + .ra: .cfa -8 + ^
STACK CFI 51f1d .cfa: $rsp 16 +
STACK CFI 51f1f .cfa: $rsp 24 +
STACK CFI 51f21 .cfa: $rsp 32 +
STACK CFI 51f23 .cfa: $rsp 40 +
STACK CFI 51f25 .cfa: $rsp 48 +
STACK CFI 51f27 .cfa: $rsp 56 +
STACK CFI 51f29 .cfa: $rsp 64 +
STACK CFI 51f2b .cfa: $rsp 72 +
STACK CFI 51f2d .cfa: $rsp 80 +
STACK CFI 51f2f .cfa: $rsp 88 +
STACK CFI 51f31 .cfa: $rsp 96 +
STACK CFI 51f35 .cfa: $rsp 104 +
STACK CFI 51f39 .cfa: $rsp 112 +
STACK CFI 51f42 .cfa: $rsp 8 +
STACK CFI INIT 51f43 2a .cfa: $rsp 8 + .ra: .cfa -8 + ^
STACK CFI 51f47 .cfa: $rsp 16 +
STACK CFI 51f49 .cfa: $rsp 24 +
STACK CFI 51f4b .cfa: $rsp 32 +
STACK CFI 51f4d .cfa: $rsp 40 +
STACK CFI 51f4f .cfa: $rsp 48 +
STACK CFI 51f51 .cfa: $rsp 56 +
STACK CFI 51f53 .cfa: $rsp 64 +
STACK CFI 51f55 .cfa: $rsp 72 +
STACK CFI 51f57 .cfa: $rsp 80 +
STACK CFI 51f59 .cfa: $rsp 88 +
STACK CFI 51f5b .cfa: $rsp 96 +
STACK CFI 51f5f .cfa: $rsp 104 +
STACK CFI 51f63 .cfa: $rsp 112 +
STACK CFI 51f6c .cfa: $rsp 8 +
STACK CFI INIT 51f6d 2a .cfa: $rsp 8 + .ra: .cfa -8 + ^
STACK CFI 51f71 .cfa: $rsp 16 +
STACK CFI 51f73 .cfa: $rsp 24 +
STACK CFI 51f75 .cfa: $rsp 32 +
STACK CFI 51f77 .cfa: $rsp 40 +
STACK CFI 51f79 .cfa: $rsp 48 +
STACK CFI 51f7b .cfa: $rsp 56 +
STACK CFI 51f7d .cfa: $rsp 64 +
STACK CFI 51f7f .cfa: $rsp 72 +
STACK CFI 51f81 .cfa: $rsp 80 +
STACK CFI 51f83 .cfa: $rsp 88 +
STACK CFI 51f85 .cfa: $rsp 96 +
STACK CFI 51f89 .cfa: $rsp 104 +
STACK CFI 51f8d .cfa: $rsp 112 +
STACK CFI 51f96 .cfa: $rsp 8 +
STACK CFI INIT 51f97 2a .cfa: $rsp 8 + .ra: .cfa -8 + ^
STACK CFI 51f9b .cfa: $rsp 16 +
STACK CFI 51f9d .cfa: $rsp 24 +
STACK CFI 51f9f .cfa: $rsp 32 +
STACK CFI 51fa1 .cfa: $rsp 40 +
STACK CFI 51fa3 .cfa: $rsp 48 +
STACK CFI 51fa5 .cfa: $rsp 56 +
STACK CFI 51fa7 .cfa: $rsp 64 +
STACK CFI 51fa9 .cfa: $rsp 72 +
STACK CFI 51fab .cfa: $rsp 80 +
STACK CFI 51fad .cfa: $rsp 88 +
STACK CFI 51faf .cfa: $rsp 96 +
STACK CFI 51fb3 .cfa: $rsp 104 +
STACK CFI 51fb7 .cfa: $rsp 112 +
STACK CFI 51fc0 .cfa: $rsp 8 +
STACK CFI INIT 51fc1 2a .cfa: $rsp 8 + .ra: .cfa -8 + ^
STACK CFI 51fc5 .cfa: $rsp 16 +
STACK CFI 51fc7 .cfa: $rsp 24 +
STACK CFI 51fc9 .cfa: $rsp 32 +
STACK CFI 51fcb .cfa: $rsp 40 +
STACK CFI 51fcd .cfa: $rsp 48 +
STACK CFI 51fcf .cfa: $rsp 56 +
STACK CFI 51fd1 .cfa: $rsp 64 +
STACK CFI 51fd3 .cfa: $rsp 72 +
STACK CFI 51fd5 .cfa: $rsp 80 +
STACK CFI 51fd7 .cfa: $rsp 88 +
STACK CFI 51fd9 .cfa: $rsp 96 +
STACK CFI 51fdd .cfa: $rsp 104 +
STACK CFI 51fe1 .cfa: $rsp 112 +
STACK CFI 51fea .cfa: $rsp 8 +
STACK CFI INIT 51feb 2a .cfa: $rsp 8 + .ra: .cfa -8 + ^
STACK CFI 51fef .cfa: $rsp 16 +
STACK CFI 51ff1 .cfa: $rsp 24 +
STACK CFI 51ff3 .cfa: $rsp 32 +
STACK CFI 51ff5 .cfa: $rsp 40 +
STACK CFI 51ff7 .cfa: $rsp 48 +
STACK CFI 51ff9 .cfa: $rsp 56 +
STACK CFI 51ffb .cfa: $rsp 64 +
STACK CFI 51ffd .cfa: $rsp 72 +
STACK CFI 51fff .cfa: $rsp 80 +
STACK CFI 52001 .cfa: $rsp 88 +
STACK CFI 52003 .cfa: $rsp 96 +
STACK CFI 52007 .cfa: $rsp 104 +
STACK CFI 5200b .cfa: $rsp 112 +
STACK CFI 52014 .cfa: $rsp 8 +
STACK CFI INIT 52015 2a .cfa: $rsp 8 + .ra: .cfa -8 + ^
STACK CFI 52019 .cfa: $rsp 16 +
STACK CFI 5201b .cfa: $rsp 24 +
STACK CFI 5201d .cfa: $rsp 32 +
STACK CFI 5201f .cfa: $rsp 40 +
STACK CFI 52021 .cfa: $rsp 48 +
STACK CFI 52023 .cfa: $rsp 56 +
STACK CFI 52025 .cfa: $rsp 64 +
STACK CFI 52027 .cfa: $rsp 72 +
STACK CFI 52029 .cfa: $rsp 80 +
STACK CFI 5202b .cfa: $rsp 88 +
STACK CFI 5202d .cfa: $rsp 96 +
STACK CFI 52031 .cfa: $rsp 104 +
STACK CFI 52035 .cfa: $rsp 112 +
STACK CFI 5203e .cfa: $rsp 8 +
STACK CFI INIT 5203f 2a .cfa: $rsp 8 + .ra: .cfa -8 + ^
STACK CFI 52043 .cfa: $rsp 16 +
STACK CFI 52045 .cfa: $rsp 24 +
STACK CFI 52047 .cfa: $rsp 32 +
STACK CFI 52049 .cfa: $rsp 40 +
STACK CFI 5204b .cfa: $rsp 48 +
STACK CFI 5204d .cfa: $rsp 56 +
STACK CFI 5204f .cfa: $rsp 64 +
STACK CFI 52051 .cfa: $rsp 72 +
STACK CFI 52053 .cfa: $rsp 80 +
STACK CFI 52055 .cfa: $rsp 88 +
STACK CFI 52057 .cfa: $rsp 96 +
STACK CFI 5205b .cfa: $rsp 104 +
STACK CFI 5205f .cfa: $rsp 112 +
STACK CFI 52068 .cfa: $rsp 8 +
STACK CFI INIT 52069 2a .cfa: $rsp 8 + .ra: .cfa -8 + ^
STACK CFI 5206d .cfa: $rsp 16 +
STACK CFI 5206f .cfa: $rsp 24 +
STACK CFI 52071 .cfa: $rsp 32 +
STACK CFI 52073 .cfa: $rsp 40 +
STACK CFI 52075 .cfa: $rsp 48 +
STACK CFI 52077 .cfa: $rsp 56 +
STACK CFI 52079 .cfa: $rsp 64 +
STACK CFI 5207b .cfa: $rsp 72 +
STACK CFI 5207d .cfa: $rsp 80 +
STACK CFI 5207f .cfa: $rsp 88 +
STACK CFI 52081 .cfa: $rsp 96 +
STACK CFI 52085 .cfa: $rsp 104 +
STACK CFI 52089 .cfa: $rsp 112 +
STACK CFI 52092 .cfa: $rsp 8 +
STACK CFI INIT 52093 2a .cfa: $rsp 8 + .ra: .cfa -8 + ^
STACK CFI 52097 .cfa: $rsp 16 +
STACK CFI 52099 .cfa: $rsp 24 +
STACK CFI 5209b .cfa: $rsp 32 +
STACK CFI 5209d .cfa: $rsp 40 +
STACK CFI 5209f .cfa: $rsp 48 +
STACK CFI 520a1 .cfa: $rsp 56 +
STACK CFI 520a3 .cfa: $rsp 64 +
STACK CFI 520a5 .cfa: $rsp 72 +
STACK CFI 520a7 .cfa: $rsp 80 +
STACK CFI 520a9 .cfa: $rsp 88 +
STACK CFI 520ab .cfa: $rsp 96 +
STACK CFI 520af .cfa: $rsp 104 +
STACK CFI 520b3 .cfa: $rsp 112 +
STACK CFI 520bc .cfa: $rsp 8 +
STACK CFI INIT 520bd 2a .cfa: $rsp 8 + .ra: .cfa -8 + ^
STACK CFI 520c1 .cfa: $rsp 16 +
STACK CFI 520c3 .cfa: $rsp 24 +
STACK CFI 520c5 .cfa: $rsp 32 +
STACK CFI 520c7 .cfa: $rsp 40 +
STACK CFI 520c9 .cfa: $rsp 48 +
STACK CFI 520cb .cfa: $rsp 56 +
STACK CFI 520cd .cfa: $rsp 64 +
STACK CFI 520cf .cfa: $rsp 72 +
STACK CFI 520d1 .cfa: $rsp 80 +
STACK CFI 520d3 .cfa: $rsp 88 +
STACK CFI 520d5 .cfa: $rsp 96 +
STACK CFI 520d9 .cfa: $rsp 104 +
STACK CFI 520dd .cfa: $rsp 112 +
STACK CFI 520e6 .cfa: $rsp 8 +
STACK CFI INIT 520e7 2a .cfa: $rsp 8 + .ra: .cfa -8 + ^
STACK CFI 520eb .cfa: $rsp 16 +
STACK CFI 520ed .cfa: $rsp 24 +
STACK CFI 520ef .cfa: $rsp 32 +
STACK CFI 520f1 .cfa: $rsp 40 +
STACK CFI 520f3 .cfa: $rsp 48 +
STACK CFI 520f5 .cfa: $rsp 56 +
STACK CFI 520f7 .cfa: $rsp 64 +
STACK CFI 520f9 .cfa: $rsp 72 +
STACK CFI 520fb .cfa: $rsp 80 +
STACK CFI 520fd .cfa: $rsp 88 +
STACK CFI 520ff .cfa: $rsp 96 +
STACK CFI 52103 .cfa: $rsp 104 +
STACK CFI 52107 .cfa: $rsp 112 +
STACK CFI 52110 .cfa: $rsp 8 +
STACK CFI INIT 52111 2a .cfa: $rsp 8 + .ra: .cfa -8 + ^
STACK CFI 52115 .cfa: $rsp 16 +
STACK CFI 52117 .cfa: $rsp 24 +
STACK CFI 52119 .cfa: $rsp 32 +
STACK CFI 5211b .cfa: $rsp 40 +
STACK CFI 5211d .cfa: $rsp 48 +
STACK CFI 5211f .cfa: $rsp 56 +
STACK CFI 52121 .cfa: $rsp 64 +
STACK CFI 52123 .cfa: $rsp 72 +
STACK CFI 52125 .cfa: $rsp 80 +
STACK CFI 52127 .cfa: $rsp 88 +
STACK CFI 52129 .cfa: $rsp 96 +
STACK CFI 5212d .cfa: $rsp 104 +
STACK CFI 52131 .cfa: $rsp 112 +
STACK CFI 5213a .cfa: $rsp 8 +
STACK CFI INIT 5213b 2a .cfa: $rsp 8 + .ra: .cfa -8 + ^
STACK CFI 5213f .cfa: $rsp 16 +
STACK CFI 52141 .cfa: $rsp 24 +
STACK CFI 52143 .cfa: $rsp 32 +
STACK CFI 52145 .cfa: $rsp 40 +
STACK CFI 52147 .cfa: $rsp 48 +
STACK CFI 52149 .cfa: $rsp 56 +
STACK CFI 5214b .cfa: $rsp 64 +
STACK CFI 5214d .cfa: $rsp 72 +
STACK CFI 5214f .cfa: $rsp 80 +
STACK CFI 52151 .cfa: $rsp 88 +
STACK CFI 52153 .cfa: $rsp 96 +
STACK CFI 52157 .cfa: $rsp 104 +
STACK CFI 5215b .cfa: $rsp 112 +
STACK CFI 52164 .cfa: $rsp 8 +
STACK CFI INIT 52165 2a .cfa: $rsp 8 + .ra: .cfa -8 + ^
STACK CFI 52169 .cfa: $rsp 16 +
STACK CFI 5216b .cfa: $rsp 24 +
STACK CFI 5216d .cfa: $rsp 32 +
STACK CFI 5216f .cfa: $rsp 40 +
STACK CFI 52171 .cfa: $rsp 48 +
STACK CFI 52173 .cfa: $rsp 56 +
STACK CFI 52175 .cfa: $rsp 64 +
STACK CFI 52177 .cfa: $rsp 72 +
STACK CFI 52179 .cfa: $rsp 80 +
STACK CFI 5217b .cfa: $rsp 88 +
STACK CFI 5217d .cfa: $rsp 96 +
STACK CFI 52181 .cfa: $rsp 104 +
STACK CFI 52185 .cfa: $rsp 112 +
STACK CFI 5218e .cfa: $rsp 8 +
STACK CFI INIT 5218f 2a .cfa: $rsp 8 + .ra: .cfa -8 + ^
STACK CFI 52193 .cfa: $rsp 16 +
STACK CFI 52195 .cfa: $rsp 24 +
STACK CFI 52197 .cfa: $rsp 32 +
STACK CFI 52199 .cfa: $rsp 40 +
STACK CFI 5219b .cfa: $rsp 48 +
STACK CFI 5219d .cfa: $rsp 56 +
STACK CFI 5219f .cfa: $rsp 64 +
STACK CFI 521a1 .cfa: $rsp 72 +
STACK CFI 521a3 .cfa: $rsp 80 +
STACK CFI 521a5 .cfa: $rsp 88 +
STACK CFI 521a7 .cfa: $rsp 96 +
STACK CFI 521ab .cfa: $rsp 104 +
STACK CFI 521af .cfa: $rsp 112 +
STACK CFI 521b8 .cfa: $rsp 8 +
STACK CFI INIT 521b9 2a .cfa: $rsp 8 + .ra: .cfa -8 + ^
STACK CFI 521bd .cfa: $rsp 16 +
STACK CFI 521bf .cfa: $rsp 24 +
STACK CFI 521c1 .cfa: $rsp 32 +
STACK CFI 521c3 .cfa: $rsp 40 +
STACK CFI 521c5 .cfa: $rsp 48 +
STACK CFI 521c7 .cfa: $rsp 56 +
STACK CFI 521c9 .cfa: $rsp 64 +
STACK CFI 521cb .cfa: $rsp 72 +
STACK CFI 521cd .cfa: $rsp 80 +
STACK CFI 521cf .cfa: $rsp 88 +
STACK CFI 521d1 .cfa: $rsp 96 +
STACK CFI 521d5 .cfa: $rsp 104 +
STACK CFI 521d9 .cfa: $rsp 112 +
STACK CFI 521e2 .cfa: $rsp 8 +
STACK CFI INIT 521e3 2a .cfa: $rsp 8 + .ra: .cfa -8 + ^
STACK CFI 521e7 .cfa: $rsp 16 +
STACK CFI 521e9 .cfa: $rsp 24 +
STACK CFI 521eb .cfa: $rsp 32 +
STACK CFI 521ed .cfa: $rsp 40 +
STACK CFI 521ef .cfa: $rsp 48 +
STACK CFI 521f1 .cfa: $rsp 56 +
STACK CFI 521f3 .cfa: $rsp 64 +
STACK CFI 521f5 .cfa: $rsp 72 +
STACK CFI 521f7 .cfa: $rsp 80 +
STACK CFI 521f9 .cfa: $rsp 88 +
STACK CFI 521fb .cfa: $rsp 96 +
STACK CFI 521ff .cfa: $rsp 104 +
STACK CFI 52203 .cfa: $rsp 112 +
STACK CFI 5220c .cfa: $rsp 8 +
STACK CFI INIT 5220d 2a .cfa: $rsp 8 + .ra: .cfa -8 + ^
STACK CFI 52211 .cfa: $rsp 16 +
STACK CFI 52213 .cfa: $rsp 24 +
STACK CFI 52215 .cfa: $rsp 32 +
STACK CFI 52217 .cfa: $rsp 40 +
STACK CFI 52219 .cfa: $rsp 48 +
STACK CFI 5221b .cfa: $rsp 56 +
STACK CFI 5221d .cfa: $rsp 64 +
STACK CFI 5221f .cfa: $rsp 72 +
STACK CFI 52221 .cfa: $rsp 80 +
STACK CFI 52223 .cfa: $rsp 88 +
STACK CFI 52225 .cfa: $rsp 96 +
STACK CFI 52229 .cfa: $rsp 104 +
STACK CFI 5222d .cfa: $rsp 112 +
STACK CFI 52236 .cfa: $rsp 8 +
STACK CFI INIT 52237 2a .cfa: $rsp 8 + .ra: .cfa -8 + ^
STACK CFI 5223b .cfa: $rsp 16 +
STACK CFI 5223d .cfa: $rsp 24 +
STACK CFI 5223f .cfa: $rsp 32 +
STACK CFI 52241 .cfa: $rsp 40 +
STACK CFI 52243 .cfa: $rsp 48 +
STACK CFI 52245 .cfa: $rsp 56 +
STACK CFI 52247 .cfa: $rsp 64 +
STACK CFI 52249 .cfa: $rsp 72 +
STACK CFI 5224b .cfa: $rsp 80 +
STACK CFI 5224d .cfa: $rsp 88 +
STACK CFI 5224f .cfa: $rsp 96 +
STACK CFI 52253 .cfa: $rsp 104 +
STACK CFI 52257 .cfa: $rsp 112 +
STACK CFI 52260 .cfa: $rsp 8 +
STACK CFI INIT 52261 1a .cfa: $rsp 8 + .ra: .cfa -8 + ^
STACK CFI 52265 .cfa: $rsp 16 +
STACK CFI 52267 .cfa: $rsp 24 +
STACK CFI 52269 .cfa: $rsp 32 +
STACK CFI 5226d .cfa: $rsp 40 +
STACK CFI 52271 .cfa: $rsp 48 +
STACK CFI 5227a .cfa: $rsp 8 +
STACK CFI INIT 5227b 41 .cfa: $rsp 8 + .ra: .cfa -8 + ^
STACK CFI 5227f .cfa: $rsp 24 +
STACK CFI 52281 .cfa: $rsp 32 +
STACK CFI 52283 .cfa: $rsp 40 +
STACK CFI 52285 .cfa: $rsp 48 +
STACK CFI 52287 .cfa: $rsp 56 +
STACK CFI 52289 .cfa: $rsp 64 +
STACK CFI 5228b .cfa: $rsp 72 +
STACK CFI 5228d .cfa: $rsp 80 +
STACK CFI 5228f .cfa: $rsp 88 +
STACK CFI 52291 .cfa: $rsp 96 +
STACK CFI 52293 .cfa: $rsp 104 +
STACK CFI 52295 .cfa: $rsp 112 +
STACK CFI 52297 .cfa: $rsp 120 +
STACK CFI 52299 .cfa: $rsp 128 +
STACK CFI 5229b .cfa: $rsp 136 +
STACK CFI 5229d .cfa: $rsp 144 +
STACK CFI 5229f .cfa: $rsp 152 +
STACK CFI 522a1 .cfa: $rsp 160 +
STACK CFI 522a8 .cfa: $rsp 168 +
STACK CFI 522af .cfa: $rsp 176 +
STACK CFI 522bb .cfa: $rsp 8 +
STACK CFI INIT 522bc 41 .cfa: $rsp 8 + .ra: .cfa -8 + ^
STACK CFI 522c0 .cfa: $rsp 24 +
STACK CFI 522c2 .cfa: $rsp 32 +
STACK CFI 522c4 .cfa: $rsp 40 +
STACK CFI 522c6 .cfa: $rsp 48 +
STACK CFI 522c8 .cfa: $rsp 56 +
STACK CFI 522ca .cfa: $rsp 64 +
STACK CFI 522cc .cfa: $rsp 72 +
STACK CFI 522ce .cfa: $rsp 80 +
STACK CFI 522d0 .cfa: $rsp 88 +
STACK CFI 522d2 .cfa: $rsp 96 +
STACK CFI 522d4 .cfa: $rsp 104 +
STACK CFI 522d6 .cfa: $rsp 112 +
STACK CFI 522d8 .cfa: $rsp 120 +
STACK CFI 522da .cfa: $rsp 128 +
STACK CFI 522dc .cfa: $rsp 136 +
STACK CFI 522de .cfa: $rsp 144 +
STACK CFI 522e0 .cfa: $rsp 152 +
STACK CFI 522e2 .cfa: $rsp 160 +
STACK CFI 522e9 .cfa: $rsp 168 +
STACK CFI 522f0 .cfa: $rsp 176 +
STACK CFI 522fc .cfa: $rsp 8 +
STACK CFI INIT 522fd 41 .cfa: $rsp 8 + .ra: .cfa -8 + ^
STACK CFI 52301 .cfa: $rsp 24 +
STACK CFI 52303 .cfa: $rsp 32 +
STACK CFI 52305 .cfa: $rsp 40 +
STACK CFI 52307 .cfa: $rsp 48 +
STACK CFI 52309 .cfa: $rsp 56 +
STACK CFI 5230b .cfa: $rsp 64 +
STACK CFI 5230d .cfa: $rsp 72 +
STACK CFI 5230f .cfa: $rsp 80 +
STACK CFI 52311 .cfa: $rsp 88 +
STACK CFI 52313 .cfa: $rsp 96 +
STACK CFI 52315 .cfa: $rsp 104 +
STACK CFI 52317 .cfa: $rsp 112 +
STACK CFI 52319 .cfa: $rsp 120 +
STACK CFI 5231b .cfa: $rsp 128 +
STACK CFI 5231d .cfa: $rsp 136 +
STACK CFI 5231f .cfa: $rsp 144 +
STACK CFI 52321 .cfa: $rsp 152 +
STACK CFI 52323 .cfa: $rsp 160 +
STACK CFI 5232a .cfa: $rsp 168 +
STACK CFI 52331 .cfa: $rsp 176 +
STACK CFI 5233d .cfa: $rsp 8 +
STACK CFI INIT 5233e 41 .cfa: $rsp 8 + .ra: .cfa -8 + ^
STACK CFI 52342 .cfa: $rsp 24 +
STACK CFI 52344 .cfa: $rsp 32 +
STACK CFI 52346 .cfa: $rsp 40 +
STACK CFI 52348 .cfa: $rsp 48 +
STACK CFI 5234a .cfa: $rsp 56 +
STACK CFI 5234c .cfa: $rsp 64 +
STACK CFI 5234e .cfa: $rsp 72 +
STACK CFI 52350 .cfa: $rsp 80 +
STACK CFI 52352 .cfa: $rsp 88 +
STACK CFI 52354 .cfa: $rsp 96 +
STACK CFI 52356 .cfa: $rsp 104 +
STACK CFI 52358 .cfa: $rsp 112 +
STACK CFI 5235a .cfa: $rsp 120 +
STACK CFI 5235c .cfa: $rsp 128 +
STACK CFI 5235e .cfa: $rsp 136 +
STACK CFI 52360 .cfa: $rsp 144 +
STACK CFI 52362 .cfa: $rsp 152 +
STACK CFI 52364 .cfa: $rsp 160 +
STACK CFI 5236b .cfa: $rsp 168 +
STACK CFI 52372 .cfa: $rsp 176 +
STACK CFI 5237e .cfa: $rsp 8 +
STACK CFI INIT 5237f 41 .cfa: $rsp 8 + .ra: .cfa -8 + ^
STACK CFI 52383 .cfa: $rsp 24 +
STACK CFI 52385 .cfa: $rsp 32 +
STACK CFI 52387 .cfa: $rsp 40 +
STACK CFI 52389 .cfa: $rsp 48 +
STACK CFI 5238b .cfa: $rsp 56 +
STACK CFI 5238d .cfa: $rsp 64 +
STACK CFI 5238f .cfa: $rsp 72 +
STACK CFI 52391 .cfa: $rsp 80 +
STACK CFI 52393 .cfa: $rsp 88 +
STACK CFI 52395 .cfa: $rsp 96 +
STACK CFI 52397 .cfa: $rsp 104 +
STACK CFI 52399 .cfa: $rsp 112 +
STACK CFI 5239b .cfa: $rsp 120 +
STACK CFI 5239d .cfa: $rsp 128 +
STACK CFI 5239f .cfa: $rsp 136 +
STACK CFI 523a1 .cfa: $rsp 144 +
STACK CFI 523a3 .cfa: $rsp 152 +
STACK CFI 523a5 .cfa: $rsp 160 +
STACK CFI 523ac .cfa: $rsp 168 +
STACK CFI 523b3 .cfa: $rsp 176 +
STACK CFI 523bf .cfa: $rsp 8 +
STACK CFI INIT 523c0 41 .cfa: $rsp 8 + .ra: .cfa -8 + ^
STACK CFI 523c4 .cfa: $rsp 24 +
STACK CFI 523c6 .cfa: $rsp 32 +
STACK CFI 523c8 .cfa: $rsp 40 +
STACK CFI 523ca .cfa: $rsp 48 +
STACK CFI 523cc .cfa: $rsp 56 +
STACK CFI 523ce .cfa: $rsp 64 +
STACK CFI 523d0 .cfa: $rsp 72 +
STACK CFI 523d2 .cfa: $rsp 80 +
STACK CFI 523d4 .cfa: $rsp 88 +
STACK CFI 523d6 .cfa: $rsp 96 +
STACK CFI 523d8 .cfa: $rsp 104 +
STACK CFI 523da .cfa: $rsp 112 +
STACK CFI 523dc .cfa: $rsp 120 +
STACK CFI 523de .cfa: $rsp 128 +
STACK CFI 523e0 .cfa: $rsp 136 +
STACK CFI 523e2 .cfa: $rsp 144 +
STACK CFI 523e4 .cfa: $rsp 152 +
STACK CFI 523e6 .cfa: $rsp 160 +
STACK CFI 523ed .cfa: $rsp 168 +
STACK CFI 523f4 .cfa: $rsp 176 +
STACK CFI 52400 .cfa: $rsp 8 +
STACK CFI INIT 52401 41 .cfa: $rsp 8 + .ra: .cfa -8 + ^
STACK CFI 52405 .cfa: $rsp 24 +
STACK CFI 52407 .cfa: $rsp 32 +
STACK CFI 52409 .cfa: $rsp 40 +
STACK CFI 5240b .cfa: $rsp 48 +
STACK CFI 5240d .cfa: $rsp 56 +
STACK CFI 5240f .cfa: $rsp 64 +
STACK CFI 52411 .cfa: $rsp 72 +
STACK CFI 52413 .cfa: $rsp 80 +
STACK CFI 52415 .cfa: $rsp 88 +
STACK CFI 52417 .cfa: $rsp 96 +
STACK CFI 52419 .cfa: $rsp 104 +
STACK CFI 5241b .cfa: $rsp 112 +
STACK CFI 5241d .cfa: $rsp 120 +
STACK CFI 5241f .cfa: $rsp 128 +
STACK CFI 52421 .cfa: $rsp 136 +
STACK CFI 52423 .cfa: $rsp 144 +
STACK CFI 52425 .cfa: $rsp 152 +
STACK CFI 52427 .cfa: $rsp 160 +
STACK CFI 5242e .cfa: $rsp 168 +
STACK CFI 52435 .cfa: $rsp 176 +
STACK CFI 52441 .cfa: $rsp 8 +
STACK CFI INIT 52442 41 .cfa: $rsp 8 + .ra: .cfa -8 + ^
STACK CFI 52446 .cfa: $rsp 24 +
STACK CFI 52448 .cfa: $rsp 32 +
STACK CFI 5244a .cfa: $rsp 40 +
STACK CFI 5244c .cfa: $rsp 48 +
STACK CFI 5244e .cfa: $rsp 56 +
STACK CFI 52450 .cfa: $rsp 64 +
STACK CFI 52452 .cfa: $rsp 72 +
STACK CFI 52454 .cfa: $rsp 80 +
STACK CFI 52456 .cfa: $rsp 88 +
STACK CFI 52458 .cfa: $rsp 96 +
STACK CFI 5245a .cfa: $rsp 104 +
STACK CFI 5245c .cfa: $rsp 112 +
STACK CFI 5245e .cfa: $rsp 120 +
STACK CFI 52460 .cfa: $rsp 128 +
STACK CFI 52462 .cfa: $rsp 136 +
STACK CFI 52464 .cfa: $rsp 144 +
STACK CFI 52466 .cfa: $rsp 152 +
STACK CFI 52468 .cfa: $rsp 160 +
STACK CFI 5246f .cfa: $rsp 168 +
STACK CFI 52476 .cfa: $rsp 176 +
STACK CFI 52482 .cfa: $rsp 8 +
STACK CFI INIT 52483 41 .cfa: $rsp 8 + .ra: .cfa -8 + ^
STACK CFI 52487 .cfa: $rsp 24 +
STACK CFI 52489 .cfa: $rsp 32 +
STACK CFI 5248b .cfa: $rsp 40 +
STACK CFI 5248d .cfa: $rsp 48 +
STACK CFI 5248f .cfa: $rsp 56 +
STACK CFI 52491 .cfa: $rsp 64 +
STACK CFI 52493 .cfa: $rsp 72 +
STACK CFI 52495 .cfa: $rsp 80 +
STACK CFI 52497 .cfa: $rsp 88 +
STACK CFI 52499 .cfa: $rsp 96 +
STACK CFI 5249b .cfa: $rsp 104 +
STACK CFI 5249d .cfa: $rsp 112 +
STACK CFI 5249f .cfa: $rsp 120 +
STACK CFI 524a1 .cfa: $rsp 128 +
STACK CFI 524a3 .cfa: $rsp 136 +
STACK CFI 524a5 .cfa: $rsp 144 +
STACK CFI 524a7 .cfa: $rsp 152 +
STACK CFI 524a9 .cfa: $rsp 160 +
STACK CFI 524b0 .cfa: $rsp 168 +
STACK CFI 524b7 .cfa: $rsp 176 +
STACK CFI 524c3 .cfa: $rsp 8 +
STACK CFI INIT 524c4 41 .cfa: $rsp 8 + .ra: .cfa -8 + ^
STACK CFI 524c8 .cfa: $rsp 24 +
STACK CFI 524ca .cfa: $rsp 32 +
STACK CFI 524cc .cfa: $rsp 40 +
STACK CFI 524ce .cfa: $rsp 48 +
STACK CFI 524d0 .cfa: $rsp 56 +
STACK CFI 524d2 .cfa: $rsp 64 +
STACK CFI 524d4 .cfa: $rsp 72 +
STACK CFI 524d6 .cfa: $rsp 80 +
STACK CFI 524d8 .cfa: $rsp 88 +
STACK CFI 524da .cfa: $rsp 96 +
STACK CFI 524dc .cfa: $rsp 104 +
STACK CFI 524de .cfa: $rsp 112 +
STACK CFI 524e0 .cfa: $rsp 120 +
STACK CFI 524e2 .cfa: $rsp 128 +
STACK CFI 524e4 .cfa: $rsp 136 +
STACK CFI 524e6 .cfa: $rsp 144 +
STACK CFI 524e8 .cfa: $rsp 152 +
STACK CFI 524ea .cfa: $rsp 160 +
STACK CFI 524f1 .cfa: $rsp 168 +
STACK CFI 524f8 .cfa: $rsp 176 +
STACK CFI 52504 .cfa: $rsp 8 +
STACK CFI INIT 52505 41 .cfa: $rsp 8 + .ra: .cfa -8 + ^
STACK CFI 52509 .cfa: $rsp 24 +
STACK CFI 5250b .cfa: $rsp 32 +
STACK CFI 5250d .cfa: $rsp 40 +
STACK CFI 5250f .cfa: $rsp 48 +
STACK CFI 52511 .cfa: $rsp 56 +
STACK CFI 52513 .cfa: $rsp 64 +
STACK CFI 52515 .cfa: $rsp 72 +
STACK CFI 52517 .cfa: $rsp 80 +
STACK CFI 52519 .cfa: $rsp 88 +
STACK CFI 5251b .cfa: $rsp 96 +
STACK CFI 5251d .cfa: $rsp 104 +
STACK CFI 5251f .cfa: $rsp 112 +
STACK CFI 52521 .cfa: $rsp 120 +
STACK CFI 52523 .cfa: $rsp 128 +
STACK CFI 52525 .cfa: $rsp 136 +
STACK CFI 52527 .cfa: $rsp 144 +
STACK CFI 52529 .cfa: $rsp 152 +
STACK CFI 5252b .cfa: $rsp 160 +
STACK CFI 52532 .cfa: $rsp 168 +
STACK CFI 52539 .cfa: $rsp 176 +
STACK CFI 52545 .cfa: $rsp 8 +
STACK CFI INIT 52546 41 .cfa: $rsp 8 + .ra: .cfa -8 + ^
STACK CFI 5254a .cfa: $rsp 24 +
STACK CFI 5254c .cfa: $rsp 32 +
STACK CFI 5254e .cfa: $rsp 40 +
STACK CFI 52550 .cfa: $rsp 48 +
STACK CFI 52552 .cfa: $rsp 56 +
STACK CFI 52554 .cfa: $rsp 64 +
STACK CFI 52556 .cfa: $rsp 72 +
STACK CFI 52558 .cfa: $rsp 80 +
STACK CFI 5255a .cfa: $rsp 88 +
STACK CFI 5255c .cfa: $rsp 96 +
STACK CFI 5255e .cfa: $rsp 104 +
STACK CFI 52560 .cfa: $rsp 112 +
STACK CFI 52562 .cfa: $rsp 120 +
STACK CFI 52564 .cfa: $rsp 128 +
STACK CFI 52566 .cfa: $rsp 136 +
STACK CFI 52568 .cfa: $rsp 144 +
STACK CFI 5256a .cfa: $rsp 152 +
STACK CFI 5256c .cfa: $rsp 160 +
STACK CFI 52573 .cfa: $rsp 168 +
STACK CFI 5257a .cfa: $rsp 176 +
STACK CFI 52586 .cfa: $rsp 8 +
STACK CFI INIT 52587 41 .cfa: $rsp 8 + .ra: .cfa -8 + ^
STACK CFI 5258b .cfa: $rsp 24 +
STACK CFI 5258d .cfa: $rsp 32 +
STACK CFI 5258f .cfa: $rsp 40 +
STACK CFI 52591 .cfa: $rsp 48 +
STACK CFI 52593 .cfa: $rsp 56 +
STACK CFI 52595 .cfa: $rsp 64 +
STACK CFI 52597 .cfa: $rsp 72 +
STACK CFI 52599 .cfa: $rsp 80 +
STACK CFI 5259b .cfa: $rsp 88 +
STACK CFI 5259d .cfa: $rsp 96 +
STACK CFI 5259f .cfa: $rsp 104 +
STACK CFI 525a1 .cfa: $rsp 112 +
STACK CFI 525a3 .cfa: $rsp 120 +
STACK CFI 525a5 .cfa: $rsp 128 +
STACK CFI 525a7 .cfa: $rsp 136 +
STACK CFI 525a9 .cfa: $rsp 144 +
STACK CFI 525ab .cfa: $rsp 152 +
STACK CFI 525ad .cfa: $rsp 160 +
STACK CFI 525b4 .cfa: $rsp 168 +
STACK CFI 525bb .cfa: $rsp 176 +
STACK CFI 525c7 .cfa: $rsp 8 +
STACK CFI INIT 525c8 41 .cfa: $rsp 8 + .ra: .cfa -8 + ^
STACK CFI 525cc .cfa: $rsp 24 +
STACK CFI 525ce .cfa: $rsp 32 +
STACK CFI 525d0 .cfa: $rsp 40 +
STACK CFI 525d2 .cfa: $rsp 48 +
STACK CFI 525d4 .cfa: $rsp 56 +
STACK CFI 525d6 .cfa: $rsp 64 +
STACK CFI 525d8 .cfa: $rsp 72 +
STACK CFI 525da .cfa: $rsp 80 +
STACK CFI 525dc .cfa: $rsp 88 +
STACK CFI 525de .cfa: $rsp 96 +
STACK CFI 525e0 .cfa: $rsp 104 +
STACK CFI 525e2 .cfa: $rsp 112 +
STACK CFI 525e4 .cfa: $rsp 120 +
STACK CFI 525e6 .cfa: $rsp 128 +
STACK CFI 525e8 .cfa: $rsp 136 +
STACK CFI 525ea .cfa: $rsp 144 +
STACK CFI 525ec .cfa: $rsp 152 +
STACK CFI 525ee .cfa: $rsp 160 +
STACK CFI 525f5 .cfa: $rsp 168 +
STACK CFI 525fc .cfa: $rsp 176 +
STACK CFI 52608 .cfa: $rsp 8 +
STACK CFI INIT 52609 41 .cfa: $rsp 8 + .ra: .cfa -8 + ^
STACK CFI 5260d .cfa: $rsp 24 +
STACK CFI 5260f .cfa: $rsp 32 +
STACK CFI 52611 .cfa: $rsp 40 +
STACK CFI 52613 .cfa: $rsp 48 +
STACK CFI 52615 .cfa: $rsp 56 +
STACK CFI 52617 .cfa: $rsp 64 +
STACK CFI 52619 .cfa: $rsp 72 +
STACK CFI 5261b .cfa: $rsp 80 +
STACK CFI 5261d .cfa: $rsp 88 +
STACK CFI 5261f .cfa: $rsp 96 +
STACK CFI 52621 .cfa: $rsp 104 +
STACK CFI 52623 .cfa: $rsp 112 +
STACK CFI 52625 .cfa: $rsp 120 +
STACK CFI 52627 .cfa: $rsp 128 +
STACK CFI 52629 .cfa: $rsp 136 +
STACK CFI 5262b .cfa: $rsp 144 +
STACK CFI 5262d .cfa: $rsp 152 +
STACK CFI 5262f .cfa: $rsp 160 +
STACK CFI 52636 .cfa: $rsp 168 +
STACK CFI 5263d .cfa: $rsp 176 +
STACK CFI 52649 .cfa: $rsp 8 +
STACK CFI INIT 5264a 41 .cfa: $rsp 8 + .ra: .cfa -8 + ^
STACK CFI 5264e .cfa: $rsp 24 +
STACK CFI 52650 .cfa: $rsp 32 +
STACK CFI 52652 .cfa: $rsp 40 +
STACK CFI 52654 .cfa: $rsp 48 +
STACK CFI 52656 .cfa: $rsp 56 +
STACK CFI 52658 .cfa: $rsp 64 +
STACK CFI 5265a .cfa: $rsp 72 +
STACK CFI 5265c .cfa: $rsp 80 +
STACK CFI 5265e .cfa: $rsp 88 +
STACK CFI 52660 .cfa: $rsp 96 +
STACK CFI 52662 .cfa: $rsp 104 +
STACK CFI 52664 .cfa: $rsp 112 +
STACK CFI 52666 .cfa: $rsp 120 +
STACK CFI 52668 .cfa: $rsp 128 +
STACK CFI 5266a .cfa: $rsp 136 +
STACK CFI 5266c .cfa: $rsp 144 +
STACK CFI 5266e .cfa: $rsp 152 +
STACK CFI 52670 .cfa: $rsp 160 +
STACK CFI 52677 .cfa: $rsp 168 +
STACK CFI 5267e .cfa: $rsp 176 +
STACK CFI 5268a .cfa: $rsp 8 +
STACK CFI INIT 5268b 41 .cfa: $rsp 8 + .ra: .cfa -8 + ^
STACK CFI 5268f .cfa: $rsp 24 +
STACK CFI 52691 .cfa: $rsp 32 +
STACK CFI 52693 .cfa: $rsp 40 +
STACK CFI 52695 .cfa: $rsp 48 +
STACK CFI 52697 .cfa: $rsp 56 +
STACK CFI 52699 .cfa: $rsp 64 +
STACK CFI 5269b .cfa: $rsp 72 +
STACK CFI 5269d .cfa: $rsp 80 +
STACK CFI 5269f .cfa: $rsp 88 +
STACK CFI 526a1 .cfa: $rsp 96 +
STACK CFI 526a3 .cfa: $rsp 104 +
STACK CFI 526a5 .cfa: $rsp 112 +
STACK CFI 526a7 .cfa: $rsp 120 +
STACK CFI 526a9 .cfa: $rsp 128 +
STACK CFI 526ab .cfa: $rsp 136 +
STACK CFI 526ad .cfa: $rsp 144 +
STACK CFI 526af .cfa: $rsp 152 +
STACK CFI 526b1 .cfa: $rsp 160 +
STACK CFI 526b8 .cfa: $rsp 168 +
STACK CFI 526bf .cfa: $rsp 176 +
STACK CFI 526cb .cfa: $rsp 8 +
STACK CFI INIT 526cc 41 .cfa: $rsp 8 + .ra: .cfa -8 + ^
STACK CFI 526d0 .cfa: $rsp 24 +
STACK CFI 526d2 .cfa: $rsp 32 +
STACK CFI 526d4 .cfa: $rsp 40 +
STACK CFI 526d6 .cfa: $rsp 48 +
STACK CFI 526d8 .cfa: $rsp 56 +
STACK CFI 526da .cfa: $rsp 64 +
STACK CFI 526dc .cfa: $rsp 72 +
STACK CFI 526de .cfa: $rsp 80 +
STACK CFI 526e0 .cfa: $rsp 88 +
STACK CFI 526e2 .cfa: $rsp 96 +
STACK CFI 526e4 .cfa: $rsp 104 +
STACK CFI 526e6 .cfa: $rsp 112 +
STACK CFI 526e8 .cfa: $rsp 120 +
STACK CFI 526ea .cfa: $rsp 128 +
STACK CFI 526ec .cfa: $rsp 136 +
STACK CFI 526ee .cfa: $rsp 144 +
STACK CFI 526f0 .cfa: $rsp 152 +
STACK CFI 526f2 .cfa: $rsp 160 +
STACK CFI 526f9 .cfa: $rsp 168 +
STACK CFI 52700 .cfa: $rsp 176 +
STACK CFI 5270c .cfa: $rsp 8 +
STACK CFI INIT 5270d 41 .cfa: $rsp 8 + .ra: .cfa -8 + ^
STACK CFI 52711 .cfa: $rsp 24 +
STACK CFI 52713 .cfa: $rsp 32 +
STACK CFI 52715 .cfa: $rsp 40 +
STACK CFI 52717 .cfa: $rsp 48 +
STACK CFI 52719 .cfa: $rsp 56 +
STACK CFI 5271b .cfa: $rsp 64 +
STACK CFI 5271d .cfa: $rsp 72 +
STACK CFI 5271f .cfa: $rsp 80 +
STACK CFI 52721 .cfa: $rsp 88 +
STACK CFI 52723 .cfa: $rsp 96 +
STACK CFI 52725 .cfa: $rsp 104 +
STACK CFI 52727 .cfa: $rsp 112 +
STACK CFI 52729 .cfa: $rsp 120 +
STACK CFI 5272b .cfa: $rsp 128 +
STACK CFI 5272d .cfa: $rsp 136 +
STACK CFI 5272f .cfa: $rsp 144 +
STACK CFI 52731 .cfa: $rsp 152 +
STACK CFI 52733 .cfa: $rsp 160 +
STACK CFI 5273a .cfa: $rsp 168 +
STACK CFI 52741 .cfa: $rsp 176 +
STACK CFI 5274d .cfa: $rsp 8 +
STACK CFI INIT 5274e 41 .cfa: $rsp 8 + .ra: .cfa -8 + ^
STACK CFI 52752 .cfa: $rsp 24 +
STACK CFI 52754 .cfa: $rsp 32 +
STACK CFI 52756 .cfa: $rsp 40 +
STACK CFI 52758 .cfa: $rsp 48 +
STACK CFI 5275a .cfa: $rsp 56 +
STACK CFI 5275c .cfa: $rsp 64 +
STACK CFI 5275e .cfa: $rsp 72 +
STACK CFI 52760 .cfa: $rsp 80 +
STACK CFI 52762 .cfa: $rsp 88 +
STACK CFI 52764 .cfa: $rsp 96 +
STACK CFI 52766 .cfa: $rsp 104 +
STACK CFI 52768 .cfa: $rsp 112 +
STACK CFI 5276a .cfa: $rsp 120 +
STACK CFI 5276c .cfa: $rsp 128 +
STACK CFI 5276e .cfa: $rsp 136 +
STACK CFI 52770 .cfa: $rsp 144 +
STACK CFI 52772 .cfa: $rsp 152 +
STACK CFI 52774 .cfa: $rsp 160 +
STACK CFI 5277b .cfa: $rsp 168 +
STACK CFI 52782 .cfa: $rsp 176 +
STACK CFI 5278e .cfa: $rsp 8 +
STACK CFI INIT 5278f 41 .cfa: $rsp 8 + .ra: .cfa -8 + ^
STACK CFI 52793 .cfa: $rsp 24 +
STACK CFI 52795 .cfa: $rsp 32 +
STACK CFI 52797 .cfa: $rsp 40 +
STACK CFI 52799 .cfa: $rsp 48 +
STACK CFI 5279b .cfa: $rsp 56 +
STACK CFI 5279d .cfa: $rsp 64 +
STACK CFI 5279f .cfa: $rsp 72 +
STACK CFI 527a1 .cfa: $rsp 80 +
STACK CFI 527a3 .cfa: $rsp 88 +
STACK CFI 527a5 .cfa: $rsp 96 +
STACK CFI 527a7 .cfa: $rsp 104 +
STACK CFI 527a9 .cfa: $rsp 112 +
STACK CFI 527ab .cfa: $rsp 120 +
STACK CFI 527ad .cfa: $rsp 128 +
STACK CFI 527af .cfa: $rsp 136 +
STACK CFI 527b1 .cfa: $rsp 144 +
STACK CFI 527b3 .cfa: $rsp 152 +
STACK CFI 527b5 .cfa: $rsp 160 +
STACK CFI 527bc .cfa: $rsp 168 +
STACK CFI 527c3 .cfa: $rsp 176 +
STACK CFI 527cf .cfa: $rsp 8 +
STACK CFI INIT 527d0 41 .cfa: $rsp 8 + .ra: .cfa -8 + ^
STACK CFI 527d4 .cfa: $rsp 24 +
STACK CFI 527d6 .cfa: $rsp 32 +
STACK CFI 527d8 .cfa: $rsp 40 +
STACK CFI 527da .cfa: $rsp 48 +
STACK CFI 527dc .cfa: $rsp 56 +
STACK CFI 527de .cfa: $rsp 64 +
STACK CFI 527e0 .cfa: $rsp 72 +
STACK CFI 527e2 .cfa: $rsp 80 +
STACK CFI 527e4 .cfa: $rsp 88 +
STACK CFI 527e6 .cfa: $rsp 96 +
STACK CFI 527e8 .cfa: $rsp 104 +
STACK CFI 527ea .cfa: $rsp 112 +
STACK CFI 527ec .cfa: $rsp 120 +
STACK CFI 527ee .cfa: $rsp 128 +
STACK CFI 527f0 .cfa: $rsp 136 +
STACK CFI 527f2 .cfa: $rsp 144 +
STACK CFI 527f4 .cfa: $rsp 152 +
STACK CFI 527f6 .cfa: $rsp 160 +
STACK CFI 527fd .cfa: $rsp 168 +
STACK CFI 52804 .cfa: $rsp 176 +
STACK CFI 52810 .cfa: $rsp 8 +
STACK CFI INIT 52811 41 .cfa: $rsp 8 + .ra: .cfa -8 + ^
STACK CFI 52815 .cfa: $rsp 24 +
STACK CFI 52817 .cfa: $rsp 32 +
STACK CFI 52819 .cfa: $rsp 40 +
STACK CFI 5281b .cfa: $rsp 48 +
STACK CFI 5281d .cfa: $rsp 56 +
STACK CFI 5281f .cfa: $rsp 64 +
STACK CFI 52821 .cfa: $rsp 72 +
STACK CFI 52823 .cfa: $rsp 80 +
STACK CFI 52825 .cfa: $rsp 88 +
STACK CFI 52827 .cfa: $rsp 96 +
STACK CFI 52829 .cfa: $rsp 104 +
STACK CFI 5282b .cfa: $rsp 112 +
STACK CFI 5282d .cfa: $rsp 120 +
STACK CFI 5282f .cfa: $rsp 128 +
STACK CFI 52831 .cfa: $rsp 136 +
STACK CFI 52833 .cfa: $rsp 144 +
STACK CFI 52835 .cfa: $rsp 152 +
STACK CFI 52837 .cfa: $rsp 160 +
STACK CFI 5283e .cfa: $rsp 168 +
STACK CFI 52845 .cfa: $rsp 176 +
STACK CFI 52851 .cfa: $rsp 8 +
STACK CFI INIT 52852 41 .cfa: $rsp 8 + .ra: .cfa -8 + ^
STACK CFI 52856 .cfa: $rsp 24 +
STACK CFI 52858 .cfa: $rsp 32 +
STACK CFI 5285a .cfa: $rsp 40 +
STACK CFI 5285c .cfa: $rsp 48 +
STACK CFI 5285e .cfa: $rsp 56 +
STACK CFI 52860 .cfa: $rsp 64 +
STACK CFI 52862 .cfa: $rsp 72 +
STACK CFI 52864 .cfa: $rsp 80 +
STACK CFI 52866 .cfa: $rsp 88 +
STACK CFI 52868 .cfa: $rsp 96 +
STACK CFI 5286a .cfa: $rsp 104 +
STACK CFI 5286c .cfa: $rsp 112 +
STACK CFI 5286e .cfa: $rsp 120 +
STACK CFI 52870 .cfa: $rsp 128 +
STACK CFI 52872 .cfa: $rsp 136 +
STACK CFI 52874 .cfa: $rsp 144 +
STACK CFI 52876 .cfa: $rsp 152 +
STACK CFI 52878 .cfa: $rsp 160 +
STACK CFI 5287f .cfa: $rsp 168 +
STACK CFI 52886 .cfa: $rsp 176 +
STACK CFI 52892 .cfa: $rsp 8 +
STACK CFI INIT 52893 41 .cfa: $rsp 8 + .ra: .cfa -8 + ^
STACK CFI 52897 .cfa: $rsp 24 +
STACK CFI 52899 .cfa: $rsp 32 +
STACK CFI 5289b .cfa: $rsp 40 +
STACK CFI 5289d .cfa: $rsp 48 +
STACK CFI 5289f .cfa: $rsp 56 +
STACK CFI 528a1 .cfa: $rsp 64 +
STACK CFI 528a3 .cfa: $rsp 72 +
STACK CFI 528a5 .cfa: $rsp 80 +
STACK CFI 528a7 .cfa: $rsp 88 +
STACK CFI 528a9 .cfa: $rsp 96 +
STACK CFI 528ab .cfa: $rsp 104 +
STACK CFI 528ad .cfa: $rsp 112 +
STACK CFI 528af .cfa: $rsp 120 +
STACK CFI 528b1 .cfa: $rsp 128 +
STACK CFI 528b3 .cfa: $rsp 136 +
STACK CFI 528b5 .cfa: $rsp 144 +
STACK CFI 528b7 .cfa: $rsp 152 +
STACK CFI 528b9 .cfa: $rsp 160 +
STACK CFI 528c0 .cfa: $rsp 168 +
STACK CFI 528c7 .cfa: $rsp 176 +
STACK CFI 528d3 .cfa: $rsp 8 +
STACK CFI INIT 528d4 41 .cfa: $rsp 8 + .ra: .cfa -8 + ^
STACK CFI 528d8 .cfa: $rsp 24 +
STACK CFI 528da .cfa: $rsp 32 +
STACK CFI 528dc .cfa: $rsp 40 +
STACK CFI 528de .cfa: $rsp 48 +
STACK CFI 528e0 .cfa: $rsp 56 +
STACK CFI 528e2 .cfa: $rsp 64 +
STACK CFI 528e4 .cfa: $rsp 72 +
STACK CFI 528e6 .cfa: $rsp 80 +
STACK CFI 528e8 .cfa: $rsp 88 +
STACK CFI 528ea .cfa: $rsp 96 +
STACK CFI 528ec .cfa: $rsp 104 +
STACK CFI 528ee .cfa: $rsp 112 +
STACK CFI 528f0 .cfa: $rsp 120 +
STACK CFI 528f2 .cfa: $rsp 128 +
STACK CFI 528f4 .cfa: $rsp 136 +
STACK CFI 528f6 .cfa: $rsp 144 +
STACK CFI 528f8 .cfa: $rsp 152 +
STACK CFI 528fa .cfa: $rsp 160 +
STACK CFI 52901 .cfa: $rsp 168 +
STACK CFI 52908 .cfa: $rsp 176 +
STACK CFI 52914 .cfa: $rsp 8 +
STACK CFI INIT 52915 41 .cfa: $rsp 8 + .ra: .cfa -8 + ^
STACK CFI 52919 .cfa: $rsp 24 +
STACK CFI 5291b .cfa: $rsp 32 +
STACK CFI 5291d .cfa: $rsp 40 +
STACK CFI 5291f .cfa: $rsp 48 +
STACK CFI 52921 .cfa: $rsp 56 +
STACK CFI 52923 .cfa: $rsp 64 +
STACK CFI 52925 .cfa: $rsp 72 +
STACK CFI 52927 .cfa: $rsp 80 +
STACK CFI 52929 .cfa: $rsp 88 +
STACK CFI 5292b .cfa: $rsp 96 +
STACK CFI 5292d .cfa: $rsp 104 +
STACK CFI 5292f .cfa: $rsp 112 +
STACK CFI 52931 .cfa: $rsp 120 +
STACK CFI 52933 .cfa: $rsp 128 +
STACK CFI 52935 .cfa: $rsp 136 +
STACK CFI 52937 .cfa: $rsp 144 +
STACK CFI 52939 .cfa: $rsp 152 +
STACK CFI 5293b .cfa: $rsp 160 +
STACK CFI 52942 .cfa: $rsp 168 +
STACK CFI 52949 .cfa: $rsp 176 +
STACK CFI 52955 .cfa: $rsp 8 +
STACK CFI INIT 52956 41 .cfa: $rsp 8 + .ra: .cfa -8 + ^
STACK CFI 5295a .cfa: $rsp 24 +
STACK CFI 5295c .cfa: $rsp 32 +
STACK CFI 5295e .cfa: $rsp 40 +
STACK CFI 52960 .cfa: $rsp 48 +
STACK CFI 52962 .cfa: $rsp 56 +
STACK CFI 52964 .cfa: $rsp 64 +
STACK CFI 52966 .cfa: $rsp 72 +
STACK CFI 52968 .cfa: $rsp 80 +
STACK CFI 5296a .cfa: $rsp 88 +
STACK CFI 5296c .cfa: $rsp 96 +
STACK CFI 5296e .cfa: $rsp 104 +
STACK CFI 52970 .cfa: $rsp 112 +
STACK CFI 52972 .cfa: $rsp 120 +
STACK CFI 52974 .cfa: $rsp 128 +
STACK CFI 52976 .cfa: $rsp 136 +
STACK CFI 52978 .cfa: $rsp 144 +
STACK CFI 5297a .cfa: $rsp 152 +
STACK CFI 5297c .cfa: $rsp 160 +
STACK CFI 52983 .cfa: $rsp 168 +
STACK CFI 5298a .cfa: $rsp 176 +
STACK CFI 52996 .cfa: $rsp 8 +
STACK CFI INIT 52997 41 .cfa: $rsp 8 + .ra: .cfa -8 + ^
STACK CFI 5299b .cfa: $rsp 24 +
STACK CFI 5299d .cfa: $rsp 32 +
STACK CFI 5299f .cfa: $rsp 40 +
STACK CFI 529a1 .cfa: $rsp 48 +
STACK CFI 529a3 .cfa: $rsp 56 +
STACK CFI 529a5 .cfa: $rsp 64 +
STACK CFI 529a7 .cfa: $rsp 72 +
STACK CFI 529a9 .cfa: $rsp 80 +
STACK CFI 529ab .cfa: $rsp 88 +
STACK CFI 529ad .cfa: $rsp 96 +
STACK CFI 529af .cfa: $rsp 104 +
STACK CFI 529b1 .cfa: $rsp 112 +
STACK CFI 529b3 .cfa: $rsp 120 +
STACK CFI 529b5 .cfa: $rsp 128 +
STACK CFI 529b7 .cfa: $rsp 136 +
STACK CFI 529b9 .cfa: $rsp 144 +
STACK CFI 529bb .cfa: $rsp 152 +
STACK CFI 529bd .cfa: $rsp 160 +
STACK CFI 529c4 .cfa: $rsp 168 +
STACK CFI 529cb .cfa: $rsp 176 +
STACK CFI 529d7 .cfa: $rsp 8 +
STACK CFI INIT 529d8 41 .cfa: $rsp 8 + .ra: .cfa -8 + ^
STACK CFI 529dc .cfa: $rsp 24 +
STACK CFI 529de .cfa: $rsp 32 +
STACK CFI 529e0 .cfa: $rsp 40 +
STACK CFI 529e2 .cfa: $rsp 48 +
STACK CFI 529e4 .cfa: $rsp 56 +
STACK CFI 529e6 .cfa: $rsp 64 +
STACK CFI 529e8 .cfa: $rsp 72 +
STACK CFI 529ea .cfa: $rsp 80 +
STACK CFI 529ec .cfa: $rsp 88 +
STACK CFI 529ee .cfa: $rsp 96 +
STACK CFI 529f0 .cfa: $rsp 104 +
STACK CFI 529f2 .cfa: $rsp 112 +
STACK CFI 529f4 .cfa: $rsp 120 +
STACK CFI 529f6 .cfa: $rsp 128 +
STACK CFI 529f8 .cfa: $rsp 136 +
STACK CFI 529fa .cfa: $rsp 144 +
STACK CFI 529fc .cfa: $rsp 152 +
STACK CFI 529fe .cfa: $rsp 160 +
STACK CFI 52a05 .cfa: $rsp 168 +
STACK CFI 52a0c .cfa: $rsp 176 +
STACK CFI 52a18 .cfa: $rsp 8 +
STACK CFI INIT 52a19 41 .cfa: $rsp 8 + .ra: .cfa -8 + ^
STACK CFI 52a1d .cfa: $rsp 24 +
STACK CFI 52a1f .cfa: $rsp 32 +
STACK CFI 52a21 .cfa: $rsp 40 +
STACK CFI 52a23 .cfa: $rsp 48 +
STACK CFI 52a25 .cfa: $rsp 56 +
STACK CFI 52a27 .cfa: $rsp 64 +
STACK CFI 52a29 .cfa: $rsp 72 +
STACK CFI 52a2b .cfa: $rsp 80 +
STACK CFI 52a2d .cfa: $rsp 88 +
STACK CFI 52a2f .cfa: $rsp 96 +
STACK CFI 52a31 .cfa: $rsp 104 +
STACK CFI 52a33 .cfa: $rsp 112 +
STACK CFI 52a35 .cfa: $rsp 120 +
STACK CFI 52a37 .cfa: $rsp 128 +
STACK CFI 52a39 .cfa: $rsp 136 +
STACK CFI 52a3b .cfa: $rsp 144 +
STACK CFI 52a3d .cfa: $rsp 152 +
STACK CFI 52a3f .cfa: $rsp 160 +
STACK CFI 52a46 .cfa: $rsp 168 +
STACK CFI 52a4d .cfa: $rsp 176 +
STACK CFI 52a59 .cfa: $rsp 8 +
STACK CFI INIT 52a5a 41 .cfa: $rsp 8 + .ra: .cfa -8 + ^
STACK CFI 52a5e .cfa: $rsp 24 +
STACK CFI 52a60 .cfa: $rsp 32 +
STACK CFI 52a62 .cfa: $rsp 40 +
STACK CFI 52a64 .cfa: $rsp 48 +
STACK CFI 52a66 .cfa: $rsp 56 +
STACK CFI 52a68 .cfa: $rsp 64 +
STACK CFI 52a6a .cfa: $rsp 72 +
STACK CFI 52a6c .cfa: $rsp 80 +
STACK CFI 52a6e .cfa: $rsp 88 +
STACK CFI 52a70 .cfa: $rsp 96 +
STACK CFI 52a72 .cfa: $rsp 104 +
STACK CFI 52a74 .cfa: $rsp 112 +
STACK CFI 52a76 .cfa: $rsp 120 +
STACK CFI 52a78 .cfa: $rsp 128 +
STACK CFI 52a7a .cfa: $rsp 136 +
STACK CFI 52a7c .cfa: $rsp 144 +
STACK CFI 52a7e .cfa: $rsp 152 +
STACK CFI 52a80 .cfa: $rsp 160 +
STACK CFI 52a87 .cfa: $rsp 168 +
STACK CFI 52a8e .cfa: $rsp 176 +
STACK CFI 52a9a .cfa: $rsp 8 +
STACK CFI INIT 52a9b 41 .cfa: $rsp 8 + .ra: .cfa -8 + ^
STACK CFI 52a9f .cfa: $rsp 24 +
STACK CFI 52aa1 .cfa: $rsp 32 +
STACK CFI 52aa3 .cfa: $rsp 40 +
STACK CFI 52aa5 .cfa: $rsp 48 +
STACK CFI 52aa7 .cfa: $rsp 56 +
STACK CFI 52aa9 .cfa: $rsp 64 +
STACK CFI 52aab .cfa: $rsp 72 +
STACK CFI 52aad .cfa: $rsp 80 +
STACK CFI 52aaf .cfa: $rsp 88 +
STACK CFI 52ab1 .cfa: $rsp 96 +
STACK CFI 52ab3 .cfa: $rsp 104 +
STACK CFI 52ab5 .cfa: $rsp 112 +
STACK CFI 52ab7 .cfa: $rsp 120 +
STACK CFI 52ab9 .cfa: $rsp 128 +
STACK CFI 52abb .cfa: $rsp 136 +
STACK CFI 52abd .cfa: $rsp 144 +
STACK CFI 52abf .cfa: $rsp 152 +
STACK CFI 52ac1 .cfa: $rsp 160 +
STACK CFI 52ac8 .cfa: $rsp 168 +
STACK CFI 52acf .cfa: $rsp 176 +
STACK CFI 52adb .cfa: $rsp 8 +
STACK CFI INIT 52adc 41 .cfa: $rsp 8 + .ra: .cfa -8 + ^
STACK CFI 52ae0 .cfa: $rsp 24 +
STACK CFI 52ae2 .cfa: $rsp 32 +
STACK CFI 52ae4 .cfa: $rsp 40 +
STACK CFI 52ae6 .cfa: $rsp 48 +
STACK CFI 52ae8 .cfa: $rsp 56 +
STACK CFI 52aea .cfa: $rsp 64 +
STACK CFI 52aec .cfa: $rsp 72 +
STACK CFI 52aee .cfa: $rsp 80 +
STACK CFI 52af0 .cfa: $rsp 88 +
STACK CFI 52af2 .cfa: $rsp 96 +
STACK CFI 52af4 .cfa: $rsp 104 +
STACK CFI 52af6 .cfa: $rsp 112 +
STACK CFI 52af8 .cfa: $rsp 120 +
STACK CFI 52afa .cfa: $rsp 128 +
STACK CFI 52afc .cfa: $rsp 136 +
STACK CFI 52afe .cfa: $rsp 144 +
STACK CFI 52b00 .cfa: $rsp 152 +
STACK CFI 52b02 .cfa: $rsp 160 +
STACK CFI 52b09 .cfa: $rsp 168 +
STACK CFI 52b10 .cfa: $rsp 176 +
STACK CFI 52b1c .cfa: $rsp 8 +
STACK CFI INIT 52b1d 41 .cfa: $rsp 8 + .ra: .cfa -8 + ^
STACK CFI 52b21 .cfa: $rsp 24 +
STACK CFI 52b23 .cfa: $rsp 32 +
STACK CFI 52b25 .cfa: $rsp 40 +
STACK CFI 52b27 .cfa: $rsp 48 +
STACK CFI 52b29 .cfa: $rsp 56 +
STACK CFI 52b2b .cfa: $rsp 64 +
STACK CFI 52b2d .cfa: $rsp 72 +
STACK CFI 52b2f .cfa: $rsp 80 +
STACK CFI 52b31 .cfa: $rsp 88 +
STACK CFI 52b33 .cfa: $rsp 96 +
STACK CFI 52b35 .cfa: $rsp 104 +
STACK CFI 52b37 .cfa: $rsp 112 +
STACK CFI 52b39 .cfa: $rsp 120 +
STACK CFI 52b3b .cfa: $rsp 128 +
STACK CFI 52b3d .cfa: $rsp 136 +
STACK CFI 52b3f .cfa: $rsp 144 +
STACK CFI 52b41 .cfa: $rsp 152 +
STACK CFI 52b43 .cfa: $rsp 160 +
STACK CFI 52b4a .cfa: $rsp 168 +
STACK CFI 52b51 .cfa: $rsp 176 +
STACK CFI 52b5d .cfa: $rsp 8 +
STACK CFI INIT 52b5e 41 .cfa: $rsp 8 + .ra: .cfa -8 + ^
STACK CFI 52b62 .cfa: $rsp 24 +
STACK CFI 52b64 .cfa: $rsp 32 +
STACK CFI 52b66 .cfa: $rsp 40 +
STACK CFI 52b68 .cfa: $rsp 48 +
STACK CFI 52b6a .cfa: $rsp 56 +
STACK CFI 52b6c .cfa: $rsp 64 +
STACK CFI 52b6e .cfa: $rsp 72 +
STACK CFI 52b70 .cfa: $rsp 80 +
STACK CFI 52b72 .cfa: $rsp 88 +
STACK CFI 52b74 .cfa: $rsp 96 +
STACK CFI 52b76 .cfa: $rsp 104 +
STACK CFI 52b78 .cfa: $rsp 112 +
STACK CFI 52b7a .cfa: $rsp 120 +
STACK CFI 52b7c .cfa: $rsp 128 +
STACK CFI 52b7e .cfa: $rsp 136 +
STACK CFI 52b80 .cfa: $rsp 144 +
STACK CFI 52b82 .cfa: $rsp 152 +
STACK CFI 52b84 .cfa: $rsp 160 +
STACK CFI 52b8b .cfa: $rsp 168 +
STACK CFI 52b92 .cfa: $rsp 176 +
STACK CFI 52b9e .cfa: $rsp 8 +
STACK CFI INIT 52b9f 41 .cfa: $rsp 8 + .ra: .cfa -8 + ^
STACK CFI 52ba3 .cfa: $rsp 24 +
STACK CFI 52ba5 .cfa: $rsp 32 +
STACK CFI 52ba7 .cfa: $rsp 40 +
STACK CFI 52ba9 .cfa: $rsp 48 +
STACK CFI 52bab .cfa: $rsp 56 +
STACK CFI 52bad .cfa: $rsp 64 +
STACK CFI 52baf .cfa: $rsp 72 +
STACK CFI 52bb1 .cfa: $rsp 80 +
STACK CFI 52bb3 .cfa: $rsp 88 +
STACK CFI 52bb5 .cfa: $rsp 96 +
STACK CFI 52bb7 .cfa: $rsp 104 +
STACK CFI 52bb9 .cfa: $rsp 112 +
STACK CFI 52bbb .cfa: $rsp 120 +
STACK CFI 52bbd .cfa: $rsp 128 +
STACK CFI 52bbf .cfa: $rsp 136 +
STACK CFI 52bc1 .cfa: $rsp 144 +
STACK CFI 52bc3 .cfa: $rsp 152 +
STACK CFI 52bc5 .cfa: $rsp 160 +
STACK CFI 52bcc .cfa: $rsp 168 +
STACK CFI 52bd3 .cfa: $rsp 176 +
STACK CFI 52bdf .cfa: $rsp 8 +
STACK CFI INIT 52be0 41 .cfa: $rsp 8 + .ra: .cfa -8 + ^
STACK CFI 52be4 .cfa: $rsp 24 +
STACK CFI 52be6 .cfa: $rsp 32 +
STACK CFI 52be8 .cfa: $rsp 40 +
STACK CFI 52bea .cfa: $rsp 48 +
STACK CFI 52bec .cfa: $rsp 56 +
STACK CFI 52bee .cfa: $rsp 64 +
STACK CFI 52bf0 .cfa: $rsp 72 +
STACK CFI 52bf2 .cfa: $rsp 80 +
STACK CFI 52bf4 .cfa: $rsp 88 +
STACK CFI 52bf6 .cfa: $rsp 96 +
STACK CFI 52bf8 .cfa: $rsp 104 +
STACK CFI 52bfa .cfa: $rsp 112 +
STACK CFI 52bfc .cfa: $rsp 120 +
STACK CFI 52bfe .cfa: $rsp 128 +
STACK CFI 52c00 .cfa: $rsp 136 +
STACK CFI 52c02 .cfa: $rsp 144 +
STACK CFI 52c04 .cfa: $rsp 152 +
STACK CFI 52c06 .cfa: $rsp 160 +
STACK CFI 52c0d .cfa: $rsp 168 +
STACK CFI 52c14 .cfa: $rsp 176 +
STACK CFI 52c20 .cfa: $rsp 8 +
STACK CFI INIT 52c21 41 .cfa: $rsp 8 + .ra: .cfa -8 + ^
STACK CFI 52c25 .cfa: $rsp 24 +
STACK CFI 52c27 .cfa: $rsp 32 +
STACK CFI 52c29 .cfa: $rsp 40 +
STACK CFI 52c2b .cfa: $rsp 48 +
STACK CFI 52c2d .cfa: $rsp 56 +
STACK CFI 52c2f .cfa: $rsp 64 +
STACK CFI 52c31 .cfa: $rsp 72 +
STACK CFI 52c33 .cfa: $rsp 80 +
STACK CFI 52c35 .cfa: $rsp 88 +
STACK CFI 52c37 .cfa: $rsp 96 +
STACK CFI 52c39 .cfa: $rsp 104 +
STACK CFI 52c3b .cfa: $rsp 112 +
STACK CFI 52c3d .cfa: $rsp 120 +
STACK CFI 52c3f .cfa: $rsp 128 +
STACK CFI 52c41 .cfa: $rsp 136 +
STACK CFI 52c43 .cfa: $rsp 144 +
STACK CFI 52c45 .cfa: $rsp 152 +
STACK CFI 52c47 .cfa: $rsp 160 +
STACK CFI 52c4e .cfa: $rsp 168 +
STACK CFI 52c55 .cfa: $rsp 176 +
STACK CFI 52c61 .cfa: $rsp 8 +
STACK CFI INIT 52c62 41 .cfa: $rsp 8 + .ra: .cfa -8 + ^
STACK CFI 52c66 .cfa: $rsp 24 +
STACK CFI 52c68 .cfa: $rsp 32 +
STACK CFI 52c6a .cfa: $rsp 40 +
STACK CFI 52c6c .cfa: $rsp 48 +
STACK CFI 52c6e .cfa: $rsp 56 +
STACK CFI 52c70 .cfa: $rsp 64 +
STACK CFI 52c72 .cfa: $rsp 72 +
STACK CFI 52c74 .cfa: $rsp 80 +
STACK CFI 52c76 .cfa: $rsp 88 +
STACK CFI 52c78 .cfa: $rsp 96 +
STACK CFI 52c7a .cfa: $rsp 104 +
STACK CFI 52c7c .cfa: $rsp 112 +
STACK CFI 52c7e .cfa: $rsp 120 +
STACK CFI 52c80 .cfa: $rsp 128 +
STACK CFI 52c82 .cfa: $rsp 136 +
STACK CFI 52c84 .cfa: $rsp 144 +
STACK CFI 52c86 .cfa: $rsp 152 +
STACK CFI 52c88 .cfa: $rsp 160 +
STACK CFI 52c8f .cfa: $rsp 168 +
STACK CFI 52c96 .cfa: $rsp 176 +
STACK CFI 52ca2 .cfa: $rsp 8 +
STACK CFI INIT 52ca3 41 .cfa: $rsp 8 + .ra: .cfa -8 + ^
STACK CFI 52ca7 .cfa: $rsp 24 +
STACK CFI 52ca9 .cfa: $rsp 32 +
STACK CFI 52cab .cfa: $rsp 40 +
STACK CFI 52cad .cfa: $rsp 48 +
STACK CFI 52caf .cfa: $rsp 56 +
STACK CFI 52cb1 .cfa: $rsp 64 +
STACK CFI 52cb3 .cfa: $rsp 72 +
STACK CFI 52cb5 .cfa: $rsp 80 +
STACK CFI 52cb7 .cfa: $rsp 88 +
STACK CFI 52cb9 .cfa: $rsp 96 +
STACK CFI 52cbb .cfa: $rsp 104 +
STACK CFI 52cbd .cfa: $rsp 112 +
STACK CFI 52cbf .cfa: $rsp 120 +
STACK CFI 52cc1 .cfa: $rsp 128 +
STACK CFI 52cc3 .cfa: $rsp 136 +
STACK CFI 52cc5 .cfa: $rsp 144 +
STACK CFI 52cc7 .cfa: $rsp 152 +
STACK CFI 52cc9 .cfa: $rsp 160 +
STACK CFI 52cd0 .cfa: $rsp 168 +
STACK CFI 52cd7 .cfa: $rsp 176 +
STACK CFI 52ce3 .cfa: $rsp 8 +
STACK CFI INIT 52ce4 41 .cfa: $rsp 8 + .ra: .cfa -8 + ^
STACK CFI 52ce8 .cfa: $rsp 24 +
STACK CFI 52cea .cfa: $rsp 32 +
STACK CFI 52cec .cfa: $rsp 40 +
STACK CFI 52cee .cfa: $rsp 48 +
STACK CFI 52cf0 .cfa: $rsp 56 +
STACK CFI 52cf2 .cfa: $rsp 64 +
STACK CFI 52cf4 .cfa: $rsp 72 +
STACK CFI 52cf6 .cfa: $rsp 80 +
STACK CFI 52cf8 .cfa: $rsp 88 +
STACK CFI 52cfa .cfa: $rsp 96 +
STACK CFI 52cfc .cfa: $rsp 104 +
STACK CFI 52cfe .cfa: $rsp 112 +
STACK CFI 52d00 .cfa: $rsp 120 +
STACK CFI 52d02 .cfa: $rsp 128 +
STACK CFI 52d04 .cfa: $rsp 136 +
STACK CFI 52d06 .cfa: $rsp 144 +
STACK CFI 52d08 .cfa: $rsp 152 +
STACK CFI 52d0a .cfa: $rsp 160 +
STACK CFI 52d11 .cfa: $rsp 168 +
STACK CFI 52d18 .cfa: $rsp 176 +
STACK CFI 52d24 .cfa: $rsp 8 +
STACK CFI INIT 52d25 41 .cfa: $rsp 8 + .ra: .cfa -8 + ^
STACK CFI 52d29 .cfa: $rsp 24 +
STACK CFI 52d2b .cfa: $rsp 32 +
STACK CFI 52d2d .cfa: $rsp 40 +
STACK CFI 52d2f .cfa: $rsp 48 +
STACK CFI 52d31 .cfa: $rsp 56 +
STACK CFI 52d33 .cfa: $rsp 64 +
STACK CFI 52d35 .cfa: $rsp 72 +
STACK CFI 52d37 .cfa: $rsp 80 +
STACK CFI 52d39 .cfa: $rsp 88 +
STACK CFI 52d3b .cfa: $rsp 96 +
STACK CFI 52d3d .cfa: $rsp 104 +
STACK CFI 52d3f .cfa: $rsp 112 +
STACK CFI 52d41 .cfa: $rsp 120 +
STACK CFI 52d43 .cfa: $rsp 128 +
STACK CFI 52d45 .cfa: $rsp 136 +
STACK CFI 52d47 .cfa: $rsp 144 +
STACK CFI 52d49 .cfa: $rsp 152 +
STACK CFI 52d4b .cfa: $rsp 160 +
STACK CFI 52d52 .cfa: $rsp 168 +
STACK CFI 52d59 .cfa: $rsp 176 +
STACK CFI 52d65 .cfa: $rsp 8 +
STACK CFI INIT 52d66 41 .cfa: $rsp 8 + .ra: .cfa -8 + ^
STACK CFI 52d6a .cfa: $rsp 24 +
STACK CFI 52d6c .cfa: $rsp 32 +
STACK CFI 52d6e .cfa: $rsp 40 +
STACK CFI 52d70 .cfa: $rsp 48 +
STACK CFI 52d72 .cfa: $rsp 56 +
STACK CFI 52d74 .cfa: $rsp 64 +
STACK CFI 52d76 .cfa: $rsp 72 +
STACK CFI 52d78 .cfa: $rsp 80 +
STACK CFI 52d7a .cfa: $rsp 88 +
STACK CFI 52d7c .cfa: $rsp 96 +
STACK CFI 52d7e .cfa: $rsp 104 +
STACK CFI 52d80 .cfa: $rsp 112 +
STACK CFI 52d82 .cfa: $rsp 120 +
STACK CFI 52d84 .cfa: $rsp 128 +
STACK CFI 52d86 .cfa: $rsp 136 +
STACK CFI 52d88 .cfa: $rsp 144 +
STACK CFI 52d8a .cfa: $rsp 152 +
STACK CFI 52d8c .cfa: $rsp 160 +
STACK CFI 52d93 .cfa: $rsp 168 +
STACK CFI 52d9a .cfa: $rsp 176 +
STACK CFI 52da6 .cfa: $rsp 8 +
STACK CFI INIT 52da7 41 .cfa: $rsp 8 + .ra: .cfa -8 + ^
STACK CFI 52dab .cfa: $rsp 24 +
STACK CFI 52dad .cfa: $rsp 32 +
STACK CFI 52daf .cfa: $rsp 40 +
STACK CFI 52db1 .cfa: $rsp 48 +
STACK CFI 52db3 .cfa: $rsp 56 +
STACK CFI 52db5 .cfa: $rsp 64 +
STACK CFI 52db7 .cfa: $rsp 72 +
STACK CFI 52db9 .cfa: $rsp 80 +
STACK CFI 52dbb .cfa: $rsp 88 +
STACK CFI 52dbd .cfa: $rsp 96 +
STACK CFI 52dbf .cfa: $rsp 104 +
STACK CFI 52dc1 .cfa: $rsp 112 +
STACK CFI 52dc3 .cfa: $rsp 120 +
STACK CFI 52dc5 .cfa: $rsp 128 +
STACK CFI 52dc7 .cfa: $rsp 136 +
STACK CFI 52dc9 .cfa: $rsp 144 +
STACK CFI 52dcb .cfa: $rsp 152 +
STACK CFI 52dcd .cfa: $rsp 160 +
STACK CFI 52dd4 .cfa: $rsp 168 +
STACK CFI 52ddb .cfa: $rsp 176 +
STACK CFI 52de7 .cfa: $rsp 8 +
STACK CFI INIT 52de8 41 .cfa: $rsp 8 + .ra: .cfa -8 + ^
STACK CFI 52dec .cfa: $rsp 24 +
STACK CFI 52dee .cfa: $rsp 32 +
STACK CFI 52df0 .cfa: $rsp 40 +
STACK CFI 52df2 .cfa: $rsp 48 +
STACK CFI 52df4 .cfa: $rsp 56 +
STACK CFI 52df6 .cfa: $rsp 64 +
STACK CFI 52df8 .cfa: $rsp 72 +
STACK CFI 52dfa .cfa: $rsp 80 +
STACK CFI 52dfc .cfa: $rsp 88 +
STACK CFI 52dfe .cfa: $rsp 96 +
STACK CFI 52e00 .cfa: $rsp 104 +
STACK CFI 52e02 .cfa: $rsp 112 +
STACK CFI 52e04 .cfa: $rsp 120 +
STACK CFI 52e06 .cfa: $rsp 128 +
STACK CFI 52e08 .cfa: $rsp 136 +
STACK CFI 52e0a .cfa: $rsp 144 +
STACK CFI 52e0c .cfa: $rsp 152 +
STACK CFI 52e0e .cfa: $rsp 160 +
STACK CFI 52e15 .cfa: $rsp 168 +
STACK CFI 52e1c .cfa: $rsp 176 +
STACK CFI 52e28 .cfa: $rsp 8 +
STACK CFI INIT 52e29 41 .cfa: $rsp 8 + .ra: .cfa -8 + ^
STACK CFI 52e2d .cfa: $rsp 24 +
STACK CFI 52e2f .cfa: $rsp 32 +
STACK CFI 52e31 .cfa: $rsp 40 +
STACK CFI 52e33 .cfa: $rsp 48 +
STACK CFI 52e35 .cfa: $rsp 56 +
STACK CFI 52e37 .cfa: $rsp 64 +
STACK CFI 52e39 .cfa: $rsp 72 +
STACK CFI 52e3b .cfa: $rsp 80 +
STACK CFI 52e3d .cfa: $rsp 88 +
STACK CFI 52e3f .cfa: $rsp 96 +
STACK CFI 52e41 .cfa: $rsp 104 +
STACK CFI 52e43 .cfa: $rsp 112 +
STACK CFI 52e45 .cfa: $rsp 120 +
STACK CFI 52e47 .cfa: $rsp 128 +
STACK CFI 52e49 .cfa: $rsp 136 +
STACK CFI 52e4b .cfa: $rsp 144 +
STACK CFI 52e4d .cfa: $rsp 152 +
STACK CFI 52e4f .cfa: $rsp 160 +
STACK CFI 52e56 .cfa: $rsp 168 +
STACK CFI 52e5d .cfa: $rsp 176 +
STACK CFI 52e69 .cfa: $rsp 8 +
STACK CFI INIT 52e6a 41 .cfa: $rsp 8 + .ra: .cfa -8 + ^
STACK CFI 52e6e .cfa: $rsp 24 +
STACK CFI 52e70 .cfa: $rsp 32 +
STACK CFI 52e72 .cfa: $rsp 40 +
STACK CFI 52e74 .cfa: $rsp 48 +
STACK CFI 52e76 .cfa: $rsp 56 +
STACK CFI 52e78 .cfa: $rsp 64 +
STACK CFI 52e7a .cfa: $rsp 72 +
STACK CFI 52e7c .cfa: $rsp 80 +
STACK CFI 52e7e .cfa: $rsp 88 +
STACK CFI 52e80 .cfa: $rsp 96 +
STACK CFI 52e82 .cfa: $rsp 104 +
STACK CFI 52e84 .cfa: $rsp 112 +
STACK CFI 52e86 .cfa: $rsp 120 +
STACK CFI 52e88 .cfa: $rsp 128 +
STACK CFI 52e8a .cfa: $rsp 136 +
STACK CFI 52e8c .cfa: $rsp 144 +
STACK CFI 52e8e .cfa: $rsp 152 +
STACK CFI 52e90 .cfa: $rsp 160 +
STACK CFI 52e97 .cfa: $rsp 168 +
STACK CFI 52e9e .cfa: $rsp 176 +
STACK CFI 52eaa .cfa: $rsp 8 +
STACK CFI INIT 52eab 41 .cfa: $rsp 8 + .ra: .cfa -8 + ^
STACK CFI 52eaf .cfa: $rsp 24 +
STACK CFI 52eb1 .cfa: $rsp 32 +
STACK CFI 52eb3 .cfa: $rsp 40 +
STACK CFI 52eb5 .cfa: $rsp 48 +
STACK CFI 52eb7 .cfa: $rsp 56 +
STACK CFI 52eb9 .cfa: $rsp 64 +
STACK CFI 52ebb .cfa: $rsp 72 +
STACK CFI 52ebd .cfa: $rsp 80 +
STACK CFI 52ebf .cfa: $rsp 88 +
STACK CFI 52ec1 .cfa: $rsp 96 +
STACK CFI 52ec3 .cfa: $rsp 104 +
STACK CFI 52ec5 .cfa: $rsp 112 +
STACK CFI 52ec7 .cfa: $rsp 120 +
STACK CFI 52ec9 .cfa: $rsp 128 +
STACK CFI 52ecb .cfa: $rsp 136 +
STACK CFI 52ecd .cfa: $rsp 144 +
STACK CFI 52ecf .cfa: $rsp 152 +
STACK CFI 52ed1 .cfa: $rsp 160 +
STACK CFI 52ed8 .cfa: $rsp 168 +
STACK CFI 52edf .cfa: $rsp 176 +
STACK CFI 52eeb .cfa: $rsp 8 +
STACK CFI INIT 52eec 41 .cfa: $rsp 8 + .ra: .cfa -8 + ^
STACK CFI 52ef0 .cfa: $rsp 24 +
STACK CFI 52ef2 .cfa: $rsp 32 +
STACK CFI 52ef4 .cfa: $rsp 40 +
STACK CFI 52ef6 .cfa: $rsp 48 +
STACK CFI 52ef8 .cfa: $rsp 56 +
STACK CFI 52efa .cfa: $rsp 64 +
STACK CFI 52efc .cfa: $rsp 72 +
STACK CFI 52efe .cfa: $rsp 80 +
STACK CFI 52f00 .cfa: $rsp 88 +
STACK CFI 52f02 .cfa: $rsp 96 +
STACK CFI 52f04 .cfa: $rsp 104 +
STACK CFI 52f06 .cfa: $rsp 112 +
STACK CFI 52f08 .cfa: $rsp 120 +
STACK CFI 52f0a .cfa: $rsp 128 +
STACK CFI 52f0c .cfa: $rsp 136 +
STACK CFI 52f0e .cfa: $rsp 144 +
STACK CFI 52f10 .cfa: $rsp 152 +
STACK CFI 52f12 .cfa: $rsp 160 +
STACK CFI 52f19 .cfa: $rsp 168 +
STACK CFI 52f20 .cfa: $rsp 176 +
STACK CFI 52f2c .cfa: $rsp 8 +
STACK CFI INIT 52f2d 41 .cfa: $rsp 8 + .ra: .cfa -8 + ^
STACK CFI 52f31 .cfa: $rsp 24 +
STACK CFI 52f33 .cfa: $rsp 32 +
STACK CFI 52f35 .cfa: $rsp 40 +
STACK CFI 52f37 .cfa: $rsp 48 +
STACK CFI 52f39 .cfa: $rsp 56 +
STACK CFI 52f3b .cfa: $rsp 64 +
STACK CFI 52f3d .cfa: $rsp 72 +
STACK CFI 52f3f .cfa: $rsp 80 +
STACK CFI 52f41 .cfa: $rsp 88 +
STACK CFI 52f43 .cfa: $rsp 96 +
STACK CFI 52f45 .cfa: $rsp 104 +
STACK CFI 52f47 .cfa: $rsp 112 +
STACK CFI 52f49 .cfa: $rsp 120 +
STACK CFI 52f4b .cfa: $rsp 128 +
STACK CFI 52f4d .cfa: $rsp 136 +
STACK CFI 52f4f .cfa: $rsp 144 +
STACK CFI 52f51 .cfa: $rsp 152 +
STACK CFI 52f53 .cfa: $rsp 160 +
STACK CFI 52f5a .cfa: $rsp 168 +
STACK CFI 52f61 .cfa: $rsp 176 +
STACK CFI 52f6d .cfa: $rsp 8 +
STACK CFI INIT 52f6e 41 .cfa: $rsp 8 + .ra: .cfa -8 + ^
STACK CFI 52f72 .cfa: $rsp 24 +
STACK CFI 52f74 .cfa: $rsp 32 +
STACK CFI 52f76 .cfa: $rsp 40 +
STACK CFI 52f78 .cfa: $rsp 48 +
STACK CFI 52f7a .cfa: $rsp 56 +
STACK CFI 52f7c .cfa: $rsp 64 +
STACK CFI 52f7e .cfa: $rsp 72 +
STACK CFI 52f80 .cfa: $rsp 80 +
STACK CFI 52f82 .cfa: $rsp 88 +
STACK CFI 52f84 .cfa: $rsp 96 +
STACK CFI 52f86 .cfa: $rsp 104 +
STACK CFI 52f88 .cfa: $rsp 112 +
STACK CFI 52f8a .cfa: $rsp 120 +
STACK CFI 52f8c .cfa: $rsp 128 +
STACK CFI 52f8e .cfa: $rsp 136 +
STACK CFI 52f90 .cfa: $rsp 144 +
STACK CFI 52f92 .cfa: $rsp 152 +
STACK CFI 52f94 .cfa: $rsp 160 +
STACK CFI 52f9b .cfa: $rsp 168 +
STACK CFI 52fa2 .cfa: $rsp 176 +
STACK CFI 52fae .cfa: $rsp 8 +
STACK CFI INIT 52faf 41 .cfa: $rsp 8 + .ra: .cfa -8 + ^
STACK CFI 52fb3 .cfa: $rsp 24 +
STACK CFI 52fb5 .cfa: $rsp 32 +
STACK CFI 52fb7 .cfa: $rsp 40 +
STACK CFI 52fb9 .cfa: $rsp 48 +
STACK CFI 52fbb .cfa: $rsp 56 +
STACK CFI 52fbd .cfa: $rsp 64 +
STACK CFI 52fbf .cfa: $rsp 72 +
STACK CFI 52fc1 .cfa: $rsp 80 +
STACK CFI 52fc3 .cfa: $rsp 88 +
STACK CFI 52fc5 .cfa: $rsp 96 +
STACK CFI 52fc7 .cfa: $rsp 104 +
STACK CFI 52fc9 .cfa: $rsp 112 +
STACK CFI 52fcb .cfa: $rsp 120 +
STACK CFI 52fcd .cfa: $rsp 128 +
STACK CFI 52fcf .cfa: $rsp 136 +
STACK CFI 52fd1 .cfa: $rsp 144 +
STACK CFI 52fd3 .cfa: $rsp 152 +
STACK CFI 52fd5 .cfa: $rsp 160 +
STACK CFI 52fdc .cfa: $rsp 168 +
STACK CFI 52fe3 .cfa: $rsp 176 +
STACK CFI 52fef .cfa: $rsp 8 +
STACK CFI INIT 52ff0 41 .cfa: $rsp 8 + .ra: .cfa -8 + ^
STACK CFI 52ff4 .cfa: $rsp 24 +
STACK CFI 52ff6 .cfa: $rsp 32 +
STACK CFI 52ff8 .cfa: $rsp 40 +
STACK CFI 52ffa .cfa: $rsp 48 +
STACK CFI 52ffc .cfa: $rsp 56 +
STACK CFI 52ffe .cfa: $rsp 64 +
STACK CFI 53000 .cfa: $rsp 72 +
STACK CFI 53002 .cfa: $rsp 80 +
STACK CFI 53004 .cfa: $rsp 88 +
STACK CFI 53006 .cfa: $rsp 96 +
STACK CFI 53008 .cfa: $rsp 104 +
STACK CFI 5300a .cfa: $rsp 112 +
STACK CFI 5300c .cfa: $rsp 120 +
STACK CFI 5300e .cfa: $rsp 128 +
STACK CFI 53010 .cfa: $rsp 136 +
STACK CFI 53012 .cfa: $rsp 144 +
STACK CFI 53014 .cfa: $rsp 152 +
STACK CFI 53016 .cfa: $rsp 160 +
STACK CFI 5301d .cfa: $rsp 168 +
STACK CFI 53024 .cfa: $rsp 176 +
STACK CFI 53030 .cfa: $rsp 8 +
STACK CFI INIT 53031 41 .cfa: $rsp 8 + .ra: .cfa -8 + ^
STACK CFI 53035 .cfa: $rsp 24 +
STACK CFI 53037 .cfa: $rsp 32 +
STACK CFI 53039 .cfa: $rsp 40 +
STACK CFI 5303b .cfa: $rsp 48 +
STACK CFI 5303d .cfa: $rsp 56 +
STACK CFI 5303f .cfa: $rsp 64 +
STACK CFI 53041 .cfa: $rsp 72 +
STACK CFI 53043 .cfa: $rsp 80 +
STACK CFI 53045 .cfa: $rsp 88 +
STACK CFI 53047 .cfa: $rsp 96 +
STACK CFI 53049 .cfa: $rsp 104 +
STACK CFI 5304b .cfa: $rsp 112 +
STACK CFI 5304d .cfa: $rsp 120 +
STACK CFI 5304f .cfa: $rsp 128 +
STACK CFI 53051 .cfa: $rsp 136 +
STACK CFI 53053 .cfa: $rsp 144 +
STACK CFI 53055 .cfa: $rsp 152 +
STACK CFI 53057 .cfa: $rsp 160 +
STACK CFI 5305e .cfa: $rsp 168 +
STACK CFI 53065 .cfa: $rsp 176 +
STACK CFI 53071 .cfa: $rsp 8 +
STACK CFI INIT 53072 41 .cfa: $rsp 8 + .ra: .cfa -8 + ^
STACK CFI 53076 .cfa: $rsp 24 +
STACK CFI 53078 .cfa: $rsp 32 +
STACK CFI 5307a .cfa: $rsp 40 +
STACK CFI 5307c .cfa: $rsp 48 +
STACK CFI 5307e .cfa: $rsp 56 +
STACK CFI 53080 .cfa: $rsp 64 +
STACK CFI 53082 .cfa: $rsp 72 +
STACK CFI 53084 .cfa: $rsp 80 +
STACK CFI 53086 .cfa: $rsp 88 +
STACK CFI 53088 .cfa: $rsp 96 +
STACK CFI 5308a .cfa: $rsp 104 +
STACK CFI 5308c .cfa: $rsp 112 +
STACK CFI 5308e .cfa: $rsp 120 +
STACK CFI 53090 .cfa: $rsp 128 +
STACK CFI 53092 .cfa: $rsp 136 +
STACK CFI 53094 .cfa: $rsp 144 +
STACK CFI 53096 .cfa: $rsp 152 +
STACK CFI 53098 .cfa: $rsp 160 +
STACK CFI 5309f .cfa: $rsp 168 +
STACK CFI 530a6 .cfa: $rsp 176 +
STACK CFI 530b2 .cfa: $rsp 8 +
STACK CFI INIT 530b3 41 .cfa: $rsp 8 + .ra: .cfa -8 + ^
STACK CFI 530b7 .cfa: $rsp 24 +
STACK CFI 530b9 .cfa: $rsp 32 +
STACK CFI 530bb .cfa: $rsp 40 +
STACK CFI 530bd .cfa: $rsp 48 +
STACK CFI 530bf .cfa: $rsp 56 +
STACK CFI 530c1 .cfa: $rsp 64 +
STACK CFI 530c3 .cfa: $rsp 72 +
STACK CFI 530c5 .cfa: $rsp 80 +
STACK CFI 530c7 .cfa: $rsp 88 +
STACK CFI 530c9 .cfa: $rsp 96 +
STACK CFI 530cb .cfa: $rsp 104 +
STACK CFI 530cd .cfa: $rsp 112 +
STACK CFI 530cf .cfa: $rsp 120 +
STACK CFI 530d1 .cfa: $rsp 128 +
STACK CFI 530d3 .cfa: $rsp 136 +
STACK CFI 530d5 .cfa: $rsp 144 +
STACK CFI 530d7 .cfa: $rsp 152 +
STACK CFI 530d9 .cfa: $rsp 160 +
STACK CFI 530e0 .cfa: $rsp 168 +
STACK CFI 530e7 .cfa: $rsp 176 +
STACK CFI 530f3 .cfa: $rsp 8 +
STACK CFI INIT 530f4 41 .cfa: $rsp 8 + .ra: .cfa -8 + ^
STACK CFI 530f8 .cfa: $rsp 24 +
STACK CFI 530fa .cfa: $rsp 32 +
STACK CFI 530fc .cfa: $rsp 40 +
STACK CFI 530fe .cfa: $rsp 48 +
STACK CFI 53100 .cfa: $rsp 56 +
STACK CFI 53102 .cfa: $rsp 64 +
STACK CFI 53104 .cfa: $rsp 72 +
STACK CFI 53106 .cfa: $rsp 80 +
STACK CFI 53108 .cfa: $rsp 88 +
STACK CFI 5310a .cfa: $rsp 96 +
STACK CFI 5310c .cfa: $rsp 104 +
STACK CFI 5310e .cfa: $rsp 112 +
STACK CFI 53110 .cfa: $rsp 120 +
STACK CFI 53112 .cfa: $rsp 128 +
STACK CFI 53114 .cfa: $rsp 136 +
STACK CFI 53116 .cfa: $rsp 144 +
STACK CFI 53118 .cfa: $rsp 152 +
STACK CFI 5311a .cfa: $rsp 160 +
STACK CFI 53121 .cfa: $rsp 168 +
STACK CFI 53128 .cfa: $rsp 176 +
STACK CFI 53134 .cfa: $rsp 8 +
STACK CFI INIT 53135 41 .cfa: $rsp 8 + .ra: .cfa -8 + ^
STACK CFI 53139 .cfa: $rsp 24 +
STACK CFI 5313b .cfa: $rsp 32 +
STACK CFI 5313d .cfa: $rsp 40 +
STACK CFI 5313f .cfa: $rsp 48 +
STACK CFI 53141 .cfa: $rsp 56 +
STACK CFI 53143 .cfa: $rsp 64 +
STACK CFI 53145 .cfa: $rsp 72 +
STACK CFI 53147 .cfa: $rsp 80 +
STACK CFI 53149 .cfa: $rsp 88 +
STACK CFI 5314b .cfa: $rsp 96 +
STACK CFI 5314d .cfa: $rsp 104 +
STACK CFI 5314f .cfa: $rsp 112 +
STACK CFI 53151 .cfa: $rsp 120 +
STACK CFI 53153 .cfa: $rsp 128 +
STACK CFI 53155 .cfa: $rsp 136 +
STACK CFI 53157 .cfa: $rsp 144 +
STACK CFI 53159 .cfa: $rsp 152 +
STACK CFI 5315b .cfa: $rsp 160 +
STACK CFI 53162 .cfa: $rsp 168 +
STACK CFI 53169 .cfa: $rsp 176 +
STACK CFI 53175 .cfa: $rsp 8 +
STACK CFI INIT 53176 41 .cfa: $rsp 8 + .ra: .cfa -8 + ^
STACK CFI 5317a .cfa: $rsp 24 +
STACK CFI 5317c .cfa: $rsp 32 +
STACK CFI 5317e .cfa: $rsp 40 +
STACK CFI 53180 .cfa: $rsp 48 +
STACK CFI 53182 .cfa: $rsp 56 +
STACK CFI 53184 .cfa: $rsp 64 +
STACK CFI 53186 .cfa: $rsp 72 +
STACK CFI 53188 .cfa: $rsp 80 +
STACK CFI 5318a .cfa: $rsp 88 +
STACK CFI 5318c .cfa: $rsp 96 +
STACK CFI 5318e .cfa: $rsp 104 +
STACK CFI 53190 .cfa: $rsp 112 +
STACK CFI 53192 .cfa: $rsp 120 +
STACK CFI 53194 .cfa: $rsp 128 +
STACK CFI 53196 .cfa: $rsp 136 +
STACK CFI 53198 .cfa: $rsp 144 +
STACK CFI 5319a .cfa: $rsp 152 +
STACK CFI 5319c .cfa: $rsp 160 +
STACK CFI 531a3 .cfa: $rsp 168 +
STACK CFI 531aa .cfa: $rsp 176 +
STACK CFI 531b6 .cfa: $rsp 8 +
STACK CFI INIT 531b7 41 .cfa: $rsp 8 + .ra: .cfa -8 + ^
STACK CFI 531bb .cfa: $rsp 24 +
STACK CFI 531bd .cfa: $rsp 32 +
STACK CFI 531bf .cfa: $rsp 40 +
STACK CFI 531c1 .cfa: $rsp 48 +
STACK CFI 531c3 .cfa: $rsp 56 +
STACK CFI 531c5 .cfa: $rsp 64 +
STACK CFI 531c7 .cfa: $rsp 72 +
STACK CFI 531c9 .cfa: $rsp 80 +
STACK CFI 531cb .cfa: $rsp 88 +
STACK CFI 531cd .cfa: $rsp 96 +
STACK CFI 531cf .cfa: $rsp 104 +
STACK CFI 531d1 .cfa: $rsp 112 +
STACK CFI 531d3 .cfa: $rsp 120 +
STACK CFI 531d5 .cfa: $rsp 128 +
STACK CFI 531d7 .cfa: $rsp 136 +
STACK CFI 531d9 .cfa: $rsp 144 +
STACK CFI 531db .cfa: $rsp 152 +
STACK CFI 531dd .cfa: $rsp 160 +
STACK CFI 531e4 .cfa: $rsp 168 +
STACK CFI 531eb .cfa: $rsp 176 +
STACK CFI 531f7 .cfa: $rsp 8 +
STACK CFI INIT 531f8 41 .cfa: $rsp 8 + .ra: .cfa -8 + ^
STACK CFI 531fc .cfa: $rsp 24 +
STACK CFI 531fe .cfa: $rsp 32 +
STACK CFI 53200 .cfa: $rsp 40 +
STACK CFI 53202 .cfa: $rsp 48 +
STACK CFI 53204 .cfa: $rsp 56 +
STACK CFI 53206 .cfa: $rsp 64 +
STACK CFI 53208 .cfa: $rsp 72 +
STACK CFI 5320a .cfa: $rsp 80 +
STACK CFI 5320c .cfa: $rsp 88 +
STACK CFI 5320e .cfa: $rsp 96 +
STACK CFI 53210 .cfa: $rsp 104 +
STACK CFI 53212 .cfa: $rsp 112 +
STACK CFI 53214 .cfa: $rsp 120 +
STACK CFI 53216 .cfa: $rsp 128 +
STACK CFI 53218 .cfa: $rsp 136 +
STACK CFI 5321a .cfa: $rsp 144 +
STACK CFI 5321c .cfa: $rsp 152 +
STACK CFI 5321e .cfa: $rsp 160 +
STACK CFI 53225 .cfa: $rsp 168 +
STACK CFI 5322c .cfa: $rsp 176 +
STACK CFI 53238 .cfa: $rsp 8 +
STACK CFI INIT 53239 41 .cfa: $rsp 8 + .ra: .cfa -8 + ^
STACK CFI 5323d .cfa: $rsp 24 +
STACK CFI 5323f .cfa: $rsp 32 +
STACK CFI 53241 .cfa: $rsp 40 +
STACK CFI 53243 .cfa: $rsp 48 +
STACK CFI 53245 .cfa: $rsp 56 +
STACK CFI 53247 .cfa: $rsp 64 +
STACK CFI 53249 .cfa: $rsp 72 +
STACK CFI 5324b .cfa: $rsp 80 +
STACK CFI 5324d .cfa: $rsp 88 +
STACK CFI 5324f .cfa: $rsp 96 +
STACK CFI 53251 .cfa: $rsp 104 +
STACK CFI 53253 .cfa: $rsp 112 +
STACK CFI 53255 .cfa: $rsp 120 +
STACK CFI 53257 .cfa: $rsp 128 +
STACK CFI 53259 .cfa: $rsp 136 +
STACK CFI 5325b .cfa: $rsp 144 +
STACK CFI 5325d .cfa: $rsp 152 +
STACK CFI 5325f .cfa: $rsp 160 +
STACK CFI 53266 .cfa: $rsp 168 +
STACK CFI 5326d .cfa: $rsp 176 +
STACK CFI 53279 .cfa: $rsp 8 +
STACK CFI INIT 5327a 41 .cfa: $rsp 8 + .ra: .cfa -8 + ^
STACK CFI 5327e .cfa: $rsp 24 +
STACK CFI 53280 .cfa: $rsp 32 +
STACK CFI 53282 .cfa: $rsp 40 +
STACK CFI 53284 .cfa: $rsp 48 +
STACK CFI 53286 .cfa: $rsp 56 +
STACK CFI 53288 .cfa: $rsp 64 +
STACK CFI 5328a .cfa: $rsp 72 +
STACK CFI 5328c .cfa: $rsp 80 +
STACK CFI 5328e .cfa: $rsp 88 +
STACK CFI 53290 .cfa: $rsp 96 +
STACK CFI 53292 .cfa: $rsp 104 +
STACK CFI 53294 .cfa: $rsp 112 +
STACK CFI 53296 .cfa: $rsp 120 +
STACK CFI 53298 .cfa: $rsp 128 +
STACK CFI 5329a .cfa: $rsp 136 +
STACK CFI 5329c .cfa: $rsp 144 +
STACK CFI 5329e .cfa: $rsp 152 +
STACK CFI 532a0 .cfa: $rsp 160 +
STACK CFI 532a7 .cfa: $rsp 168 +
STACK CFI 532ae .cfa: $rsp 176 +
STACK CFI 532ba .cfa: $rsp 8 +
STACK CFI INIT 532bb 41 .cfa: $rsp 8 + .ra: .cfa -8 + ^
STACK CFI 532bf .cfa: $rsp 24 +
STACK CFI 532c1 .cfa: $rsp 32 +
STACK CFI 532c3 .cfa: $rsp 40 +
STACK CFI 532c5 .cfa: $rsp 48 +
STACK CFI 532c7 .cfa: $rsp 56 +
STACK CFI 532c9 .cfa: $rsp 64 +
STACK CFI 532cb .cfa: $rsp 72 +
STACK CFI 532cd .cfa: $rsp 80 +
STACK CFI 532cf .cfa: $rsp 88 +
STACK CFI 532d1 .cfa: $rsp 96 +
STACK CFI 532d3 .cfa: $rsp 104 +
STACK CFI 532d5 .cfa: $rsp 112 +
STACK CFI 532d7 .cfa: $rsp 120 +
STACK CFI 532d9 .cfa: $rsp 128 +
STACK CFI 532db .cfa: $rsp 136 +
STACK CFI 532dd .cfa: $rsp 144 +
STACK CFI 532df .cfa: $rsp 152 +
STACK CFI 532e1 .cfa: $rsp 160 +
STACK CFI 532e8 .cfa: $rsp 168 +
STACK CFI 532ef .cfa: $rsp 176 +
STACK CFI 532fb .cfa: $rsp 8 +
STACK CFI INIT 532fc 41 .cfa: $rsp 8 + .ra: .cfa -8 + ^
STACK CFI 53300 .cfa: $rsp 24 +
STACK CFI 53302 .cfa: $rsp 32 +
STACK CFI 53304 .cfa: $rsp 40 +
STACK CFI 53306 .cfa: $rsp 48 +
STACK CFI 53308 .cfa: $rsp 56 +
STACK CFI 5330a .cfa: $rsp 64 +
STACK CFI 5330c .cfa: $rsp 72 +
STACK CFI 5330e .cfa: $rsp 80 +
STACK CFI 53310 .cfa: $rsp 88 +
STACK CFI 53312 .cfa: $rsp 96 +
STACK CFI 53314 .cfa: $rsp 104 +
STACK CFI 53316 .cfa: $rsp 112 +
STACK CFI 53318 .cfa: $rsp 120 +
STACK CFI 5331a .cfa: $rsp 128 +
STACK CFI 5331c .cfa: $rsp 136 +
STACK CFI 5331e .cfa: $rsp 144 +
STACK CFI 53320 .cfa: $rsp 152 +
STACK CFI 53322 .cfa: $rsp 160 +
STACK CFI 53329 .cfa: $rsp 168 +
STACK CFI 53330 .cfa: $rsp 176 +
STACK CFI 5333c .cfa: $rsp 8 +
STACK CFI INIT 5333d 41 .cfa: $rsp 8 + .ra: .cfa -8 + ^
STACK CFI 53341 .cfa: $rsp 24 +
STACK CFI 53343 .cfa: $rsp 32 +
STACK CFI 53345 .cfa: $rsp 40 +
STACK CFI 53347 .cfa: $rsp 48 +
STACK CFI 53349 .cfa: $rsp 56 +
STACK CFI 5334b .cfa: $rsp 64 +
STACK CFI 5334d .cfa: $rsp 72 +
STACK CFI 5334f .cfa: $rsp 80 +
STACK CFI 53351 .cfa: $rsp 88 +
STACK CFI 53353 .cfa: $rsp 96 +
STACK CFI 53355 .cfa: $rsp 104 +
STACK CFI 53357 .cfa: $rsp 112 +
STACK CFI 53359 .cfa: $rsp 120 +
STACK CFI 5335b .cfa: $rsp 128 +
STACK CFI 5335d .cfa: $rsp 136 +
STACK CFI 5335f .cfa: $rsp 144 +
STACK CFI 53361 .cfa: $rsp 152 +
STACK CFI 53363 .cfa: $rsp 160 +
STACK CFI 5336a .cfa: $rsp 168 +
STACK CFI 53371 .cfa: $rsp 176 +
STACK CFI 5337d .cfa: $rsp 8 +
STACK CFI INIT 5337e 41 .cfa: $rsp 8 + .ra: .cfa -8 + ^
STACK CFI 53382 .cfa: $rsp 24 +
STACK CFI 53384 .cfa: $rsp 32 +
STACK CFI 53386 .cfa: $rsp 40 +
STACK CFI 53388 .cfa: $rsp 48 +
STACK CFI 5338a .cfa: $rsp 56 +
STACK CFI 5338c .cfa: $rsp 64 +
STACK CFI 5338e .cfa: $rsp 72 +
STACK CFI 53390 .cfa: $rsp 80 +
STACK CFI 53392 .cfa: $rsp 88 +
STACK CFI 53394 .cfa: $rsp 96 +
STACK CFI 53396 .cfa: $rsp 104 +
STACK CFI 53398 .cfa: $rsp 112 +
STACK CFI 5339a .cfa: $rsp 120 +
STACK CFI 5339c .cfa: $rsp 128 +
STACK CFI 5339e .cfa: $rsp 136 +
STACK CFI 533a0 .cfa: $rsp 144 +
STACK CFI 533a2 .cfa: $rsp 152 +
STACK CFI 533a4 .cfa: $rsp 160 +
STACK CFI 533ab .cfa: $rsp 168 +
STACK CFI 533b2 .cfa: $rsp 176 +
STACK CFI 533be .cfa: $rsp 8 +
STACK CFI INIT 533bf 41 .cfa: $rsp 8 + .ra: .cfa -8 + ^
STACK CFI 533c3 .cfa: $rsp 24 +
STACK CFI 533c5 .cfa: $rsp 32 +
STACK CFI 533c7 .cfa: $rsp 40 +
STACK CFI 533c9 .cfa: $rsp 48 +
STACK CFI 533cb .cfa: $rsp 56 +
STACK CFI 533cd .cfa: $rsp 64 +
STACK CFI 533cf .cfa: $rsp 72 +
STACK CFI 533d1 .cfa: $rsp 80 +
STACK CFI 533d3 .cfa: $rsp 88 +
STACK CFI 533d5 .cfa: $rsp 96 +
STACK CFI 533d7 .cfa: $rsp 104 +
STACK CFI 533d9 .cfa: $rsp 112 +
STACK CFI 533db .cfa: $rsp 120 +
STACK CFI 533dd .cfa: $rsp 128 +
STACK CFI 533df .cfa: $rsp 136 +
STACK CFI 533e1 .cfa: $rsp 144 +
STACK CFI 533e3 .cfa: $rsp 152 +
STACK CFI 533e5 .cfa: $rsp 160 +
STACK CFI 533ec .cfa: $rsp 168 +
STACK CFI 533f3 .cfa: $rsp 176 +
STACK CFI 533ff .cfa: $rsp 8 +
STACK CFI INIT 53400 41 .cfa: $rsp 8 + .ra: .cfa -8 + ^
STACK CFI 53404 .cfa: $rsp 24 +
STACK CFI 53406 .cfa: $rsp 32 +
STACK CFI 53408 .cfa: $rsp 40 +
STACK CFI 5340a .cfa: $rsp 48 +
STACK CFI 5340c .cfa: $rsp 56 +
STACK CFI 5340e .cfa: $rsp 64 +
STACK CFI 53410 .cfa: $rsp 72 +
STACK CFI 53412 .cfa: $rsp 80 +
STACK CFI 53414 .cfa: $rsp 88 +
STACK CFI 53416 .cfa: $rsp 96 +
STACK CFI 53418 .cfa: $rsp 104 +
STACK CFI 5341a .cfa: $rsp 112 +
STACK CFI 5341c .cfa: $rsp 120 +
STACK CFI 5341e .cfa: $rsp 128 +
STACK CFI 53420 .cfa: $rsp 136 +
STACK CFI 53422 .cfa: $rsp 144 +
STACK CFI 53424 .cfa: $rsp 152 +
STACK CFI 53426 .cfa: $rsp 160 +
STACK CFI 5342d .cfa: $rsp 168 +
STACK CFI 53434 .cfa: $rsp 176 +
STACK CFI 53440 .cfa: $rsp 8 +
STACK CFI INIT 53441 41 .cfa: $rsp 8 + .ra: .cfa -8 + ^
STACK CFI 53445 .cfa: $rsp 24 +
STACK CFI 53447 .cfa: $rsp 32 +
STACK CFI 53449 .cfa: $rsp 40 +
STACK CFI 5344b .cfa: $rsp 48 +
STACK CFI 5344d .cfa: $rsp 56 +
STACK CFI 5344f .cfa: $rsp 64 +
STACK CFI 53451 .cfa: $rsp 72 +
STACK CFI 53453 .cfa: $rsp 80 +
STACK CFI 53455 .cfa: $rsp 88 +
STACK CFI 53457 .cfa: $rsp 96 +
STACK CFI 53459 .cfa: $rsp 104 +
STACK CFI 5345b .cfa: $rsp 112 +
STACK CFI 5345d .cfa: $rsp 120 +
STACK CFI 5345f .cfa: $rsp 128 +
STACK CFI 53461 .cfa: $rsp 136 +
STACK CFI 53463 .cfa: $rsp 144 +
STACK CFI 53465 .cfa: $rsp 152 +
STACK CFI 53467 .cfa: $rsp 160 +
STACK CFI 5346e .cfa: $rsp 168 +
STACK CFI 53475 .cfa: $rsp 176 +
STACK CFI 53481 .cfa: $rsp 8 +
STACK CFI INIT 53482 41 .cfa: $rsp 8 + .ra: .cfa -8 + ^
STACK CFI 53486 .cfa: $rsp 24 +
STACK CFI 53488 .cfa: $rsp 32 +
STACK CFI 5348a .cfa: $rsp 40 +
STACK CFI 5348c .cfa: $rsp 48 +
STACK CFI 5348e .cfa: $rsp 56 +
STACK CFI 53490 .cfa: $rsp 64 +
STACK CFI 53492 .cfa: $rsp 72 +
STACK CFI 53494 .cfa: $rsp 80 +
STACK CFI 53496 .cfa: $rsp 88 +
STACK CFI 53498 .cfa: $rsp 96 +
STACK CFI 5349a .cfa: $rsp 104 +
STACK CFI 5349c .cfa: $rsp 112 +
STACK CFI 5349e .cfa: $rsp 120 +
STACK CFI 534a0 .cfa: $rsp 128 +
STACK CFI 534a2 .cfa: $rsp 136 +
STACK CFI 534a4 .cfa: $rsp 144 +
STACK CFI 534a6 .cfa: $rsp 152 +
STACK CFI 534a8 .cfa: $rsp 160 +
STACK CFI 534af .cfa: $rsp 168 +
STACK CFI 534b6 .cfa: $rsp 176 +
STACK CFI 534c2 .cfa: $rsp 8 +
STACK CFI INIT 534c3 41 .cfa: $rsp 8 + .ra: .cfa -8 + ^
STACK CFI 534c7 .cfa: $rsp 24 +
STACK CFI 534c9 .cfa: $rsp 32 +
STACK CFI 534cb .cfa: $rsp 40 +
STACK CFI 534cd .cfa: $rsp 48 +
STACK CFI 534cf .cfa: $rsp 56 +
STACK CFI 534d1 .cfa: $rsp 64 +
STACK CFI 534d3 .cfa: $rsp 72 +
STACK CFI 534d5 .cfa: $rsp 80 +
STACK CFI 534d7 .cfa: $rsp 88 +
STACK CFI 534d9 .cfa: $rsp 96 +
STACK CFI 534db .cfa: $rsp 104 +
STACK CFI 534dd .cfa: $rsp 112 +
STACK CFI 534df .cfa: $rsp 120 +
STACK CFI 534e1 .cfa: $rsp 128 +
STACK CFI 534e3 .cfa: $rsp 136 +
STACK CFI 534e5 .cfa: $rsp 144 +
STACK CFI 534e7 .cfa: $rsp 152 +
STACK CFI 534e9 .cfa: $rsp 160 +
STACK CFI 534f0 .cfa: $rsp 168 +
STACK CFI 534f7 .cfa: $rsp 176 +
STACK CFI 53503 .cfa: $rsp 8 +
STACK CFI INIT 53504 41 .cfa: $rsp 8 + .ra: .cfa -8 + ^
STACK CFI 53508 .cfa: $rsp 24 +
STACK CFI 5350a .cfa: $rsp 32 +
STACK CFI 5350c .cfa: $rsp 40 +
STACK CFI 5350e .cfa: $rsp 48 +
STACK CFI 53510 .cfa: $rsp 56 +
STACK CFI 53512 .cfa: $rsp 64 +
STACK CFI 53514 .cfa: $rsp 72 +
STACK CFI 53516 .cfa: $rsp 80 +
STACK CFI 53518 .cfa: $rsp 88 +
STACK CFI 5351a .cfa: $rsp 96 +
STACK CFI 5351c .cfa: $rsp 104 +
STACK CFI 5351e .cfa: $rsp 112 +
STACK CFI 53520 .cfa: $rsp 120 +
STACK CFI 53522 .cfa: $rsp 128 +
STACK CFI 53524 .cfa: $rsp 136 +
STACK CFI 53526 .cfa: $rsp 144 +
STACK CFI 53528 .cfa: $rsp 152 +
STACK CFI 5352a .cfa: $rsp 160 +
STACK CFI 53531 .cfa: $rsp 168 +
STACK CFI 53538 .cfa: $rsp 176 +
STACK CFI 53544 .cfa: $rsp 8 +
STACK CFI INIT 53545 41 .cfa: $rsp 8 + .ra: .cfa -8 + ^
STACK CFI 53549 .cfa: $rsp 24 +
STACK CFI 5354b .cfa: $rsp 32 +
STACK CFI 5354d .cfa: $rsp 40 +
STACK CFI 5354f .cfa: $rsp 48 +
STACK CFI 53551 .cfa: $rsp 56 +
STACK CFI 53553 .cfa: $rsp 64 +
STACK CFI 53555 .cfa: $rsp 72 +
STACK CFI 53557 .cfa: $rsp 80 +
STACK CFI 53559 .cfa: $rsp 88 +
STACK CFI 5355b .cfa: $rsp 96 +
STACK CFI 5355d .cfa: $rsp 104 +
STACK CFI 5355f .cfa: $rsp 112 +
STACK CFI 53561 .cfa: $rsp 120 +
STACK CFI 53563 .cfa: $rsp 128 +
STACK CFI 53565 .cfa: $rsp 136 +
STACK CFI 53567 .cfa: $rsp 144 +
STACK CFI 53569 .cfa: $rsp 152 +
STACK CFI 5356b .cfa: $rsp 160 +
STACK CFI 53572 .cfa: $rsp 168 +
STACK CFI 53579 .cfa: $rsp 176 +
STACK CFI 53585 .cfa: $rsp 8 +
STACK CFI INIT 53586 41 .cfa: $rsp 8 + .ra: .cfa -8 + ^
STACK CFI 5358a .cfa: $rsp 24 +
STACK CFI 5358c .cfa: $rsp 32 +
STACK CFI 5358e .cfa: $rsp 40 +
STACK CFI 53590 .cfa: $rsp 48 +
STACK CFI 53592 .cfa: $rsp 56 +
STACK CFI 53594 .cfa: $rsp 64 +
STACK CFI 53596 .cfa: $rsp 72 +
STACK CFI 53598 .cfa: $rsp 80 +
STACK CFI 5359a .cfa: $rsp 88 +
STACK CFI 5359c .cfa: $rsp 96 +
STACK CFI 5359e .cfa: $rsp 104 +
STACK CFI 535a0 .cfa: $rsp 112 +
STACK CFI 535a2 .cfa: $rsp 120 +
STACK CFI 535a4 .cfa: $rsp 128 +
STACK CFI 535a6 .cfa: $rsp 136 +
STACK CFI 535a8 .cfa: $rsp 144 +
STACK CFI 535aa .cfa: $rsp 152 +
STACK CFI 535ac .cfa: $rsp 160 +
STACK CFI 535b3 .cfa: $rsp 168 +
STACK CFI 535ba .cfa: $rsp 176 +
STACK CFI 535c6 .cfa: $rsp 8 +
STACK CFI INIT 535c7 41 .cfa: $rsp 8 + .ra: .cfa -8 + ^
STACK CFI 535cb .cfa: $rsp 24 +
STACK CFI 535cd .cfa: $rsp 32 +
STACK CFI 535cf .cfa: $rsp 40 +
STACK CFI 535d1 .cfa: $rsp 48 +
STACK CFI 535d3 .cfa: $rsp 56 +
STACK CFI 535d5 .cfa: $rsp 64 +
STACK CFI 535d7 .cfa: $rsp 72 +
STACK CFI 535d9 .cfa: $rsp 80 +
STACK CFI 535db .cfa: $rsp 88 +
STACK CFI 535dd .cfa: $rsp 96 +
STACK CFI 535df .cfa: $rsp 104 +
STACK CFI 535e1 .cfa: $rsp 112 +
STACK CFI 535e3 .cfa: $rsp 120 +
STACK CFI 535e5 .cfa: $rsp 128 +
STACK CFI 535e7 .cfa: $rsp 136 +
STACK CFI 535e9 .cfa: $rsp 144 +
STACK CFI 535eb .cfa: $rsp 152 +
STACK CFI 535ed .cfa: $rsp 160 +
STACK CFI 535f4 .cfa: $rsp 168 +
STACK CFI 535fb .cfa: $rsp 176 +
STACK CFI 53607 .cfa: $rsp 8 +
STACK CFI INIT 53608 41 .cfa: $rsp 8 + .ra: .cfa -8 + ^
STACK CFI 5360c .cfa: $rsp 24 +
STACK CFI 5360e .cfa: $rsp 32 +
STACK CFI 53610 .cfa: $rsp 40 +
STACK CFI 53612 .cfa: $rsp 48 +
STACK CFI 53614 .cfa: $rsp 56 +
STACK CFI 53616 .cfa: $rsp 64 +
STACK CFI 53618 .cfa: $rsp 72 +
STACK CFI 5361a .cfa: $rsp 80 +
STACK CFI 5361c .cfa: $rsp 88 +
STACK CFI 5361e .cfa: $rsp 96 +
STACK CFI 53620 .cfa: $rsp 104 +
STACK CFI 53622 .cfa: $rsp 112 +
STACK CFI 53624 .cfa: $rsp 120 +
STACK CFI 53626 .cfa: $rsp 128 +
STACK CFI 53628 .cfa: $rsp 136 +
STACK CFI 5362a .cfa: $rsp 144 +
STACK CFI 5362c .cfa: $rsp 152 +
STACK CFI 5362e .cfa: $rsp 160 +
STACK CFI 53635 .cfa: $rsp 168 +
STACK CFI 5363c .cfa: $rsp 176 +
STACK CFI 53648 .cfa: $rsp 8 +
STACK CFI INIT 53649 41 .cfa: $rsp 8 + .ra: .cfa -8 + ^
STACK CFI 5364d .cfa: $rsp 24 +
STACK CFI 5364f .cfa: $rsp 32 +
STACK CFI 53651 .cfa: $rsp 40 +
STACK CFI 53653 .cfa: $rsp 48 +
STACK CFI 53655 .cfa: $rsp 56 +
STACK CFI 53657 .cfa: $rsp 64 +
STACK CFI 53659 .cfa: $rsp 72 +
STACK CFI 5365b .cfa: $rsp 80 +
STACK CFI 5365d .cfa: $rsp 88 +
STACK CFI 5365f .cfa: $rsp 96 +
STACK CFI 53661 .cfa: $rsp 104 +
STACK CFI 53663 .cfa: $rsp 112 +
STACK CFI 53665 .cfa: $rsp 120 +
STACK CFI 53667 .cfa: $rsp 128 +
STACK CFI 53669 .cfa: $rsp 136 +
STACK CFI 5366b .cfa: $rsp 144 +
STACK CFI 5366d .cfa: $rsp 152 +
STACK CFI 5366f .cfa: $rsp 160 +
STACK CFI 53676 .cfa: $rsp 168 +
STACK CFI 5367d .cfa: $rsp 176 +
STACK CFI 53689 .cfa: $rsp 8 +
STACK CFI INIT 5368a 41 .cfa: $rsp 8 + .ra: .cfa -8 + ^
STACK CFI 5368e .cfa: $rsp 24 +
STACK CFI 53690 .cfa: $rsp 32 +
STACK CFI 53692 .cfa: $rsp 40 +
STACK CFI 53694 .cfa: $rsp 48 +
STACK CFI 53696 .cfa: $rsp 56 +
STACK CFI 53698 .cfa: $rsp 64 +
STACK CFI 5369a .cfa: $rsp 72 +
STACK CFI 5369c .cfa: $rsp 80 +
STACK CFI 5369e .cfa: $rsp 88 +
STACK CFI 536a0 .cfa: $rsp 96 +
STACK CFI 536a2 .cfa: $rsp 104 +
STACK CFI 536a4 .cfa: $rsp 112 +
STACK CFI 536a6 .cfa: $rsp 120 +
STACK CFI 536a8 .cfa: $rsp 128 +
STACK CFI 536aa .cfa: $rsp 136 +
STACK CFI 536ac .cfa: $rsp 144 +
STACK CFI 536ae .cfa: $rsp 152 +
STACK CFI 536b0 .cfa: $rsp 160 +
STACK CFI 536b7 .cfa: $rsp 168 +
STACK CFI 536be .cfa: $rsp 176 +
STACK CFI 536ca .cfa: $rsp 8 +
STACK CFI INIT 536cb 41 .cfa: $rsp 8 + .ra: .cfa -8 + ^
STACK CFI 536cf .cfa: $rsp 24 +
STACK CFI 536d1 .cfa: $rsp 32 +
STACK CFI 536d3 .cfa: $rsp 40 +
STACK CFI 536d5 .cfa: $rsp 48 +
STACK CFI 536d7 .cfa: $rsp 56 +
STACK CFI 536d9 .cfa: $rsp 64 +
STACK CFI 536db .cfa: $rsp 72 +
STACK CFI 536dd .cfa: $rsp 80 +
STACK CFI 536df .cfa: $rsp 88 +
STACK CFI 536e1 .cfa: $rsp 96 +
STACK CFI 536e3 .cfa: $rsp 104 +
STACK CFI 536e5 .cfa: $rsp 112 +
STACK CFI 536e7 .cfa: $rsp 120 +
STACK CFI 536e9 .cfa: $rsp 128 +
STACK CFI 536eb .cfa: $rsp 136 +
STACK CFI 536ed .cfa: $rsp 144 +
STACK CFI 536ef .cfa: $rsp 152 +
STACK CFI 536f1 .cfa: $rsp 160 +
STACK CFI 536f8 .cfa: $rsp 168 +
STACK CFI 536ff .cfa: $rsp 176 +
STACK CFI 5370b .cfa: $rsp 8 +
STACK CFI INIT 5370c 41 .cfa: $rsp 8 + .ra: .cfa -8 + ^
STACK CFI 53710 .cfa: $rsp 24 +
STACK CFI 53712 .cfa: $rsp 32 +
STACK CFI 53714 .cfa: $rsp 40 +
STACK CFI 53716 .cfa: $rsp 48 +
STACK CFI 53718 .cfa: $rsp 56 +
STACK CFI 5371a .cfa: $rsp 64 +
STACK CFI 5371c .cfa: $rsp 72 +
STACK CFI 5371e .cfa: $rsp 80 +
STACK CFI 53720 .cfa: $rsp 88 +
STACK CFI 53722 .cfa: $rsp 96 +
STACK CFI 53724 .cfa: $rsp 104 +
STACK CFI 53726 .cfa: $rsp 112 +
STACK CFI 53728 .cfa: $rsp 120 +
STACK CFI 5372a .cfa: $rsp 128 +
STACK CFI 5372c .cfa: $rsp 136 +
STACK CFI 5372e .cfa: $rsp 144 +
STACK CFI 53730 .cfa: $rsp 152 +
STACK CFI 53732 .cfa: $rsp 160 +
STACK CFI 53739 .cfa: $rsp 168 +
STACK CFI 53740 .cfa: $rsp 176 +
STACK CFI 5374c .cfa: $rsp 8 +
STACK CFI INIT 5374d 41 .cfa: $rsp 8 + .ra: .cfa -8 + ^
STACK CFI 53751 .cfa: $rsp 24 +
STACK CFI 53753 .cfa: $rsp 32 +
STACK CFI 53755 .cfa: $rsp 40 +
STACK CFI 53757 .cfa: $rsp 48 +
STACK CFI 53759 .cfa: $rsp 56 +
STACK CFI 5375b .cfa: $rsp 64 +
STACK CFI 5375d .cfa: $rsp 72 +
STACK CFI 5375f .cfa: $rsp 80 +
STACK CFI 53761 .cfa: $rsp 88 +
STACK CFI 53763 .cfa: $rsp 96 +
STACK CFI 53765 .cfa: $rsp 104 +
STACK CFI 53767 .cfa: $rsp 112 +
STACK CFI 53769 .cfa: $rsp 120 +
STACK CFI 5376b .cfa: $rsp 128 +
STACK CFI 5376d .cfa: $rsp 136 +
STACK CFI 5376f .cfa: $rsp 144 +
STACK CFI 53771 .cfa: $rsp 152 +
STACK CFI 53773 .cfa: $rsp 160 +
STACK CFI 5377a .cfa: $rsp 168 +
STACK CFI 53781 .cfa: $rsp 176 +
STACK CFI 5378d .cfa: $rsp 8 +
STACK CFI INIT 5378e 41 .cfa: $rsp 8 + .ra: .cfa -8 + ^
STACK CFI 53792 .cfa: $rsp 24 +
STACK CFI 53794 .cfa: $rsp 32 +
STACK CFI 53796 .cfa: $rsp 40 +
STACK CFI 53798 .cfa: $rsp 48 +
STACK CFI 5379a .cfa: $rsp 56 +
STACK CFI 5379c .cfa: $rsp 64 +
STACK CFI 5379e .cfa: $rsp 72 +
STACK CFI 537a0 .cfa: $rsp 80 +
STACK CFI 537a2 .cfa: $rsp 88 +
STACK CFI 537a4 .cfa: $rsp 96 +
STACK CFI 537a6 .cfa: $rsp 104 +
STACK CFI 537a8 .cfa: $rsp 112 +
STACK CFI 537aa .cfa: $rsp 120 +
STACK CFI 537ac .cfa: $rsp 128 +
STACK CFI 537ae .cfa: $rsp 136 +
STACK CFI 537b0 .cfa: $rsp 144 +
STACK CFI 537b2 .cfa: $rsp 152 +
STACK CFI 537b4 .cfa: $rsp 160 +
STACK CFI 537bb .cfa: $rsp 168 +
STACK CFI 537c2 .cfa: $rsp 176 +
STACK CFI 537ce .cfa: $rsp 8 +
STACK CFI INIT 537cf 41 .cfa: $rsp 8 + .ra: .cfa -8 + ^
STACK CFI 537d3 .cfa: $rsp 24 +
STACK CFI 537d5 .cfa: $rsp 32 +
STACK CFI 537d7 .cfa: $rsp 40 +
STACK CFI 537d9 .cfa: $rsp 48 +
STACK CFI 537db .cfa: $rsp 56 +
STACK CFI 537dd .cfa: $rsp 64 +
STACK CFI 537df .cfa: $rsp 72 +
STACK CFI 537e1 .cfa: $rsp 80 +
STACK CFI 537e3 .cfa: $rsp 88 +
STACK CFI 537e5 .cfa: $rsp 96 +
STACK CFI 537e7 .cfa: $rsp 104 +
STACK CFI 537e9 .cfa: $rsp 112 +
STACK CFI 537eb .cfa: $rsp 120 +
STACK CFI 537ed .cfa: $rsp 128 +
STACK CFI 537ef .cfa: $rsp 136 +
STACK CFI 537f1 .cfa: $rsp 144 +
STACK CFI 537f3 .cfa: $rsp 152 +
STACK CFI 537f5 .cfa: $rsp 160 +
STACK CFI 537fc .cfa: $rsp 168 +
STACK CFI 53803 .cfa: $rsp 176 +
STACK CFI 5380f .cfa: $rsp 8 +
STACK CFI INIT 53810 41 .cfa: $rsp 8 + .ra: .cfa -8 + ^
STACK CFI 53814 .cfa: $rsp 24 +
STACK CFI 53816 .cfa: $rsp 32 +
STACK CFI 53818 .cfa: $rsp 40 +
STACK CFI 5381a .cfa: $rsp 48 +
STACK CFI 5381c .cfa: $rsp 56 +
STACK CFI 5381e .cfa: $rsp 64 +
STACK CFI 53820 .cfa: $rsp 72 +
STACK CFI 53822 .cfa: $rsp 80 +
STACK CFI 53824 .cfa: $rsp 88 +
STACK CFI 53826 .cfa: $rsp 96 +
STACK CFI 53828 .cfa: $rsp 104 +
STACK CFI 5382a .cfa: $rsp 112 +
STACK CFI 5382c .cfa: $rsp 120 +
STACK CFI 5382e .cfa: $rsp 128 +
STACK CFI 53830 .cfa: $rsp 136 +
STACK CFI 53832 .cfa: $rsp 144 +
STACK CFI 53834 .cfa: $rsp 152 +
STACK CFI 53836 .cfa: $rsp 160 +
STACK CFI 5383d .cfa: $rsp 168 +
STACK CFI 53844 .cfa: $rsp 176 +
STACK CFI 53850 .cfa: $rsp 8 +
STACK CFI INIT 53851 41 .cfa: $rsp 8 + .ra: .cfa -8 + ^
STACK CFI 53855 .cfa: $rsp 24 +
STACK CFI 53857 .cfa: $rsp 32 +
STACK CFI 53859 .cfa: $rsp 40 +
STACK CFI 5385b .cfa: $rsp 48 +
STACK CFI 5385d .cfa: $rsp 56 +
STACK CFI 5385f .cfa: $rsp 64 +
STACK CFI 53861 .cfa: $rsp 72 +
STACK CFI 53863 .cfa: $rsp 80 +
STACK CFI 53865 .cfa: $rsp 88 +
STACK CFI 53867 .cfa: $rsp 96 +
STACK CFI 53869 .cfa: $rsp 104 +
STACK CFI 5386b .cfa: $rsp 112 +
STACK CFI 5386d .cfa: $rsp 120 +
STACK CFI 5386f .cfa: $rsp 128 +
STACK CFI 53871 .cfa: $rsp 136 +
STACK CFI 53873 .cfa: $rsp 144 +
STACK CFI 53875 .cfa: $rsp 152 +
STACK CFI 53877 .cfa: $rsp 160 +
STACK CFI 5387e .cfa: $rsp 168 +
STACK CFI 53885 .cfa: $rsp 176 +
STACK CFI 53891 .cfa: $rsp 8 +
STACK CFI INIT 53892 41 .cfa: $rsp 8 + .ra: .cfa -8 + ^
STACK CFI 53896 .cfa: $rsp 24 +
STACK CFI 53898 .cfa: $rsp 32 +
STACK CFI 5389a .cfa: $rsp 40 +
STACK CFI 5389c .cfa: $rsp 48 +
STACK CFI 5389e .cfa: $rsp 56 +
STACK CFI 538a0 .cfa: $rsp 64 +
STACK CFI 538a2 .cfa: $rsp 72 +
STACK CFI 538a4 .cfa: $rsp 80 +
STACK CFI 538a6 .cfa: $rsp 88 +
STACK CFI 538a8 .cfa: $rsp 96 +
STACK CFI 538aa .cfa: $rsp 104 +
STACK CFI 538ac .cfa: $rsp 112 +
STACK CFI 538ae .cfa: $rsp 120 +
STACK CFI 538b0 .cfa: $rsp 128 +
STACK CFI 538b2 .cfa: $rsp 136 +
STACK CFI 538b4 .cfa: $rsp 144 +
STACK CFI 538b6 .cfa: $rsp 152 +
STACK CFI 538b8 .cfa: $rsp 160 +
STACK CFI 538bf .cfa: $rsp 168 +
STACK CFI 538c6 .cfa: $rsp 176 +
STACK CFI 538d2 .cfa: $rsp 8 +
STACK CFI INIT 538d3 41 .cfa: $rsp 8 + .ra: .cfa -8 + ^
STACK CFI 538d7 .cfa: $rsp 24 +
STACK CFI 538d9 .cfa: $rsp 32 +
STACK CFI 538db .cfa: $rsp 40 +
STACK CFI 538dd .cfa: $rsp 48 +
STACK CFI 538df .cfa: $rsp 56 +
STACK CFI 538e1 .cfa: $rsp 64 +
STACK CFI 538e3 .cfa: $rsp 72 +
STACK CFI 538e5 .cfa: $rsp 80 +
STACK CFI 538e7 .cfa: $rsp 88 +
STACK CFI 538e9 .cfa: $rsp 96 +
STACK CFI 538eb .cfa: $rsp 104 +
STACK CFI 538ed .cfa: $rsp 112 +
STACK CFI 538ef .cfa: $rsp 120 +
STACK CFI 538f1 .cfa: $rsp 128 +
STACK CFI 538f3 .cfa: $rsp 136 +
STACK CFI 538f5 .cfa: $rsp 144 +
STACK CFI 538f7 .cfa: $rsp 152 +
STACK CFI 538f9 .cfa: $rsp 160 +
STACK CFI 53900 .cfa: $rsp 168 +
STACK CFI 53907 .cfa: $rsp 176 +
STACK CFI 53913 .cfa: $rsp 8 +
STACK CFI INIT 53914 41 .cfa: $rsp 8 + .ra: .cfa -8 + ^
STACK CFI 53918 .cfa: $rsp 24 +
STACK CFI 5391a .cfa: $rsp 32 +
STACK CFI 5391c .cfa: $rsp 40 +
STACK CFI 5391e .cfa: $rsp 48 +
STACK CFI 53920 .cfa: $rsp 56 +
STACK CFI 53922 .cfa: $rsp 64 +
STACK CFI 53924 .cfa: $rsp 72 +
STACK CFI 53926 .cfa: $rsp 80 +
STACK CFI 53928 .cfa: $rsp 88 +
STACK CFI 5392a .cfa: $rsp 96 +
STACK CFI 5392c .cfa: $rsp 104 +
STACK CFI 5392e .cfa: $rsp 112 +
STACK CFI 53930 .cfa: $rsp 120 +
STACK CFI 53932 .cfa: $rsp 128 +
STACK CFI 53934 .cfa: $rsp 136 +
STACK CFI 53936 .cfa: $rsp 144 +
STACK CFI 53938 .cfa: $rsp 152 +
STACK CFI 5393a .cfa: $rsp 160 +
STACK CFI 53941 .cfa: $rsp 168 +
STACK CFI 53948 .cfa: $rsp 176 +
STACK CFI 53954 .cfa: $rsp 8 +
STACK CFI INIT 53955 41 .cfa: $rsp 8 + .ra: .cfa -8 + ^
STACK CFI 53959 .cfa: $rsp 24 +
STACK CFI 5395b .cfa: $rsp 32 +
STACK CFI 5395d .cfa: $rsp 40 +
STACK CFI 5395f .cfa: $rsp 48 +
STACK CFI 53961 .cfa: $rsp 56 +
STACK CFI 53963 .cfa: $rsp 64 +
STACK CFI 53965 .cfa: $rsp 72 +
STACK CFI 53967 .cfa: $rsp 80 +
STACK CFI 53969 .cfa: $rsp 88 +
STACK CFI 5396b .cfa: $rsp 96 +
STACK CFI 5396d .cfa: $rsp 104 +
STACK CFI 5396f .cfa: $rsp 112 +
STACK CFI 53971 .cfa: $rsp 120 +
STACK CFI 53973 .cfa: $rsp 128 +
STACK CFI 53975 .cfa: $rsp 136 +
STACK CFI 53977 .cfa: $rsp 144 +
STACK CFI 53979 .cfa: $rsp 152 +
STACK CFI 5397b .cfa: $rsp 160 +
STACK CFI 53982 .cfa: $rsp 168 +
STACK CFI 53989 .cfa: $rsp 176 +
STACK CFI 53995 .cfa: $rsp 8 +
STACK CFI INIT 53996 41 .cfa: $rsp 8 + .ra: .cfa -8 + ^
STACK CFI 5399a .cfa: $rsp 24 +
STACK CFI 5399c .cfa: $rsp 32 +
STACK CFI 5399e .cfa: $rsp 40 +
STACK CFI 539a0 .cfa: $rsp 48 +
STACK CFI 539a2 .cfa: $rsp 56 +
STACK CFI 539a4 .cfa: $rsp 64 +
STACK CFI 539a6 .cfa: $rsp 72 +
STACK CFI 539a8 .cfa: $rsp 80 +
STACK CFI 539aa .cfa: $rsp 88 +
STACK CFI 539ac .cfa: $rsp 96 +
STACK CFI 539ae .cfa: $rsp 104 +
STACK CFI 539b0 .cfa: $rsp 112 +
STACK CFI 539b2 .cfa: $rsp 120 +
STACK CFI 539b4 .cfa: $rsp 128 +
STACK CFI 539b6 .cfa: $rsp 136 +
STACK CFI 539b8 .cfa: $rsp 144 +
STACK CFI 539ba .cfa: $rsp 152 +
STACK CFI 539bc .cfa: $rsp 160 +
STACK CFI 539c3 .cfa: $rsp 168 +
STACK CFI 539ca .cfa: $rsp 176 +
STACK CFI 539d6 .cfa: $rsp 8 +
STACK CFI INIT 539d7 41 .cfa: $rsp 8 + .ra: .cfa -8 + ^
STACK CFI 539db .cfa: $rsp 24 +
STACK CFI 539dd .cfa: $rsp 32 +
STACK CFI 539df .cfa: $rsp 40 +
STACK CFI 539e1 .cfa: $rsp 48 +
STACK CFI 539e3 .cfa: $rsp 56 +
STACK CFI 539e5 .cfa: $rsp 64 +
STACK CFI 539e7 .cfa: $rsp 72 +
STACK CFI 539e9 .cfa: $rsp 80 +
STACK CFI 539eb .cfa: $rsp 88 +
STACK CFI 539ed .cfa: $rsp 96 +
STACK CFI 539ef .cfa: $rsp 104 +
STACK CFI 539f1 .cfa: $rsp 112 +
STACK CFI 539f3 .cfa: $rsp 120 +
STACK CFI 539f5 .cfa: $rsp 128 +
STACK CFI 539f7 .cfa: $rsp 136 +
STACK CFI 539f9 .cfa: $rsp 144 +
STACK CFI 539fb .cfa: $rsp 152 +
STACK CFI 539fd .cfa: $rsp 160 +
STACK CFI 53a04 .cfa: $rsp 168 +
STACK CFI 53a0b .cfa: $rsp 176 +
STACK CFI 53a17 .cfa: $rsp 8 +
STACK CFI INIT 53a18 41 .cfa: $rsp 8 + .ra: .cfa -8 + ^
STACK CFI 53a1c .cfa: $rsp 24 +
STACK CFI 53a1e .cfa: $rsp 32 +
STACK CFI 53a20 .cfa: $rsp 40 +
STACK CFI 53a22 .cfa: $rsp 48 +
STACK CFI 53a24 .cfa: $rsp 56 +
STACK CFI 53a26 .cfa: $rsp 64 +
STACK CFI 53a28 .cfa: $rsp 72 +
STACK CFI 53a2a .cfa: $rsp 80 +
STACK CFI 53a2c .cfa: $rsp 88 +
STACK CFI 53a2e .cfa: $rsp 96 +
STACK CFI 53a30 .cfa: $rsp 104 +
STACK CFI 53a32 .cfa: $rsp 112 +
STACK CFI 53a34 .cfa: $rsp 120 +
STACK CFI 53a36 .cfa: $rsp 128 +
STACK CFI 53a38 .cfa: $rsp 136 +
STACK CFI 53a3a .cfa: $rsp 144 +
STACK CFI 53a3c .cfa: $rsp 152 +
STACK CFI 53a3e .cfa: $rsp 160 +
STACK CFI 53a45 .cfa: $rsp 168 +
STACK CFI 53a4c .cfa: $rsp 176 +
STACK CFI 53a58 .cfa: $rsp 8 +
STACK CFI INIT 53a59 41 .cfa: $rsp 8 + .ra: .cfa -8 + ^
STACK CFI 53a5d .cfa: $rsp 24 +
STACK CFI 53a5f .cfa: $rsp 32 +
STACK CFI 53a61 .cfa: $rsp 40 +
STACK CFI 53a63 .cfa: $rsp 48 +
STACK CFI 53a65 .cfa: $rsp 56 +
STACK CFI 53a67 .cfa: $rsp 64 +
STACK CFI 53a69 .cfa: $rsp 72 +
STACK CFI 53a6b .cfa: $rsp 80 +
STACK CFI 53a6d .cfa: $rsp 88 +
STACK CFI 53a6f .cfa: $rsp 96 +
STACK CFI 53a71 .cfa: $rsp 104 +
STACK CFI 53a73 .cfa: $rsp 112 +
STACK CFI 53a75 .cfa: $rsp 120 +
STACK CFI 53a77 .cfa: $rsp 128 +
STACK CFI 53a79 .cfa: $rsp 136 +
STACK CFI 53a7b .cfa: $rsp 144 +
STACK CFI 53a7d .cfa: $rsp 152 +
STACK CFI 53a7f .cfa: $rsp 160 +
STACK CFI 53a86 .cfa: $rsp 168 +
STACK CFI 53a8d .cfa: $rsp 176 +
STACK CFI 53a99 .cfa: $rsp 8 +
STACK CFI INIT 53a9a 41 .cfa: $rsp 8 + .ra: .cfa -8 + ^
STACK CFI 53a9e .cfa: $rsp 24 +
STACK CFI 53aa0 .cfa: $rsp 32 +
STACK CFI 53aa2 .cfa: $rsp 40 +
STACK CFI 53aa4 .cfa: $rsp 48 +
STACK CFI 53aa6 .cfa: $rsp 56 +
STACK CFI 53aa8 .cfa: $rsp 64 +
STACK CFI 53aaa .cfa: $rsp 72 +
STACK CFI 53aac .cfa: $rsp 80 +
STACK CFI 53aae .cfa: $rsp 88 +
STACK CFI 53ab0 .cfa: $rsp 96 +
STACK CFI 53ab2 .cfa: $rsp 104 +
STACK CFI 53ab4 .cfa: $rsp 112 +
STACK CFI 53ab6 .cfa: $rsp 120 +
STACK CFI 53ab8 .cfa: $rsp 128 +
STACK CFI 53aba .cfa: $rsp 136 +
STACK CFI 53abc .cfa: $rsp 144 +
STACK CFI 53abe .cfa: $rsp 152 +
STACK CFI 53ac0 .cfa: $rsp 160 +
STACK CFI 53ac7 .cfa: $rsp 168 +
STACK CFI 53ace .cfa: $rsp 176 +
STACK CFI 53ada .cfa: $rsp 8 +
STACK CFI INIT 53adb 41 .cfa: $rsp 8 + .ra: .cfa -8 + ^
STACK CFI 53adf .cfa: $rsp 24 +
STACK CFI 53ae1 .cfa: $rsp 32 +
STACK CFI 53ae3 .cfa: $rsp 40 +
STACK CFI 53ae5 .cfa: $rsp 48 +
STACK CFI 53ae7 .cfa: $rsp 56 +
STACK CFI 53ae9 .cfa: $rsp 64 +
STACK CFI 53aeb .cfa: $rsp 72 +
STACK CFI 53aed .cfa: $rsp 80 +
STACK CFI 53aef .cfa: $rsp 88 +
STACK CFI 53af1 .cfa: $rsp 96 +
STACK CFI 53af3 .cfa: $rsp 104 +
STACK CFI 53af5 .cfa: $rsp 112 +
STACK CFI 53af7 .cfa: $rsp 120 +
STACK CFI 53af9 .cfa: $rsp 128 +
STACK CFI 53afb .cfa: $rsp 136 +
STACK CFI 53afd .cfa: $rsp 144 +
STACK CFI 53aff .cfa: $rsp 152 +
STACK CFI 53b01 .cfa: $rsp 160 +
STACK CFI 53b08 .cfa: $rsp 168 +
STACK CFI 53b0f .cfa: $rsp 176 +
STACK CFI 53b1b .cfa: $rsp 8 +
STACK CFI INIT 53b1c 41 .cfa: $rsp 8 + .ra: .cfa -8 + ^
STACK CFI 53b20 .cfa: $rsp 24 +
STACK CFI 53b22 .cfa: $rsp 32 +
STACK CFI 53b24 .cfa: $rsp 40 +
STACK CFI 53b26 .cfa: $rsp 48 +
STACK CFI 53b28 .cfa: $rsp 56 +
STACK CFI 53b2a .cfa: $rsp 64 +
STACK CFI 53b2c .cfa: $rsp 72 +
STACK CFI 53b2e .cfa: $rsp 80 +
STACK CFI 53b30 .cfa: $rsp 88 +
STACK CFI 53b32 .cfa: $rsp 96 +
STACK CFI 53b34 .cfa: $rsp 104 +
STACK CFI 53b36 .cfa: $rsp 112 +
STACK CFI 53b38 .cfa: $rsp 120 +
STACK CFI 53b3a .cfa: $rsp 128 +
STACK CFI 53b3c .cfa: $rsp 136 +
STACK CFI 53b3e .cfa: $rsp 144 +
STACK CFI 53b40 .cfa: $rsp 152 +
STACK CFI 53b42 .cfa: $rsp 160 +
STACK CFI 53b49 .cfa: $rsp 168 +
STACK CFI 53b50 .cfa: $rsp 176 +
STACK CFI 53b5c .cfa: $rsp 8 +
STACK CFI INIT 53b5d 41 .cfa: $rsp 8 + .ra: .cfa -8 + ^
STACK CFI 53b61 .cfa: $rsp 24 +
STACK CFI 53b63 .cfa: $rsp 32 +
STACK CFI 53b65 .cfa: $rsp 40 +
STACK CFI 53b67 .cfa: $rsp 48 +
STACK CFI 53b69 .cfa: $rsp 56 +
STACK CFI 53b6b .cfa: $rsp 64 +
STACK CFI 53b6d .cfa: $rsp 72 +
STACK CFI 53b6f .cfa: $rsp 80 +
STACK CFI 53b71 .cfa: $rsp 88 +
STACK CFI 53b73 .cfa: $rsp 96 +
STACK CFI 53b75 .cfa: $rsp 104 +
STACK CFI 53b77 .cfa: $rsp 112 +
STACK CFI 53b79 .cfa: $rsp 120 +
STACK CFI 53b7b .cfa: $rsp 128 +
STACK CFI 53b7d .cfa: $rsp 136 +
STACK CFI 53b7f .cfa: $rsp 144 +
STACK CFI 53b81 .cfa: $rsp 152 +
STACK CFI 53b83 .cfa: $rsp 160 +
STACK CFI 53b8a .cfa: $rsp 168 +
STACK CFI 53b91 .cfa: $rsp 176 +
STACK CFI 53b9d .cfa: $rsp 8 +
STACK CFI INIT 53b9e 41 .cfa: $rsp 8 + .ra: .cfa -8 + ^
STACK CFI 53ba2 .cfa: $rsp 24 +
STACK CFI 53ba4 .cfa: $rsp 32 +
STACK CFI 53ba6 .cfa: $rsp 40 +
STACK CFI 53ba8 .cfa: $rsp 48 +
STACK CFI 53baa .cfa: $rsp 56 +
STACK CFI 53bac .cfa: $rsp 64 +
STACK CFI 53bae .cfa: $rsp 72 +
STACK CFI 53bb0 .cfa: $rsp 80 +
STACK CFI 53bb2 .cfa: $rsp 88 +
STACK CFI 53bb4 .cfa: $rsp 96 +
STACK CFI 53bb6 .cfa: $rsp 104 +
STACK CFI 53bb8 .cfa: $rsp 112 +
STACK CFI 53bba .cfa: $rsp 120 +
STACK CFI 53bbc .cfa: $rsp 128 +
STACK CFI 53bbe .cfa: $rsp 136 +
STACK CFI 53bc0 .cfa: $rsp 144 +
STACK CFI 53bc2 .cfa: $rsp 152 +
STACK CFI 53bc4 .cfa: $rsp 160 +
STACK CFI 53bcb .cfa: $rsp 168 +
STACK CFI 53bd2 .cfa: $rsp 176 +
STACK CFI 53bde .cfa: $rsp 8 +
STACK CFI INIT 53bdf 41 .cfa: $rsp 8 + .ra: .cfa -8 + ^
STACK CFI 53be3 .cfa: $rsp 24 +
STACK CFI 53be5 .cfa: $rsp 32 +
STACK CFI 53be7 .cfa: $rsp 40 +
STACK CFI 53be9 .cfa: $rsp 48 +
STACK CFI 53beb .cfa: $rsp 56 +
STACK CFI 53bed .cfa: $rsp 64 +
STACK CFI 53bef .cfa: $rsp 72 +
STACK CFI 53bf1 .cfa: $rsp 80 +
STACK CFI 53bf3 .cfa: $rsp 88 +
STACK CFI 53bf5 .cfa: $rsp 96 +
STACK CFI 53bf7 .cfa: $rsp 104 +
STACK CFI 53bf9 .cfa: $rsp 112 +
STACK CFI 53bfb .cfa: $rsp 120 +
STACK CFI 53bfd .cfa: $rsp 128 +
STACK CFI 53bff .cfa: $rsp 136 +
STACK CFI 53c01 .cfa: $rsp 144 +
STACK CFI 53c03 .cfa: $rsp 152 +
STACK CFI 53c05 .cfa: $rsp 160 +
STACK CFI 53c0c .cfa: $rsp 168 +
STACK CFI 53c13 .cfa: $rsp 176 +
STACK CFI 53c1f .cfa: $rsp 8 +
STACK CFI INIT 53c20 41 .cfa: $rsp 8 + .ra: .cfa -8 + ^
STACK CFI 53c24 .cfa: $rsp 24 +
STACK CFI 53c26 .cfa: $rsp 32 +
STACK CFI 53c28 .cfa: $rsp 40 +
STACK CFI 53c2a .cfa: $rsp 48 +
STACK CFI 53c2c .cfa: $rsp 56 +
STACK CFI 53c2e .cfa: $rsp 64 +
STACK CFI 53c30 .cfa: $rsp 72 +
STACK CFI 53c32 .cfa: $rsp 80 +
STACK CFI 53c34 .cfa: $rsp 88 +
STACK CFI 53c36 .cfa: $rsp 96 +
STACK CFI 53c38 .cfa: $rsp 104 +
STACK CFI 53c3a .cfa: $rsp 112 +
STACK CFI 53c3c .cfa: $rsp 120 +
STACK CFI 53c3e .cfa: $rsp 128 +
STACK CFI 53c40 .cfa: $rsp 136 +
STACK CFI 53c42 .cfa: $rsp 144 +
STACK CFI 53c44 .cfa: $rsp 152 +
STACK CFI 53c46 .cfa: $rsp 160 +
STACK CFI 53c4d .cfa: $rsp 168 +
STACK CFI 53c54 .cfa: $rsp 176 +
STACK CFI 53c60 .cfa: $rsp 8 +
STACK CFI INIT 53c61 41 .cfa: $rsp 8 + .ra: .cfa -8 + ^
STACK CFI 53c65 .cfa: $rsp 24 +
STACK CFI 53c67 .cfa: $rsp 32 +
STACK CFI 53c69 .cfa: $rsp 40 +
STACK CFI 53c6b .cfa: $rsp 48 +
STACK CFI 53c6d .cfa: $rsp 56 +
STACK CFI 53c6f .cfa: $rsp 64 +
STACK CFI 53c71 .cfa: $rsp 72 +
STACK CFI 53c73 .cfa: $rsp 80 +
STACK CFI 53c75 .cfa: $rsp 88 +
STACK CFI 53c77 .cfa: $rsp 96 +
STACK CFI 53c79 .cfa: $rsp 104 +
STACK CFI 53c7b .cfa: $rsp 112 +
STACK CFI 53c7d .cfa: $rsp 120 +
STACK CFI 53c7f .cfa: $rsp 128 +
STACK CFI 53c81 .cfa: $rsp 136 +
STACK CFI 53c83 .cfa: $rsp 144 +
STACK CFI 53c85 .cfa: $rsp 152 +
STACK CFI 53c87 .cfa: $rsp 160 +
STACK CFI 53c8e .cfa: $rsp 168 +
STACK CFI 53c95 .cfa: $rsp 176 +
STACK CFI 53ca1 .cfa: $rsp 8 +
STACK CFI INIT 53ca2 41 .cfa: $rsp 8 + .ra: .cfa -8 + ^
STACK CFI 53ca6 .cfa: $rsp 24 +
STACK CFI 53ca8 .cfa: $rsp 32 +
STACK CFI 53caa .cfa: $rsp 40 +
STACK CFI 53cac .cfa: $rsp 48 +
STACK CFI 53cae .cfa: $rsp 56 +
STACK CFI 53cb0 .cfa: $rsp 64 +
STACK CFI 53cb2 .cfa: $rsp 72 +
STACK CFI 53cb4 .cfa: $rsp 80 +
STACK CFI 53cb6 .cfa: $rsp 88 +
STACK CFI 53cb8 .cfa: $rsp 96 +
STACK CFI 53cba .cfa: $rsp 104 +
STACK CFI 53cbc .cfa: $rsp 112 +
STACK CFI 53cbe .cfa: $rsp 120 +
STACK CFI 53cc0 .cfa: $rsp 128 +
STACK CFI 53cc2 .cfa: $rsp 136 +
STACK CFI 53cc4 .cfa: $rsp 144 +
STACK CFI 53cc6 .cfa: $rsp 152 +
STACK CFI 53cc8 .cfa: $rsp 160 +
STACK CFI 53ccf .cfa: $rsp 168 +
STACK CFI 53cd6 .cfa: $rsp 176 +
STACK CFI 53ce2 .cfa: $rsp 8 +
STACK CFI INIT 53ce3 41 .cfa: $rsp 8 + .ra: .cfa -8 + ^
STACK CFI 53ce7 .cfa: $rsp 24 +
STACK CFI 53ce9 .cfa: $rsp 32 +
STACK CFI 53ceb .cfa: $rsp 40 +
STACK CFI 53ced .cfa: $rsp 48 +
STACK CFI 53cef .cfa: $rsp 56 +
STACK CFI 53cf1 .cfa: $rsp 64 +
STACK CFI 53cf3 .cfa: $rsp 72 +
STACK CFI 53cf5 .cfa: $rsp 80 +
STACK CFI 53cf7 .cfa: $rsp 88 +
STACK CFI 53cf9 .cfa: $rsp 96 +
STACK CFI 53cfb .cfa: $rsp 104 +
STACK CFI 53cfd .cfa: $rsp 112 +
STACK CFI 53cff .cfa: $rsp 120 +
STACK CFI 53d01 .cfa: $rsp 128 +
STACK CFI 53d03 .cfa: $rsp 136 +
STACK CFI 53d05 .cfa: $rsp 144 +
STACK CFI 53d07 .cfa: $rsp 152 +
STACK CFI 53d09 .cfa: $rsp 160 +
STACK CFI 53d10 .cfa: $rsp 168 +
STACK CFI 53d17 .cfa: $rsp 176 +
STACK CFI 53d23 .cfa: $rsp 8 +
STACK CFI INIT 53d24 41 .cfa: $rsp 8 + .ra: .cfa -8 + ^
STACK CFI 53d28 .cfa: $rsp 24 +
STACK CFI 53d2a .cfa: $rsp 32 +
STACK CFI 53d2c .cfa: $rsp 40 +
STACK CFI 53d2e .cfa: $rsp 48 +
STACK CFI 53d30 .cfa: $rsp 56 +
STACK CFI 53d32 .cfa: $rsp 64 +
STACK CFI 53d34 .cfa: $rsp 72 +
STACK CFI 53d36 .cfa: $rsp 80 +
STACK CFI 53d38 .cfa: $rsp 88 +
STACK CFI 53d3a .cfa: $rsp 96 +
STACK CFI 53d3c .cfa: $rsp 104 +
STACK CFI 53d3e .cfa: $rsp 112 +
STACK CFI 53d40 .cfa: $rsp 120 +
STACK CFI 53d42 .cfa: $rsp 128 +
STACK CFI 53d44 .cfa: $rsp 136 +
STACK CFI 53d46 .cfa: $rsp 144 +
STACK CFI 53d48 .cfa: $rsp 152 +
STACK CFI 53d4a .cfa: $rsp 160 +
STACK CFI 53d51 .cfa: $rsp 168 +
STACK CFI 53d58 .cfa: $rsp 176 +
STACK CFI 53d64 .cfa: $rsp 8 +
STACK CFI INIT 53d65 41 .cfa: $rsp 8 + .ra: .cfa -8 + ^
STACK CFI 53d69 .cfa: $rsp 24 +
STACK CFI 53d6b .cfa: $rsp 32 +
STACK CFI 53d6d .cfa: $rsp 40 +
STACK CFI 53d6f .cfa: $rsp 48 +
STACK CFI 53d71 .cfa: $rsp 56 +
STACK CFI 53d73 .cfa: $rsp 64 +
STACK CFI 53d75 .cfa: $rsp 72 +
STACK CFI 53d77 .cfa: $rsp 80 +
STACK CFI 53d79 .cfa: $rsp 88 +
STACK CFI 53d7b .cfa: $rsp 96 +
STACK CFI 53d7d .cfa: $rsp 104 +
STACK CFI 53d7f .cfa: $rsp 112 +
STACK CFI 53d81 .cfa: $rsp 120 +
STACK CFI 53d83 .cfa: $rsp 128 +
STACK CFI 53d85 .cfa: $rsp 136 +
STACK CFI 53d87 .cfa: $rsp 144 +
STACK CFI 53d89 .cfa: $rsp 152 +
STACK CFI 53d8b .cfa: $rsp 160 +
STACK CFI 53d92 .cfa: $rsp 168 +
STACK CFI 53d99 .cfa: $rsp 176 +
STACK CFI 53da5 .cfa: $rsp 8 +
STACK CFI INIT 53da6 41 .cfa: $rsp 8 + .ra: .cfa -8 + ^
STACK CFI 53daa .cfa: $rsp 24 +
STACK CFI 53dac .cfa: $rsp 32 +
STACK CFI 53dae .cfa: $rsp 40 +
STACK CFI 53db0 .cfa: $rsp 48 +
STACK CFI 53db2 .cfa: $rsp 56 +
STACK CFI 53db4 .cfa: $rsp 64 +
STACK CFI 53db6 .cfa: $rsp 72 +
STACK CFI 53db8 .cfa: $rsp 80 +
STACK CFI 53dba .cfa: $rsp 88 +
STACK CFI 53dbc .cfa: $rsp 96 +
STACK CFI 53dbe .cfa: $rsp 104 +
STACK CFI 53dc0 .cfa: $rsp 112 +
STACK CFI 53dc2 .cfa: $rsp 120 +
STACK CFI 53dc4 .cfa: $rsp 128 +
STACK CFI 53dc6 .cfa: $rsp 136 +
STACK CFI 53dc8 .cfa: $rsp 144 +
STACK CFI 53dca .cfa: $rsp 152 +
STACK CFI 53dcc .cfa: $rsp 160 +
STACK CFI 53dd3 .cfa: $rsp 168 +
STACK CFI 53dda .cfa: $rsp 176 +
STACK CFI 53de6 .cfa: $rsp 8 +
STACK CFI INIT 53de7 41 .cfa: $rsp 8 + .ra: .cfa -8 + ^
STACK CFI 53deb .cfa: $rsp 24 +
STACK CFI 53ded .cfa: $rsp 32 +
STACK CFI 53def .cfa: $rsp 40 +
STACK CFI 53df1 .cfa: $rsp 48 +
STACK CFI 53df3 .cfa: $rsp 56 +
STACK CFI 53df5 .cfa: $rsp 64 +
STACK CFI 53df7 .cfa: $rsp 72 +
STACK CFI 53df9 .cfa: $rsp 80 +
STACK CFI 53dfb .cfa: $rsp 88 +
STACK CFI 53dfd .cfa: $rsp 96 +
STACK CFI 53dff .cfa: $rsp 104 +
STACK CFI 53e01 .cfa: $rsp 112 +
STACK CFI 53e03 .cfa: $rsp 120 +
STACK CFI 53e05 .cfa: $rsp 128 +
STACK CFI 53e07 .cfa: $rsp 136 +
STACK CFI 53e09 .cfa: $rsp 144 +
STACK CFI 53e0b .cfa: $rsp 152 +
STACK CFI 53e0d .cfa: $rsp 160 +
STACK CFI 53e14 .cfa: $rsp 168 +
STACK CFI 53e1b .cfa: $rsp 176 +
STACK CFI 53e27 .cfa: $rsp 8 +
STACK CFI INIT 53e28 41 .cfa: $rsp 8 + .ra: .cfa -8 + ^
STACK CFI 53e2c .cfa: $rsp 24 +
STACK CFI 53e2e .cfa: $rsp 32 +
STACK CFI 53e30 .cfa: $rsp 40 +
STACK CFI 53e32 .cfa: $rsp 48 +
STACK CFI 53e34 .cfa: $rsp 56 +
STACK CFI 53e36 .cfa: $rsp 64 +
STACK CFI 53e38 .cfa: $rsp 72 +
STACK CFI 53e3a .cfa: $rsp 80 +
STACK CFI 53e3c .cfa: $rsp 88 +
STACK CFI 53e3e .cfa: $rsp 96 +
STACK CFI 53e40 .cfa: $rsp 104 +
STACK CFI 53e42 .cfa: $rsp 112 +
STACK CFI 53e44 .cfa: $rsp 120 +
STACK CFI 53e46 .cfa: $rsp 128 +
STACK CFI 53e48 .cfa: $rsp 136 +
STACK CFI 53e4a .cfa: $rsp 144 +
STACK CFI 53e4c .cfa: $rsp 152 +
STACK CFI 53e4e .cfa: $rsp 160 +
STACK CFI 53e55 .cfa: $rsp 168 +
STACK CFI 53e5c .cfa: $rsp 176 +
STACK CFI 53e68 .cfa: $rsp 8 +
STACK CFI INIT 53e69 41 .cfa: $rsp 8 + .ra: .cfa -8 + ^
STACK CFI 53e6d .cfa: $rsp 24 +
STACK CFI 53e6f .cfa: $rsp 32 +
STACK CFI 53e71 .cfa: $rsp 40 +
STACK CFI 53e73 .cfa: $rsp 48 +
STACK CFI 53e75 .cfa: $rsp 56 +
STACK CFI 53e77 .cfa: $rsp 64 +
STACK CFI 53e79 .cfa: $rsp 72 +
STACK CFI 53e7b .cfa: $rsp 80 +
STACK CFI 53e7d .cfa: $rsp 88 +
STACK CFI 53e7f .cfa: $rsp 96 +
STACK CFI 53e81 .cfa: $rsp 104 +
STACK CFI 53e83 .cfa: $rsp 112 +
STACK CFI 53e85 .cfa: $rsp 120 +
STACK CFI 53e87 .cfa: $rsp 128 +
STACK CFI 53e89 .cfa: $rsp 136 +
STACK CFI 53e8b .cfa: $rsp 144 +
STACK CFI 53e8d .cfa: $rsp 152 +
STACK CFI 53e8f .cfa: $rsp 160 +
STACK CFI 53e96 .cfa: $rsp 168 +
STACK CFI 53e9d .cfa: $rsp 176 +
STACK CFI 53ea9 .cfa: $rsp 8 +
STACK CFI INIT 53eaa 41 .cfa: $rsp 8 + .ra: .cfa -8 + ^
STACK CFI 53eae .cfa: $rsp 24 +
STACK CFI 53eb0 .cfa: $rsp 32 +
STACK CFI 53eb2 .cfa: $rsp 40 +
STACK CFI 53eb4 .cfa: $rsp 48 +
STACK CFI 53eb6 .cfa: $rsp 56 +
STACK CFI 53eb8 .cfa: $rsp 64 +
STACK CFI 53eba .cfa: $rsp 72 +
STACK CFI 53ebc .cfa: $rsp 80 +
STACK CFI 53ebe .cfa: $rsp 88 +
STACK CFI 53ec0 .cfa: $rsp 96 +
STACK CFI 53ec2 .cfa: $rsp 104 +
STACK CFI 53ec4 .cfa: $rsp 112 +
STACK CFI 53ec6 .cfa: $rsp 120 +
STACK CFI 53ec8 .cfa: $rsp 128 +
STACK CFI 53eca .cfa: $rsp 136 +
STACK CFI 53ecc .cfa: $rsp 144 +
STACK CFI 53ece .cfa: $rsp 152 +
STACK CFI 53ed0 .cfa: $rsp 160 +
STACK CFI 53ed7 .cfa: $rsp 168 +
STACK CFI 53ede .cfa: $rsp 176 +
STACK CFI 53eea .cfa: $rsp 8 +
STACK CFI INIT 53eeb 41 .cfa: $rsp 8 + .ra: .cfa -8 + ^
STACK CFI 53eef .cfa: $rsp 24 +
STACK CFI 53ef1 .cfa: $rsp 32 +
STACK CFI 53ef3 .cfa: $rsp 40 +
STACK CFI 53ef5 .cfa: $rsp 48 +
STACK CFI 53ef7 .cfa: $rsp 56 +
STACK CFI 53ef9 .cfa: $rsp 64 +
STACK CFI 53efb .cfa: $rsp 72 +
STACK CFI 53efd .cfa: $rsp 80 +
STACK CFI 53eff .cfa: $rsp 88 +
STACK CFI 53f01 .cfa: $rsp 96 +
STACK CFI 53f03 .cfa: $rsp 104 +
STACK CFI 53f05 .cfa: $rsp 112 +
STACK CFI 53f07 .cfa: $rsp 120 +
STACK CFI 53f09 .cfa: $rsp 128 +
STACK CFI 53f0b .cfa: $rsp 136 +
STACK CFI 53f0d .cfa: $rsp 144 +
STACK CFI 53f0f .cfa: $rsp 152 +
STACK CFI 53f11 .cfa: $rsp 160 +
STACK CFI 53f18 .cfa: $rsp 168 +
STACK CFI 53f1f .cfa: $rsp 176 +
STACK CFI 53f2b .cfa: $rsp 8 +
STACK CFI INIT 53f2c 41 .cfa: $rsp 8 + .ra: .cfa -8 + ^
STACK CFI 53f30 .cfa: $rsp 24 +
STACK CFI 53f32 .cfa: $rsp 32 +
STACK CFI 53f34 .cfa: $rsp 40 +
STACK CFI 53f36 .cfa: $rsp 48 +
STACK CFI 53f38 .cfa: $rsp 56 +
STACK CFI 53f3a .cfa: $rsp 64 +
STACK CFI 53f3c .cfa: $rsp 72 +
STACK CFI 53f3e .cfa: $rsp 80 +
STACK CFI 53f40 .cfa: $rsp 88 +
STACK CFI 53f42 .cfa: $rsp 96 +
STACK CFI 53f44 .cfa: $rsp 104 +
STACK CFI 53f46 .cfa: $rsp 112 +
STACK CFI 53f48 .cfa: $rsp 120 +
STACK CFI 53f4a .cfa: $rsp 128 +
STACK CFI 53f4c .cfa: $rsp 136 +
STACK CFI 53f4e .cfa: $rsp 144 +
STACK CFI 53f50 .cfa: $rsp 152 +
STACK CFI 53f52 .cfa: $rsp 160 +
STACK CFI 53f59 .cfa: $rsp 168 +
STACK CFI 53f60 .cfa: $rsp 176 +
STACK CFI 53f6c .cfa: $rsp 8 +
STACK CFI INIT 53f6d 41 .cfa: $rsp 8 + .ra: .cfa -8 + ^
STACK CFI 53f71 .cfa: $rsp 24 +
STACK CFI 53f73 .cfa: $rsp 32 +
STACK CFI 53f75 .cfa: $rsp 40 +
STACK CFI 53f77 .cfa: $rsp 48 +
STACK CFI 53f79 .cfa: $rsp 56 +
STACK CFI 53f7b .cfa: $rsp 64 +
STACK CFI 53f7d .cfa: $rsp 72 +
STACK CFI 53f7f .cfa: $rsp 80 +
STACK CFI 53f81 .cfa: $rsp 88 +
STACK CFI 53f83 .cfa: $rsp 96 +
STACK CFI 53f85 .cfa: $rsp 104 +
STACK CFI 53f87 .cfa: $rsp 112 +
STACK CFI 53f89 .cfa: $rsp 120 +
STACK CFI 53f8b .cfa: $rsp 128 +
STACK CFI 53f8d .cfa: $rsp 136 +
STACK CFI 53f8f .cfa: $rsp 144 +
STACK CFI 53f91 .cfa: $rsp 152 +
STACK CFI 53f93 .cfa: $rsp 160 +
STACK CFI 53f9a .cfa: $rsp 168 +
STACK CFI 53fa1 .cfa: $rsp 176 +
STACK CFI 53fad .cfa: $rsp 8 +
STACK CFI INIT 53fae 41 .cfa: $rsp 8 + .ra: .cfa -8 + ^
STACK CFI 53fb2 .cfa: $rsp 24 +
STACK CFI 53fb4 .cfa: $rsp 32 +
STACK CFI 53fb6 .cfa: $rsp 40 +
STACK CFI 53fb8 .cfa: $rsp 48 +
STACK CFI 53fba .cfa: $rsp 56 +
STACK CFI 53fbc .cfa: $rsp 64 +
STACK CFI 53fbe .cfa: $rsp 72 +
STACK CFI 53fc0 .cfa: $rsp 80 +
STACK CFI 53fc2 .cfa: $rsp 88 +
STACK CFI 53fc4 .cfa: $rsp 96 +
STACK CFI 53fc6 .cfa: $rsp 104 +
STACK CFI 53fc8 .cfa: $rsp 112 +
STACK CFI 53fca .cfa: $rsp 120 +
STACK CFI 53fcc .cfa: $rsp 128 +
STACK CFI 53fce .cfa: $rsp 136 +
STACK CFI 53fd0 .cfa: $rsp 144 +
STACK CFI 53fd2 .cfa: $rsp 152 +
STACK CFI 53fd4 .cfa: $rsp 160 +
STACK CFI 53fdb .cfa: $rsp 168 +
STACK CFI 53fe2 .cfa: $rsp 176 +
STACK CFI 53fee .cfa: $rsp 8 +
STACK CFI INIT 53fef 41 .cfa: $rsp 8 + .ra: .cfa -8 + ^
STACK CFI 53ff3 .cfa: $rsp 24 +
STACK CFI 53ff5 .cfa: $rsp 32 +
STACK CFI 53ff7 .cfa: $rsp 40 +
STACK CFI 53ff9 .cfa: $rsp 48 +
STACK CFI 53ffb .cfa: $rsp 56 +
STACK CFI 53ffd .cfa: $rsp 64 +
STACK CFI 53fff .cfa: $rsp 72 +
STACK CFI 54001 .cfa: $rsp 80 +
STACK CFI 54003 .cfa: $rsp 88 +
STACK CFI 54005 .cfa: $rsp 96 +
STACK CFI 54007 .cfa: $rsp 104 +
STACK CFI 54009 .cfa: $rsp 112 +
STACK CFI 5400b .cfa: $rsp 120 +
STACK CFI 5400d .cfa: $rsp 128 +
STACK CFI 5400f .cfa: $rsp 136 +
STACK CFI 54011 .cfa: $rsp 144 +
STACK CFI 54013 .cfa: $rsp 152 +
STACK CFI 54015 .cfa: $rsp 160 +
STACK CFI 5401c .cfa: $rsp 168 +
STACK CFI 54023 .cfa: $rsp 176 +
STACK CFI 5402f .cfa: $rsp 8 +
STACK CFI INIT 54030 41 .cfa: $rsp 8 + .ra: .cfa -8 + ^
STACK CFI 54034 .cfa: $rsp 24 +
STACK CFI 54036 .cfa: $rsp 32 +
STACK CFI 54038 .cfa: $rsp 40 +
STACK CFI 5403a .cfa: $rsp 48 +
STACK CFI 5403c .cfa: $rsp 56 +
STACK CFI 5403e .cfa: $rsp 64 +
STACK CFI 54040 .cfa: $rsp 72 +
STACK CFI 54042 .cfa: $rsp 80 +
STACK CFI 54044 .cfa: $rsp 88 +
STACK CFI 54046 .cfa: $rsp 96 +
STACK CFI 54048 .cfa: $rsp 104 +
STACK CFI 5404a .cfa: $rsp 112 +
STACK CFI 5404c .cfa: $rsp 120 +
STACK CFI 5404e .cfa: $rsp 128 +
STACK CFI 54050 .cfa: $rsp 136 +
STACK CFI 54052 .cfa: $rsp 144 +
STACK CFI 54054 .cfa: $rsp 152 +
STACK CFI 54056 .cfa: $rsp 160 +
STACK CFI 5405d .cfa: $rsp 168 +
STACK CFI 54064 .cfa: $rsp 176 +
STACK CFI 54070 .cfa: $rsp 8 +
STACK CFI INIT 54071 41 .cfa: $rsp 8 + .ra: .cfa -8 + ^
STACK CFI 54075 .cfa: $rsp 24 +
STACK CFI 54077 .cfa: $rsp 32 +
STACK CFI 54079 .cfa: $rsp 40 +
STACK CFI 5407b .cfa: $rsp 48 +
STACK CFI 5407d .cfa: $rsp 56 +
STACK CFI 5407f .cfa: $rsp 64 +
STACK CFI 54081 .cfa: $rsp 72 +
STACK CFI 54083 .cfa: $rsp 80 +
STACK CFI 54085 .cfa: $rsp 88 +
STACK CFI 54087 .cfa: $rsp 96 +
STACK CFI 54089 .cfa: $rsp 104 +
STACK CFI 5408b .cfa: $rsp 112 +
STACK CFI 5408d .cfa: $rsp 120 +
STACK CFI 5408f .cfa: $rsp 128 +
STACK CFI 54091 .cfa: $rsp 136 +
STACK CFI 54093 .cfa: $rsp 144 +
STACK CFI 54095 .cfa: $rsp 152 +
STACK CFI 54097 .cfa: $rsp 160 +
STACK CFI 5409e .cfa: $rsp 168 +
STACK CFI 540a5 .cfa: $rsp 176 +
STACK CFI 540b1 .cfa: $rsp 8 +
STACK CFI INIT 540b2 41 .cfa: $rsp 8 + .ra: .cfa -8 + ^
STACK CFI 540b6 .cfa: $rsp 24 +
STACK CFI 540b8 .cfa: $rsp 32 +
STACK CFI 540ba .cfa: $rsp 40 +
STACK CFI 540bc .cfa: $rsp 48 +
STACK CFI 540be .cfa: $rsp 56 +
STACK CFI 540c0 .cfa: $rsp 64 +
STACK CFI 540c2 .cfa: $rsp 72 +
STACK CFI 540c4 .cfa: $rsp 80 +
STACK CFI 540c6 .cfa: $rsp 88 +
STACK CFI 540c8 .cfa: $rsp 96 +
STACK CFI 540ca .cfa: $rsp 104 +
STACK CFI 540cc .cfa: $rsp 112 +
STACK CFI 540ce .cfa: $rsp 120 +
STACK CFI 540d0 .cfa: $rsp 128 +
STACK CFI 540d2 .cfa: $rsp 136 +
STACK CFI 540d4 .cfa: $rsp 144 +
STACK CFI 540d6 .cfa: $rsp 152 +
STACK CFI 540d8 .cfa: $rsp 160 +
STACK CFI 540df .cfa: $rsp 168 +
STACK CFI 540e6 .cfa: $rsp 176 +
STACK CFI 540f2 .cfa: $rsp 8 +
STACK CFI INIT 540f3 41 .cfa: $rsp 8 + .ra: .cfa -8 + ^
STACK CFI 540f7 .cfa: $rsp 24 +
STACK CFI 540f9 .cfa: $rsp 32 +
STACK CFI 540fb .cfa: $rsp 40 +
STACK CFI 540fd .cfa: $rsp 48 +
STACK CFI 540ff .cfa: $rsp 56 +
STACK CFI 54101 .cfa: $rsp 64 +
STACK CFI 54103 .cfa: $rsp 72 +
STACK CFI 54105 .cfa: $rsp 80 +
STACK CFI 54107 .cfa: $rsp 88 +
STACK CFI 54109 .cfa: $rsp 96 +
STACK CFI 5410b .cfa: $rsp 104 +
STACK CFI 5410d .cfa: $rsp 112 +
STACK CFI 5410f .cfa: $rsp 120 +
STACK CFI 54111 .cfa: $rsp 128 +
STACK CFI 54113 .cfa: $rsp 136 +
STACK CFI 54115 .cfa: $rsp 144 +
STACK CFI 54117 .cfa: $rsp 152 +
STACK CFI 54119 .cfa: $rsp 160 +
STACK CFI 54120 .cfa: $rsp 168 +
STACK CFI 54127 .cfa: $rsp 176 +
STACK CFI 54133 .cfa: $rsp 8 +
STACK CFI INIT 54134 41 .cfa: $rsp 8 + .ra: .cfa -8 + ^
STACK CFI 54138 .cfa: $rsp 24 +
STACK CFI 5413a .cfa: $rsp 32 +
STACK CFI 5413c .cfa: $rsp 40 +
STACK CFI 5413e .cfa: $rsp 48 +
STACK CFI 54140 .cfa: $rsp 56 +
STACK CFI 54142 .cfa: $rsp 64 +
STACK CFI 54144 .cfa: $rsp 72 +
STACK CFI 54146 .cfa: $rsp 80 +
STACK CFI 54148 .cfa: $rsp 88 +
STACK CFI 5414a .cfa: $rsp 96 +
STACK CFI 5414c .cfa: $rsp 104 +
STACK CFI 5414e .cfa: $rsp 112 +
STACK CFI 54150 .cfa: $rsp 120 +
STACK CFI 54152 .cfa: $rsp 128 +
STACK CFI 54154 .cfa: $rsp 136 +
STACK CFI 54156 .cfa: $rsp 144 +
STACK CFI 54158 .cfa: $rsp 152 +
STACK CFI 5415a .cfa: $rsp 160 +
STACK CFI 54161 .cfa: $rsp 168 +
STACK CFI 54168 .cfa: $rsp 176 +
STACK CFI 54174 .cfa: $rsp 8 +
STACK CFI INIT 54175 41 .cfa: $rsp 8 + .ra: .cfa -8 + ^
STACK CFI 54179 .cfa: $rsp 24 +
STACK CFI 5417b .cfa: $rsp 32 +
STACK CFI 5417d .cfa: $rsp 40 +
STACK CFI 5417f .cfa: $rsp 48 +
STACK CFI 54181 .cfa: $rsp 56 +
STACK CFI 54183 .cfa: $rsp 64 +
STACK CFI 54185 .cfa: $rsp 72 +
STACK CFI 54187 .cfa: $rsp 80 +
STACK CFI 54189 .cfa: $rsp 88 +
STACK CFI 5418b .cfa: $rsp 96 +
STACK CFI 5418d .cfa: $rsp 104 +
STACK CFI 5418f .cfa: $rsp 112 +
STACK CFI 54191 .cfa: $rsp 120 +
STACK CFI 54193 .cfa: $rsp 128 +
STACK CFI 54195 .cfa: $rsp 136 +
STACK CFI 54197 .cfa: $rsp 144 +
STACK CFI 54199 .cfa: $rsp 152 +
STACK CFI 5419b .cfa: $rsp 160 +
STACK CFI 541a2 .cfa: $rsp 168 +
STACK CFI 541a9 .cfa: $rsp 176 +
STACK CFI 541b5 .cfa: $rsp 8 +
STACK CFI INIT 541b6 41 .cfa: $rsp 8 + .ra: .cfa -8 + ^
STACK CFI 541ba .cfa: $rsp 24 +
STACK CFI 541bc .cfa: $rsp 32 +
STACK CFI 541be .cfa: $rsp 40 +
STACK CFI 541c0 .cfa: $rsp 48 +
STACK CFI 541c2 .cfa: $rsp 56 +
STACK CFI 541c4 .cfa: $rsp 64 +
STACK CFI 541c6 .cfa: $rsp 72 +
STACK CFI 541c8 .cfa: $rsp 80 +
STACK CFI 541ca .cfa: $rsp 88 +
STACK CFI 541cc .cfa: $rsp 96 +
STACK CFI 541ce .cfa: $rsp 104 +
STACK CFI 541d0 .cfa: $rsp 112 +
STACK CFI 541d2 .cfa: $rsp 120 +
STACK CFI 541d4 .cfa: $rsp 128 +
STACK CFI 541d6 .cfa: $rsp 136 +
STACK CFI 541d8 .cfa: $rsp 144 +
STACK CFI 541da .cfa: $rsp 152 +
STACK CFI 541dc .cfa: $rsp 160 +
STACK CFI 541e3 .cfa: $rsp 168 +
STACK CFI 541ea .cfa: $rsp 176 +
STACK CFI 541f6 .cfa: $rsp 8 +
STACK CFI INIT 541f7 41 .cfa: $rsp 8 + .ra: .cfa -8 + ^
STACK CFI 541fb .cfa: $rsp 24 +
STACK CFI 541fd .cfa: $rsp 32 +
STACK CFI 541ff .cfa: $rsp 40 +
STACK CFI 54201 .cfa: $rsp 48 +
STACK CFI 54203 .cfa: $rsp 56 +
STACK CFI 54205 .cfa: $rsp 64 +
STACK CFI 54207 .cfa: $rsp 72 +
STACK CFI 54209 .cfa: $rsp 80 +
STACK CFI 5420b .cfa: $rsp 88 +
STACK CFI 5420d .cfa: $rsp 96 +
STACK CFI 5420f .cfa: $rsp 104 +
STACK CFI 54211 .cfa: $rsp 112 +
STACK CFI 54213 .cfa: $rsp 120 +
STACK CFI 54215 .cfa: $rsp 128 +
STACK CFI 54217 .cfa: $rsp 136 +
STACK CFI 54219 .cfa: $rsp 144 +
STACK CFI 5421b .cfa: $rsp 152 +
STACK CFI 5421d .cfa: $rsp 160 +
STACK CFI 54224 .cfa: $rsp 168 +
STACK CFI 5422b .cfa: $rsp 176 +
STACK CFI 54237 .cfa: $rsp 8 +
STACK CFI INIT 54238 41 .cfa: $rsp 8 + .ra: .cfa -8 + ^
STACK CFI 5423c .cfa: $rsp 24 +
STACK CFI 5423e .cfa: $rsp 32 +
STACK CFI 54240 .cfa: $rsp 40 +
STACK CFI 54242 .cfa: $rsp 48 +
STACK CFI 54244 .cfa: $rsp 56 +
STACK CFI 54246 .cfa: $rsp 64 +
STACK CFI 54248 .cfa: $rsp 72 +
STACK CFI 5424a .cfa: $rsp 80 +
STACK CFI 5424c .cfa: $rsp 88 +
STACK CFI 5424e .cfa: $rsp 96 +
STACK CFI 54250 .cfa: $rsp 104 +
STACK CFI 54252 .cfa: $rsp 112 +
STACK CFI 54254 .cfa: $rsp 120 +
STACK CFI 54256 .cfa: $rsp 128 +
STACK CFI 54258 .cfa: $rsp 136 +
STACK CFI 5425a .cfa: $rsp 144 +
STACK CFI 5425c .cfa: $rsp 152 +
STACK CFI 5425e .cfa: $rsp 160 +
STACK CFI 54265 .cfa: $rsp 168 +
STACK CFI 5426c .cfa: $rsp 176 +
STACK CFI 54278 .cfa: $rsp 8 +
STACK CFI INIT 54279 41 .cfa: $rsp 8 + .ra: .cfa -8 + ^
STACK CFI 5427d .cfa: $rsp 24 +
STACK CFI 5427f .cfa: $rsp 32 +
STACK CFI 54281 .cfa: $rsp 40 +
STACK CFI 54283 .cfa: $rsp 48 +
STACK CFI 54285 .cfa: $rsp 56 +
STACK CFI 54287 .cfa: $rsp 64 +
STACK CFI 54289 .cfa: $rsp 72 +
STACK CFI 5428b .cfa: $rsp 80 +
STACK CFI 5428d .cfa: $rsp 88 +
STACK CFI 5428f .cfa: $rsp 96 +
STACK CFI 54291 .cfa: $rsp 104 +
STACK CFI 54293 .cfa: $rsp 112 +
STACK CFI 54295 .cfa: $rsp 120 +
STACK CFI 54297 .cfa: $rsp 128 +
STACK CFI 54299 .cfa: $rsp 136 +
STACK CFI 5429b .cfa: $rsp 144 +
STACK CFI 5429d .cfa: $rsp 152 +
STACK CFI 5429f .cfa: $rsp 160 +
STACK CFI 542a6 .cfa: $rsp 168 +
STACK CFI 542ad .cfa: $rsp 176 +
STACK CFI 542b9 .cfa: $rsp 8 +
STACK CFI INIT 542ba 41 .cfa: $rsp 8 + .ra: .cfa -8 + ^
STACK CFI 542be .cfa: $rsp 24 +
STACK CFI 542c0 .cfa: $rsp 32 +
STACK CFI 542c2 .cfa: $rsp 40 +
STACK CFI 542c4 .cfa: $rsp 48 +
STACK CFI 542c6 .cfa: $rsp 56 +
STACK CFI 542c8 .cfa: $rsp 64 +
STACK CFI 542ca .cfa: $rsp 72 +
STACK CFI 542cc .cfa: $rsp 80 +
STACK CFI 542ce .cfa: $rsp 88 +
STACK CFI 542d0 .cfa: $rsp 96 +
STACK CFI 542d2 .cfa: $rsp 104 +
STACK CFI 542d4 .cfa: $rsp 112 +
STACK CFI 542d6 .cfa: $rsp 120 +
STACK CFI 542d8 .cfa: $rsp 128 +
STACK CFI 542da .cfa: $rsp 136 +
STACK CFI 542dc .cfa: $rsp 144 +
STACK CFI 542de .cfa: $rsp 152 +
STACK CFI 542e0 .cfa: $rsp 160 +
STACK CFI 542e7 .cfa: $rsp 168 +
STACK CFI 542ee .cfa: $rsp 176 +
STACK CFI 542fa .cfa: $rsp 8 +
STACK CFI INIT 542fb 41 .cfa: $rsp 8 + .ra: .cfa -8 + ^
STACK CFI 542ff .cfa: $rsp 24 +
STACK CFI 54301 .cfa: $rsp 32 +
STACK CFI 54303 .cfa: $rsp 40 +
STACK CFI 54305 .cfa: $rsp 48 +
STACK CFI 54307 .cfa: $rsp 56 +
STACK CFI 54309 .cfa: $rsp 64 +
STACK CFI 5430b .cfa: $rsp 72 +
STACK CFI 5430d .cfa: $rsp 80 +
STACK CFI 5430f .cfa: $rsp 88 +
STACK CFI 54311 .cfa: $rsp 96 +
STACK CFI 54313 .cfa: $rsp 104 +
STACK CFI 54315 .cfa: $rsp 112 +
STACK CFI 54317 .cfa: $rsp 120 +
STACK CFI 54319 .cfa: $rsp 128 +
STACK CFI 5431b .cfa: $rsp 136 +
STACK CFI 5431d .cfa: $rsp 144 +
STACK CFI 5431f .cfa: $rsp 152 +
STACK CFI 54321 .cfa: $rsp 160 +
STACK CFI 54328 .cfa: $rsp 168 +
STACK CFI 5432f .cfa: $rsp 176 +
STACK CFI 5433b .cfa: $rsp 8 +
STACK CFI INIT 5433c 41 .cfa: $rsp 8 + .ra: .cfa -8 + ^
STACK CFI 54340 .cfa: $rsp 24 +
STACK CFI 54342 .cfa: $rsp 32 +
STACK CFI 54344 .cfa: $rsp 40 +
STACK CFI 54346 .cfa: $rsp 48 +
STACK CFI 54348 .cfa: $rsp 56 +
STACK CFI 5434a .cfa: $rsp 64 +
STACK CFI 5434c .cfa: $rsp 72 +
STACK CFI 5434e .cfa: $rsp 80 +
STACK CFI 54350 .cfa: $rsp 88 +
STACK CFI 54352 .cfa: $rsp 96 +
STACK CFI 54354 .cfa: $rsp 104 +
STACK CFI 54356 .cfa: $rsp 112 +
STACK CFI 54358 .cfa: $rsp 120 +
STACK CFI 5435a .cfa: $rsp 128 +
STACK CFI 5435c .cfa: $rsp 136 +
STACK CFI 5435e .cfa: $rsp 144 +
STACK CFI 54360 .cfa: $rsp 152 +
STACK CFI 54362 .cfa: $rsp 160 +
STACK CFI 54369 .cfa: $rsp 168 +
STACK CFI 54370 .cfa: $rsp 176 +
STACK CFI 5437c .cfa: $rsp 8 +
STACK CFI INIT 5437d 41 .cfa: $rsp 8 + .ra: .cfa -8 + ^
STACK CFI 54381 .cfa: $rsp 24 +
STACK CFI 54383 .cfa: $rsp 32 +
STACK CFI 54385 .cfa: $rsp 40 +
STACK CFI 54387 .cfa: $rsp 48 +
STACK CFI 54389 .cfa: $rsp 56 +
STACK CFI 5438b .cfa: $rsp 64 +
STACK CFI 5438d .cfa: $rsp 72 +
STACK CFI 5438f .cfa: $rsp 80 +
STACK CFI 54391 .cfa: $rsp 88 +
STACK CFI 54393 .cfa: $rsp 96 +
STACK CFI 54395 .cfa: $rsp 104 +
STACK CFI 54397 .cfa: $rsp 112 +
STACK CFI 54399 .cfa: $rsp 120 +
STACK CFI 5439b .cfa: $rsp 128 +
STACK CFI 5439d .cfa: $rsp 136 +
STACK CFI 5439f .cfa: $rsp 144 +
STACK CFI 543a1 .cfa: $rsp 152 +
STACK CFI 543a3 .cfa: $rsp 160 +
STACK CFI 543aa .cfa: $rsp 168 +
STACK CFI 543b1 .cfa: $rsp 176 +
STACK CFI 543bd .cfa: $rsp 8 +
STACK CFI INIT 543be 41 .cfa: $rsp 8 + .ra: .cfa -8 + ^
STACK CFI 543c2 .cfa: $rsp 24 +
STACK CFI 543c4 .cfa: $rsp 32 +
STACK CFI 543c6 .cfa: $rsp 40 +
STACK CFI 543c8 .cfa: $rsp 48 +
STACK CFI 543ca .cfa: $rsp 56 +
STACK CFI 543cc .cfa: $rsp 64 +
STACK CFI 543ce .cfa: $rsp 72 +
STACK CFI 543d0 .cfa: $rsp 80 +
STACK CFI 543d2 .cfa: $rsp 88 +
STACK CFI 543d4 .cfa: $rsp 96 +
STACK CFI 543d6 .cfa: $rsp 104 +
STACK CFI 543d8 .cfa: $rsp 112 +
STACK CFI 543da .cfa: $rsp 120 +
STACK CFI 543dc .cfa: $rsp 128 +
STACK CFI 543de .cfa: $rsp 136 +
STACK CFI 543e0 .cfa: $rsp 144 +
STACK CFI 543e2 .cfa: $rsp 152 +
STACK CFI 543e4 .cfa: $rsp 160 +
STACK CFI 543eb .cfa: $rsp 168 +
STACK CFI 543f2 .cfa: $rsp 176 +
STACK CFI 543fe .cfa: $rsp 8 +
STACK CFI INIT 543ff 41 .cfa: $rsp 8 + .ra: .cfa -8 + ^
STACK CFI 54403 .cfa: $rsp 24 +
STACK CFI 54405 .cfa: $rsp 32 +
STACK CFI 54407 .cfa: $rsp 40 +
STACK CFI 54409 .cfa: $rsp 48 +
STACK CFI 5440b .cfa: $rsp 56 +
STACK CFI 5440d .cfa: $rsp 64 +
STACK CFI 5440f .cfa: $rsp 72 +
STACK CFI 54411 .cfa: $rsp 80 +
STACK CFI 54413 .cfa: $rsp 88 +
STACK CFI 54415 .cfa: $rsp 96 +
STACK CFI 54417 .cfa: $rsp 104 +
STACK CFI 54419 .cfa: $rsp 112 +
STACK CFI 5441b .cfa: $rsp 120 +
STACK CFI 5441d .cfa: $rsp 128 +
STACK CFI 5441f .cfa: $rsp 136 +
STACK CFI 54421 .cfa: $rsp 144 +
STACK CFI 54423 .cfa: $rsp 152 +
STACK CFI 54425 .cfa: $rsp 160 +
STACK CFI 5442c .cfa: $rsp 168 +
STACK CFI 54433 .cfa: $rsp 176 +
STACK CFI 5443f .cfa: $rsp 8 +
STACK CFI INIT 54440 41 .cfa: $rsp 8 + .ra: .cfa -8 + ^
STACK CFI 54444 .cfa: $rsp 24 +
STACK CFI 54446 .cfa: $rsp 32 +
STACK CFI 54448 .cfa: $rsp 40 +
STACK CFI 5444a .cfa: $rsp 48 +
STACK CFI 5444c .cfa: $rsp 56 +
STACK CFI 5444e .cfa: $rsp 64 +
STACK CFI 54450 .cfa: $rsp 72 +
STACK CFI 54452 .cfa: $rsp 80 +
STACK CFI 54454 .cfa: $rsp 88 +
STACK CFI 54456 .cfa: $rsp 96 +
STACK CFI 54458 .cfa: $rsp 104 +
STACK CFI 5445a .cfa: $rsp 112 +
STACK CFI 5445c .cfa: $rsp 120 +
STACK CFI 5445e .cfa: $rsp 128 +
STACK CFI 54460 .cfa: $rsp 136 +
STACK CFI 54462 .cfa: $rsp 144 +
STACK CFI 54464 .cfa: $rsp 152 +
STACK CFI 54466 .cfa: $rsp 160 +
STACK CFI 5446d .cfa: $rsp 168 +
STACK CFI 54474 .cfa: $rsp 176 +
STACK CFI 54480 .cfa: $rsp 8 +
STACK CFI INIT 54481 41 .cfa: $rsp 8 + .ra: .cfa -8 + ^
STACK CFI 54485 .cfa: $rsp 24 +
STACK CFI 54487 .cfa: $rsp 32 +
STACK CFI 54489 .cfa: $rsp 40 +
STACK CFI 5448b .cfa: $rsp 48 +
STACK CFI 5448d .cfa: $rsp 56 +
STACK CFI 5448f .cfa: $rsp 64 +
STACK CFI 54491 .cfa: $rsp 72 +
STACK CFI 54493 .cfa: $rsp 80 +
STACK CFI 54495 .cfa: $rsp 88 +
STACK CFI 54497 .cfa: $rsp 96 +
STACK CFI 54499 .cfa: $rsp 104 +
STACK CFI 5449b .cfa: $rsp 112 +
STACK CFI 5449d .cfa: $rsp 120 +
STACK CFI 5449f .cfa: $rsp 128 +
STACK CFI 544a1 .cfa: $rsp 136 +
STACK CFI 544a3 .cfa: $rsp 144 +
STACK CFI 544a5 .cfa: $rsp 152 +
STACK CFI 544a7 .cfa: $rsp 160 +
STACK CFI 544ae .cfa: $rsp 168 +
STACK CFI 544b5 .cfa: $rsp 176 +
STACK CFI 544c1 .cfa: $rsp 8 +
STACK CFI INIT 544c2 41 .cfa: $rsp 8 + .ra: .cfa -8 + ^
STACK CFI 544c6 .cfa: $rsp 24 +
STACK CFI 544c8 .cfa: $rsp 32 +
STACK CFI 544ca .cfa: $rsp 40 +
STACK CFI 544cc .cfa: $rsp 48 +
STACK CFI 544ce .cfa: $rsp 56 +
STACK CFI 544d0 .cfa: $rsp 64 +
STACK CFI 544d2 .cfa: $rsp 72 +
STACK CFI 544d4 .cfa: $rsp 80 +
STACK CFI 544d6 .cfa: $rsp 88 +
STACK CFI 544d8 .cfa: $rsp 96 +
STACK CFI 544da .cfa: $rsp 104 +
STACK CFI 544dc .cfa: $rsp 112 +
STACK CFI 544de .cfa: $rsp 120 +
STACK CFI 544e0 .cfa: $rsp 128 +
STACK CFI 544e2 .cfa: $rsp 136 +
STACK CFI 544e4 .cfa: $rsp 144 +
STACK CFI 544e6 .cfa: $rsp 152 +
STACK CFI 544e8 .cfa: $rsp 160 +
STACK CFI 544ef .cfa: $rsp 168 +
STACK CFI 544f6 .cfa: $rsp 176 +
STACK CFI 54502 .cfa: $rsp 8 +
STACK CFI INIT 54503 41 .cfa: $rsp 8 + .ra: .cfa -8 + ^
STACK CFI 54507 .cfa: $rsp 24 +
STACK CFI 54509 .cfa: $rsp 32 +
STACK CFI 5450b .cfa: $rsp 40 +
STACK CFI 5450d .cfa: $rsp 48 +
STACK CFI 5450f .cfa: $rsp 56 +
STACK CFI 54511 .cfa: $rsp 64 +
STACK CFI 54513 .cfa: $rsp 72 +
STACK CFI 54515 .cfa: $rsp 80 +
STACK CFI 54517 .cfa: $rsp 88 +
STACK CFI 54519 .cfa: $rsp 96 +
STACK CFI 5451b .cfa: $rsp 104 +
STACK CFI 5451d .cfa: $rsp 112 +
STACK CFI 5451f .cfa: $rsp 120 +
STACK CFI 54521 .cfa: $rsp 128 +
STACK CFI 54523 .cfa: $rsp 136 +
STACK CFI 54525 .cfa: $rsp 144 +
STACK CFI 54527 .cfa: $rsp 152 +
STACK CFI 54529 .cfa: $rsp 160 +
STACK CFI 54530 .cfa: $rsp 168 +
STACK CFI 54537 .cfa: $rsp 176 +
STACK CFI 54543 .cfa: $rsp 8 +
STACK CFI INIT 54544 41 .cfa: $rsp 8 + .ra: .cfa -8 + ^
STACK CFI 54548 .cfa: $rsp 24 +
STACK CFI 5454a .cfa: $rsp 32 +
STACK CFI 5454c .cfa: $rsp 40 +
STACK CFI 5454e .cfa: $rsp 48 +
STACK CFI 54550 .cfa: $rsp 56 +
STACK CFI 54552 .cfa: $rsp 64 +
STACK CFI 54554 .cfa: $rsp 72 +
STACK CFI 54556 .cfa: $rsp 80 +
STACK CFI 54558 .cfa: $rsp 88 +
STACK CFI 5455a .cfa: $rsp 96 +
STACK CFI 5455c .cfa: $rsp 104 +
STACK CFI 5455e .cfa: $rsp 112 +
STACK CFI 54560 .cfa: $rsp 120 +
STACK CFI 54562 .cfa: $rsp 128 +
STACK CFI 54564 .cfa: $rsp 136 +
STACK CFI 54566 .cfa: $rsp 144 +
STACK CFI 54568 .cfa: $rsp 152 +
STACK CFI 5456a .cfa: $rsp 160 +
STACK CFI 54571 .cfa: $rsp 168 +
STACK CFI 54578 .cfa: $rsp 176 +
STACK CFI 54584 .cfa: $rsp 8 +
STACK CFI INIT 54585 41 .cfa: $rsp 8 + .ra: .cfa -8 + ^
STACK CFI 54589 .cfa: $rsp 24 +
STACK CFI 5458b .cfa: $rsp 32 +
STACK CFI 5458d .cfa: $rsp 40 +
STACK CFI 5458f .cfa: $rsp 48 +
STACK CFI 54591 .cfa: $rsp 56 +
STACK CFI 54593 .cfa: $rsp 64 +
STACK CFI 54595 .cfa: $rsp 72 +
STACK CFI 54597 .cfa: $rsp 80 +
STACK CFI 54599 .cfa: $rsp 88 +
STACK CFI 5459b .cfa: $rsp 96 +
STACK CFI 5459d .cfa: $rsp 104 +
STACK CFI 5459f .cfa: $rsp 112 +
STACK CFI 545a1 .cfa: $rsp 120 +
STACK CFI 545a3 .cfa: $rsp 128 +
STACK CFI 545a5 .cfa: $rsp 136 +
STACK CFI 545a7 .cfa: $rsp 144 +
STACK CFI 545a9 .cfa: $rsp 152 +
STACK CFI 545ab .cfa: $rsp 160 +
STACK CFI 545b2 .cfa: $rsp 168 +
STACK CFI 545b9 .cfa: $rsp 176 +
STACK CFI 545c5 .cfa: $rsp 8 +
STACK CFI INIT 545c6 41 .cfa: $rsp 8 + .ra: .cfa -8 + ^
STACK CFI 545ca .cfa: $rsp 24 +
STACK CFI 545cc .cfa: $rsp 32 +
STACK CFI 545ce .cfa: $rsp 40 +
STACK CFI 545d0 .cfa: $rsp 48 +
STACK CFI 545d2 .cfa: $rsp 56 +
STACK CFI 545d4 .cfa: $rsp 64 +
STACK CFI 545d6 .cfa: $rsp 72 +
STACK CFI 545d8 .cfa: $rsp 80 +
STACK CFI 545da .cfa: $rsp 88 +
STACK CFI 545dc .cfa: $rsp 96 +
STACK CFI 545de .cfa: $rsp 104 +
STACK CFI 545e0 .cfa: $rsp 112 +
STACK CFI 545e2 .cfa: $rsp 120 +
STACK CFI 545e4 .cfa: $rsp 128 +
STACK CFI 545e6 .cfa: $rsp 136 +
STACK CFI 545e8 .cfa: $rsp 144 +
STACK CFI 545ea .cfa: $rsp 152 +
STACK CFI 545ec .cfa: $rsp 160 +
STACK CFI 545f3 .cfa: $rsp 168 +
STACK CFI 545fa .cfa: $rsp 176 +
STACK CFI 54606 .cfa: $rsp 8 +
STACK CFI INIT 54607 41 .cfa: $rsp 8 + .ra: .cfa -8 + ^
STACK CFI 5460b .cfa: $rsp 24 +
STACK CFI 5460d .cfa: $rsp 32 +
STACK CFI 5460f .cfa: $rsp 40 +
STACK CFI 54611 .cfa: $rsp 48 +
STACK CFI 54613 .cfa: $rsp 56 +
STACK CFI 54615 .cfa: $rsp 64 +
STACK CFI 54617 .cfa: $rsp 72 +
STACK CFI 54619 .cfa: $rsp 80 +
STACK CFI 5461b .cfa: $rsp 88 +
STACK CFI 5461d .cfa: $rsp 96 +
STACK CFI 5461f .cfa: $rsp 104 +
STACK CFI 54621 .cfa: $rsp 112 +
STACK CFI 54623 .cfa: $rsp 120 +
STACK CFI 54625 .cfa: $rsp 128 +
STACK CFI 54627 .cfa: $rsp 136 +
STACK CFI 54629 .cfa: $rsp 144 +
STACK CFI 5462b .cfa: $rsp 152 +
STACK CFI 5462d .cfa: $rsp 160 +
STACK CFI 54634 .cfa: $rsp 168 +
STACK CFI 5463b .cfa: $rsp 176 +
STACK CFI 54647 .cfa: $rsp 8 +
STACK CFI INIT 54648 41 .cfa: $rsp 8 + .ra: .cfa -8 + ^
STACK CFI 5464c .cfa: $rsp 24 +
STACK CFI 5464e .cfa: $rsp 32 +
STACK CFI 54650 .cfa: $rsp 40 +
STACK CFI 54652 .cfa: $rsp 48 +
STACK CFI 54654 .cfa: $rsp 56 +
STACK CFI 54656 .cfa: $rsp 64 +
STACK CFI 54658 .cfa: $rsp 72 +
STACK CFI 5465a .cfa: $rsp 80 +
STACK CFI 5465c .cfa: $rsp 88 +
STACK CFI 5465e .cfa: $rsp 96 +
STACK CFI 54660 .cfa: $rsp 104 +
STACK CFI 54662 .cfa: $rsp 112 +
STACK CFI 54664 .cfa: $rsp 120 +
STACK CFI 54666 .cfa: $rsp 128 +
STACK CFI 54668 .cfa: $rsp 136 +
STACK CFI 5466a .cfa: $rsp 144 +
STACK CFI 5466c .cfa: $rsp 152 +
STACK CFI 5466e .cfa: $rsp 160 +
STACK CFI 54675 .cfa: $rsp 168 +
STACK CFI 5467c .cfa: $rsp 176 +
STACK CFI 54688 .cfa: $rsp 8 +
STACK CFI INIT 54689 41 .cfa: $rsp 8 + .ra: .cfa -8 + ^
STACK CFI 5468d .cfa: $rsp 24 +
STACK CFI 5468f .cfa: $rsp 32 +
STACK CFI 54691 .cfa: $rsp 40 +
STACK CFI 54693 .cfa: $rsp 48 +
STACK CFI 54695 .cfa: $rsp 56 +
STACK CFI 54697 .cfa: $rsp 64 +
STACK CFI 54699 .cfa: $rsp 72 +
STACK CFI 5469b .cfa: $rsp 80 +
STACK CFI 5469d .cfa: $rsp 88 +
STACK CFI 5469f .cfa: $rsp 96 +
STACK CFI 546a1 .cfa: $rsp 104 +
STACK CFI 546a3 .cfa: $rsp 112 +
STACK CFI 546a5 .cfa: $rsp 120 +
STACK CFI 546a7 .cfa: $rsp 128 +
STACK CFI 546a9 .cfa: $rsp 136 +
STACK CFI 546ab .cfa: $rsp 144 +
STACK CFI 546ad .cfa: $rsp 152 +
STACK CFI 546af .cfa: $rsp 160 +
STACK CFI 546b6 .cfa: $rsp 168 +
STACK CFI 546bd .cfa: $rsp 176 +
STACK CFI 546c9 .cfa: $rsp 8 +
STACK CFI INIT 546ca 41 .cfa: $rsp 8 + .ra: .cfa -8 + ^
STACK CFI 546ce .cfa: $rsp 24 +
STACK CFI 546d0 .cfa: $rsp 32 +
STACK CFI 546d2 .cfa: $rsp 40 +
STACK CFI 546d4 .cfa: $rsp 48 +
STACK CFI 546d6 .cfa: $rsp 56 +
STACK CFI 546d8 .cfa: $rsp 64 +
STACK CFI 546da .cfa: $rsp 72 +
STACK CFI 546dc .cfa: $rsp 80 +
STACK CFI 546de .cfa: $rsp 88 +
STACK CFI 546e0 .cfa: $rsp 96 +
STACK CFI 546e2 .cfa: $rsp 104 +
STACK CFI 546e4 .cfa: $rsp 112 +
STACK CFI 546e6 .cfa: $rsp 120 +
STACK CFI 546e8 .cfa: $rsp 128 +
STACK CFI 546ea .cfa: $rsp 136 +
STACK CFI 546ec .cfa: $rsp 144 +
STACK CFI 546ee .cfa: $rsp 152 +
STACK CFI 546f0 .cfa: $rsp 160 +
STACK CFI 546f7 .cfa: $rsp 168 +
STACK CFI 546fe .cfa: $rsp 176 +
STACK CFI 5470a .cfa: $rsp 8 +
STACK CFI INIT 5470b 41 .cfa: $rsp 8 + .ra: .cfa -8 + ^
STACK CFI 5470f .cfa: $rsp 24 +
STACK CFI 54711 .cfa: $rsp 32 +
STACK CFI 54713 .cfa: $rsp 40 +
STACK CFI 54715 .cfa: $rsp 48 +
STACK CFI 54717 .cfa: $rsp 56 +
STACK CFI 54719 .cfa: $rsp 64 +
STACK CFI 5471b .cfa: $rsp 72 +
STACK CFI 5471d .cfa: $rsp 80 +
STACK CFI 5471f .cfa: $rsp 88 +
STACK CFI 54721 .cfa: $rsp 96 +
STACK CFI 54723 .cfa: $rsp 104 +
STACK CFI 54725 .cfa: $rsp 112 +
STACK CFI 54727 .cfa: $rsp 120 +
STACK CFI 54729 .cfa: $rsp 128 +
STACK CFI 5472b .cfa: $rsp 136 +
STACK CFI 5472d .cfa: $rsp 144 +
STACK CFI 5472f .cfa: $rsp 152 +
STACK CFI 54731 .cfa: $rsp 160 +
STACK CFI 54738 .cfa: $rsp 168 +
STACK CFI 5473f .cfa: $rsp 176 +
STACK CFI 5474b .cfa: $rsp 8 +
STACK CFI INIT 5474c 41 .cfa: $rsp 8 + .ra: .cfa -8 + ^
STACK CFI 54750 .cfa: $rsp 24 +
STACK CFI 54752 .cfa: $rsp 32 +
STACK CFI 54754 .cfa: $rsp 40 +
STACK CFI 54756 .cfa: $rsp 48 +
STACK CFI 54758 .cfa: $rsp 56 +
STACK CFI 5475a .cfa: $rsp 64 +
STACK CFI 5475c .cfa: $rsp 72 +
STACK CFI 5475e .cfa: $rsp 80 +
STACK CFI 54760 .cfa: $rsp 88 +
STACK CFI 54762 .cfa: $rsp 96 +
STACK CFI 54764 .cfa: $rsp 104 +
STACK CFI 54766 .cfa: $rsp 112 +
STACK CFI 54768 .cfa: $rsp 120 +
STACK CFI 5476a .cfa: $rsp 128 +
STACK CFI 5476c .cfa: $rsp 136 +
STACK CFI 5476e .cfa: $rsp 144 +
STACK CFI 54770 .cfa: $rsp 152 +
STACK CFI 54772 .cfa: $rsp 160 +
STACK CFI 54779 .cfa: $rsp 168 +
STACK CFI 54780 .cfa: $rsp 176 +
STACK CFI 5478c .cfa: $rsp 8 +
STACK CFI INIT 5478d 41 .cfa: $rsp 8 + .ra: .cfa -8 + ^
STACK CFI 54791 .cfa: $rsp 24 +
STACK CFI 54793 .cfa: $rsp 32 +
STACK CFI 54795 .cfa: $rsp 40 +
STACK CFI 54797 .cfa: $rsp 48 +
STACK CFI 54799 .cfa: $rsp 56 +
STACK CFI 5479b .cfa: $rsp 64 +
STACK CFI 5479d .cfa: $rsp 72 +
STACK CFI 5479f .cfa: $rsp 80 +
STACK CFI 547a1 .cfa: $rsp 88 +
STACK CFI 547a3 .cfa: $rsp 96 +
STACK CFI 547a5 .cfa: $rsp 104 +
STACK CFI 547a7 .cfa: $rsp 112 +
STACK CFI 547a9 .cfa: $rsp 120 +
STACK CFI 547ab .cfa: $rsp 128 +
STACK CFI 547ad .cfa: $rsp 136 +
STACK CFI 547af .cfa: $rsp 144 +
STACK CFI 547b1 .cfa: $rsp 152 +
STACK CFI 547b3 .cfa: $rsp 160 +
STACK CFI 547ba .cfa: $rsp 168 +
STACK CFI 547c1 .cfa: $rsp 176 +
STACK CFI 547cd .cfa: $rsp 8 +
STACK CFI INIT 547ce 41 .cfa: $rsp 8 + .ra: .cfa -8 + ^
STACK CFI 547d2 .cfa: $rsp 24 +
STACK CFI 547d4 .cfa: $rsp 32 +
STACK CFI 547d6 .cfa: $rsp 40 +
STACK CFI 547d8 .cfa: $rsp 48 +
STACK CFI 547da .cfa: $rsp 56 +
STACK CFI 547dc .cfa: $rsp 64 +
STACK CFI 547de .cfa: $rsp 72 +
STACK CFI 547e0 .cfa: $rsp 80 +
STACK CFI 547e2 .cfa: $rsp 88 +
STACK CFI 547e4 .cfa: $rsp 96 +
STACK CFI 547e6 .cfa: $rsp 104 +
STACK CFI 547e8 .cfa: $rsp 112 +
STACK CFI 547ea .cfa: $rsp 120 +
STACK CFI 547ec .cfa: $rsp 128 +
STACK CFI 547ee .cfa: $rsp 136 +
STACK CFI 547f0 .cfa: $rsp 144 +
STACK CFI 547f2 .cfa: $rsp 152 +
STACK CFI 547f4 .cfa: $rsp 160 +
STACK CFI 547fb .cfa: $rsp 168 +
STACK CFI 54802 .cfa: $rsp 176 +
STACK CFI 5480e .cfa: $rsp 8 +
STACK CFI INIT 5480f 41 .cfa: $rsp 8 + .ra: .cfa -8 + ^
STACK CFI 54813 .cfa: $rsp 24 +
STACK CFI 54815 .cfa: $rsp 32 +
STACK CFI 54817 .cfa: $rsp 40 +
STACK CFI 54819 .cfa: $rsp 48 +
STACK CFI 5481b .cfa: $rsp 56 +
STACK CFI 5481d .cfa: $rsp 64 +
STACK CFI 5481f .cfa: $rsp 72 +
STACK CFI 54821 .cfa: $rsp 80 +
STACK CFI 54823 .cfa: $rsp 88 +
STACK CFI 54825 .cfa: $rsp 96 +
STACK CFI 54827 .cfa: $rsp 104 +
STACK CFI 54829 .cfa: $rsp 112 +
STACK CFI 5482b .cfa: $rsp 120 +
STACK CFI 5482d .cfa: $rsp 128 +
STACK CFI 5482f .cfa: $rsp 136 +
STACK CFI 54831 .cfa: $rsp 144 +
STACK CFI 54833 .cfa: $rsp 152 +
STACK CFI 54835 .cfa: $rsp 160 +
STACK CFI 5483c .cfa: $rsp 168 +
STACK CFI 54843 .cfa: $rsp 176 +
STACK CFI 5484f .cfa: $rsp 8 +
STACK CFI INIT 54850 41 .cfa: $rsp 8 + .ra: .cfa -8 + ^
STACK CFI 54854 .cfa: $rsp 24 +
STACK CFI 54856 .cfa: $rsp 32 +
STACK CFI 54858 .cfa: $rsp 40 +
STACK CFI 5485a .cfa: $rsp 48 +
STACK CFI 5485c .cfa: $rsp 56 +
STACK CFI 5485e .cfa: $rsp 64 +
STACK CFI 54860 .cfa: $rsp 72 +
STACK CFI 54862 .cfa: $rsp 80 +
STACK CFI 54864 .cfa: $rsp 88 +
STACK CFI 54866 .cfa: $rsp 96 +
STACK CFI 54868 .cfa: $rsp 104 +
STACK CFI 5486a .cfa: $rsp 112 +
STACK CFI 5486c .cfa: $rsp 120 +
STACK CFI 5486e .cfa: $rsp 128 +
STACK CFI 54870 .cfa: $rsp 136 +
STACK CFI 54872 .cfa: $rsp 144 +
STACK CFI 54874 .cfa: $rsp 152 +
STACK CFI 54876 .cfa: $rsp 160 +
STACK CFI 5487d .cfa: $rsp 168 +
STACK CFI 54884 .cfa: $rsp 176 +
STACK CFI 54890 .cfa: $rsp 8 +
STACK CFI INIT 54891 41 .cfa: $rsp 8 + .ra: .cfa -8 + ^
STACK CFI 54895 .cfa: $rsp 24 +
STACK CFI 54897 .cfa: $rsp 32 +
STACK CFI 54899 .cfa: $rsp 40 +
STACK CFI 5489b .cfa: $rsp 48 +
STACK CFI 5489d .cfa: $rsp 56 +
STACK CFI 5489f .cfa: $rsp 64 +
STACK CFI 548a1 .cfa: $rsp 72 +
STACK CFI 548a3 .cfa: $rsp 80 +
STACK CFI 548a5 .cfa: $rsp 88 +
STACK CFI 548a7 .cfa: $rsp 96 +
STACK CFI 548a9 .cfa: $rsp 104 +
STACK CFI 548ab .cfa: $rsp 112 +
STACK CFI 548ad .cfa: $rsp 120 +
STACK CFI 548af .cfa: $rsp 128 +
STACK CFI 548b1 .cfa: $rsp 136 +
STACK CFI 548b3 .cfa: $rsp 144 +
STACK CFI 548b5 .cfa: $rsp 152 +
STACK CFI 548b7 .cfa: $rsp 160 +
STACK CFI 548be .cfa: $rsp 168 +
STACK CFI 548c5 .cfa: $rsp 176 +
STACK CFI 548d1 .cfa: $rsp 8 +
STACK CFI INIT 548d2 41 .cfa: $rsp 8 + .ra: .cfa -8 + ^
STACK CFI 548d6 .cfa: $rsp 24 +
STACK CFI 548d8 .cfa: $rsp 32 +
STACK CFI 548da .cfa: $rsp 40 +
STACK CFI 548dc .cfa: $rsp 48 +
STACK CFI 548de .cfa: $rsp 56 +
STACK CFI 548e0 .cfa: $rsp 64 +
STACK CFI 548e2 .cfa: $rsp 72 +
STACK CFI 548e4 .cfa: $rsp 80 +
STACK CFI 548e6 .cfa: $rsp 88 +
STACK CFI 548e8 .cfa: $rsp 96 +
STACK CFI 548ea .cfa: $rsp 104 +
STACK CFI 548ec .cfa: $rsp 112 +
STACK CFI 548ee .cfa: $rsp 120 +
STACK CFI 548f0 .cfa: $rsp 128 +
STACK CFI 548f2 .cfa: $rsp 136 +
STACK CFI 548f4 .cfa: $rsp 144 +
STACK CFI 548f6 .cfa: $rsp 152 +
STACK CFI 548f8 .cfa: $rsp 160 +
STACK CFI 548ff .cfa: $rsp 168 +
STACK CFI 54906 .cfa: $rsp 176 +
STACK CFI 54912 .cfa: $rsp 8 +
STACK CFI INIT 54913 41 .cfa: $rsp 8 + .ra: .cfa -8 + ^
STACK CFI 54917 .cfa: $rsp 24 +
STACK CFI 54919 .cfa: $rsp 32 +
STACK CFI 5491b .cfa: $rsp 40 +
STACK CFI 5491d .cfa: $rsp 48 +
STACK CFI 5491f .cfa: $rsp 56 +
STACK CFI 54921 .cfa: $rsp 64 +
STACK CFI 54923 .cfa: $rsp 72 +
STACK CFI 54925 .cfa: $rsp 80 +
STACK CFI 54927 .cfa: $rsp 88 +
STACK CFI 54929 .cfa: $rsp 96 +
STACK CFI 5492b .cfa: $rsp 104 +
STACK CFI 5492d .cfa: $rsp 112 +
STACK CFI 5492f .cfa: $rsp 120 +
STACK CFI 54931 .cfa: $rsp 128 +
STACK CFI 54933 .cfa: $rsp 136 +
STACK CFI 54935 .cfa: $rsp 144 +
STACK CFI 54937 .cfa: $rsp 152 +
STACK CFI 54939 .cfa: $rsp 160 +
STACK CFI 54940 .cfa: $rsp 168 +
STACK CFI 54947 .cfa: $rsp 176 +
STACK CFI 54953 .cfa: $rsp 8 +
STACK CFI INIT 54954 41 .cfa: $rsp 8 + .ra: .cfa -8 + ^
STACK CFI 54958 .cfa: $rsp 24 +
STACK CFI 5495a .cfa: $rsp 32 +
STACK CFI 5495c .cfa: $rsp 40 +
STACK CFI 5495e .cfa: $rsp 48 +
STACK CFI 54960 .cfa: $rsp 56 +
STACK CFI 54962 .cfa: $rsp 64 +
STACK CFI 54964 .cfa: $rsp 72 +
STACK CFI 54966 .cfa: $rsp 80 +
STACK CFI 54968 .cfa: $rsp 88 +
STACK CFI 5496a .cfa: $rsp 96 +
STACK CFI 5496c .cfa: $rsp 104 +
STACK CFI 5496e .cfa: $rsp 112 +
STACK CFI 54970 .cfa: $rsp 120 +
STACK CFI 54972 .cfa: $rsp 128 +
STACK CFI 54974 .cfa: $rsp 136 +
STACK CFI 54976 .cfa: $rsp 144 +
STACK CFI 54978 .cfa: $rsp 152 +
STACK CFI 5497a .cfa: $rsp 160 +
STACK CFI 54981 .cfa: $rsp 168 +
STACK CFI 54988 .cfa: $rsp 176 +
STACK CFI 54994 .cfa: $rsp 8 +
STACK CFI INIT 54995 41 .cfa: $rsp 8 + .ra: .cfa -8 + ^
STACK CFI 54999 .cfa: $rsp 24 +
STACK CFI 5499b .cfa: $rsp 32 +
STACK CFI 5499d .cfa: $rsp 40 +
STACK CFI 5499f .cfa: $rsp 48 +
STACK CFI 549a1 .cfa: $rsp 56 +
STACK CFI 549a3 .cfa: $rsp 64 +
STACK CFI 549a5 .cfa: $rsp 72 +
STACK CFI 549a7 .cfa: $rsp 80 +
STACK CFI 549a9 .cfa: $rsp 88 +
STACK CFI 549ab .cfa: $rsp 96 +
STACK CFI 549ad .cfa: $rsp 104 +
STACK CFI 549af .cfa: $rsp 112 +
STACK CFI 549b1 .cfa: $rsp 120 +
STACK CFI 549b3 .cfa: $rsp 128 +
STACK CFI 549b5 .cfa: $rsp 136 +
STACK CFI 549b7 .cfa: $rsp 144 +
STACK CFI 549b9 .cfa: $rsp 152 +
STACK CFI 549bb .cfa: $rsp 160 +
STACK CFI 549c2 .cfa: $rsp 168 +
STACK CFI 549c9 .cfa: $rsp 176 +
STACK CFI 549d5 .cfa: $rsp 8 +
STACK CFI INIT 549d6 41 .cfa: $rsp 8 + .ra: .cfa -8 + ^
STACK CFI 549da .cfa: $rsp 24 +
STACK CFI 549dc .cfa: $rsp 32 +
STACK CFI 549de .cfa: $rsp 40 +
STACK CFI 549e0 .cfa: $rsp 48 +
STACK CFI 549e2 .cfa: $rsp 56 +
STACK CFI 549e4 .cfa: $rsp 64 +
STACK CFI 549e6 .cfa: $rsp 72 +
STACK CFI 549e8 .cfa: $rsp 80 +
STACK CFI 549ea .cfa: $rsp 88 +
STACK CFI 549ec .cfa: $rsp 96 +
STACK CFI 549ee .cfa: $rsp 104 +
STACK CFI 549f0 .cfa: $rsp 112 +
STACK CFI 549f2 .cfa: $rsp 120 +
STACK CFI 549f4 .cfa: $rsp 128 +
STACK CFI 549f6 .cfa: $rsp 136 +
STACK CFI 549f8 .cfa: $rsp 144 +
STACK CFI 549fa .cfa: $rsp 152 +
STACK CFI 549fc .cfa: $rsp 160 +
STACK CFI 54a03 .cfa: $rsp 168 +
STACK CFI 54a0a .cfa: $rsp 176 +
STACK CFI 54a16 .cfa: $rsp 8 +
STACK CFI INIT 54a17 41 .cfa: $rsp 8 + .ra: .cfa -8 + ^
STACK CFI 54a1b .cfa: $rsp 24 +
STACK CFI 54a1d .cfa: $rsp 32 +
STACK CFI 54a1f .cfa: $rsp 40 +
STACK CFI 54a21 .cfa: $rsp 48 +
STACK CFI 54a23 .cfa: $rsp 56 +
STACK CFI 54a25 .cfa: $rsp 64 +
STACK CFI 54a27 .cfa: $rsp 72 +
STACK CFI 54a29 .cfa: $rsp 80 +
STACK CFI 54a2b .cfa: $rsp 88 +
STACK CFI 54a2d .cfa: $rsp 96 +
STACK CFI 54a2f .cfa: $rsp 104 +
STACK CFI 54a31 .cfa: $rsp 112 +
STACK CFI 54a33 .cfa: $rsp 120 +
STACK CFI 54a35 .cfa: $rsp 128 +
STACK CFI 54a37 .cfa: $rsp 136 +
STACK CFI 54a39 .cfa: $rsp 144 +
STACK CFI 54a3b .cfa: $rsp 152 +
STACK CFI 54a3d .cfa: $rsp 160 +
STACK CFI 54a44 .cfa: $rsp 168 +
STACK CFI 54a4b .cfa: $rsp 176 +
STACK CFI 54a57 .cfa: $rsp 8 +
STACK CFI INIT 54a58 41 .cfa: $rsp 8 + .ra: .cfa -8 + ^
STACK CFI 54a5c .cfa: $rsp 24 +
STACK CFI 54a5e .cfa: $rsp 32 +
STACK CFI 54a60 .cfa: $rsp 40 +
STACK CFI 54a62 .cfa: $rsp 48 +
STACK CFI 54a64 .cfa: $rsp 56 +
STACK CFI 54a66 .cfa: $rsp 64 +
STACK CFI 54a68 .cfa: $rsp 72 +
STACK CFI 54a6a .cfa: $rsp 80 +
STACK CFI 54a6c .cfa: $rsp 88 +
STACK CFI 54a6e .cfa: $rsp 96 +
STACK CFI 54a70 .cfa: $rsp 104 +
STACK CFI 54a72 .cfa: $rsp 112 +
STACK CFI 54a74 .cfa: $rsp 120 +
STACK CFI 54a76 .cfa: $rsp 128 +
STACK CFI 54a78 .cfa: $rsp 136 +
STACK CFI 54a7a .cfa: $rsp 144 +
STACK CFI 54a7c .cfa: $rsp 152 +
STACK CFI 54a7e .cfa: $rsp 160 +
STACK CFI 54a85 .cfa: $rsp 168 +
STACK CFI 54a8c .cfa: $rsp 176 +
STACK CFI 54a98 .cfa: $rsp 8 +
STACK CFI INIT 54a99 41 .cfa: $rsp 8 + .ra: .cfa -8 + ^
STACK CFI 54a9d .cfa: $rsp 24 +
STACK CFI 54a9f .cfa: $rsp 32 +
STACK CFI 54aa1 .cfa: $rsp 40 +
STACK CFI 54aa3 .cfa: $rsp 48 +
STACK CFI 54aa5 .cfa: $rsp 56 +
STACK CFI 54aa7 .cfa: $rsp 64 +
STACK CFI 54aa9 .cfa: $rsp 72 +
STACK CFI 54aab .cfa: $rsp 80 +
STACK CFI 54aad .cfa: $rsp 88 +
STACK CFI 54aaf .cfa: $rsp 96 +
STACK CFI 54ab1 .cfa: $rsp 104 +
STACK CFI 54ab3 .cfa: $rsp 112 +
STACK CFI 54ab5 .cfa: $rsp 120 +
STACK CFI 54ab7 .cfa: $rsp 128 +
STACK CFI 54ab9 .cfa: $rsp 136 +
STACK CFI 54abb .cfa: $rsp 144 +
STACK CFI 54abd .cfa: $rsp 152 +
STACK CFI 54abf .cfa: $rsp 160 +
STACK CFI 54ac6 .cfa: $rsp 168 +
STACK CFI 54acd .cfa: $rsp 176 +
STACK CFI 54ad9 .cfa: $rsp 8 +
STACK CFI INIT 54ada 41 .cfa: $rsp 8 + .ra: .cfa -8 + ^
STACK CFI 54ade .cfa: $rsp 24 +
STACK CFI 54ae0 .cfa: $rsp 32 +
STACK CFI 54ae2 .cfa: $rsp 40 +
STACK CFI 54ae4 .cfa: $rsp 48 +
STACK CFI 54ae6 .cfa: $rsp 56 +
STACK CFI 54ae8 .cfa: $rsp 64 +
STACK CFI 54aea .cfa: $rsp 72 +
STACK CFI 54aec .cfa: $rsp 80 +
STACK CFI 54aee .cfa: $rsp 88 +
STACK CFI 54af0 .cfa: $rsp 96 +
STACK CFI 54af2 .cfa: $rsp 104 +
STACK CFI 54af4 .cfa: $rsp 112 +
STACK CFI 54af6 .cfa: $rsp 120 +
STACK CFI 54af8 .cfa: $rsp 128 +
STACK CFI 54afa .cfa: $rsp 136 +
STACK CFI 54afc .cfa: $rsp 144 +
STACK CFI 54afe .cfa: $rsp 152 +
STACK CFI 54b00 .cfa: $rsp 160 +
STACK CFI 54b07 .cfa: $rsp 168 +
STACK CFI 54b0e .cfa: $rsp 176 +
STACK CFI 54b1a .cfa: $rsp 8 +
STACK CFI INIT 54b1b 41 .cfa: $rsp 8 + .ra: .cfa -8 + ^
STACK CFI 54b1f .cfa: $rsp 24 +
STACK CFI 54b21 .cfa: $rsp 32 +
STACK CFI 54b23 .cfa: $rsp 40 +
STACK CFI 54b25 .cfa: $rsp 48 +
STACK CFI 54b27 .cfa: $rsp 56 +
STACK CFI 54b29 .cfa: $rsp 64 +
STACK CFI 54b2b .cfa: $rsp 72 +
STACK CFI 54b2d .cfa: $rsp 80 +
STACK CFI 54b2f .cfa: $rsp 88 +
STACK CFI 54b31 .cfa: $rsp 96 +
STACK CFI 54b33 .cfa: $rsp 104 +
STACK CFI 54b35 .cfa: $rsp 112 +
STACK CFI 54b37 .cfa: $rsp 120 +
STACK CFI 54b39 .cfa: $rsp 128 +
STACK CFI 54b3b .cfa: $rsp 136 +
STACK CFI 54b3d .cfa: $rsp 144 +
STACK CFI 54b3f .cfa: $rsp 152 +
STACK CFI 54b41 .cfa: $rsp 160 +
STACK CFI 54b48 .cfa: $rsp 168 +
STACK CFI 54b4f .cfa: $rsp 176 +
STACK CFI 54b5b .cfa: $rsp 8 +
STACK CFI INIT 54b5c 41 .cfa: $rsp 8 + .ra: .cfa -8 + ^
STACK CFI 54b60 .cfa: $rsp 24 +
STACK CFI 54b62 .cfa: $rsp 32 +
STACK CFI 54b64 .cfa: $rsp 40 +
STACK CFI 54b66 .cfa: $rsp 48 +
STACK CFI 54b68 .cfa: $rsp 56 +
STACK CFI 54b6a .cfa: $rsp 64 +
STACK CFI 54b6c .cfa: $rsp 72 +
STACK CFI 54b6e .cfa: $rsp 80 +
STACK CFI 54b70 .cfa: $rsp 88 +
STACK CFI 54b72 .cfa: $rsp 96 +
STACK CFI 54b74 .cfa: $rsp 104 +
STACK CFI 54b76 .cfa: $rsp 112 +
STACK CFI 54b78 .cfa: $rsp 120 +
STACK CFI 54b7a .cfa: $rsp 128 +
STACK CFI 54b7c .cfa: $rsp 136 +
STACK CFI 54b7e .cfa: $rsp 144 +
STACK CFI 54b80 .cfa: $rsp 152 +
STACK CFI 54b82 .cfa: $rsp 160 +
STACK CFI 54b89 .cfa: $rsp 168 +
STACK CFI 54b90 .cfa: $rsp 176 +
STACK CFI 54b9c .cfa: $rsp 8 +
STACK CFI INIT 54b9d 41 .cfa: $rsp 8 + .ra: .cfa -8 + ^
STACK CFI 54ba1 .cfa: $rsp 24 +
STACK CFI 54ba3 .cfa: $rsp 32 +
STACK CFI 54ba5 .cfa: $rsp 40 +
STACK CFI 54ba7 .cfa: $rsp 48 +
STACK CFI 54ba9 .cfa: $rsp 56 +
STACK CFI 54bab .cfa: $rsp 64 +
STACK CFI 54bad .cfa: $rsp 72 +
STACK CFI 54baf .cfa: $rsp 80 +
STACK CFI 54bb1 .cfa: $rsp 88 +
STACK CFI 54bb3 .cfa: $rsp 96 +
STACK CFI 54bb5 .cfa: $rsp 104 +
STACK CFI 54bb7 .cfa: $rsp 112 +
STACK CFI 54bb9 .cfa: $rsp 120 +
STACK CFI 54bbb .cfa: $rsp 128 +
STACK CFI 54bbd .cfa: $rsp 136 +
STACK CFI 54bbf .cfa: $rsp 144 +
STACK CFI 54bc1 .cfa: $rsp 152 +
STACK CFI 54bc3 .cfa: $rsp 160 +
STACK CFI 54bca .cfa: $rsp 168 +
STACK CFI 54bd1 .cfa: $rsp 176 +
STACK CFI 54bdd .cfa: $rsp 8 +
STACK CFI INIT 54bde 41 .cfa: $rsp 8 + .ra: .cfa -8 + ^
STACK CFI 54be2 .cfa: $rsp 24 +
STACK CFI 54be4 .cfa: $rsp 32 +
STACK CFI 54be6 .cfa: $rsp 40 +
STACK CFI 54be8 .cfa: $rsp 48 +
STACK CFI 54bea .cfa: $rsp 56 +
STACK CFI 54bec .cfa: $rsp 64 +
STACK CFI 54bee .cfa: $rsp 72 +
STACK CFI 54bf0 .cfa: $rsp 80 +
STACK CFI 54bf2 .cfa: $rsp 88 +
STACK CFI 54bf4 .cfa: $rsp 96 +
STACK CFI 54bf6 .cfa: $rsp 104 +
STACK CFI 54bf8 .cfa: $rsp 112 +
STACK CFI 54bfa .cfa: $rsp 120 +
STACK CFI 54bfc .cfa: $rsp 128 +
STACK CFI 54bfe .cfa: $rsp 136 +
STACK CFI 54c00 .cfa: $rsp 144 +
STACK CFI 54c02 .cfa: $rsp 152 +
STACK CFI 54c04 .cfa: $rsp 160 +
STACK CFI 54c0b .cfa: $rsp 168 +
STACK CFI 54c12 .cfa: $rsp 176 +
STACK CFI 54c1e .cfa: $rsp 8 +
STACK CFI INIT 54c1f 41 .cfa: $rsp 8 + .ra: .cfa -8 + ^
STACK CFI 54c23 .cfa: $rsp 24 +
STACK CFI 54c25 .cfa: $rsp 32 +
STACK CFI 54c27 .cfa: $rsp 40 +
STACK CFI 54c29 .cfa: $rsp 48 +
STACK CFI 54c2b .cfa: $rsp 56 +
STACK CFI 54c2d .cfa: $rsp 64 +
STACK CFI 54c2f .cfa: $rsp 72 +
STACK CFI 54c31 .cfa: $rsp 80 +
STACK CFI 54c33 .cfa: $rsp 88 +
STACK CFI 54c35 .cfa: $rsp 96 +
STACK CFI 54c37 .cfa: $rsp 104 +
STACK CFI 54c39 .cfa: $rsp 112 +
STACK CFI 54c3b .cfa: $rsp 120 +
STACK CFI 54c3d .cfa: $rsp 128 +
STACK CFI 54c3f .cfa: $rsp 136 +
STACK CFI 54c41 .cfa: $rsp 144 +
STACK CFI 54c43 .cfa: $rsp 152 +
STACK CFI 54c45 .cfa: $rsp 160 +
STACK CFI 54c4c .cfa: $rsp 168 +
STACK CFI 54c53 .cfa: $rsp 176 +
STACK CFI 54c5f .cfa: $rsp 8 +
STACK CFI INIT 54c60 41 .cfa: $rsp 8 + .ra: .cfa -8 + ^
STACK CFI 54c64 .cfa: $rsp 24 +
STACK CFI 54c66 .cfa: $rsp 32 +
STACK CFI 54c68 .cfa: $rsp 40 +
STACK CFI 54c6a .cfa: $rsp 48 +
STACK CFI 54c6c .cfa: $rsp 56 +
STACK CFI 54c6e .cfa: $rsp 64 +
STACK CFI 54c70 .cfa: $rsp 72 +
STACK CFI 54c72 .cfa: $rsp 80 +
STACK CFI 54c74 .cfa: $rsp 88 +
STACK CFI 54c76 .cfa: $rsp 96 +
STACK CFI 54c78 .cfa: $rsp 104 +
STACK CFI 54c7a .cfa: $rsp 112 +
STACK CFI 54c7c .cfa: $rsp 120 +
STACK CFI 54c7e .cfa: $rsp 128 +
STACK CFI 54c80 .cfa: $rsp 136 +
STACK CFI 54c82 .cfa: $rsp 144 +
STACK CFI 54c84 .cfa: $rsp 152 +
STACK CFI 54c86 .cfa: $rsp 160 +
STACK CFI 54c8d .cfa: $rsp 168 +
STACK CFI 54c94 .cfa: $rsp 176 +
STACK CFI 54ca0 .cfa: $rsp 8 +
STACK CFI INIT 54ca1 41 .cfa: $rsp 8 + .ra: .cfa -8 + ^
STACK CFI 54ca5 .cfa: $rsp 24 +
STACK CFI 54ca7 .cfa: $rsp 32 +
STACK CFI 54ca9 .cfa: $rsp 40 +
STACK CFI 54cab .cfa: $rsp 48 +
STACK CFI 54cad .cfa: $rsp 56 +
STACK CFI 54caf .cfa: $rsp 64 +
STACK CFI 54cb1 .cfa: $rsp 72 +
STACK CFI 54cb3 .cfa: $rsp 80 +
STACK CFI 54cb5 .cfa: $rsp 88 +
STACK CFI 54cb7 .cfa: $rsp 96 +
STACK CFI 54cb9 .cfa: $rsp 104 +
STACK CFI 54cbb .cfa: $rsp 112 +
STACK CFI 54cbd .cfa: $rsp 120 +
STACK CFI 54cbf .cfa: $rsp 128 +
STACK CFI 54cc1 .cfa: $rsp 136 +
STACK CFI 54cc3 .cfa: $rsp 144 +
STACK CFI 54cc5 .cfa: $rsp 152 +
STACK CFI 54cc7 .cfa: $rsp 160 +
STACK CFI 54cce .cfa: $rsp 168 +
STACK CFI 54cd5 .cfa: $rsp 176 +
STACK CFI 54ce1 .cfa: $rsp 8 +
STACK CFI INIT 54ce2 41 .cfa: $rsp 8 + .ra: .cfa -8 + ^
STACK CFI 54ce6 .cfa: $rsp 24 +
STACK CFI 54ce8 .cfa: $rsp 32 +
STACK CFI 54cea .cfa: $rsp 40 +
STACK CFI 54cec .cfa: $rsp 48 +
STACK CFI 54cee .cfa: $rsp 56 +
STACK CFI 54cf0 .cfa: $rsp 64 +
STACK CFI 54cf2 .cfa: $rsp 72 +
STACK CFI 54cf4 .cfa: $rsp 80 +
STACK CFI 54cf6 .cfa: $rsp 88 +
STACK CFI 54cf8 .cfa: $rsp 96 +
STACK CFI 54cfa .cfa: $rsp 104 +
STACK CFI 54cfc .cfa: $rsp 112 +
STACK CFI 54cfe .cfa: $rsp 120 +
STACK CFI 54d00 .cfa: $rsp 128 +
STACK CFI 54d02 .cfa: $rsp 136 +
STACK CFI 54d04 .cfa: $rsp 144 +
STACK CFI 54d06 .cfa: $rsp 152 +
STACK CFI 54d08 .cfa: $rsp 160 +
STACK CFI 54d0f .cfa: $rsp 168 +
STACK CFI 54d16 .cfa: $rsp 176 +
STACK CFI 54d22 .cfa: $rsp 8 +
STACK CFI INIT 54d23 41 .cfa: $rsp 8 + .ra: .cfa -8 + ^
STACK CFI 54d27 .cfa: $rsp 24 +
STACK CFI 54d29 .cfa: $rsp 32 +
STACK CFI 54d2b .cfa: $rsp 40 +
STACK CFI 54d2d .cfa: $rsp 48 +
STACK CFI 54d2f .cfa: $rsp 56 +
STACK CFI 54d31 .cfa: $rsp 64 +
STACK CFI 54d33 .cfa: $rsp 72 +
STACK CFI 54d35 .cfa: $rsp 80 +
STACK CFI 54d37 .cfa: $rsp 88 +
STACK CFI 54d39 .cfa: $rsp 96 +
STACK CFI 54d3b .cfa: $rsp 104 +
STACK CFI 54d3d .cfa: $rsp 112 +
STACK CFI 54d3f .cfa: $rsp 120 +
STACK CFI 54d41 .cfa: $rsp 128 +
STACK CFI 54d43 .cfa: $rsp 136 +
STACK CFI 54d45 .cfa: $rsp 144 +
STACK CFI 54d47 .cfa: $rsp 152 +
STACK CFI 54d49 .cfa: $rsp 160 +
STACK CFI 54d50 .cfa: $rsp 168 +
STACK CFI 54d57 .cfa: $rsp 176 +
STACK CFI 54d63 .cfa: $rsp 8 +
STACK CFI INIT 54d64 41 .cfa: $rsp 8 + .ra: .cfa -8 + ^
STACK CFI 54d68 .cfa: $rsp 24 +
STACK CFI 54d6a .cfa: $rsp 32 +
STACK CFI 54d6c .cfa: $rsp 40 +
STACK CFI 54d6e .cfa: $rsp 48 +
STACK CFI 54d70 .cfa: $rsp 56 +
STACK CFI 54d72 .cfa: $rsp 64 +
STACK CFI 54d74 .cfa: $rsp 72 +
STACK CFI 54d76 .cfa: $rsp 80 +
STACK CFI 54d78 .cfa: $rsp 88 +
STACK CFI 54d7a .cfa: $rsp 96 +
STACK CFI 54d7c .cfa: $rsp 104 +
STACK CFI 54d7e .cfa: $rsp 112 +
STACK CFI 54d80 .cfa: $rsp 120 +
STACK CFI 54d82 .cfa: $rsp 128 +
STACK CFI 54d84 .cfa: $rsp 136 +
STACK CFI 54d86 .cfa: $rsp 144 +
STACK CFI 54d88 .cfa: $rsp 152 +
STACK CFI 54d8a .cfa: $rsp 160 +
STACK CFI 54d91 .cfa: $rsp 168 +
STACK CFI 54d98 .cfa: $rsp 176 +
STACK CFI 54da4 .cfa: $rsp 8 +
STACK CFI INIT 54da5 41 .cfa: $rsp 8 + .ra: .cfa -8 + ^
STACK CFI 54da9 .cfa: $rsp 24 +
STACK CFI 54dab .cfa: $rsp 32 +
STACK CFI 54dad .cfa: $rsp 40 +
STACK CFI 54daf .cfa: $rsp 48 +
STACK CFI 54db1 .cfa: $rsp 56 +
STACK CFI 54db3 .cfa: $rsp 64 +
STACK CFI 54db5 .cfa: $rsp 72 +
STACK CFI 54db7 .cfa: $rsp 80 +
STACK CFI 54db9 .cfa: $rsp 88 +
STACK CFI 54dbb .cfa: $rsp 96 +
STACK CFI 54dbd .cfa: $rsp 104 +
STACK CFI 54dbf .cfa: $rsp 112 +
STACK CFI 54dc1 .cfa: $rsp 120 +
STACK CFI 54dc3 .cfa: $rsp 128 +
STACK CFI 54dc5 .cfa: $rsp 136 +
STACK CFI 54dc7 .cfa: $rsp 144 +
STACK CFI 54dc9 .cfa: $rsp 152 +
STACK CFI 54dcb .cfa: $rsp 160 +
STACK CFI 54dd2 .cfa: $rsp 168 +
STACK CFI 54dd9 .cfa: $rsp 176 +
STACK CFI 54de5 .cfa: $rsp 8 +
STACK CFI INIT 54de6 41 .cfa: $rsp 8 + .ra: .cfa -8 + ^
STACK CFI 54dea .cfa: $rsp 24 +
STACK CFI 54dec .cfa: $rsp 32 +
STACK CFI 54dee .cfa: $rsp 40 +
STACK CFI 54df0 .cfa: $rsp 48 +
STACK CFI 54df2 .cfa: $rsp 56 +
STACK CFI 54df4 .cfa: $rsp 64 +
STACK CFI 54df6 .cfa: $rsp 72 +
STACK CFI 54df8 .cfa: $rsp 80 +
STACK CFI 54dfa .cfa: $rsp 88 +
STACK CFI 54dfc .cfa: $rsp 96 +
STACK CFI 54dfe .cfa: $rsp 104 +
STACK CFI 54e00 .cfa: $rsp 112 +
STACK CFI 54e02 .cfa: $rsp 120 +
STACK CFI 54e04 .cfa: $rsp 128 +
STACK CFI 54e06 .cfa: $rsp 136 +
STACK CFI 54e08 .cfa: $rsp 144 +
STACK CFI 54e0a .cfa: $rsp 152 +
STACK CFI 54e0c .cfa: $rsp 160 +
STACK CFI 54e13 .cfa: $rsp 168 +
STACK CFI 54e1a .cfa: $rsp 176 +
STACK CFI 54e26 .cfa: $rsp 8 +
STACK CFI INIT 54e27 41 .cfa: $rsp 8 + .ra: .cfa -8 + ^
STACK CFI 54e2b .cfa: $rsp 24 +
STACK CFI 54e2d .cfa: $rsp 32 +
STACK CFI 54e2f .cfa: $rsp 40 +
STACK CFI 54e31 .cfa: $rsp 48 +
STACK CFI 54e33 .cfa: $rsp 56 +
STACK CFI 54e35 .cfa: $rsp 64 +
STACK CFI 54e37 .cfa: $rsp 72 +
STACK CFI 54e39 .cfa: $rsp 80 +
STACK CFI 54e3b .cfa: $rsp 88 +
STACK CFI 54e3d .cfa: $rsp 96 +
STACK CFI 54e3f .cfa: $rsp 104 +
STACK CFI 54e41 .cfa: $rsp 112 +
STACK CFI 54e43 .cfa: $rsp 120 +
STACK CFI 54e45 .cfa: $rsp 128 +
STACK CFI 54e47 .cfa: $rsp 136 +
STACK CFI 54e49 .cfa: $rsp 144 +
STACK CFI 54e4b .cfa: $rsp 152 +
STACK CFI 54e4d .cfa: $rsp 160 +
STACK CFI 54e54 .cfa: $rsp 168 +
STACK CFI 54e5b .cfa: $rsp 176 +
STACK CFI 54e67 .cfa: $rsp 8 +
STACK CFI INIT 54e68 41 .cfa: $rsp 8 + .ra: .cfa -8 + ^
STACK CFI 54e6c .cfa: $rsp 24 +
STACK CFI 54e6e .cfa: $rsp 32 +
STACK CFI 54e70 .cfa: $rsp 40 +
STACK CFI 54e72 .cfa: $rsp 48 +
STACK CFI 54e74 .cfa: $rsp 56 +
STACK CFI 54e76 .cfa: $rsp 64 +
STACK CFI 54e78 .cfa: $rsp 72 +
STACK CFI 54e7a .cfa: $rsp 80 +
STACK CFI 54e7c .cfa: $rsp 88 +
STACK CFI 54e7e .cfa: $rsp 96 +
STACK CFI 54e80 .cfa: $rsp 104 +
STACK CFI 54e82 .cfa: $rsp 112 +
STACK CFI 54e84 .cfa: $rsp 120 +
STACK CFI 54e86 .cfa: $rsp 128 +
STACK CFI 54e88 .cfa: $rsp 136 +
STACK CFI 54e8a .cfa: $rsp 144 +
STACK CFI 54e8c .cfa: $rsp 152 +
STACK CFI 54e8e .cfa: $rsp 160 +
STACK CFI 54e95 .cfa: $rsp 168 +
STACK CFI 54e9c .cfa: $rsp 176 +
STACK CFI 54ea8 .cfa: $rsp 8 +
STACK CFI INIT 54ea9 41 .cfa: $rsp 8 + .ra: .cfa -8 + ^
STACK CFI 54ead .cfa: $rsp 24 +
STACK CFI 54eaf .cfa: $rsp 32 +
STACK CFI 54eb1 .cfa: $rsp 40 +
STACK CFI 54eb3 .cfa: $rsp 48 +
STACK CFI 54eb5 .cfa: $rsp 56 +
STACK CFI 54eb7 .cfa: $rsp 64 +
STACK CFI 54eb9 .cfa: $rsp 72 +
STACK CFI 54ebb .cfa: $rsp 80 +
STACK CFI 54ebd .cfa: $rsp 88 +
STACK CFI 54ebf .cfa: $rsp 96 +
STACK CFI 54ec1 .cfa: $rsp 104 +
STACK CFI 54ec3 .cfa: $rsp 112 +
STACK CFI 54ec5 .cfa: $rsp 120 +
STACK CFI 54ec7 .cfa: $rsp 128 +
STACK CFI 54ec9 .cfa: $rsp 136 +
STACK CFI 54ecb .cfa: $rsp 144 +
STACK CFI 54ecd .cfa: $rsp 152 +
STACK CFI 54ecf .cfa: $rsp 160 +
STACK CFI 54ed6 .cfa: $rsp 168 +
STACK CFI 54edd .cfa: $rsp 176 +
STACK CFI 54ee9 .cfa: $rsp 8 +
STACK CFI INIT 54eea 41 .cfa: $rsp 8 + .ra: .cfa -8 + ^
STACK CFI 54eee .cfa: $rsp 24 +
STACK CFI 54ef0 .cfa: $rsp 32 +
STACK CFI 54ef2 .cfa: $rsp 40 +
STACK CFI 54ef4 .cfa: $rsp 48 +
STACK CFI 54ef6 .cfa: $rsp 56 +
STACK CFI 54ef8 .cfa: $rsp 64 +
STACK CFI 54efa .cfa: $rsp 72 +
STACK CFI 54efc .cfa: $rsp 80 +
STACK CFI 54efe .cfa: $rsp 88 +
STACK CFI 54f00 .cfa: $rsp 96 +
STACK CFI 54f02 .cfa: $rsp 104 +
STACK CFI 54f04 .cfa: $rsp 112 +
STACK CFI 54f06 .cfa: $rsp 120 +
STACK CFI 54f08 .cfa: $rsp 128 +
STACK CFI 54f0a .cfa: $rsp 136 +
STACK CFI 54f0c .cfa: $rsp 144 +
STACK CFI 54f0e .cfa: $rsp 152 +
STACK CFI 54f10 .cfa: $rsp 160 +
STACK CFI 54f17 .cfa: $rsp 168 +
STACK CFI 54f1e .cfa: $rsp 176 +
STACK CFI 54f2a .cfa: $rsp 8 +
STACK CFI INIT 54f2b 41 .cfa: $rsp 8 + .ra: .cfa -8 + ^
STACK CFI 54f2f .cfa: $rsp 24 +
STACK CFI 54f31 .cfa: $rsp 32 +
STACK CFI 54f33 .cfa: $rsp 40 +
STACK CFI 54f35 .cfa: $rsp 48 +
STACK CFI 54f37 .cfa: $rsp 56 +
STACK CFI 54f39 .cfa: $rsp 64 +
STACK CFI 54f3b .cfa: $rsp 72 +
STACK CFI 54f3d .cfa: $rsp 80 +
STACK CFI 54f3f .cfa: $rsp 88 +
STACK CFI 54f41 .cfa: $rsp 96 +
STACK CFI 54f43 .cfa: $rsp 104 +
STACK CFI 54f45 .cfa: $rsp 112 +
STACK CFI 54f47 .cfa: $rsp 120 +
STACK CFI 54f49 .cfa: $rsp 128 +
STACK CFI 54f4b .cfa: $rsp 136 +
STACK CFI 54f4d .cfa: $rsp 144 +
STACK CFI 54f4f .cfa: $rsp 152 +
STACK CFI 54f51 .cfa: $rsp 160 +
STACK CFI 54f58 .cfa: $rsp 168 +
STACK CFI 54f5f .cfa: $rsp 176 +
STACK CFI 54f6b .cfa: $rsp 8 +
STACK CFI INIT 54f6c 41 .cfa: $rsp 8 + .ra: .cfa -8 + ^
STACK CFI 54f70 .cfa: $rsp 24 +
STACK CFI 54f72 .cfa: $rsp 32 +
STACK CFI 54f74 .cfa: $rsp 40 +
STACK CFI 54f76 .cfa: $rsp 48 +
STACK CFI 54f78 .cfa: $rsp 56 +
STACK CFI 54f7a .cfa: $rsp 64 +
STACK CFI 54f7c .cfa: $rsp 72 +
STACK CFI 54f7e .cfa: $rsp 80 +
STACK CFI 54f80 .cfa: $rsp 88 +
STACK CFI 54f82 .cfa: $rsp 96 +
STACK CFI 54f84 .cfa: $rsp 104 +
STACK CFI 54f86 .cfa: $rsp 112 +
STACK CFI 54f88 .cfa: $rsp 120 +
STACK CFI 54f8a .cfa: $rsp 128 +
STACK CFI 54f8c .cfa: $rsp 136 +
STACK CFI 54f8e .cfa: $rsp 144 +
STACK CFI 54f90 .cfa: $rsp 152 +
STACK CFI 54f92 .cfa: $rsp 160 +
STACK CFI 54f99 .cfa: $rsp 168 +
STACK CFI 54fa0 .cfa: $rsp 176 +
STACK CFI 54fac .cfa: $rsp 8 +
STACK CFI INIT 54fad 41 .cfa: $rsp 8 + .ra: .cfa -8 + ^
STACK CFI 54fb1 .cfa: $rsp 24 +
STACK CFI 54fb3 .cfa: $rsp 32 +
STACK CFI 54fb5 .cfa: $rsp 40 +
STACK CFI 54fb7 .cfa: $rsp 48 +
STACK CFI 54fb9 .cfa: $rsp 56 +
STACK CFI 54fbb .cfa: $rsp 64 +
STACK CFI 54fbd .cfa: $rsp 72 +
STACK CFI 54fbf .cfa: $rsp 80 +
STACK CFI 54fc1 .cfa: $rsp 88 +
STACK CFI 54fc3 .cfa: $rsp 96 +
STACK CFI 54fc5 .cfa: $rsp 104 +
STACK CFI 54fc7 .cfa: $rsp 112 +
STACK CFI 54fc9 .cfa: $rsp 120 +
STACK CFI 54fcb .cfa: $rsp 128 +
STACK CFI 54fcd .cfa: $rsp 136 +
STACK CFI 54fcf .cfa: $rsp 144 +
STACK CFI 54fd1 .cfa: $rsp 152 +
STACK CFI 54fd3 .cfa: $rsp 160 +
STACK CFI 54fda .cfa: $rsp 168 +
STACK CFI 54fe1 .cfa: $rsp 176 +
STACK CFI 54fed .cfa: $rsp 8 +
STACK CFI INIT 54fee 41 .cfa: $rsp 8 + .ra: .cfa -8 + ^
STACK CFI 54ff2 .cfa: $rsp 24 +
STACK CFI 54ff4 .cfa: $rsp 32 +
STACK CFI 54ff6 .cfa: $rsp 40 +
STACK CFI 54ff8 .cfa: $rsp 48 +
STACK CFI 54ffa .cfa: $rsp 56 +
STACK CFI 54ffc .cfa: $rsp 64 +
STACK CFI 54ffe .cfa: $rsp 72 +
STACK CFI 55000 .cfa: $rsp 80 +
STACK CFI 55002 .cfa: $rsp 88 +
STACK CFI 55004 .cfa: $rsp 96 +
STACK CFI 55006 .cfa: $rsp 104 +
STACK CFI 55008 .cfa: $rsp 112 +
STACK CFI 5500a .cfa: $rsp 120 +
STACK CFI 5500c .cfa: $rsp 128 +
STACK CFI 5500e .cfa: $rsp 136 +
STACK CFI 55010 .cfa: $rsp 144 +
STACK CFI 55012 .cfa: $rsp 152 +
STACK CFI 55014 .cfa: $rsp 160 +
STACK CFI 5501b .cfa: $rsp 168 +
STACK CFI 55022 .cfa: $rsp 176 +
STACK CFI 5502e .cfa: $rsp 8 +
STACK CFI INIT 5502f 41 .cfa: $rsp 8 + .ra: .cfa -8 + ^
STACK CFI 55033 .cfa: $rsp 24 +
STACK CFI 55035 .cfa: $rsp 32 +
STACK CFI 55037 .cfa: $rsp 40 +
STACK CFI 55039 .cfa: $rsp 48 +
STACK CFI 5503b .cfa: $rsp 56 +
STACK CFI 5503d .cfa: $rsp 64 +
STACK CFI 5503f .cfa: $rsp 72 +
STACK CFI 55041 .cfa: $rsp 80 +
STACK CFI 55043 .cfa: $rsp 88 +
STACK CFI 55045 .cfa: $rsp 96 +
STACK CFI 55047 .cfa: $rsp 104 +
STACK CFI 55049 .cfa: $rsp 112 +
STACK CFI 5504b .cfa: $rsp 120 +
STACK CFI 5504d .cfa: $rsp 128 +
STACK CFI 5504f .cfa: $rsp 136 +
STACK CFI 55051 .cfa: $rsp 144 +
STACK CFI 55053 .cfa: $rsp 152 +
STACK CFI 55055 .cfa: $rsp 160 +
STACK CFI 5505c .cfa: $rsp 168 +
STACK CFI 55063 .cfa: $rsp 176 +
STACK CFI 5506f .cfa: $rsp 8 +
STACK CFI INIT 55070 41 .cfa: $rsp 8 + .ra: .cfa -8 + ^
STACK CFI 55074 .cfa: $rsp 24 +
STACK CFI 55076 .cfa: $rsp 32 +
STACK CFI 55078 .cfa: $rsp 40 +
STACK CFI 5507a .cfa: $rsp 48 +
STACK CFI 5507c .cfa: $rsp 56 +
STACK CFI 5507e .cfa: $rsp 64 +
STACK CFI 55080 .cfa: $rsp 72 +
STACK CFI 55082 .cfa: $rsp 80 +
STACK CFI 55084 .cfa: $rsp 88 +
STACK CFI 55086 .cfa: $rsp 96 +
STACK CFI 55088 .cfa: $rsp 104 +
STACK CFI 5508a .cfa: $rsp 112 +
STACK CFI 5508c .cfa: $rsp 120 +
STACK CFI 5508e .cfa: $rsp 128 +
STACK CFI 55090 .cfa: $rsp 136 +
STACK CFI 55092 .cfa: $rsp 144 +
STACK CFI 55094 .cfa: $rsp 152 +
STACK CFI 55096 .cfa: $rsp 160 +
STACK CFI 5509d .cfa: $rsp 168 +
STACK CFI 550a4 .cfa: $rsp 176 +
STACK CFI 550b0 .cfa: $rsp 8 +
STACK CFI INIT 550b1 41 .cfa: $rsp 8 + .ra: .cfa -8 + ^
STACK CFI 550b5 .cfa: $rsp 24 +
STACK CFI 550b7 .cfa: $rsp 32 +
STACK CFI 550b9 .cfa: $rsp 40 +
STACK CFI 550bb .cfa: $rsp 48 +
STACK CFI 550bd .cfa: $rsp 56 +
STACK CFI 550bf .cfa: $rsp 64 +
STACK CFI 550c1 .cfa: $rsp 72 +
STACK CFI 550c3 .cfa: $rsp 80 +
STACK CFI 550c5 .cfa: $rsp 88 +
STACK CFI 550c7 .cfa: $rsp 96 +
STACK CFI 550c9 .cfa: $rsp 104 +
STACK CFI 550cb .cfa: $rsp 112 +
STACK CFI 550cd .cfa: $rsp 120 +
STACK CFI 550cf .cfa: $rsp 128 +
STACK CFI 550d1 .cfa: $rsp 136 +
STACK CFI 550d3 .cfa: $rsp 144 +
STACK CFI 550d5 .cfa: $rsp 152 +
STACK CFI 550d7 .cfa: $rsp 160 +
STACK CFI 550de .cfa: $rsp 168 +
STACK CFI 550e5 .cfa: $rsp 176 +
STACK CFI 550f1 .cfa: $rsp 8 +
STACK CFI INIT 550f2 41 .cfa: $rsp 8 + .ra: .cfa -8 + ^
STACK CFI 550f6 .cfa: $rsp 24 +
STACK CFI 550f8 .cfa: $rsp 32 +
STACK CFI 550fa .cfa: $rsp 40 +
STACK CFI 550fc .cfa: $rsp 48 +
STACK CFI 550fe .cfa: $rsp 56 +
STACK CFI 55100 .cfa: $rsp 64 +
STACK CFI 55102 .cfa: $rsp 72 +
STACK CFI 55104 .cfa: $rsp 80 +
STACK CFI 55106 .cfa: $rsp 88 +
STACK CFI 55108 .cfa: $rsp 96 +
STACK CFI 5510a .cfa: $rsp 104 +
STACK CFI 5510c .cfa: $rsp 112 +
STACK CFI 5510e .cfa: $rsp 120 +
STACK CFI 55110 .cfa: $rsp 128 +
STACK CFI 55112 .cfa: $rsp 136 +
STACK CFI 55114 .cfa: $rsp 144 +
STACK CFI 55116 .cfa: $rsp 152 +
STACK CFI 55118 .cfa: $rsp 160 +
STACK CFI 5511f .cfa: $rsp 168 +
STACK CFI 55126 .cfa: $rsp 176 +
STACK CFI 55132 .cfa: $rsp 8 +
STACK CFI INIT 55133 41 .cfa: $rsp 8 + .ra: .cfa -8 + ^
STACK CFI 55137 .cfa: $rsp 24 +
STACK CFI 55139 .cfa: $rsp 32 +
STACK CFI 5513b .cfa: $rsp 40 +
STACK CFI 5513d .cfa: $rsp 48 +
STACK CFI 5513f .cfa: $rsp 56 +
STACK CFI 55141 .cfa: $rsp 64 +
STACK CFI 55143 .cfa: $rsp 72 +
STACK CFI 55145 .cfa: $rsp 80 +
STACK CFI 55147 .cfa: $rsp 88 +
STACK CFI 55149 .cfa: $rsp 96 +
STACK CFI 5514b .cfa: $rsp 104 +
STACK CFI 5514d .cfa: $rsp 112 +
STACK CFI 5514f .cfa: $rsp 120 +
STACK CFI 55151 .cfa: $rsp 128 +
STACK CFI 55153 .cfa: $rsp 136 +
STACK CFI 55155 .cfa: $rsp 144 +
STACK CFI 55157 .cfa: $rsp 152 +
STACK CFI 55159 .cfa: $rsp 160 +
STACK CFI 55160 .cfa: $rsp 168 +
STACK CFI 55167 .cfa: $rsp 176 +
STACK CFI 55173 .cfa: $rsp 8 +
STACK CFI INIT 55174 41 .cfa: $rsp 8 + .ra: .cfa -8 + ^
STACK CFI 55178 .cfa: $rsp 24 +
STACK CFI 5517a .cfa: $rsp 32 +
STACK CFI 5517c .cfa: $rsp 40 +
STACK CFI 5517e .cfa: $rsp 48 +
STACK CFI 55180 .cfa: $rsp 56 +
STACK CFI 55182 .cfa: $rsp 64 +
STACK CFI 55184 .cfa: $rsp 72 +
STACK CFI 55186 .cfa: $rsp 80 +
STACK CFI 55188 .cfa: $rsp 88 +
STACK CFI 5518a .cfa: $rsp 96 +
STACK CFI 5518c .cfa: $rsp 104 +
STACK CFI 5518e .cfa: $rsp 112 +
STACK CFI 55190 .cfa: $rsp 120 +
STACK CFI 55192 .cfa: $rsp 128 +
STACK CFI 55194 .cfa: $rsp 136 +
STACK CFI 55196 .cfa: $rsp 144 +
STACK CFI 55198 .cfa: $rsp 152 +
STACK CFI 5519a .cfa: $rsp 160 +
STACK CFI 551a1 .cfa: $rsp 168 +
STACK CFI 551a8 .cfa: $rsp 176 +
STACK CFI 551b4 .cfa: $rsp 8 +
STACK CFI INIT 551b5 41 .cfa: $rsp 8 + .ra: .cfa -8 + ^
STACK CFI 551b9 .cfa: $rsp 24 +
STACK CFI 551bb .cfa: $rsp 32 +
STACK CFI 551bd .cfa: $rsp 40 +
STACK CFI 551bf .cfa: $rsp 48 +
STACK CFI 551c1 .cfa: $rsp 56 +
STACK CFI 551c3 .cfa: $rsp 64 +
STACK CFI 551c5 .cfa: $rsp 72 +
STACK CFI 551c7 .cfa: $rsp 80 +
STACK CFI 551c9 .cfa: $rsp 88 +
STACK CFI 551cb .cfa: $rsp 96 +
STACK CFI 551cd .cfa: $rsp 104 +
STACK CFI 551cf .cfa: $rsp 112 +
STACK CFI 551d1 .cfa: $rsp 120 +
STACK CFI 551d3 .cfa: $rsp 128 +
STACK CFI 551d5 .cfa: $rsp 136 +
STACK CFI 551d7 .cfa: $rsp 144 +
STACK CFI 551d9 .cfa: $rsp 152 +
STACK CFI 551db .cfa: $rsp 160 +
STACK CFI 551e2 .cfa: $rsp 168 +
STACK CFI 551e9 .cfa: $rsp 176 +
STACK CFI 551f5 .cfa: $rsp 8 +
STACK CFI INIT 551f6 41 .cfa: $rsp 8 + .ra: .cfa -8 + ^
STACK CFI 551fa .cfa: $rsp 24 +
STACK CFI 551fc .cfa: $rsp 32 +
STACK CFI 551fe .cfa: $rsp 40 +
STACK CFI 55200 .cfa: $rsp 48 +
STACK CFI 55202 .cfa: $rsp 56 +
STACK CFI 55204 .cfa: $rsp 64 +
STACK CFI 55206 .cfa: $rsp 72 +
STACK CFI 55208 .cfa: $rsp 80 +
STACK CFI 5520a .cfa: $rsp 88 +
STACK CFI 5520c .cfa: $rsp 96 +
STACK CFI 5520e .cfa: $rsp 104 +
STACK CFI 55210 .cfa: $rsp 112 +
STACK CFI 55212 .cfa: $rsp 120 +
STACK CFI 55214 .cfa: $rsp 128 +
STACK CFI 55216 .cfa: $rsp 136 +
STACK CFI 55218 .cfa: $rsp 144 +
STACK CFI 5521a .cfa: $rsp 152 +
STACK CFI 5521c .cfa: $rsp 160 +
STACK CFI 55223 .cfa: $rsp 168 +
STACK CFI 5522a .cfa: $rsp 176 +
STACK CFI 55236 .cfa: $rsp 8 +
STACK CFI INIT 55237 41 .cfa: $rsp 8 + .ra: .cfa -8 + ^
STACK CFI 5523b .cfa: $rsp 24 +
STACK CFI 5523d .cfa: $rsp 32 +
STACK CFI 5523f .cfa: $rsp 40 +
STACK CFI 55241 .cfa: $rsp 48 +
STACK CFI 55243 .cfa: $rsp 56 +
STACK CFI 55245 .cfa: $rsp 64 +
STACK CFI 55247 .cfa: $rsp 72 +
STACK CFI 55249 .cfa: $rsp 80 +
STACK CFI 5524b .cfa: $rsp 88 +
STACK CFI 5524d .cfa: $rsp 96 +
STACK CFI 5524f .cfa: $rsp 104 +
STACK CFI 55251 .cfa: $rsp 112 +
STACK CFI 55253 .cfa: $rsp 120 +
STACK CFI 55255 .cfa: $rsp 128 +
STACK CFI 55257 .cfa: $rsp 136 +
STACK CFI 55259 .cfa: $rsp 144 +
STACK CFI 5525b .cfa: $rsp 152 +
STACK CFI 5525d .cfa: $rsp 160 +
STACK CFI 55264 .cfa: $rsp 168 +
STACK CFI 5526b .cfa: $rsp 176 +
STACK CFI 55277 .cfa: $rsp 8 +
STACK CFI INIT 55278 41 .cfa: $rsp 8 + .ra: .cfa -8 + ^
STACK CFI 5527c .cfa: $rsp 24 +
STACK CFI 5527e .cfa: $rsp 32 +
STACK CFI 55280 .cfa: $rsp 40 +
STACK CFI 55282 .cfa: $rsp 48 +
STACK CFI 55284 .cfa: $rsp 56 +
STACK CFI 55286 .cfa: $rsp 64 +
STACK CFI 55288 .cfa: $rsp 72 +
STACK CFI 5528a .cfa: $rsp 80 +
STACK CFI 5528c .cfa: $rsp 88 +
STACK CFI 5528e .cfa: $rsp 96 +
STACK CFI 55290 .cfa: $rsp 104 +
STACK CFI 55292 .cfa: $rsp 112 +
STACK CFI 55294 .cfa: $rsp 120 +
STACK CFI 55296 .cfa: $rsp 128 +
STACK CFI 55298 .cfa: $rsp 136 +
STACK CFI 5529a .cfa: $rsp 144 +
STACK CFI 5529c .cfa: $rsp 152 +
STACK CFI 5529e .cfa: $rsp 160 +
STACK CFI 552a5 .cfa: $rsp 168 +
STACK CFI 552ac .cfa: $rsp 176 +
STACK CFI 552b8 .cfa: $rsp 8 +
STACK CFI INIT 552b9 41 .cfa: $rsp 8 + .ra: .cfa -8 + ^
STACK CFI 552bd .cfa: $rsp 24 +
STACK CFI 552bf .cfa: $rsp 32 +
STACK CFI 552c1 .cfa: $rsp 40 +
STACK CFI 552c3 .cfa: $rsp 48 +
STACK CFI 552c5 .cfa: $rsp 56 +
STACK CFI 552c7 .cfa: $rsp 64 +
STACK CFI 552c9 .cfa: $rsp 72 +
STACK CFI 552cb .cfa: $rsp 80 +
STACK CFI 552cd .cfa: $rsp 88 +
STACK CFI 552cf .cfa: $rsp 96 +
STACK CFI 552d1 .cfa: $rsp 104 +
STACK CFI 552d3 .cfa: $rsp 112 +
STACK CFI 552d5 .cfa: $rsp 120 +
STACK CFI 552d7 .cfa: $rsp 128 +
STACK CFI 552d9 .cfa: $rsp 136 +
STACK CFI 552db .cfa: $rsp 144 +
STACK CFI 552dd .cfa: $rsp 152 +
STACK CFI 552df .cfa: $rsp 160 +
STACK CFI 552e6 .cfa: $rsp 168 +
STACK CFI 552ed .cfa: $rsp 176 +
STACK CFI 552f9 .cfa: $rsp 8 +
STACK CFI INIT 552fa 41 .cfa: $rsp 8 + .ra: .cfa -8 + ^
STACK CFI 552fe .cfa: $rsp 24 +
STACK CFI 55300 .cfa: $rsp 32 +
STACK CFI 55302 .cfa: $rsp 40 +
STACK CFI 55304 .cfa: $rsp 48 +
STACK CFI 55306 .cfa: $rsp 56 +
STACK CFI 55308 .cfa: $rsp 64 +
STACK CFI 5530a .cfa: $rsp 72 +
STACK CFI 5530c .cfa: $rsp 80 +
STACK CFI 5530e .cfa: $rsp 88 +
STACK CFI 55310 .cfa: $rsp 96 +
STACK CFI 55312 .cfa: $rsp 104 +
STACK CFI 55314 .cfa: $rsp 112 +
STACK CFI 55316 .cfa: $rsp 120 +
STACK CFI 55318 .cfa: $rsp 128 +
STACK CFI 5531a .cfa: $rsp 136 +
STACK CFI 5531c .cfa: $rsp 144 +
STACK CFI 5531e .cfa: $rsp 152 +
STACK CFI 55320 .cfa: $rsp 160 +
STACK CFI 55327 .cfa: $rsp 168 +
STACK CFI 5532e .cfa: $rsp 176 +
STACK CFI 5533a .cfa: $rsp 8 +
STACK CFI INIT 5533b 41 .cfa: $rsp 8 + .ra: .cfa -8 + ^
STACK CFI 5533f .cfa: $rsp 24 +
STACK CFI 55341 .cfa: $rsp 32 +
STACK CFI 55343 .cfa: $rsp 40 +
STACK CFI 55345 .cfa: $rsp 48 +
STACK CFI 55347 .cfa: $rsp 56 +
STACK CFI 55349 .cfa: $rsp 64 +
STACK CFI 5534b .cfa: $rsp 72 +
STACK CFI 5534d .cfa: $rsp 80 +
STACK CFI 5534f .cfa: $rsp 88 +
STACK CFI 55351 .cfa: $rsp 96 +
STACK CFI 55353 .cfa: $rsp 104 +
STACK CFI 55355 .cfa: $rsp 112 +
STACK CFI 55357 .cfa: $rsp 120 +
STACK CFI 55359 .cfa: $rsp 128 +
STACK CFI 5535b .cfa: $rsp 136 +
STACK CFI 5535d .cfa: $rsp 144 +
STACK CFI 5535f .cfa: $rsp 152 +
STACK CFI 55361 .cfa: $rsp 160 +
STACK CFI 55368 .cfa: $rsp 168 +
STACK CFI 5536f .cfa: $rsp 176 +
STACK CFI 5537b .cfa: $rsp 8 +
STACK CFI INIT 5537c 41 .cfa: $rsp 8 + .ra: .cfa -8 + ^
STACK CFI 55380 .cfa: $rsp 24 +
STACK CFI 55382 .cfa: $rsp 32 +
STACK CFI 55384 .cfa: $rsp 40 +
STACK CFI 55386 .cfa: $rsp 48 +
STACK CFI 55388 .cfa: $rsp 56 +
STACK CFI 5538a .cfa: $rsp 64 +
STACK CFI 5538c .cfa: $rsp 72 +
STACK CFI 5538e .cfa: $rsp 80 +
STACK CFI 55390 .cfa: $rsp 88 +
STACK CFI 55392 .cfa: $rsp 96 +
STACK CFI 55394 .cfa: $rsp 104 +
STACK CFI 55396 .cfa: $rsp 112 +
STACK CFI 55398 .cfa: $rsp 120 +
STACK CFI 5539a .cfa: $rsp 128 +
STACK CFI 5539c .cfa: $rsp 136 +
STACK CFI 5539e .cfa: $rsp 144 +
STACK CFI 553a0 .cfa: $rsp 152 +
STACK CFI 553a2 .cfa: $rsp 160 +
STACK CFI 553a9 .cfa: $rsp 168 +
STACK CFI 553b0 .cfa: $rsp 176 +
STACK CFI 553bc .cfa: $rsp 8 +
STACK CFI INIT 553bd 41 .cfa: $rsp 8 + .ra: .cfa -8 + ^
STACK CFI 553c1 .cfa: $rsp 24 +
STACK CFI 553c3 .cfa: $rsp 32 +
STACK CFI 553c5 .cfa: $rsp 40 +
STACK CFI 553c7 .cfa: $rsp 48 +
STACK CFI 553c9 .cfa: $rsp 56 +
STACK CFI 553cb .cfa: $rsp 64 +
STACK CFI 553cd .cfa: $rsp 72 +
STACK CFI 553cf .cfa: $rsp 80 +
STACK CFI 553d1 .cfa: $rsp 88 +
STACK CFI 553d3 .cfa: $rsp 96 +
STACK CFI 553d5 .cfa: $rsp 104 +
STACK CFI 553d7 .cfa: $rsp 112 +
STACK CFI 553d9 .cfa: $rsp 120 +
STACK CFI 553db .cfa: $rsp 128 +
STACK CFI 553dd .cfa: $rsp 136 +
STACK CFI 553df .cfa: $rsp 144 +
STACK CFI 553e1 .cfa: $rsp 152 +
STACK CFI 553e3 .cfa: $rsp 160 +
STACK CFI 553ea .cfa: $rsp 168 +
STACK CFI 553f1 .cfa: $rsp 176 +
STACK CFI 553fd .cfa: $rsp 8 +
STACK CFI INIT 553fe 41 .cfa: $rsp 8 + .ra: .cfa -8 + ^
STACK CFI 55402 .cfa: $rsp 24 +
STACK CFI 55404 .cfa: $rsp 32 +
STACK CFI 55406 .cfa: $rsp 40 +
STACK CFI 55408 .cfa: $rsp 48 +
STACK CFI 5540a .cfa: $rsp 56 +
STACK CFI 5540c .cfa: $rsp 64 +
STACK CFI 5540e .cfa: $rsp 72 +
STACK CFI 55410 .cfa: $rsp 80 +
STACK CFI 55412 .cfa: $rsp 88 +
STACK CFI 55414 .cfa: $rsp 96 +
STACK CFI 55416 .cfa: $rsp 104 +
STACK CFI 55418 .cfa: $rsp 112 +
STACK CFI 5541a .cfa: $rsp 120 +
STACK CFI 5541c .cfa: $rsp 128 +
STACK CFI 5541e .cfa: $rsp 136 +
STACK CFI 55420 .cfa: $rsp 144 +
STACK CFI 55422 .cfa: $rsp 152 +
STACK CFI 55424 .cfa: $rsp 160 +
STACK CFI 5542b .cfa: $rsp 168 +
STACK CFI 55432 .cfa: $rsp 176 +
STACK CFI 5543e .cfa: $rsp 8 +
STACK CFI INIT 5543f 41 .cfa: $rsp 8 + .ra: .cfa -8 + ^
STACK CFI 55443 .cfa: $rsp 24 +
STACK CFI 55445 .cfa: $rsp 32 +
STACK CFI 55447 .cfa: $rsp 40 +
STACK CFI 55449 .cfa: $rsp 48 +
STACK CFI 5544b .cfa: $rsp 56 +
STACK CFI 5544d .cfa: $rsp 64 +
STACK CFI 5544f .cfa: $rsp 72 +
STACK CFI 55451 .cfa: $rsp 80 +
STACK CFI 55453 .cfa: $rsp 88 +
STACK CFI 55455 .cfa: $rsp 96 +
STACK CFI 55457 .cfa: $rsp 104 +
STACK CFI 55459 .cfa: $rsp 112 +
STACK CFI 5545b .cfa: $rsp 120 +
STACK CFI 5545d .cfa: $rsp 128 +
STACK CFI 5545f .cfa: $rsp 136 +
STACK CFI 55461 .cfa: $rsp 144 +
STACK CFI 55463 .cfa: $rsp 152 +
STACK CFI 55465 .cfa: $rsp 160 +
STACK CFI 5546c .cfa: $rsp 168 +
STACK CFI 55473 .cfa: $rsp 176 +
STACK CFI 5547f .cfa: $rsp 8 +
STACK CFI INIT 55480 41 .cfa: $rsp 8 + .ra: .cfa -8 + ^
STACK CFI 55484 .cfa: $rsp 24 +
STACK CFI 55486 .cfa: $rsp 32 +
STACK CFI 55488 .cfa: $rsp 40 +
STACK CFI 5548a .cfa: $rsp 48 +
STACK CFI 5548c .cfa: $rsp 56 +
STACK CFI 5548e .cfa: $rsp 64 +
STACK CFI 55490 .cfa: $rsp 72 +
STACK CFI 55492 .cfa: $rsp 80 +
STACK CFI 55494 .cfa: $rsp 88 +
STACK CFI 55496 .cfa: $rsp 96 +
STACK CFI 55498 .cfa: $rsp 104 +
STACK CFI 5549a .cfa: $rsp 112 +
STACK CFI 5549c .cfa: $rsp 120 +
STACK CFI 5549e .cfa: $rsp 128 +
STACK CFI 554a0 .cfa: $rsp 136 +
STACK CFI 554a2 .cfa: $rsp 144 +
STACK CFI 554a4 .cfa: $rsp 152 +
STACK CFI 554a6 .cfa: $rsp 160 +
STACK CFI 554ad .cfa: $rsp 168 +
STACK CFI 554b4 .cfa: $rsp 176 +
STACK CFI 554c0 .cfa: $rsp 8 +
STACK CFI INIT 554c1 41 .cfa: $rsp 8 + .ra: .cfa -8 + ^
STACK CFI 554c5 .cfa: $rsp 24 +
STACK CFI 554c7 .cfa: $rsp 32 +
STACK CFI 554c9 .cfa: $rsp 40 +
STACK CFI 554cb .cfa: $rsp 48 +
STACK CFI 554cd .cfa: $rsp 56 +
STACK CFI 554cf .cfa: $rsp 64 +
STACK CFI 554d1 .cfa: $rsp 72 +
STACK CFI 554d3 .cfa: $rsp 80 +
STACK CFI 554d5 .cfa: $rsp 88 +
STACK CFI 554d7 .cfa: $rsp 96 +
STACK CFI 554d9 .cfa: $rsp 104 +
STACK CFI 554db .cfa: $rsp 112 +
STACK CFI 554dd .cfa: $rsp 120 +
STACK CFI 554df .cfa: $rsp 128 +
STACK CFI 554e1 .cfa: $rsp 136 +
STACK CFI 554e3 .cfa: $rsp 144 +
STACK CFI 554e5 .cfa: $rsp 152 +
STACK CFI 554e7 .cfa: $rsp 160 +
STACK CFI 554ee .cfa: $rsp 168 +
STACK CFI 554f5 .cfa: $rsp 176 +
STACK CFI 55501 .cfa: $rsp 8 +
STACK CFI INIT 55502 41 .cfa: $rsp 8 + .ra: .cfa -8 + ^
STACK CFI 55506 .cfa: $rsp 24 +
STACK CFI 55508 .cfa: $rsp 32 +
STACK CFI 5550a .cfa: $rsp 40 +
STACK CFI 5550c .cfa: $rsp 48 +
STACK CFI 5550e .cfa: $rsp 56 +
STACK CFI 55510 .cfa: $rsp 64 +
STACK CFI 55512 .cfa: $rsp 72 +
STACK CFI 55514 .cfa: $rsp 80 +
STACK CFI 55516 .cfa: $rsp 88 +
STACK CFI 55518 .cfa: $rsp 96 +
STACK CFI 5551a .cfa: $rsp 104 +
STACK CFI 5551c .cfa: $rsp 112 +
STACK CFI 5551e .cfa: $rsp 120 +
STACK CFI 55520 .cfa: $rsp 128 +
STACK CFI 55522 .cfa: $rsp 136 +
STACK CFI 55524 .cfa: $rsp 144 +
STACK CFI 55526 .cfa: $rsp 152 +
STACK CFI 55528 .cfa: $rsp 160 +
STACK CFI 5552f .cfa: $rsp 168 +
STACK CFI 55536 .cfa: $rsp 176 +
STACK CFI 55542 .cfa: $rsp 8 +
STACK CFI INIT 55543 41 .cfa: $rsp 8 + .ra: .cfa -8 + ^
STACK CFI 55547 .cfa: $rsp 24 +
STACK CFI 55549 .cfa: $rsp 32 +
STACK CFI 5554b .cfa: $rsp 40 +
STACK CFI 5554d .cfa: $rsp 48 +
STACK CFI 5554f .cfa: $rsp 56 +
STACK CFI 55551 .cfa: $rsp 64 +
STACK CFI 55553 .cfa: $rsp 72 +
STACK CFI 55555 .cfa: $rsp 80 +
STACK CFI 55557 .cfa: $rsp 88 +
STACK CFI 55559 .cfa: $rsp 96 +
STACK CFI 5555b .cfa: $rsp 104 +
STACK CFI 5555d .cfa: $rsp 112 +
STACK CFI 5555f .cfa: $rsp 120 +
STACK CFI 55561 .cfa: $rsp 128 +
STACK CFI 55563 .cfa: $rsp 136 +
STACK CFI 55565 .cfa: $rsp 144 +
STACK CFI 55567 .cfa: $rsp 152 +
STACK CFI 55569 .cfa: $rsp 160 +
STACK CFI 55570 .cfa: $rsp 168 +
STACK CFI 55577 .cfa: $rsp 176 +
STACK CFI 55583 .cfa: $rsp 8 +
STACK CFI INIT 55584 41 .cfa: $rsp 8 + .ra: .cfa -8 + ^
STACK CFI 55588 .cfa: $rsp 24 +
STACK CFI 5558a .cfa: $rsp 32 +
STACK CFI 5558c .cfa: $rsp 40 +
STACK CFI 5558e .cfa: $rsp 48 +
STACK CFI 55590 .cfa: $rsp 56 +
STACK CFI 55592 .cfa: $rsp 64 +
STACK CFI 55594 .cfa: $rsp 72 +
STACK CFI 55596 .cfa: $rsp 80 +
STACK CFI 55598 .cfa: $rsp 88 +
STACK CFI 5559a .cfa: $rsp 96 +
STACK CFI 5559c .cfa: $rsp 104 +
STACK CFI 5559e .cfa: $rsp 112 +
STACK CFI 555a0 .cfa: $rsp 120 +
STACK CFI 555a2 .cfa: $rsp 128 +
STACK CFI 555a4 .cfa: $rsp 136 +
STACK CFI 555a6 .cfa: $rsp 144 +
STACK CFI 555a8 .cfa: $rsp 152 +
STACK CFI 555aa .cfa: $rsp 160 +
STACK CFI 555b1 .cfa: $rsp 168 +
STACK CFI 555b8 .cfa: $rsp 176 +
STACK CFI 555c4 .cfa: $rsp 8 +
STACK CFI INIT 555c5 41 .cfa: $rsp 8 + .ra: .cfa -8 + ^
STACK CFI 555c9 .cfa: $rsp 24 +
STACK CFI 555cb .cfa: $rsp 32 +
STACK CFI 555cd .cfa: $rsp 40 +
STACK CFI 555cf .cfa: $rsp 48 +
STACK CFI 555d1 .cfa: $rsp 56 +
STACK CFI 555d3 .cfa: $rsp 64 +
STACK CFI 555d5 .cfa: $rsp 72 +
STACK CFI 555d7 .cfa: $rsp 80 +
STACK CFI 555d9 .cfa: $rsp 88 +
STACK CFI 555db .cfa: $rsp 96 +
STACK CFI 555dd .cfa: $rsp 104 +
STACK CFI 555df .cfa: $rsp 112 +
STACK CFI 555e1 .cfa: $rsp 120 +
STACK CFI 555e3 .cfa: $rsp 128 +
STACK CFI 555e5 .cfa: $rsp 136 +
STACK CFI 555e7 .cfa: $rsp 144 +
STACK CFI 555e9 .cfa: $rsp 152 +
STACK CFI 555eb .cfa: $rsp 160 +
STACK CFI 555f2 .cfa: $rsp 168 +
STACK CFI 555f9 .cfa: $rsp 176 +
STACK CFI 55605 .cfa: $rsp 8 +
STACK CFI INIT 55606 41 .cfa: $rsp 8 + .ra: .cfa -8 + ^
STACK CFI 5560a .cfa: $rsp 24 +
STACK CFI 5560c .cfa: $rsp 32 +
STACK CFI 5560e .cfa: $rsp 40 +
STACK CFI 55610 .cfa: $rsp 48 +
STACK CFI 55612 .cfa: $rsp 56 +
STACK CFI 55614 .cfa: $rsp 64 +
STACK CFI 55616 .cfa: $rsp 72 +
STACK CFI 55618 .cfa: $rsp 80 +
STACK CFI 5561a .cfa: $rsp 88 +
STACK CFI 5561c .cfa: $rsp 96 +
STACK CFI 5561e .cfa: $rsp 104 +
STACK CFI 55620 .cfa: $rsp 112 +
STACK CFI 55622 .cfa: $rsp 120 +
STACK CFI 55624 .cfa: $rsp 128 +
STACK CFI 55626 .cfa: $rsp 136 +
STACK CFI 55628 .cfa: $rsp 144 +
STACK CFI 5562a .cfa: $rsp 152 +
STACK CFI 5562c .cfa: $rsp 160 +
STACK CFI 55633 .cfa: $rsp 168 +
STACK CFI 5563a .cfa: $rsp 176 +
STACK CFI 55646 .cfa: $rsp 8 +
STACK CFI INIT 55647 41 .cfa: $rsp 8 + .ra: .cfa -8 + ^
STACK CFI 5564b .cfa: $rsp 24 +
STACK CFI 5564d .cfa: $rsp 32 +
STACK CFI 5564f .cfa: $rsp 40 +
STACK CFI 55651 .cfa: $rsp 48 +
STACK CFI 55653 .cfa: $rsp 56 +
STACK CFI 55655 .cfa: $rsp 64 +
STACK CFI 55657 .cfa: $rsp 72 +
STACK CFI 55659 .cfa: $rsp 80 +
STACK CFI 5565b .cfa: $rsp 88 +
STACK CFI 5565d .cfa: $rsp 96 +
STACK CFI 5565f .cfa: $rsp 104 +
STACK CFI 55661 .cfa: $rsp 112 +
STACK CFI 55663 .cfa: $rsp 120 +
STACK CFI 55665 .cfa: $rsp 128 +
STACK CFI 55667 .cfa: $rsp 136 +
STACK CFI 55669 .cfa: $rsp 144 +
STACK CFI 5566b .cfa: $rsp 152 +
STACK CFI 5566d .cfa: $rsp 160 +
STACK CFI 55674 .cfa: $rsp 168 +
STACK CFI 5567b .cfa: $rsp 176 +
STACK CFI 55687 .cfa: $rsp 8 +
STACK CFI INIT 55688 41 .cfa: $rsp 8 + .ra: .cfa -8 + ^
STACK CFI 5568c .cfa: $rsp 24 +
STACK CFI 5568e .cfa: $rsp 32 +
STACK CFI 55690 .cfa: $rsp 40 +
STACK CFI 55692 .cfa: $rsp 48 +
STACK CFI 55694 .cfa: $rsp 56 +
STACK CFI 55696 .cfa: $rsp 64 +
STACK CFI 55698 .cfa: $rsp 72 +
STACK CFI 5569a .cfa: $rsp 80 +
STACK CFI 5569c .cfa: $rsp 88 +
STACK CFI 5569e .cfa: $rsp 96 +
STACK CFI 556a0 .cfa: $rsp 104 +
STACK CFI 556a2 .cfa: $rsp 112 +
STACK CFI 556a4 .cfa: $rsp 120 +
STACK CFI 556a6 .cfa: $rsp 128 +
STACK CFI 556a8 .cfa: $rsp 136 +
STACK CFI 556aa .cfa: $rsp 144 +
STACK CFI 556ac .cfa: $rsp 152 +
STACK CFI 556ae .cfa: $rsp 160 +
STACK CFI 556b5 .cfa: $rsp 168 +
STACK CFI 556bc .cfa: $rsp 176 +
STACK CFI 556c8 .cfa: $rsp 8 +
STACK CFI INIT 556c9 41 .cfa: $rsp 8 + .ra: .cfa -8 + ^
STACK CFI 556cd .cfa: $rsp 24 +
STACK CFI 556cf .cfa: $rsp 32 +
STACK CFI 556d1 .cfa: $rsp 40 +
STACK CFI 556d3 .cfa: $rsp 48 +
STACK CFI 556d5 .cfa: $rsp 56 +
STACK CFI 556d7 .cfa: $rsp 64 +
STACK CFI 556d9 .cfa: $rsp 72 +
STACK CFI 556db .cfa: $rsp 80 +
STACK CFI 556dd .cfa: $rsp 88 +
STACK CFI 556df .cfa: $rsp 96 +
STACK CFI 556e1 .cfa: $rsp 104 +
STACK CFI 556e3 .cfa: $rsp 112 +
STACK CFI 556e5 .cfa: $rsp 120 +
STACK CFI 556e7 .cfa: $rsp 128 +
STACK CFI 556e9 .cfa: $rsp 136 +
STACK CFI 556eb .cfa: $rsp 144 +
STACK CFI 556ed .cfa: $rsp 152 +
STACK CFI 556ef .cfa: $rsp 160 +
STACK CFI 556f6 .cfa: $rsp 168 +
STACK CFI 556fd .cfa: $rsp 176 +
STACK CFI 55709 .cfa: $rsp 8 +
STACK CFI INIT 5570a 41 .cfa: $rsp 8 + .ra: .cfa -8 + ^
STACK CFI 5570e .cfa: $rsp 24 +
STACK CFI 55710 .cfa: $rsp 32 +
STACK CFI 55712 .cfa: $rsp 40 +
STACK CFI 55714 .cfa: $rsp 48 +
STACK CFI 55716 .cfa: $rsp 56 +
STACK CFI 55718 .cfa: $rsp 64 +
STACK CFI 5571a .cfa: $rsp 72 +
STACK CFI 5571c .cfa: $rsp 80 +
STACK CFI 5571e .cfa: $rsp 88 +
STACK CFI 55720 .cfa: $rsp 96 +
STACK CFI 55722 .cfa: $rsp 104 +
STACK CFI 55724 .cfa: $rsp 112 +
STACK CFI 55726 .cfa: $rsp 120 +
STACK CFI 55728 .cfa: $rsp 128 +
STACK CFI 5572a .cfa: $rsp 136 +
STACK CFI 5572c .cfa: $rsp 144 +
STACK CFI 5572e .cfa: $rsp 152 +
STACK CFI 55730 .cfa: $rsp 160 +
STACK CFI 55737 .cfa: $rsp 168 +
STACK CFI 5573e .cfa: $rsp 176 +
STACK CFI 5574a .cfa: $rsp 8 +
STACK CFI INIT 5574b 39 .cfa: $rsp 8 + .ra: .cfa -8 + ^
STACK CFI 5574f .cfa: $rsp 24 +
STACK CFI 55751 .cfa: $rsp 32 +
STACK CFI 55753 .cfa: $rsp 40 +
STACK CFI 55755 .cfa: $rsp 48 +
STACK CFI 55757 .cfa: $rsp 56 +
STACK CFI 55759 .cfa: $rsp 64 +
STACK CFI 5575b .cfa: $rsp 72 +
STACK CFI 5575d .cfa: $rsp 80 +
STACK CFI 5575f .cfa: $rsp 88 +
STACK CFI 55761 .cfa: $rsp 96 +
STACK CFI 55763 .cfa: $rsp 104 +
STACK CFI 55765 .cfa: $rsp 112 +
STACK CFI 55767 .cfa: $rsp 120 +
STACK CFI 55769 .cfa: $rsp 128 +
STACK CFI 55770 .cfa: $rsp 136 +
STACK CFI 55777 .cfa: $rsp 144 +
STACK CFI 55783 .cfa: $rsp 8 +
STACK CFI INIT 55784 39 .cfa: $rsp 8 + .ra: .cfa -8 + ^
STACK CFI 55788 .cfa: $rsp 24 +
STACK CFI 5578a .cfa: $rsp 32 +
STACK CFI 5578c .cfa: $rsp 40 +
STACK CFI 5578e .cfa: $rsp 48 +
STACK CFI 55790 .cfa: $rsp 56 +
STACK CFI 55792 .cfa: $rsp 64 +
STACK CFI 55794 .cfa: $rsp 72 +
STACK CFI 55796 .cfa: $rsp 80 +
STACK CFI 55798 .cfa: $rsp 88 +
STACK CFI 5579a .cfa: $rsp 96 +
STACK CFI 5579c .cfa: $rsp 104 +
STACK CFI 5579e .cfa: $rsp 112 +
STACK CFI 557a0 .cfa: $rsp 120 +
STACK CFI 557a2 .cfa: $rsp 128 +
STACK CFI 557a9 .cfa: $rsp 136 +
STACK CFI 557b0 .cfa: $rsp 144 +
STACK CFI 557bc .cfa: $rsp 8 +
STACK CFI INIT 557bd 39 .cfa: $rsp 8 + .ra: .cfa -8 + ^
STACK CFI 557c1 .cfa: $rsp 24 +
STACK CFI 557c3 .cfa: $rsp 32 +
STACK CFI 557c5 .cfa: $rsp 40 +
STACK CFI 557c7 .cfa: $rsp 48 +
STACK CFI 557c9 .cfa: $rsp 56 +
STACK CFI 557cb .cfa: $rsp 64 +
STACK CFI 557cd .cfa: $rsp 72 +
STACK CFI 557cf .cfa: $rsp 80 +
STACK CFI 557d1 .cfa: $rsp 88 +
STACK CFI 557d3 .cfa: $rsp 96 +
STACK CFI 557d5 .cfa: $rsp 104 +
STACK CFI 557d7 .cfa: $rsp 112 +
STACK CFI 557d9 .cfa: $rsp 120 +
STACK CFI 557db .cfa: $rsp 128 +
STACK CFI 557e2 .cfa: $rsp 136 +
STACK CFI 557e9 .cfa: $rsp 144 +
STACK CFI 557f5 .cfa: $rsp 8 +
STACK CFI INIT 557f6 39 .cfa: $rsp 8 + .ra: .cfa -8 + ^
STACK CFI 557fa .cfa: $rsp 24 +
STACK CFI 557fc .cfa: $rsp 32 +
STACK CFI 557fe .cfa: $rsp 40 +
STACK CFI 55800 .cfa: $rsp 48 +
STACK CFI 55802 .cfa: $rsp 56 +
STACK CFI 55804 .cfa: $rsp 64 +
STACK CFI 55806 .cfa: $rsp 72 +
STACK CFI 55808 .cfa: $rsp 80 +
STACK CFI 5580a .cfa: $rsp 88 +
STACK CFI 5580c .cfa: $rsp 96 +
STACK CFI 5580e .cfa: $rsp 104 +
STACK CFI 55810 .cfa: $rsp 112 +
STACK CFI 55812 .cfa: $rsp 120 +
STACK CFI 55814 .cfa: $rsp 128 +
STACK CFI 5581b .cfa: $rsp 136 +
STACK CFI 55822 .cfa: $rsp 144 +
STACK CFI 5582e .cfa: $rsp 8 +
STACK CFI INIT 5582f 39 .cfa: $rsp 8 + .ra: .cfa -8 + ^
STACK CFI 55833 .cfa: $rsp 24 +
STACK CFI 55835 .cfa: $rsp 32 +
STACK CFI 55837 .cfa: $rsp 40 +
STACK CFI 55839 .cfa: $rsp 48 +
STACK CFI 5583b .cfa: $rsp 56 +
STACK CFI 5583d .cfa: $rsp 64 +
STACK CFI 5583f .cfa: $rsp 72 +
STACK CFI 55841 .cfa: $rsp 80 +
STACK CFI 55843 .cfa: $rsp 88 +
STACK CFI 55845 .cfa: $rsp 96 +
STACK CFI 55847 .cfa: $rsp 104 +
STACK CFI 55849 .cfa: $rsp 112 +
STACK CFI 5584b .cfa: $rsp 120 +
STACK CFI 5584d .cfa: $rsp 128 +
STACK CFI 55854 .cfa: $rsp 136 +
STACK CFI 5585b .cfa: $rsp 144 +
STACK CFI 55867 .cfa: $rsp 8 +
STACK CFI INIT 55868 39 .cfa: $rsp 8 + .ra: .cfa -8 + ^
STACK CFI 5586c .cfa: $rsp 24 +
STACK CFI 5586e .cfa: $rsp 32 +
STACK CFI 55870 .cfa: $rsp 40 +
STACK CFI 55872 .cfa: $rsp 48 +
STACK CFI 55874 .cfa: $rsp 56 +
STACK CFI 55876 .cfa: $rsp 64 +
STACK CFI 55878 .cfa: $rsp 72 +
STACK CFI 5587a .cfa: $rsp 80 +
STACK CFI 5587c .cfa: $rsp 88 +
STACK CFI 5587e .cfa: $rsp 96 +
STACK CFI 55880 .cfa: $rsp 104 +
STACK CFI 55882 .cfa: $rsp 112 +
STACK CFI 55884 .cfa: $rsp 120 +
STACK CFI 55886 .cfa: $rsp 128 +
STACK CFI 5588d .cfa: $rsp 136 +
STACK CFI 55894 .cfa: $rsp 144 +
STACK CFI 558a0 .cfa: $rsp 8 +
STACK CFI INIT 558a1 39 .cfa: $rsp 8 + .ra: .cfa -8 + ^
STACK CFI 558a5 .cfa: $rsp 24 +
STACK CFI 558a7 .cfa: $rsp 32 +
STACK CFI 558a9 .cfa: $rsp 40 +
STACK CFI 558ab .cfa: $rsp 48 +
STACK CFI 558ad .cfa: $rsp 56 +
STACK CFI 558af .cfa: $rsp 64 +
STACK CFI 558b1 .cfa: $rsp 72 +
STACK CFI 558b3 .cfa: $rsp 80 +
STACK CFI 558b5 .cfa: $rsp 88 +
STACK CFI 558b7 .cfa: $rsp 96 +
STACK CFI 558b9 .cfa: $rsp 104 +
STACK CFI 558bb .cfa: $rsp 112 +
STACK CFI 558bd .cfa: $rsp 120 +
STACK CFI 558bf .cfa: $rsp 128 +
STACK CFI 558c6 .cfa: $rsp 136 +
STACK CFI 558cd .cfa: $rsp 144 +
STACK CFI 558d9 .cfa: $rsp 8 +
STACK CFI INIT 558da 39 .cfa: $rsp 8 + .ra: .cfa -8 + ^
STACK CFI 558de .cfa: $rsp 24 +
STACK CFI 558e0 .cfa: $rsp 32 +
STACK CFI 558e2 .cfa: $rsp 40 +
STACK CFI 558e4 .cfa: $rsp 48 +
STACK CFI 558e6 .cfa: $rsp 56 +
STACK CFI 558e8 .cfa: $rsp 64 +
STACK CFI 558ea .cfa: $rsp 72 +
STACK CFI 558ec .cfa: $rsp 80 +
STACK CFI 558ee .cfa: $rsp 88 +
STACK CFI 558f0 .cfa: $rsp 96 +
STACK CFI 558f2 .cfa: $rsp 104 +
STACK CFI 558f4 .cfa: $rsp 112 +
STACK CFI 558f6 .cfa: $rsp 120 +
STACK CFI 558f8 .cfa: $rsp 128 +
STACK CFI 558ff .cfa: $rsp 136 +
STACK CFI 55906 .cfa: $rsp 144 +
STACK CFI 55912 .cfa: $rsp 8 +
STACK CFI INIT 55913 39 .cfa: $rsp 8 + .ra: .cfa -8 + ^
STACK CFI 55917 .cfa: $rsp 24 +
STACK CFI 55919 .cfa: $rsp 32 +
STACK CFI 5591b .cfa: $rsp 40 +
STACK CFI 5591d .cfa: $rsp 48 +
STACK CFI 5591f .cfa: $rsp 56 +
STACK CFI 55921 .cfa: $rsp 64 +
STACK CFI 55923 .cfa: $rsp 72 +
STACK CFI 55925 .cfa: $rsp 80 +
STACK CFI 55927 .cfa: $rsp 88 +
STACK CFI 55929 .cfa: $rsp 96 +
STACK CFI 5592b .cfa: $rsp 104 +
STACK CFI 5592d .cfa: $rsp 112 +
STACK CFI 5592f .cfa: $rsp 120 +
STACK CFI 55931 .cfa: $rsp 128 +
STACK CFI 55938 .cfa: $rsp 136 +
STACK CFI 5593f .cfa: $rsp 144 +
STACK CFI 5594b .cfa: $rsp 8 +
STACK CFI INIT 5594c 39 .cfa: $rsp 8 + .ra: .cfa -8 + ^
STACK CFI 55950 .cfa: $rsp 24 +
STACK CFI 55952 .cfa: $rsp 32 +
STACK CFI 55954 .cfa: $rsp 40 +
STACK CFI 55956 .cfa: $rsp 48 +
STACK CFI 55958 .cfa: $rsp 56 +
STACK CFI 5595a .cfa: $rsp 64 +
STACK CFI 5595c .cfa: $rsp 72 +
STACK CFI 5595e .cfa: $rsp 80 +
STACK CFI 55960 .cfa: $rsp 88 +
STACK CFI 55962 .cfa: $rsp 96 +
STACK CFI 55964 .cfa: $rsp 104 +
STACK CFI 55966 .cfa: $rsp 112 +
STACK CFI 55968 .cfa: $rsp 120 +
STACK CFI 5596a .cfa: $rsp 128 +
STACK CFI 55971 .cfa: $rsp 136 +
STACK CFI 55978 .cfa: $rsp 144 +
STACK CFI 55984 .cfa: $rsp 8 +
STACK CFI INIT 55985 39 .cfa: $rsp 8 + .ra: .cfa -8 + ^
STACK CFI 55989 .cfa: $rsp 24 +
STACK CFI 5598b .cfa: $rsp 32 +
STACK CFI 5598d .cfa: $rsp 40 +
STACK CFI 5598f .cfa: $rsp 48 +
STACK CFI 55991 .cfa: $rsp 56 +
STACK CFI 55993 .cfa: $rsp 64 +
STACK CFI 55995 .cfa: $rsp 72 +
STACK CFI 55997 .cfa: $rsp 80 +
STACK CFI 55999 .cfa: $rsp 88 +
STACK CFI 5599b .cfa: $rsp 96 +
STACK CFI 5599d .cfa: $rsp 104 +
STACK CFI 5599f .cfa: $rsp 112 +
STACK CFI 559a1 .cfa: $rsp 120 +
STACK CFI 559a3 .cfa: $rsp 128 +
STACK CFI 559aa .cfa: $rsp 136 +
STACK CFI 559b1 .cfa: $rsp 144 +
STACK CFI 559bd .cfa: $rsp 8 +
STACK CFI INIT 559be 39 .cfa: $rsp 8 + .ra: .cfa -8 + ^
STACK CFI 559c2 .cfa: $rsp 24 +
STACK CFI 559c4 .cfa: $rsp 32 +
STACK CFI 559c6 .cfa: $rsp 40 +
STACK CFI 559c8 .cfa: $rsp 48 +
STACK CFI 559ca .cfa: $rsp 56 +
STACK CFI 559cc .cfa: $rsp 64 +
STACK CFI 559ce .cfa: $rsp 72 +
STACK CFI 559d0 .cfa: $rsp 80 +
STACK CFI 559d2 .cfa: $rsp 88 +
STACK CFI 559d4 .cfa: $rsp 96 +
STACK CFI 559d6 .cfa: $rsp 104 +
STACK CFI 559d8 .cfa: $rsp 112 +
STACK CFI 559da .cfa: $rsp 120 +
STACK CFI 559dc .cfa: $rsp 128 +
STACK CFI 559e3 .cfa: $rsp 136 +
STACK CFI 559ea .cfa: $rsp 144 +
STACK CFI 559f6 .cfa: $rsp 8 +
STACK CFI INIT 559f7 39 .cfa: $rsp 8 + .ra: .cfa -8 + ^
STACK CFI 559fb .cfa: $rsp 24 +
STACK CFI 559fd .cfa: $rsp 32 +
STACK CFI 559ff .cfa: $rsp 40 +
STACK CFI 55a01 .cfa: $rsp 48 +
STACK CFI 55a03 .cfa: $rsp 56 +
STACK CFI 55a05 .cfa: $rsp 64 +
STACK CFI 55a07 .cfa: $rsp 72 +
STACK CFI 55a09 .cfa: $rsp 80 +
STACK CFI 55a0b .cfa: $rsp 88 +
STACK CFI 55a0d .cfa: $rsp 96 +
STACK CFI 55a0f .cfa: $rsp 104 +
STACK CFI 55a11 .cfa: $rsp 112 +
STACK CFI 55a13 .cfa: $rsp 120 +
STACK CFI 55a15 .cfa: $rsp 128 +
STACK CFI 55a1c .cfa: $rsp 136 +
STACK CFI 55a23 .cfa: $rsp 144 +
STACK CFI 55a2f .cfa: $rsp 8 +
STACK CFI INIT 55a30 39 .cfa: $rsp 8 + .ra: .cfa -8 + ^
STACK CFI 55a34 .cfa: $rsp 24 +
STACK CFI 55a36 .cfa: $rsp 32 +
STACK CFI 55a38 .cfa: $rsp 40 +
STACK CFI 55a3a .cfa: $rsp 48 +
STACK CFI 55a3c .cfa: $rsp 56 +
STACK CFI 55a3e .cfa: $rsp 64 +
STACK CFI 55a40 .cfa: $rsp 72 +
STACK CFI 55a42 .cfa: $rsp 80 +
STACK CFI 55a44 .cfa: $rsp 88 +
STACK CFI 55a46 .cfa: $rsp 96 +
STACK CFI 55a48 .cfa: $rsp 104 +
STACK CFI 55a4a .cfa: $rsp 112 +
STACK CFI 55a4c .cfa: $rsp 120 +
STACK CFI 55a4e .cfa: $rsp 128 +
STACK CFI 55a55 .cfa: $rsp 136 +
STACK CFI 55a5c .cfa: $rsp 144 +
STACK CFI 55a68 .cfa: $rsp 8 +
STACK CFI INIT 55a69 39 .cfa: $rsp 8 + .ra: .cfa -8 + ^
STACK CFI 55a6d .cfa: $rsp 24 +
STACK CFI 55a6f .cfa: $rsp 32 +
STACK CFI 55a71 .cfa: $rsp 40 +
STACK CFI 55a73 .cfa: $rsp 48 +
STACK CFI 55a75 .cfa: $rsp 56 +
STACK CFI 55a77 .cfa: $rsp 64 +
STACK CFI 55a79 .cfa: $rsp 72 +
STACK CFI 55a7b .cfa: $rsp 80 +
STACK CFI 55a7d .cfa: $rsp 88 +
STACK CFI 55a7f .cfa: $rsp 96 +
STACK CFI 55a81 .cfa: $rsp 104 +
STACK CFI 55a83 .cfa: $rsp 112 +
STACK CFI 55a85 .cfa: $rsp 120 +
STACK CFI 55a87 .cfa: $rsp 128 +
STACK CFI 55a8e .cfa: $rsp 136 +
STACK CFI 55a95 .cfa: $rsp 144 +
STACK CFI 55aa1 .cfa: $rsp 8 +
STACK CFI INIT 55aa2 39 .cfa: $rsp 8 + .ra: .cfa -8 + ^
STACK CFI 55aa6 .cfa: $rsp 24 +
STACK CFI 55aa8 .cfa: $rsp 32 +
STACK CFI 55aaa .cfa: $rsp 40 +
STACK CFI 55aac .cfa: $rsp 48 +
STACK CFI 55aae .cfa: $rsp 56 +
STACK CFI 55ab0 .cfa: $rsp 64 +
STACK CFI 55ab2 .cfa: $rsp 72 +
STACK CFI 55ab4 .cfa: $rsp 80 +
STACK CFI 55ab6 .cfa: $rsp 88 +
STACK CFI 55ab8 .cfa: $rsp 96 +
STACK CFI 55aba .cfa: $rsp 104 +
STACK CFI 55abc .cfa: $rsp 112 +
STACK CFI 55abe .cfa: $rsp 120 +
STACK CFI 55ac0 .cfa: $rsp 128 +
STACK CFI 55ac7 .cfa: $rsp 136 +
STACK CFI 55ace .cfa: $rsp 144 +
STACK CFI 55ada .cfa: $rsp 8 +
STACK CFI INIT 55adb 39 .cfa: $rsp 8 + .ra: .cfa -8 + ^
STACK CFI 55adf .cfa: $rsp 24 +
STACK CFI 55ae1 .cfa: $rsp 32 +
STACK CFI 55ae3 .cfa: $rsp 40 +
STACK CFI 55ae5 .cfa: $rsp 48 +
STACK CFI 55ae7 .cfa: $rsp 56 +
STACK CFI 55ae9 .cfa: $rsp 64 +
STACK CFI 55aeb .cfa: $rsp 72 +
STACK CFI 55aed .cfa: $rsp 80 +
STACK CFI 55aef .cfa: $rsp 88 +
STACK CFI 55af1 .cfa: $rsp 96 +
STACK CFI 55af3 .cfa: $rsp 104 +
STACK CFI 55af5 .cfa: $rsp 112 +
STACK CFI 55af7 .cfa: $rsp 120 +
STACK CFI 55af9 .cfa: $rsp 128 +
STACK CFI 55b00 .cfa: $rsp 136 +
STACK CFI 55b07 .cfa: $rsp 144 +
STACK CFI 55b13 .cfa: $rsp 8 +
STACK CFI INIT 55b14 39 .cfa: $rsp 8 + .ra: .cfa -8 + ^
STACK CFI 55b18 .cfa: $rsp 24 +
STACK CFI 55b1a .cfa: $rsp 32 +
STACK CFI 55b1c .cfa: $rsp 40 +
STACK CFI 55b1e .cfa: $rsp 48 +
STACK CFI 55b20 .cfa: $rsp 56 +
STACK CFI 55b22 .cfa: $rsp 64 +
STACK CFI 55b24 .cfa: $rsp 72 +
STACK CFI 55b26 .cfa: $rsp 80 +
STACK CFI 55b28 .cfa: $rsp 88 +
STACK CFI 55b2a .cfa: $rsp 96 +
STACK CFI 55b2c .cfa: $rsp 104 +
STACK CFI 55b2e .cfa: $rsp 112 +
STACK CFI 55b30 .cfa: $rsp 120 +
STACK CFI 55b32 .cfa: $rsp 128 +
STACK CFI 55b39 .cfa: $rsp 136 +
STACK CFI 55b40 .cfa: $rsp 144 +
STACK CFI 55b4c .cfa: $rsp 8 +
STACK CFI INIT 55b4d 39 .cfa: $rsp 8 + .ra: .cfa -8 + ^
STACK CFI 55b51 .cfa: $rsp 24 +
STACK CFI 55b53 .cfa: $rsp 32 +
STACK CFI 55b55 .cfa: $rsp 40 +
STACK CFI 55b57 .cfa: $rsp 48 +
STACK CFI 55b59 .cfa: $rsp 56 +
STACK CFI 55b5b .cfa: $rsp 64 +
STACK CFI 55b5d .cfa: $rsp 72 +
STACK CFI 55b5f .cfa: $rsp 80 +
STACK CFI 55b61 .cfa: $rsp 88 +
STACK CFI 55b63 .cfa: $rsp 96 +
STACK CFI 55b65 .cfa: $rsp 104 +
STACK CFI 55b67 .cfa: $rsp 112 +
STACK CFI 55b69 .cfa: $rsp 120 +
STACK CFI 55b6b .cfa: $rsp 128 +
STACK CFI 55b72 .cfa: $rsp 136 +
STACK CFI 55b79 .cfa: $rsp 144 +
STACK CFI 55b85 .cfa: $rsp 8 +
STACK CFI INIT 55b86 39 .cfa: $rsp 8 + .ra: .cfa -8 + ^
STACK CFI 55b8a .cfa: $rsp 24 +
STACK CFI 55b8c .cfa: $rsp 32 +
STACK CFI 55b8e .cfa: $rsp 40 +
STACK CFI 55b90 .cfa: $rsp 48 +
STACK CFI 55b92 .cfa: $rsp 56 +
STACK CFI 55b94 .cfa: $rsp 64 +
STACK CFI 55b96 .cfa: $rsp 72 +
STACK CFI 55b98 .cfa: $rsp 80 +
STACK CFI 55b9a .cfa: $rsp 88 +
STACK CFI 55b9c .cfa: $rsp 96 +
STACK CFI 55b9e .cfa: $rsp 104 +
STACK CFI 55ba0 .cfa: $rsp 112 +
STACK CFI 55ba2 .cfa: $rsp 120 +
STACK CFI 55ba4 .cfa: $rsp 128 +
STACK CFI 55bab .cfa: $rsp 136 +
STACK CFI 55bb2 .cfa: $rsp 144 +
STACK CFI 55bbe .cfa: $rsp 8 +
STACK CFI INIT 55bbf 39 .cfa: $rsp 8 + .ra: .cfa -8 + ^
STACK CFI 55bc3 .cfa: $rsp 24 +
STACK CFI 55bc5 .cfa: $rsp 32 +
STACK CFI 55bc7 .cfa: $rsp 40 +
STACK CFI 55bc9 .cfa: $rsp 48 +
STACK CFI 55bcb .cfa: $rsp 56 +
STACK CFI 55bcd .cfa: $rsp 64 +
STACK CFI 55bcf .cfa: $rsp 72 +
STACK CFI 55bd1 .cfa: $rsp 80 +
STACK CFI 55bd3 .cfa: $rsp 88 +
STACK CFI 55bd5 .cfa: $rsp 96 +
STACK CFI 55bd7 .cfa: $rsp 104 +
STACK CFI 55bd9 .cfa: $rsp 112 +
STACK CFI 55bdb .cfa: $rsp 120 +
STACK CFI 55bdd .cfa: $rsp 128 +
STACK CFI 55be4 .cfa: $rsp 136 +
STACK CFI 55beb .cfa: $rsp 144 +
STACK CFI 55bf7 .cfa: $rsp 8 +
STACK CFI INIT 55bf8 39 .cfa: $rsp 8 + .ra: .cfa -8 + ^
STACK CFI 55bfc .cfa: $rsp 24 +
STACK CFI 55bfe .cfa: $rsp 32 +
STACK CFI 55c00 .cfa: $rsp 40 +
STACK CFI 55c02 .cfa: $rsp 48 +
STACK CFI 55c04 .cfa: $rsp 56 +
STACK CFI 55c06 .cfa: $rsp 64 +
STACK CFI 55c08 .cfa: $rsp 72 +
STACK CFI 55c0a .cfa: $rsp 80 +
STACK CFI 55c0c .cfa: $rsp 88 +
STACK CFI 55c0e .cfa: $rsp 96 +
STACK CFI 55c10 .cfa: $rsp 104 +
STACK CFI 55c12 .cfa: $rsp 112 +
STACK CFI 55c14 .cfa: $rsp 120 +
STACK CFI 55c16 .cfa: $rsp 128 +
STACK CFI 55c1d .cfa: $rsp 136 +
STACK CFI 55c24 .cfa: $rsp 144 +
STACK CFI 55c30 .cfa: $rsp 8 +
STACK CFI INIT 55c31 39 .cfa: $rsp 8 + .ra: .cfa -8 + ^
STACK CFI 55c35 .cfa: $rsp 24 +
STACK CFI 55c37 .cfa: $rsp 32 +
STACK CFI 55c39 .cfa: $rsp 40 +
STACK CFI 55c3b .cfa: $rsp 48 +
STACK CFI 55c3d .cfa: $rsp 56 +
STACK CFI 55c3f .cfa: $rsp 64 +
STACK CFI 55c41 .cfa: $rsp 72 +
STACK CFI 55c43 .cfa: $rsp 80 +
STACK CFI 55c45 .cfa: $rsp 88 +
STACK CFI 55c47 .cfa: $rsp 96 +
STACK CFI 55c49 .cfa: $rsp 104 +
STACK CFI 55c4b .cfa: $rsp 112 +
STACK CFI 55c4d .cfa: $rsp 120 +
STACK CFI 55c4f .cfa: $rsp 128 +
STACK CFI 55c56 .cfa: $rsp 136 +
STACK CFI 55c5d .cfa: $rsp 144 +
STACK CFI 55c69 .cfa: $rsp 8 +
STACK CFI INIT 55c6a 39 .cfa: $rsp 8 + .ra: .cfa -8 + ^
STACK CFI 55c6e .cfa: $rsp 24 +
STACK CFI 55c70 .cfa: $rsp 32 +
STACK CFI 55c72 .cfa: $rsp 40 +
STACK CFI 55c74 .cfa: $rsp 48 +
STACK CFI 55c76 .cfa: $rsp 56 +
STACK CFI 55c78 .cfa: $rsp 64 +
STACK CFI 55c7a .cfa: $rsp 72 +
STACK CFI 55c7c .cfa: $rsp 80 +
STACK CFI 55c7e .cfa: $rsp 88 +
STACK CFI 55c80 .cfa: $rsp 96 +
STACK CFI 55c82 .cfa: $rsp 104 +
STACK CFI 55c84 .cfa: $rsp 112 +
STACK CFI 55c86 .cfa: $rsp 120 +
STACK CFI 55c88 .cfa: $rsp 128 +
STACK CFI 55c8f .cfa: $rsp 136 +
STACK CFI 55c96 .cfa: $rsp 144 +
STACK CFI 55ca2 .cfa: $rsp 8 +
STACK CFI INIT 55ca3 39 .cfa: $rsp 8 + .ra: .cfa -8 + ^
STACK CFI 55ca7 .cfa: $rsp 24 +
STACK CFI 55ca9 .cfa: $rsp 32 +
STACK CFI 55cab .cfa: $rsp 40 +
STACK CFI 55cad .cfa: $rsp 48 +
STACK CFI 55caf .cfa: $rsp 56 +
STACK CFI 55cb1 .cfa: $rsp 64 +
STACK CFI 55cb3 .cfa: $rsp 72 +
STACK CFI 55cb5 .cfa: $rsp 80 +
STACK CFI 55cb7 .cfa: $rsp 88 +
STACK CFI 55cb9 .cfa: $rsp 96 +
STACK CFI 55cbb .cfa: $rsp 104 +
STACK CFI 55cbd .cfa: $rsp 112 +
STACK CFI 55cbf .cfa: $rsp 120 +
STACK CFI 55cc1 .cfa: $rsp 128 +
STACK CFI 55cc8 .cfa: $rsp 136 +
STACK CFI 55ccf .cfa: $rsp 144 +
STACK CFI 55cdb .cfa: $rsp 8 +
STACK CFI INIT 55cdc 39 .cfa: $rsp 8 + .ra: .cfa -8 + ^
STACK CFI 55ce0 .cfa: $rsp 24 +
STACK CFI 55ce2 .cfa: $rsp 32 +
STACK CFI 55ce4 .cfa: $rsp 40 +
STACK CFI 55ce6 .cfa: $rsp 48 +
STACK CFI 55ce8 .cfa: $rsp 56 +
STACK CFI 55cea .cfa: $rsp 64 +
STACK CFI 55cec .cfa: $rsp 72 +
STACK CFI 55cee .cfa: $rsp 80 +
STACK CFI 55cf0 .cfa: $rsp 88 +
STACK CFI 55cf2 .cfa: $rsp 96 +
STACK CFI 55cf4 .cfa: $rsp 104 +
STACK CFI 55cf6 .cfa: $rsp 112 +
STACK CFI 55cf8 .cfa: $rsp 120 +
STACK CFI 55cfa .cfa: $rsp 128 +
STACK CFI 55d01 .cfa: $rsp 136 +
STACK CFI 55d08 .cfa: $rsp 144 +
STACK CFI 55d14 .cfa: $rsp 8 +
STACK CFI INIT 55d15 39 .cfa: $rsp 8 + .ra: .cfa -8 + ^
STACK CFI 55d19 .cfa: $rsp 24 +
STACK CFI 55d1b .cfa: $rsp 32 +
STACK CFI 55d1d .cfa: $rsp 40 +
STACK CFI 55d1f .cfa: $rsp 48 +
STACK CFI 55d21 .cfa: $rsp 56 +
STACK CFI 55d23 .cfa: $rsp 64 +
STACK CFI 55d25 .cfa: $rsp 72 +
STACK CFI 55d27 .cfa: $rsp 80 +
STACK CFI 55d29 .cfa: $rsp 88 +
STACK CFI 55d2b .cfa: $rsp 96 +
STACK CFI 55d2d .cfa: $rsp 104 +
STACK CFI 55d2f .cfa: $rsp 112 +
STACK CFI 55d31 .cfa: $rsp 120 +
STACK CFI 55d33 .cfa: $rsp 128 +
STACK CFI 55d3a .cfa: $rsp 136 +
STACK CFI 55d41 .cfa: $rsp 144 +
STACK CFI 55d4d .cfa: $rsp 8 +
STACK CFI INIT 55d4e 39 .cfa: $rsp 8 + .ra: .cfa -8 + ^
STACK CFI 55d52 .cfa: $rsp 24 +
STACK CFI 55d54 .cfa: $rsp 32 +
STACK CFI 55d56 .cfa: $rsp 40 +
STACK CFI 55d58 .cfa: $rsp 48 +
STACK CFI 55d5a .cfa: $rsp 56 +
STACK CFI 55d5c .cfa: $rsp 64 +
STACK CFI 55d5e .cfa: $rsp 72 +
STACK CFI 55d60 .cfa: $rsp 80 +
STACK CFI 55d62 .cfa: $rsp 88 +
STACK CFI 55d64 .cfa: $rsp 96 +
STACK CFI 55d66 .cfa: $rsp 104 +
STACK CFI 55d68 .cfa: $rsp 112 +
STACK CFI 55d6a .cfa: $rsp 120 +
STACK CFI 55d6c .cfa: $rsp 128 +
STACK CFI 55d73 .cfa: $rsp 136 +
STACK CFI 55d7a .cfa: $rsp 144 +
STACK CFI 55d86 .cfa: $rsp 8 +
STACK CFI INIT 55d87 39 .cfa: $rsp 8 + .ra: .cfa -8 + ^
STACK CFI 55d8b .cfa: $rsp 24 +
STACK CFI 55d8d .cfa: $rsp 32 +
STACK CFI 55d8f .cfa: $rsp 40 +
STACK CFI 55d91 .cfa: $rsp 48 +
STACK CFI 55d93 .cfa: $rsp 56 +
STACK CFI 55d95 .cfa: $rsp 64 +
STACK CFI 55d97 .cfa: $rsp 72 +
STACK CFI 55d99 .cfa: $rsp 80 +
STACK CFI 55d9b .cfa: $rsp 88 +
STACK CFI 55d9d .cfa: $rsp 96 +
STACK CFI 55d9f .cfa: $rsp 104 +
STACK CFI 55da1 .cfa: $rsp 112 +
STACK CFI 55da3 .cfa: $rsp 120 +
STACK CFI 55da5 .cfa: $rsp 128 +
STACK CFI 55dac .cfa: $rsp 136 +
STACK CFI 55db3 .cfa: $rsp 144 +
STACK CFI 55dbf .cfa: $rsp 8 +
STACK CFI INIT 55dc0 39 .cfa: $rsp 8 + .ra: .cfa -8 + ^
STACK CFI 55dc4 .cfa: $rsp 24 +
STACK CFI 55dc6 .cfa: $rsp 32 +
STACK CFI 55dc8 .cfa: $rsp 40 +
STACK CFI 55dca .cfa: $rsp 48 +
STACK CFI 55dcc .cfa: $rsp 56 +
STACK CFI 55dce .cfa: $rsp 64 +
STACK CFI 55dd0 .cfa: $rsp 72 +
STACK CFI 55dd2 .cfa: $rsp 80 +
STACK CFI 55dd4 .cfa: $rsp 88 +
STACK CFI 55dd6 .cfa: $rsp 96 +
STACK CFI 55dd8 .cfa: $rsp 104 +
STACK CFI 55dda .cfa: $rsp 112 +
STACK CFI 55ddc .cfa: $rsp 120 +
STACK CFI 55dde .cfa: $rsp 128 +
STACK CFI 55de5 .cfa: $rsp 136 +
STACK CFI 55dec .cfa: $rsp 144 +
STACK CFI 55df8 .cfa: $rsp 8 +
STACK CFI INIT 55df9 39 .cfa: $rsp 8 + .ra: .cfa -8 + ^
STACK CFI 55dfd .cfa: $rsp 24 +
STACK CFI 55dff .cfa: $rsp 32 +
STACK CFI 55e01 .cfa: $rsp 40 +
STACK CFI 55e03 .cfa: $rsp 48 +
STACK CFI 55e05 .cfa: $rsp 56 +
STACK CFI 55e07 .cfa: $rsp 64 +
STACK CFI 55e09 .cfa: $rsp 72 +
STACK CFI 55e0b .cfa: $rsp 80 +
STACK CFI 55e0d .cfa: $rsp 88 +
STACK CFI 55e0f .cfa: $rsp 96 +
STACK CFI 55e11 .cfa: $rsp 104 +
STACK CFI 55e13 .cfa: $rsp 112 +
STACK CFI 55e15 .cfa: $rsp 120 +
STACK CFI 55e17 .cfa: $rsp 128 +
STACK CFI 55e1e .cfa: $rsp 136 +
STACK CFI 55e25 .cfa: $rsp 144 +
STACK CFI 55e31 .cfa: $rsp 8 +
STACK CFI INIT 55e32 39 .cfa: $rsp 8 + .ra: .cfa -8 + ^
STACK CFI 55e36 .cfa: $rsp 24 +
STACK CFI 55e38 .cfa: $rsp 32 +
STACK CFI 55e3a .cfa: $rsp 40 +
STACK CFI 55e3c .cfa: $rsp 48 +
STACK CFI 55e3e .cfa: $rsp 56 +
STACK CFI 55e40 .cfa: $rsp 64 +
STACK CFI 55e42 .cfa: $rsp 72 +
STACK CFI 55e44 .cfa: $rsp 80 +
STACK CFI 55e46 .cfa: $rsp 88 +
STACK CFI 55e48 .cfa: $rsp 96 +
STACK CFI 55e4a .cfa: $rsp 104 +
STACK CFI 55e4c .cfa: $rsp 112 +
STACK CFI 55e4e .cfa: $rsp 120 +
STACK CFI 55e50 .cfa: $rsp 128 +
STACK CFI 55e57 .cfa: $rsp 136 +
STACK CFI 55e5e .cfa: $rsp 144 +
STACK CFI 55e6a .cfa: $rsp 8 +
STACK CFI INIT 55e6b 39 .cfa: $rsp 8 + .ra: .cfa -8 + ^
STACK CFI 55e6f .cfa: $rsp 24 +
STACK CFI 55e71 .cfa: $rsp 32 +
STACK CFI 55e73 .cfa: $rsp 40 +
STACK CFI 55e75 .cfa: $rsp 48 +
STACK CFI 55e77 .cfa: $rsp 56 +
STACK CFI 55e79 .cfa: $rsp 64 +
STACK CFI 55e7b .cfa: $rsp 72 +
STACK CFI 55e7d .cfa: $rsp 80 +
STACK CFI 55e7f .cfa: $rsp 88 +
STACK CFI 55e81 .cfa: $rsp 96 +
STACK CFI 55e83 .cfa: $rsp 104 +
STACK CFI 55e85 .cfa: $rsp 112 +
STACK CFI 55e87 .cfa: $rsp 120 +
STACK CFI 55e89 .cfa: $rsp 128 +
STACK CFI 55e90 .cfa: $rsp 136 +
STACK CFI 55e97 .cfa: $rsp 144 +
STACK CFI 55ea3 .cfa: $rsp 8 +
STACK CFI INIT 55ea4 39 .cfa: $rsp 8 + .ra: .cfa -8 + ^
STACK CFI 55ea8 .cfa: $rsp 24 +
STACK CFI 55eaa .cfa: $rsp 32 +
STACK CFI 55eac .cfa: $rsp 40 +
STACK CFI 55eae .cfa: $rsp 48 +
STACK CFI 55eb0 .cfa: $rsp 56 +
STACK CFI 55eb2 .cfa: $rsp 64 +
STACK CFI 55eb4 .cfa: $rsp 72 +
STACK CFI 55eb6 .cfa: $rsp 80 +
STACK CFI 55eb8 .cfa: $rsp 88 +
STACK CFI 55eba .cfa: $rsp 96 +
STACK CFI 55ebc .cfa: $rsp 104 +
STACK CFI 55ebe .cfa: $rsp 112 +
STACK CFI 55ec0 .cfa: $rsp 120 +
STACK CFI 55ec2 .cfa: $rsp 128 +
STACK CFI 55ec9 .cfa: $rsp 136 +
STACK CFI 55ed0 .cfa: $rsp 144 +
STACK CFI 55edc .cfa: $rsp 8 +
STACK CFI INIT 55edd 39 .cfa: $rsp 8 + .ra: .cfa -8 + ^
STACK CFI 55ee1 .cfa: $rsp 24 +
STACK CFI 55ee3 .cfa: $rsp 32 +
STACK CFI 55ee5 .cfa: $rsp 40 +
STACK CFI 55ee7 .cfa: $rsp 48 +
STACK CFI 55ee9 .cfa: $rsp 56 +
STACK CFI 55eeb .cfa: $rsp 64 +
STACK CFI 55eed .cfa: $rsp 72 +
STACK CFI 55eef .cfa: $rsp 80 +
STACK CFI 55ef1 .cfa: $rsp 88 +
STACK CFI 55ef3 .cfa: $rsp 96 +
STACK CFI 55ef5 .cfa: $rsp 104 +
STACK CFI 55ef7 .cfa: $rsp 112 +
STACK CFI 55ef9 .cfa: $rsp 120 +
STACK CFI 55efb .cfa: $rsp 128 +
STACK CFI 55f02 .cfa: $rsp 136 +
STACK CFI 55f09 .cfa: $rsp 144 +
STACK CFI 55f15 .cfa: $rsp 8 +
STACK CFI INIT 55f16 39 .cfa: $rsp 8 + .ra: .cfa -8 + ^
STACK CFI 55f1a .cfa: $rsp 24 +
STACK CFI 55f1c .cfa: $rsp 32 +
STACK CFI 55f1e .cfa: $rsp 40 +
STACK CFI 55f20 .cfa: $rsp 48 +
STACK CFI 55f22 .cfa: $rsp 56 +
STACK CFI 55f24 .cfa: $rsp 64 +
STACK CFI 55f26 .cfa: $rsp 72 +
STACK CFI 55f28 .cfa: $rsp 80 +
STACK CFI 55f2a .cfa: $rsp 88 +
STACK CFI 55f2c .cfa: $rsp 96 +
STACK CFI 55f2e .cfa: $rsp 104 +
STACK CFI 55f30 .cfa: $rsp 112 +
STACK CFI 55f32 .cfa: $rsp 120 +
STACK CFI 55f34 .cfa: $rsp 128 +
STACK CFI 55f3b .cfa: $rsp 136 +
STACK CFI 55f42 .cfa: $rsp 144 +
STACK CFI 55f4e .cfa: $rsp 8 +
STACK CFI INIT 55f4f 39 .cfa: $rsp 8 + .ra: .cfa -8 + ^
STACK CFI 55f53 .cfa: $rsp 24 +
STACK CFI 55f55 .cfa: $rsp 32 +
STACK CFI 55f57 .cfa: $rsp 40 +
STACK CFI 55f59 .cfa: $rsp 48 +
STACK CFI 55f5b .cfa: $rsp 56 +
STACK CFI 55f5d .cfa: $rsp 64 +
STACK CFI 55f5f .cfa: $rsp 72 +
STACK CFI 55f61 .cfa: $rsp 80 +
STACK CFI 55f63 .cfa: $rsp 88 +
STACK CFI 55f65 .cfa: $rsp 96 +
STACK CFI 55f67 .cfa: $rsp 104 +
STACK CFI 55f69 .cfa: $rsp 112 +
STACK CFI 55f6b .cfa: $rsp 120 +
STACK CFI 55f6d .cfa: $rsp 128 +
STACK CFI 55f74 .cfa: $rsp 136 +
STACK CFI 55f7b .cfa: $rsp 144 +
STACK CFI 55f87 .cfa: $rsp 8 +
STACK CFI INIT 55f88 39 .cfa: $rsp 8 + .ra: .cfa -8 + ^
STACK CFI 55f8c .cfa: $rsp 24 +
STACK CFI 55f8e .cfa: $rsp 32 +
STACK CFI 55f90 .cfa: $rsp 40 +
STACK CFI 55f92 .cfa: $rsp 48 +
STACK CFI 55f94 .cfa: $rsp 56 +
STACK CFI 55f96 .cfa: $rsp 64 +
STACK CFI 55f98 .cfa: $rsp 72 +
STACK CFI 55f9a .cfa: $rsp 80 +
STACK CFI 55f9c .cfa: $rsp 88 +
STACK CFI 55f9e .cfa: $rsp 96 +
STACK CFI 55fa0 .cfa: $rsp 104 +
STACK CFI 55fa2 .cfa: $rsp 112 +
STACK CFI 55fa4 .cfa: $rsp 120 +
STACK CFI 55fa6 .cfa: $rsp 128 +
STACK CFI 55fad .cfa: $rsp 136 +
STACK CFI 55fb4 .cfa: $rsp 144 +
STACK CFI 55fc0 .cfa: $rsp 8 +
STACK CFI INIT 55fc1 39 .cfa: $rsp 8 + .ra: .cfa -8 + ^
STACK CFI 55fc5 .cfa: $rsp 24 +
STACK CFI 55fc7 .cfa: $rsp 32 +
STACK CFI 55fc9 .cfa: $rsp 40 +
STACK CFI 55fcb .cfa: $rsp 48 +
STACK CFI 55fcd .cfa: $rsp 56 +
STACK CFI 55fcf .cfa: $rsp 64 +
STACK CFI 55fd1 .cfa: $rsp 72 +
STACK CFI 55fd3 .cfa: $rsp 80 +
STACK CFI 55fd5 .cfa: $rsp 88 +
STACK CFI 55fd7 .cfa: $rsp 96 +
STACK CFI 55fd9 .cfa: $rsp 104 +
STACK CFI 55fdb .cfa: $rsp 112 +
STACK CFI 55fdd .cfa: $rsp 120 +
STACK CFI 55fdf .cfa: $rsp 128 +
STACK CFI 55fe6 .cfa: $rsp 136 +
STACK CFI 55fed .cfa: $rsp 144 +
STACK CFI 55ff9 .cfa: $rsp 8 +
STACK CFI INIT 55ffa 39 .cfa: $rsp 8 + .ra: .cfa -8 + ^
STACK CFI 55ffe .cfa: $rsp 24 +
STACK CFI 56000 .cfa: $rsp 32 +
STACK CFI 56002 .cfa: $rsp 40 +
STACK CFI 56004 .cfa: $rsp 48 +
STACK CFI 56006 .cfa: $rsp 56 +
STACK CFI 56008 .cfa: $rsp 64 +
STACK CFI 5600a .cfa: $rsp 72 +
STACK CFI 5600c .cfa: $rsp 80 +
STACK CFI 5600e .cfa: $rsp 88 +
STACK CFI 56010 .cfa: $rsp 96 +
STACK CFI 56012 .cfa: $rsp 104 +
STACK CFI 56014 .cfa: $rsp 112 +
STACK CFI 56016 .cfa: $rsp 120 +
STACK CFI 56018 .cfa: $rsp 128 +
STACK CFI 5601f .cfa: $rsp 136 +
STACK CFI 56026 .cfa: $rsp 144 +
STACK CFI 56032 .cfa: $rsp 8 +
STACK CFI INIT 56033 39 .cfa: $rsp 8 + .ra: .cfa -8 + ^
STACK CFI 56037 .cfa: $rsp 24 +
STACK CFI 56039 .cfa: $rsp 32 +
STACK CFI 5603b .cfa: $rsp 40 +
STACK CFI 5603d .cfa: $rsp 48 +
STACK CFI 5603f .cfa: $rsp 56 +
STACK CFI 56041 .cfa: $rsp 64 +
STACK CFI 56043 .cfa: $rsp 72 +
STACK CFI 56045 .cfa: $rsp 80 +
STACK CFI 56047 .cfa: $rsp 88 +
STACK CFI 56049 .cfa: $rsp 96 +
STACK CFI 5604b .cfa: $rsp 104 +
STACK CFI 5604d .cfa: $rsp 112 +
STACK CFI 5604f .cfa: $rsp 120 +
STACK CFI 56051 .cfa: $rsp 128 +
STACK CFI 56058 .cfa: $rsp 136 +
STACK CFI 5605f .cfa: $rsp 144 +
STACK CFI 5606b .cfa: $rsp 8 +
STACK CFI INIT 5606c 39 .cfa: $rsp 8 + .ra: .cfa -8 + ^
STACK CFI 56070 .cfa: $rsp 24 +
STACK CFI 56072 .cfa: $rsp 32 +
STACK CFI 56074 .cfa: $rsp 40 +
STACK CFI 56076 .cfa: $rsp 48 +
STACK CFI 56078 .cfa: $rsp 56 +
STACK CFI 5607a .cfa: $rsp 64 +
STACK CFI 5607c .cfa: $rsp 72 +
STACK CFI 5607e .cfa: $rsp 80 +
STACK CFI 56080 .cfa: $rsp 88 +
STACK CFI 56082 .cfa: $rsp 96 +
STACK CFI 56084 .cfa: $rsp 104 +
STACK CFI 56086 .cfa: $rsp 112 +
STACK CFI 56088 .cfa: $rsp 120 +
STACK CFI 5608a .cfa: $rsp 128 +
STACK CFI 56091 .cfa: $rsp 136 +
STACK CFI 56098 .cfa: $rsp 144 +
STACK CFI 560a4 .cfa: $rsp 8 +
STACK CFI INIT 560a5 39 .cfa: $rsp 8 + .ra: .cfa -8 + ^
STACK CFI 560a9 .cfa: $rsp 24 +
STACK CFI 560ab .cfa: $rsp 32 +
STACK CFI 560ad .cfa: $rsp 40 +
STACK CFI 560af .cfa: $rsp 48 +
STACK CFI 560b1 .cfa: $rsp 56 +
STACK CFI 560b3 .cfa: $rsp 64 +
STACK CFI 560b5 .cfa: $rsp 72 +
STACK CFI 560b7 .cfa: $rsp 80 +
STACK CFI 560b9 .cfa: $rsp 88 +
STACK CFI 560bb .cfa: $rsp 96 +
STACK CFI 560bd .cfa: $rsp 104 +
STACK CFI 560bf .cfa: $rsp 112 +
STACK CFI 560c1 .cfa: $rsp 120 +
STACK CFI 560c3 .cfa: $rsp 128 +
STACK CFI 560ca .cfa: $rsp 136 +
STACK CFI 560d1 .cfa: $rsp 144 +
STACK CFI 560dd .cfa: $rsp 8 +
STACK CFI INIT 560de 39 .cfa: $rsp 8 + .ra: .cfa -8 + ^
STACK CFI 560e2 .cfa: $rsp 24 +
STACK CFI 560e4 .cfa: $rsp 32 +
STACK CFI 560e6 .cfa: $rsp 40 +
STACK CFI 560e8 .cfa: $rsp 48 +
STACK CFI 560ea .cfa: $rsp 56 +
STACK CFI 560ec .cfa: $rsp 64 +
STACK CFI 560ee .cfa: $rsp 72 +
STACK CFI 560f0 .cfa: $rsp 80 +
STACK CFI 560f2 .cfa: $rsp 88 +
STACK CFI 560f4 .cfa: $rsp 96 +
STACK CFI 560f6 .cfa: $rsp 104 +
STACK CFI 560f8 .cfa: $rsp 112 +
STACK CFI 560fa .cfa: $rsp 120 +
STACK CFI 560fc .cfa: $rsp 128 +
STACK CFI 56103 .cfa: $rsp 136 +
STACK CFI 5610a .cfa: $rsp 144 +
STACK CFI 56116 .cfa: $rsp 8 +
STACK CFI INIT 56117 39 .cfa: $rsp 8 + .ra: .cfa -8 + ^
STACK CFI 5611b .cfa: $rsp 24 +
STACK CFI 5611d .cfa: $rsp 32 +
STACK CFI 5611f .cfa: $rsp 40 +
STACK CFI 56121 .cfa: $rsp 48 +
STACK CFI 56123 .cfa: $rsp 56 +
STACK CFI 56125 .cfa: $rsp 64 +
STACK CFI 56127 .cfa: $rsp 72 +
STACK CFI 56129 .cfa: $rsp 80 +
STACK CFI 5612b .cfa: $rsp 88 +
STACK CFI 5612d .cfa: $rsp 96 +
STACK CFI 5612f .cfa: $rsp 104 +
STACK CFI 56131 .cfa: $rsp 112 +
STACK CFI 56133 .cfa: $rsp 120 +
STACK CFI 56135 .cfa: $rsp 128 +
STACK CFI 5613c .cfa: $rsp 136 +
STACK CFI 56143 .cfa: $rsp 144 +
STACK CFI 5614f .cfa: $rsp 8 +
STACK CFI INIT 56150 39 .cfa: $rsp 8 + .ra: .cfa -8 + ^
STACK CFI 56154 .cfa: $rsp 24 +
STACK CFI 56156 .cfa: $rsp 32 +
STACK CFI 56158 .cfa: $rsp 40 +
STACK CFI 5615a .cfa: $rsp 48 +
STACK CFI 5615c .cfa: $rsp 56 +
STACK CFI 5615e .cfa: $rsp 64 +
STACK CFI 56160 .cfa: $rsp 72 +
STACK CFI 56162 .cfa: $rsp 80 +
STACK CFI 56164 .cfa: $rsp 88 +
STACK CFI 56166 .cfa: $rsp 96 +
STACK CFI 56168 .cfa: $rsp 104 +
STACK CFI 5616a .cfa: $rsp 112 +
STACK CFI 5616c .cfa: $rsp 120 +
STACK CFI 5616e .cfa: $rsp 128 +
STACK CFI 56175 .cfa: $rsp 136 +
STACK CFI 5617c .cfa: $rsp 144 +
STACK CFI 56188 .cfa: $rsp 8 +
STACK CFI INIT 56189 39 .cfa: $rsp 8 + .ra: .cfa -8 + ^
STACK CFI 5618d .cfa: $rsp 24 +
STACK CFI 5618f .cfa: $rsp 32 +
STACK CFI 56191 .cfa: $rsp 40 +
STACK CFI 56193 .cfa: $rsp 48 +
STACK CFI 56195 .cfa: $rsp 56 +
STACK CFI 56197 .cfa: $rsp 64 +
STACK CFI 56199 .cfa: $rsp 72 +
STACK CFI 5619b .cfa: $rsp 80 +
STACK CFI 5619d .cfa: $rsp 88 +
STACK CFI 5619f .cfa: $rsp 96 +
STACK CFI 561a1 .cfa: $rsp 104 +
STACK CFI 561a3 .cfa: $rsp 112 +
STACK CFI 561a5 .cfa: $rsp 120 +
STACK CFI 561a7 .cfa: $rsp 128 +
STACK CFI 561ae .cfa: $rsp 136 +
STACK CFI 561b5 .cfa: $rsp 144 +
STACK CFI 561c1 .cfa: $rsp 8 +
STACK CFI INIT 561c2 39 .cfa: $rsp 8 + .ra: .cfa -8 + ^
STACK CFI 561c6 .cfa: $rsp 24 +
STACK CFI 561c8 .cfa: $rsp 32 +
STACK CFI 561ca .cfa: $rsp 40 +
STACK CFI 561cc .cfa: $rsp 48 +
STACK CFI 561ce .cfa: $rsp 56 +
STACK CFI 561d0 .cfa: $rsp 64 +
STACK CFI 561d2 .cfa: $rsp 72 +
STACK CFI 561d4 .cfa: $rsp 80 +
STACK CFI 561d6 .cfa: $rsp 88 +
STACK CFI 561d8 .cfa: $rsp 96 +
STACK CFI 561da .cfa: $rsp 104 +
STACK CFI 561dc .cfa: $rsp 112 +
STACK CFI 561de .cfa: $rsp 120 +
STACK CFI 561e0 .cfa: $rsp 128 +
STACK CFI 561e7 .cfa: $rsp 136 +
STACK CFI 561ee .cfa: $rsp 144 +
STACK CFI 561fa .cfa: $rsp 8 +
STACK CFI INIT 561fb 39 .cfa: $rsp 8 + .ra: .cfa -8 + ^
STACK CFI 561ff .cfa: $rsp 24 +
STACK CFI 56201 .cfa: $rsp 32 +
STACK CFI 56203 .cfa: $rsp 40 +
STACK CFI 56205 .cfa: $rsp 48 +
STACK CFI 56207 .cfa: $rsp 56 +
STACK CFI 56209 .cfa: $rsp 64 +
STACK CFI 5620b .cfa: $rsp 72 +
STACK CFI 5620d .cfa: $rsp 80 +
STACK CFI 5620f .cfa: $rsp 88 +
STACK CFI 56211 .cfa: $rsp 96 +
STACK CFI 56213 .cfa: $rsp 104 +
STACK CFI 56215 .cfa: $rsp 112 +
STACK CFI 56217 .cfa: $rsp 120 +
STACK CFI 56219 .cfa: $rsp 128 +
STACK CFI 56220 .cfa: $rsp 136 +
STACK CFI 56227 .cfa: $rsp 144 +
STACK CFI 56233 .cfa: $rsp 8 +
STACK CFI INIT 56234 39 .cfa: $rsp 8 + .ra: .cfa -8 + ^
STACK CFI 56238 .cfa: $rsp 24 +
STACK CFI 5623a .cfa: $rsp 32 +
STACK CFI 5623c .cfa: $rsp 40 +
STACK CFI 5623e .cfa: $rsp 48 +
STACK CFI 56240 .cfa: $rsp 56 +
STACK CFI 56242 .cfa: $rsp 64 +
STACK CFI 56244 .cfa: $rsp 72 +
STACK CFI 56246 .cfa: $rsp 80 +
STACK CFI 56248 .cfa: $rsp 88 +
STACK CFI 5624a .cfa: $rsp 96 +
STACK CFI 5624c .cfa: $rsp 104 +
STACK CFI 5624e .cfa: $rsp 112 +
STACK CFI 56250 .cfa: $rsp 120 +
STACK CFI 56252 .cfa: $rsp 128 +
STACK CFI 56259 .cfa: $rsp 136 +
STACK CFI 56260 .cfa: $rsp 144 +
STACK CFI 5626c .cfa: $rsp 8 +
STACK CFI INIT 5626d 39 .cfa: $rsp 8 + .ra: .cfa -8 + ^
STACK CFI 56271 .cfa: $rsp 24 +
STACK CFI 56273 .cfa: $rsp 32 +
STACK CFI 56275 .cfa: $rsp 40 +
STACK CFI 56277 .cfa: $rsp 48 +
STACK CFI 56279 .cfa: $rsp 56 +
STACK CFI 5627b .cfa: $rsp 64 +
STACK CFI 5627d .cfa: $rsp 72 +
STACK CFI 5627f .cfa: $rsp 80 +
STACK CFI 56281 .cfa: $rsp 88 +
STACK CFI 56283 .cfa: $rsp 96 +
STACK CFI 56285 .cfa: $rsp 104 +
STACK CFI 56287 .cfa: $rsp 112 +
STACK CFI 56289 .cfa: $rsp 120 +
STACK CFI 5628b .cfa: $rsp 128 +
STACK CFI 56292 .cfa: $rsp 136 +
STACK CFI 56299 .cfa: $rsp 144 +
STACK CFI 562a5 .cfa: $rsp 8 +
STACK CFI INIT 562a6 39 .cfa: $rsp 8 + .ra: .cfa -8 + ^
STACK CFI 562aa .cfa: $rsp 24 +
STACK CFI 562ac .cfa: $rsp 32 +
STACK CFI 562ae .cfa: $rsp 40 +
STACK CFI 562b0 .cfa: $rsp 48 +
STACK CFI 562b2 .cfa: $rsp 56 +
STACK CFI 562b4 .cfa: $rsp 64 +
STACK CFI 562b6 .cfa: $rsp 72 +
STACK CFI 562b8 .cfa: $rsp 80 +
STACK CFI 562ba .cfa: $rsp 88 +
STACK CFI 562bc .cfa: $rsp 96 +
STACK CFI 562be .cfa: $rsp 104 +
STACK CFI 562c0 .cfa: $rsp 112 +
STACK CFI 562c2 .cfa: $rsp 120 +
STACK CFI 562c4 .cfa: $rsp 128 +
STACK CFI 562cb .cfa: $rsp 136 +
STACK CFI 562d2 .cfa: $rsp 144 +
STACK CFI 562de .cfa: $rsp 8 +
STACK CFI INIT 562df 39 .cfa: $rsp 8 + .ra: .cfa -8 + ^
STACK CFI 562e3 .cfa: $rsp 24 +
STACK CFI 562e5 .cfa: $rsp 32 +
STACK CFI 562e7 .cfa: $rsp 40 +
STACK CFI 562e9 .cfa: $rsp 48 +
STACK CFI 562eb .cfa: $rsp 56 +
STACK CFI 562ed .cfa: $rsp 64 +
STACK CFI 562ef .cfa: $rsp 72 +
STACK CFI 562f1 .cfa: $rsp 80 +
STACK CFI 562f3 .cfa: $rsp 88 +
STACK CFI 562f5 .cfa: $rsp 96 +
STACK CFI 562f7 .cfa: $rsp 104 +
STACK CFI 562f9 .cfa: $rsp 112 +
STACK CFI 562fb .cfa: $rsp 120 +
STACK CFI 562fd .cfa: $rsp 128 +
STACK CFI 56304 .cfa: $rsp 136 +
STACK CFI 5630b .cfa: $rsp 144 +
STACK CFI 56317 .cfa: $rsp 8 +
STACK CFI INIT 56318 39 .cfa: $rsp 8 + .ra: .cfa -8 + ^
STACK CFI 5631c .cfa: $rsp 24 +
STACK CFI 5631e .cfa: $rsp 32 +
STACK CFI 56320 .cfa: $rsp 40 +
STACK CFI 56322 .cfa: $rsp 48 +
STACK CFI 56324 .cfa: $rsp 56 +
STACK CFI 56326 .cfa: $rsp 64 +
STACK CFI 56328 .cfa: $rsp 72 +
STACK CFI 5632a .cfa: $rsp 80 +
STACK CFI 5632c .cfa: $rsp 88 +
STACK CFI 5632e .cfa: $rsp 96 +
STACK CFI 56330 .cfa: $rsp 104 +
STACK CFI 56332 .cfa: $rsp 112 +
STACK CFI 56334 .cfa: $rsp 120 +
STACK CFI 56336 .cfa: $rsp 128 +
STACK CFI 5633d .cfa: $rsp 136 +
STACK CFI 56344 .cfa: $rsp 144 +
STACK CFI 56350 .cfa: $rsp 8 +
STACK CFI INIT 56351 39 .cfa: $rsp 8 + .ra: .cfa -8 + ^
STACK CFI 56355 .cfa: $rsp 24 +
STACK CFI 56357 .cfa: $rsp 32 +
STACK CFI 56359 .cfa: $rsp 40 +
STACK CFI 5635b .cfa: $rsp 48 +
STACK CFI 5635d .cfa: $rsp 56 +
STACK CFI 5635f .cfa: $rsp 64 +
STACK CFI 56361 .cfa: $rsp 72 +
STACK CFI 56363 .cfa: $rsp 80 +
STACK CFI 56365 .cfa: $rsp 88 +
STACK CFI 56367 .cfa: $rsp 96 +
STACK CFI 56369 .cfa: $rsp 104 +
STACK CFI 5636b .cfa: $rsp 112 +
STACK CFI 5636d .cfa: $rsp 120 +
STACK CFI 5636f .cfa: $rsp 128 +
STACK CFI 56376 .cfa: $rsp 136 +
STACK CFI 5637d .cfa: $rsp 144 +
STACK CFI 56389 .cfa: $rsp 8 +
STACK CFI INIT 5638a 39 .cfa: $rsp 8 + .ra: .cfa -8 + ^
STACK CFI 5638e .cfa: $rsp 24 +
STACK CFI 56390 .cfa: $rsp 32 +
STACK CFI 56392 .cfa: $rsp 40 +
STACK CFI 56394 .cfa: $rsp 48 +
STACK CFI 56396 .cfa: $rsp 56 +
STACK CFI 56398 .cfa: $rsp 64 +
STACK CFI 5639a .cfa: $rsp 72 +
STACK CFI 5639c .cfa: $rsp 80 +
STACK CFI 5639e .cfa: $rsp 88 +
STACK CFI 563a0 .cfa: $rsp 96 +
STACK CFI 563a2 .cfa: $rsp 104 +
STACK CFI 563a4 .cfa: $rsp 112 +
STACK CFI 563a6 .cfa: $rsp 120 +
STACK CFI 563a8 .cfa: $rsp 128 +
STACK CFI 563af .cfa: $rsp 136 +
STACK CFI 563b6 .cfa: $rsp 144 +
STACK CFI 563c2 .cfa: $rsp 8 +
STACK CFI INIT 563c3 39 .cfa: $rsp 8 + .ra: .cfa -8 + ^
STACK CFI 563c7 .cfa: $rsp 24 +
STACK CFI 563c9 .cfa: $rsp 32 +
STACK CFI 563cb .cfa: $rsp 40 +
STACK CFI 563cd .cfa: $rsp 48 +
STACK CFI 563cf .cfa: $rsp 56 +
STACK CFI 563d1 .cfa: $rsp 64 +
STACK CFI 563d3 .cfa: $rsp 72 +
STACK CFI 563d5 .cfa: $rsp 80 +
STACK CFI 563d7 .cfa: $rsp 88 +
STACK CFI 563d9 .cfa: $rsp 96 +
STACK CFI 563db .cfa: $rsp 104 +
STACK CFI 563dd .cfa: $rsp 112 +
STACK CFI 563df .cfa: $rsp 120 +
STACK CFI 563e1 .cfa: $rsp 128 +
STACK CFI 563e8 .cfa: $rsp 136 +
STACK CFI 563ef .cfa: $rsp 144 +
STACK CFI 563fb .cfa: $rsp 8 +
STACK CFI INIT 563fc 39 .cfa: $rsp 8 + .ra: .cfa -8 + ^
STACK CFI 56400 .cfa: $rsp 24 +
STACK CFI 56402 .cfa: $rsp 32 +
STACK CFI 56404 .cfa: $rsp 40 +
STACK CFI 56406 .cfa: $rsp 48 +
STACK CFI 56408 .cfa: $rsp 56 +
STACK CFI 5640a .cfa: $rsp 64 +
STACK CFI 5640c .cfa: $rsp 72 +
STACK CFI 5640e .cfa: $rsp 80 +
STACK CFI 56410 .cfa: $rsp 88 +
STACK CFI 56412 .cfa: $rsp 96 +
STACK CFI 56414 .cfa: $rsp 104 +
STACK CFI 56416 .cfa: $rsp 112 +
STACK CFI 56418 .cfa: $rsp 120 +
STACK CFI 5641a .cfa: $rsp 128 +
STACK CFI 56421 .cfa: $rsp 136 +
STACK CFI 56428 .cfa: $rsp 144 +
STACK CFI 56434 .cfa: $rsp 8 +
STACK CFI INIT 56435 39 .cfa: $rsp 8 + .ra: .cfa -8 + ^
STACK CFI 56439 .cfa: $rsp 24 +
STACK CFI 5643b .cfa: $rsp 32 +
STACK CFI 5643d .cfa: $rsp 40 +
STACK CFI 5643f .cfa: $rsp 48 +
STACK CFI 56441 .cfa: $rsp 56 +
STACK CFI 56443 .cfa: $rsp 64 +
STACK CFI 56445 .cfa: $rsp 72 +
STACK CFI 56447 .cfa: $rsp 80 +
STACK CFI 56449 .cfa: $rsp 88 +
STACK CFI 5644b .cfa: $rsp 96 +
STACK CFI 5644d .cfa: $rsp 104 +
STACK CFI 5644f .cfa: $rsp 112 +
STACK CFI 56451 .cfa: $rsp 120 +
STACK CFI 56453 .cfa: $rsp 128 +
STACK CFI 5645a .cfa: $rsp 136 +
STACK CFI 56461 .cfa: $rsp 144 +
STACK CFI 5646d .cfa: $rsp 8 +
STACK CFI INIT 5646e 39 .cfa: $rsp 8 + .ra: .cfa -8 + ^
STACK CFI 56472 .cfa: $rsp 24 +
STACK CFI 56474 .cfa: $rsp 32 +
STACK CFI 56476 .cfa: $rsp 40 +
STACK CFI 56478 .cfa: $rsp 48 +
STACK CFI 5647a .cfa: $rsp 56 +
STACK CFI 5647c .cfa: $rsp 64 +
STACK CFI 5647e .cfa: $rsp 72 +
STACK CFI 56480 .cfa: $rsp 80 +
STACK CFI 56482 .cfa: $rsp 88 +
STACK CFI 56484 .cfa: $rsp 96 +
STACK CFI 56486 .cfa: $rsp 104 +
STACK CFI 56488 .cfa: $rsp 112 +
STACK CFI 5648a .cfa: $rsp 120 +
STACK CFI 5648c .cfa: $rsp 128 +
STACK CFI 56493 .cfa: $rsp 136 +
STACK CFI 5649a .cfa: $rsp 144 +
STACK CFI 564a6 .cfa: $rsp 8 +
STACK CFI INIT 564a7 39 .cfa: $rsp 8 + .ra: .cfa -8 + ^
STACK CFI 564ab .cfa: $rsp 24 +
STACK CFI 564ad .cfa: $rsp 32 +
STACK CFI 564af .cfa: $rsp 40 +
STACK CFI 564b1 .cfa: $rsp 48 +
STACK CFI 564b3 .cfa: $rsp 56 +
STACK CFI 564b5 .cfa: $rsp 64 +
STACK CFI 564b7 .cfa: $rsp 72 +
STACK CFI 564b9 .cfa: $rsp 80 +
STACK CFI 564bb .cfa: $rsp 88 +
STACK CFI 564bd .cfa: $rsp 96 +
STACK CFI 564bf .cfa: $rsp 104 +
STACK CFI 564c1 .cfa: $rsp 112 +
STACK CFI 564c3 .cfa: $rsp 120 +
STACK CFI 564c5 .cfa: $rsp 128 +
STACK CFI 564cc .cfa: $rsp 136 +
STACK CFI 564d3 .cfa: $rsp 144 +
STACK CFI 564df .cfa: $rsp 8 +
STACK CFI INIT 564e0 39 .cfa: $rsp 8 + .ra: .cfa -8 + ^
STACK CFI 564e4 .cfa: $rsp 24 +
STACK CFI 564e6 .cfa: $rsp 32 +
STACK CFI 564e8 .cfa: $rsp 40 +
STACK CFI 564ea .cfa: $rsp 48 +
STACK CFI 564ec .cfa: $rsp 56 +
STACK CFI 564ee .cfa: $rsp 64 +
STACK CFI 564f0 .cfa: $rsp 72 +
STACK CFI 564f2 .cfa: $rsp 80 +
STACK CFI 564f4 .cfa: $rsp 88 +
STACK CFI 564f6 .cfa: $rsp 96 +
STACK CFI 564f8 .cfa: $rsp 104 +
STACK CFI 564fa .cfa: $rsp 112 +
STACK CFI 564fc .cfa: $rsp 120 +
STACK CFI 564fe .cfa: $rsp 128 +
STACK CFI 56505 .cfa: $rsp 136 +
STACK CFI 5650c .cfa: $rsp 144 +
STACK CFI 56518 .cfa: $rsp 8 +
STACK CFI INIT 56519 39 .cfa: $rsp 8 + .ra: .cfa -8 + ^
STACK CFI 5651d .cfa: $rsp 24 +
STACK CFI 5651f .cfa: $rsp 32 +
STACK CFI 56521 .cfa: $rsp 40 +
STACK CFI 56523 .cfa: $rsp 48 +
STACK CFI 56525 .cfa: $rsp 56 +
STACK CFI 56527 .cfa: $rsp 64 +
STACK CFI 56529 .cfa: $rsp 72 +
STACK CFI 5652b .cfa: $rsp 80 +
STACK CFI 5652d .cfa: $rsp 88 +
STACK CFI 5652f .cfa: $rsp 96 +
STACK CFI 56531 .cfa: $rsp 104 +
STACK CFI 56533 .cfa: $rsp 112 +
STACK CFI 56535 .cfa: $rsp 120 +
STACK CFI 56537 .cfa: $rsp 128 +
STACK CFI 5653e .cfa: $rsp 136 +
STACK CFI 56545 .cfa: $rsp 144 +
STACK CFI 56551 .cfa: $rsp 8 +
STACK CFI INIT 56552 39 .cfa: $rsp 8 + .ra: .cfa -8 + ^
STACK CFI 56556 .cfa: $rsp 24 +
STACK CFI 56558 .cfa: $rsp 32 +
STACK CFI 5655a .cfa: $rsp 40 +
STACK CFI 5655c .cfa: $rsp 48 +
STACK CFI 5655e .cfa: $rsp 56 +
STACK CFI 56560 .cfa: $rsp 64 +
STACK CFI 56562 .cfa: $rsp 72 +
STACK CFI 56564 .cfa: $rsp 80 +
STACK CFI 56566 .cfa: $rsp 88 +
STACK CFI 56568 .cfa: $rsp 96 +
STACK CFI 5656a .cfa: $rsp 104 +
STACK CFI 5656c .cfa: $rsp 112 +
STACK CFI 5656e .cfa: $rsp 120 +
STACK CFI 56570 .cfa: $rsp 128 +
STACK CFI 56577 .cfa: $rsp 136 +
STACK CFI 5657e .cfa: $rsp 144 +
STACK CFI 5658a .cfa: $rsp 8 +
STACK CFI INIT 5658b 39 .cfa: $rsp 8 + .ra: .cfa -8 + ^
STACK CFI 5658f .cfa: $rsp 24 +
STACK CFI 56591 .cfa: $rsp 32 +
STACK CFI 56593 .cfa: $rsp 40 +
STACK CFI 56595 .cfa: $rsp 48 +
STACK CFI 56597 .cfa: $rsp 56 +
STACK CFI 56599 .cfa: $rsp 64 +
STACK CFI 5659b .cfa: $rsp 72 +
STACK CFI 5659d .cfa: $rsp 80 +
STACK CFI 5659f .cfa: $rsp 88 +
STACK CFI 565a1 .cfa: $rsp 96 +
STACK CFI 565a3 .cfa: $rsp 104 +
STACK CFI 565a5 .cfa: $rsp 112 +
STACK CFI 565a7 .cfa: $rsp 120 +
STACK CFI 565a9 .cfa: $rsp 128 +
STACK CFI 565b0 .cfa: $rsp 136 +
STACK CFI 565b7 .cfa: $rsp 144 +
STACK CFI 565c3 .cfa: $rsp 8 +
STACK CFI INIT 565c4 39 .cfa: $rsp 8 + .ra: .cfa -8 + ^
STACK CFI 565c8 .cfa: $rsp 24 +
STACK CFI 565ca .cfa: $rsp 32 +
STACK CFI 565cc .cfa: $rsp 40 +
STACK CFI 565ce .cfa: $rsp 48 +
STACK CFI 565d0 .cfa: $rsp 56 +
STACK CFI 565d2 .cfa: $rsp 64 +
STACK CFI 565d4 .cfa: $rsp 72 +
STACK CFI 565d6 .cfa: $rsp 80 +
STACK CFI 565d8 .cfa: $rsp 88 +
STACK CFI 565da .cfa: $rsp 96 +
STACK CFI 565dc .cfa: $rsp 104 +
STACK CFI 565de .cfa: $rsp 112 +
STACK CFI 565e0 .cfa: $rsp 120 +
STACK CFI 565e2 .cfa: $rsp 128 +
STACK CFI 565e9 .cfa: $rsp 136 +
STACK CFI 565f0 .cfa: $rsp 144 +
STACK CFI 565fc .cfa: $rsp 8 +
STACK CFI INIT 565fd 39 .cfa: $rsp 8 + .ra: .cfa -8 + ^
STACK CFI 56601 .cfa: $rsp 24 +
STACK CFI 56603 .cfa: $rsp 32 +
STACK CFI 56605 .cfa: $rsp 40 +
STACK CFI 56607 .cfa: $rsp 48 +
STACK CFI 56609 .cfa: $rsp 56 +
STACK CFI 5660b .cfa: $rsp 64 +
STACK CFI 5660d .cfa: $rsp 72 +
STACK CFI 5660f .cfa: $rsp 80 +
STACK CFI 56611 .cfa: $rsp 88 +
STACK CFI 56613 .cfa: $rsp 96 +
STACK CFI 56615 .cfa: $rsp 104 +
STACK CFI 56617 .cfa: $rsp 112 +
STACK CFI 56619 .cfa: $rsp 120 +
STACK CFI 5661b .cfa: $rsp 128 +
STACK CFI 56622 .cfa: $rsp 136 +
STACK CFI 56629 .cfa: $rsp 144 +
STACK CFI 56635 .cfa: $rsp 8 +
STACK CFI INIT 56636 39 .cfa: $rsp 8 + .ra: .cfa -8 + ^
STACK CFI 5663a .cfa: $rsp 24 +
STACK CFI 5663c .cfa: $rsp 32 +
STACK CFI 5663e .cfa: $rsp 40 +
STACK CFI 56640 .cfa: $rsp 48 +
STACK CFI 56642 .cfa: $rsp 56 +
STACK CFI 56644 .cfa: $rsp 64 +
STACK CFI 56646 .cfa: $rsp 72 +
STACK CFI 56648 .cfa: $rsp 80 +
STACK CFI 5664a .cfa: $rsp 88 +
STACK CFI 5664c .cfa: $rsp 96 +
STACK CFI 5664e .cfa: $rsp 104 +
STACK CFI 56650 .cfa: $rsp 112 +
STACK CFI 56652 .cfa: $rsp 120 +
STACK CFI 56654 .cfa: $rsp 128 +
STACK CFI 5665b .cfa: $rsp 136 +
STACK CFI 56662 .cfa: $rsp 144 +
STACK CFI 5666e .cfa: $rsp 8 +
STACK CFI INIT 5666f 39 .cfa: $rsp 8 + .ra: .cfa -8 + ^
STACK CFI 56673 .cfa: $rsp 24 +
STACK CFI 56675 .cfa: $rsp 32 +
STACK CFI 56677 .cfa: $rsp 40 +
STACK CFI 56679 .cfa: $rsp 48 +
STACK CFI 5667b .cfa: $rsp 56 +
STACK CFI 5667d .cfa: $rsp 64 +
STACK CFI 5667f .cfa: $rsp 72 +
STACK CFI 56681 .cfa: $rsp 80 +
STACK CFI 56683 .cfa: $rsp 88 +
STACK CFI 56685 .cfa: $rsp 96 +
STACK CFI 56687 .cfa: $rsp 104 +
STACK CFI 56689 .cfa: $rsp 112 +
STACK CFI 5668b .cfa: $rsp 120 +
STACK CFI 5668d .cfa: $rsp 128 +
STACK CFI 56694 .cfa: $rsp 136 +
STACK CFI 5669b .cfa: $rsp 144 +
STACK CFI 566a7 .cfa: $rsp 8 +
STACK CFI INIT 566a8 39 .cfa: $rsp 8 + .ra: .cfa -8 + ^
STACK CFI 566ac .cfa: $rsp 24 +
STACK CFI 566ae .cfa: $rsp 32 +
STACK CFI 566b0 .cfa: $rsp 40 +
STACK CFI 566b2 .cfa: $rsp 48 +
STACK CFI 566b4 .cfa: $rsp 56 +
STACK CFI 566b6 .cfa: $rsp 64 +
STACK CFI 566b8 .cfa: $rsp 72 +
STACK CFI 566ba .cfa: $rsp 80 +
STACK CFI 566bc .cfa: $rsp 88 +
STACK CFI 566be .cfa: $rsp 96 +
STACK CFI 566c0 .cfa: $rsp 104 +
STACK CFI 566c2 .cfa: $rsp 112 +
STACK CFI 566c4 .cfa: $rsp 120 +
STACK CFI 566c6 .cfa: $rsp 128 +
STACK CFI 566cd .cfa: $rsp 136 +
STACK CFI 566d4 .cfa: $rsp 144 +
STACK CFI 566e0 .cfa: $rsp 8 +
STACK CFI INIT 566e1 39 .cfa: $rsp 8 + .ra: .cfa -8 + ^
STACK CFI 566e5 .cfa: $rsp 24 +
STACK CFI 566e7 .cfa: $rsp 32 +
STACK CFI 566e9 .cfa: $rsp 40 +
STACK CFI 566eb .cfa: $rsp 48 +
STACK CFI 566ed .cfa: $rsp 56 +
STACK CFI 566ef .cfa: $rsp 64 +
STACK CFI 566f1 .cfa: $rsp 72 +
STACK CFI 566f3 .cfa: $rsp 80 +
STACK CFI 566f5 .cfa: $rsp 88 +
STACK CFI 566f7 .cfa: $rsp 96 +
STACK CFI 566f9 .cfa: $rsp 104 +
STACK CFI 566fb .cfa: $rsp 112 +
STACK CFI 566fd .cfa: $rsp 120 +
STACK CFI 566ff .cfa: $rsp 128 +
STACK CFI 56706 .cfa: $rsp 136 +
STACK CFI 5670d .cfa: $rsp 144 +
STACK CFI 56719 .cfa: $rsp 8 +
STACK CFI INIT 5671a 39 .cfa: $rsp 8 + .ra: .cfa -8 + ^
STACK CFI 5671e .cfa: $rsp 24 +
STACK CFI 56720 .cfa: $rsp 32 +
STACK CFI 56722 .cfa: $rsp 40 +
STACK CFI 56724 .cfa: $rsp 48 +
STACK CFI 56726 .cfa: $rsp 56 +
STACK CFI 56728 .cfa: $rsp 64 +
STACK CFI 5672a .cfa: $rsp 72 +
STACK CFI 5672c .cfa: $rsp 80 +
STACK CFI 5672e .cfa: $rsp 88 +
STACK CFI 56730 .cfa: $rsp 96 +
STACK CFI 56732 .cfa: $rsp 104 +
STACK CFI 56734 .cfa: $rsp 112 +
STACK CFI 56736 .cfa: $rsp 120 +
STACK CFI 56738 .cfa: $rsp 128 +
STACK CFI 5673f .cfa: $rsp 136 +
STACK CFI 56746 .cfa: $rsp 144 +
STACK CFI 56752 .cfa: $rsp 8 +
STACK CFI INIT 56753 39 .cfa: $rsp 8 + .ra: .cfa -8 + ^
STACK CFI 56757 .cfa: $rsp 24 +
STACK CFI 56759 .cfa: $rsp 32 +
STACK CFI 5675b .cfa: $rsp 40 +
STACK CFI 5675d .cfa: $rsp 48 +
STACK CFI 5675f .cfa: $rsp 56 +
STACK CFI 56761 .cfa: $rsp 64 +
STACK CFI 56763 .cfa: $rsp 72 +
STACK CFI 56765 .cfa: $rsp 80 +
STACK CFI 56767 .cfa: $rsp 88 +
STACK CFI 56769 .cfa: $rsp 96 +
STACK CFI 5676b .cfa: $rsp 104 +
STACK CFI 5676d .cfa: $rsp 112 +
STACK CFI 5676f .cfa: $rsp 120 +
STACK CFI 56771 .cfa: $rsp 128 +
STACK CFI 56778 .cfa: $rsp 136 +
STACK CFI 5677f .cfa: $rsp 144 +
STACK CFI 5678b .cfa: $rsp 8 +
STACK CFI INIT 5678c 39 .cfa: $rsp 8 + .ra: .cfa -8 + ^
STACK CFI 56790 .cfa: $rsp 24 +
STACK CFI 56792 .cfa: $rsp 32 +
STACK CFI 56794 .cfa: $rsp 40 +
STACK CFI 56796 .cfa: $rsp 48 +
STACK CFI 56798 .cfa: $rsp 56 +
STACK CFI 5679a .cfa: $rsp 64 +
STACK CFI 5679c .cfa: $rsp 72 +
STACK CFI 5679e .cfa: $rsp 80 +
STACK CFI 567a0 .cfa: $rsp 88 +
STACK CFI 567a2 .cfa: $rsp 96 +
STACK CFI 567a4 .cfa: $rsp 104 +
STACK CFI 567a6 .cfa: $rsp 112 +
STACK CFI 567a8 .cfa: $rsp 120 +
STACK CFI 567aa .cfa: $rsp 128 +
STACK CFI 567b1 .cfa: $rsp 136 +
STACK CFI 567b8 .cfa: $rsp 144 +
STACK CFI 567c4 .cfa: $rsp 8 +
STACK CFI INIT 567c5 39 .cfa: $rsp 8 + .ra: .cfa -8 + ^
STACK CFI 567c9 .cfa: $rsp 24 +
STACK CFI 567cb .cfa: $rsp 32 +
STACK CFI 567cd .cfa: $rsp 40 +
STACK CFI 567cf .cfa: $rsp 48 +
STACK CFI 567d1 .cfa: $rsp 56 +
STACK CFI 567d3 .cfa: $rsp 64 +
STACK CFI 567d5 .cfa: $rsp 72 +
STACK CFI 567d7 .cfa: $rsp 80 +
STACK CFI 567d9 .cfa: $rsp 88 +
STACK CFI 567db .cfa: $rsp 96 +
STACK CFI 567dd .cfa: $rsp 104 +
STACK CFI 567df .cfa: $rsp 112 +
STACK CFI 567e1 .cfa: $rsp 120 +
STACK CFI 567e3 .cfa: $rsp 128 +
STACK CFI 567ea .cfa: $rsp 136 +
STACK CFI 567f1 .cfa: $rsp 144 +
STACK CFI 567fd .cfa: $rsp 8 +
STACK CFI INIT 567fe 39 .cfa: $rsp 8 + .ra: .cfa -8 + ^
STACK CFI 56802 .cfa: $rsp 24 +
STACK CFI 56804 .cfa: $rsp 32 +
STACK CFI 56806 .cfa: $rsp 40 +
STACK CFI 56808 .cfa: $rsp 48 +
STACK CFI 5680a .cfa: $rsp 56 +
STACK CFI 5680c .cfa: $rsp 64 +
STACK CFI 5680e .cfa: $rsp 72 +
STACK CFI 56810 .cfa: $rsp 80 +
STACK CFI 56812 .cfa: $rsp 88 +
STACK CFI 56814 .cfa: $rsp 96 +
STACK CFI 56816 .cfa: $rsp 104 +
STACK CFI 56818 .cfa: $rsp 112 +
STACK CFI 5681a .cfa: $rsp 120 +
STACK CFI 5681c .cfa: $rsp 128 +
STACK CFI 56823 .cfa: $rsp 136 +
STACK CFI 5682a .cfa: $rsp 144 +
STACK CFI 56836 .cfa: $rsp 8 +
STACK CFI INIT 56837 39 .cfa: $rsp 8 + .ra: .cfa -8 + ^
STACK CFI 5683b .cfa: $rsp 24 +
STACK CFI 5683d .cfa: $rsp 32 +
STACK CFI 5683f .cfa: $rsp 40 +
STACK CFI 56841 .cfa: $rsp 48 +
STACK CFI 56843 .cfa: $rsp 56 +
STACK CFI 56845 .cfa: $rsp 64 +
STACK CFI 56847 .cfa: $rsp 72 +
STACK CFI 56849 .cfa: $rsp 80 +
STACK CFI 5684b .cfa: $rsp 88 +
STACK CFI 5684d .cfa: $rsp 96 +
STACK CFI 5684f .cfa: $rsp 104 +
STACK CFI 56851 .cfa: $rsp 112 +
STACK CFI 56853 .cfa: $rsp 120 +
STACK CFI 56855 .cfa: $rsp 128 +
STACK CFI 5685c .cfa: $rsp 136 +
STACK CFI 56863 .cfa: $rsp 144 +
STACK CFI 5686f .cfa: $rsp 8 +
STACK CFI INIT 56870 39 .cfa: $rsp 8 + .ra: .cfa -8 + ^
STACK CFI 56874 .cfa: $rsp 24 +
STACK CFI 56876 .cfa: $rsp 32 +
STACK CFI 56878 .cfa: $rsp 40 +
STACK CFI 5687a .cfa: $rsp 48 +
STACK CFI 5687c .cfa: $rsp 56 +
STACK CFI 5687e .cfa: $rsp 64 +
STACK CFI 56880 .cfa: $rsp 72 +
STACK CFI 56882 .cfa: $rsp 80 +
STACK CFI 56884 .cfa: $rsp 88 +
STACK CFI 56886 .cfa: $rsp 96 +
STACK CFI 56888 .cfa: $rsp 104 +
STACK CFI 5688a .cfa: $rsp 112 +
STACK CFI 5688c .cfa: $rsp 120 +
STACK CFI 5688e .cfa: $rsp 128 +
STACK CFI 56895 .cfa: $rsp 136 +
STACK CFI 5689c .cfa: $rsp 144 +
STACK CFI 568a8 .cfa: $rsp 8 +
STACK CFI INIT 568a9 39 .cfa: $rsp 8 + .ra: .cfa -8 + ^
STACK CFI 568ad .cfa: $rsp 24 +
STACK CFI 568af .cfa: $rsp 32 +
STACK CFI 568b1 .cfa: $rsp 40 +
STACK CFI 568b3 .cfa: $rsp 48 +
STACK CFI 568b5 .cfa: $rsp 56 +
STACK CFI 568b7 .cfa: $rsp 64 +
STACK CFI 568b9 .cfa: $rsp 72 +
STACK CFI 568bb .cfa: $rsp 80 +
STACK CFI 568bd .cfa: $rsp 88 +
STACK CFI 568bf .cfa: $rsp 96 +
STACK CFI 568c1 .cfa: $rsp 104 +
STACK CFI 568c3 .cfa: $rsp 112 +
STACK CFI 568c5 .cfa: $rsp 120 +
STACK CFI 568c7 .cfa: $rsp 128 +
STACK CFI 568ce .cfa: $rsp 136 +
STACK CFI 568d5 .cfa: $rsp 144 +
STACK CFI 568e1 .cfa: $rsp 8 +
STACK CFI INIT 568e2 39 .cfa: $rsp 8 + .ra: .cfa -8 + ^
STACK CFI 568e6 .cfa: $rsp 24 +
STACK CFI 568e8 .cfa: $rsp 32 +
STACK CFI 568ea .cfa: $rsp 40 +
STACK CFI 568ec .cfa: $rsp 48 +
STACK CFI 568ee .cfa: $rsp 56 +
STACK CFI 568f0 .cfa: $rsp 64 +
STACK CFI 568f2 .cfa: $rsp 72 +
STACK CFI 568f4 .cfa: $rsp 80 +
STACK CFI 568f6 .cfa: $rsp 88 +
STACK CFI 568f8 .cfa: $rsp 96 +
STACK CFI 568fa .cfa: $rsp 104 +
STACK CFI 568fc .cfa: $rsp 112 +
STACK CFI 568fe .cfa: $rsp 120 +
STACK CFI 56900 .cfa: $rsp 128 +
STACK CFI 56907 .cfa: $rsp 136 +
STACK CFI 5690e .cfa: $rsp 144 +
STACK CFI 5691a .cfa: $rsp 8 +
STACK CFI INIT 5691b 39 .cfa: $rsp 8 + .ra: .cfa -8 + ^
STACK CFI 5691f .cfa: $rsp 24 +
STACK CFI 56921 .cfa: $rsp 32 +
STACK CFI 56923 .cfa: $rsp 40 +
STACK CFI 56925 .cfa: $rsp 48 +
STACK CFI 56927 .cfa: $rsp 56 +
STACK CFI 56929 .cfa: $rsp 64 +
STACK CFI 5692b .cfa: $rsp 72 +
STACK CFI 5692d .cfa: $rsp 80 +
STACK CFI 5692f .cfa: $rsp 88 +
STACK CFI 56931 .cfa: $rsp 96 +
STACK CFI 56933 .cfa: $rsp 104 +
STACK CFI 56935 .cfa: $rsp 112 +
STACK CFI 56937 .cfa: $rsp 120 +
STACK CFI 56939 .cfa: $rsp 128 +
STACK CFI 56940 .cfa: $rsp 136 +
STACK CFI 56947 .cfa: $rsp 144 +
STACK CFI 56953 .cfa: $rsp 8 +
STACK CFI INIT 56954 39 .cfa: $rsp 8 + .ra: .cfa -8 + ^
STACK CFI 56958 .cfa: $rsp 24 +
STACK CFI 5695a .cfa: $rsp 32 +
STACK CFI 5695c .cfa: $rsp 40 +
STACK CFI 5695e .cfa: $rsp 48 +
STACK CFI 56960 .cfa: $rsp 56 +
STACK CFI 56962 .cfa: $rsp 64 +
STACK CFI 56964 .cfa: $rsp 72 +
STACK CFI 56966 .cfa: $rsp 80 +
STACK CFI 56968 .cfa: $rsp 88 +
STACK CFI 5696a .cfa: $rsp 96 +
STACK CFI 5696c .cfa: $rsp 104 +
STACK CFI 5696e .cfa: $rsp 112 +
STACK CFI 56970 .cfa: $rsp 120 +
STACK CFI 56972 .cfa: $rsp 128 +
STACK CFI 56979 .cfa: $rsp 136 +
STACK CFI 56980 .cfa: $rsp 144 +
STACK CFI 5698c .cfa: $rsp 8 +
STACK CFI INIT 5698d 39 .cfa: $rsp 8 + .ra: .cfa -8 + ^
STACK CFI 56991 .cfa: $rsp 24 +
STACK CFI 56993 .cfa: $rsp 32 +
STACK CFI 56995 .cfa: $rsp 40 +
STACK CFI 56997 .cfa: $rsp 48 +
STACK CFI 56999 .cfa: $rsp 56 +
STACK CFI 5699b .cfa: $rsp 64 +
STACK CFI 5699d .cfa: $rsp 72 +
STACK CFI 5699f .cfa: $rsp 80 +
STACK CFI 569a1 .cfa: $rsp 88 +
STACK CFI 569a3 .cfa: $rsp 96 +
STACK CFI 569a5 .cfa: $rsp 104 +
STACK CFI 569a7 .cfa: $rsp 112 +
STACK CFI 569a9 .cfa: $rsp 120 +
STACK CFI 569ab .cfa: $rsp 128 +
STACK CFI 569b2 .cfa: $rsp 136 +
STACK CFI 569b9 .cfa: $rsp 144 +
STACK CFI 569c5 .cfa: $rsp 8 +
STACK CFI INIT 569c6 39 .cfa: $rsp 8 + .ra: .cfa -8 + ^
STACK CFI 569ca .cfa: $rsp 24 +
STACK CFI 569cc .cfa: $rsp 32 +
STACK CFI 569ce .cfa: $rsp 40 +
STACK CFI 569d0 .cfa: $rsp 48 +
STACK CFI 569d2 .cfa: $rsp 56 +
STACK CFI 569d4 .cfa: $rsp 64 +
STACK CFI 569d6 .cfa: $rsp 72 +
STACK CFI 569d8 .cfa: $rsp 80 +
STACK CFI 569da .cfa: $rsp 88 +
STACK CFI 569dc .cfa: $rsp 96 +
STACK CFI 569de .cfa: $rsp 104 +
STACK CFI 569e0 .cfa: $rsp 112 +
STACK CFI 569e2 .cfa: $rsp 120 +
STACK CFI 569e4 .cfa: $rsp 128 +
STACK CFI 569eb .cfa: $rsp 136 +
STACK CFI 569f2 .cfa: $rsp 144 +
STACK CFI 569fe .cfa: $rsp 8 +
STACK CFI INIT 569ff 39 .cfa: $rsp 8 + .ra: .cfa -8 + ^
STACK CFI 56a03 .cfa: $rsp 24 +
STACK CFI 56a05 .cfa: $rsp 32 +
STACK CFI 56a07 .cfa: $rsp 40 +
STACK CFI 56a09 .cfa: $rsp 48 +
STACK CFI 56a0b .cfa: $rsp 56 +
STACK CFI 56a0d .cfa: $rsp 64 +
STACK CFI 56a0f .cfa: $rsp 72 +
STACK CFI 56a11 .cfa: $rsp 80 +
STACK CFI 56a13 .cfa: $rsp 88 +
STACK CFI 56a15 .cfa: $rsp 96 +
STACK CFI 56a17 .cfa: $rsp 104 +
STACK CFI 56a19 .cfa: $rsp 112 +
STACK CFI 56a1b .cfa: $rsp 120 +
STACK CFI 56a1d .cfa: $rsp 128 +
STACK CFI 56a24 .cfa: $rsp 136 +
STACK CFI 56a2b .cfa: $rsp 144 +
STACK CFI 56a37 .cfa: $rsp 8 +
STACK CFI INIT 56a38 39 .cfa: $rsp 8 + .ra: .cfa -8 + ^
STACK CFI 56a3c .cfa: $rsp 24 +
STACK CFI 56a3e .cfa: $rsp 32 +
STACK CFI 56a40 .cfa: $rsp 40 +
STACK CFI 56a42 .cfa: $rsp 48 +
STACK CFI 56a44 .cfa: $rsp 56 +
STACK CFI 56a46 .cfa: $rsp 64 +
STACK CFI 56a48 .cfa: $rsp 72 +
STACK CFI 56a4a .cfa: $rsp 80 +
STACK CFI 56a4c .cfa: $rsp 88 +
STACK CFI 56a4e .cfa: $rsp 96 +
STACK CFI 56a50 .cfa: $rsp 104 +
STACK CFI 56a52 .cfa: $rsp 112 +
STACK CFI 56a54 .cfa: $rsp 120 +
STACK CFI 56a56 .cfa: $rsp 128 +
STACK CFI 56a5d .cfa: $rsp 136 +
STACK CFI 56a64 .cfa: $rsp 144 +
STACK CFI 56a70 .cfa: $rsp 8 +
STACK CFI INIT 56a71 39 .cfa: $rsp 8 + .ra: .cfa -8 + ^
STACK CFI 56a75 .cfa: $rsp 24 +
STACK CFI 56a77 .cfa: $rsp 32 +
STACK CFI 56a79 .cfa: $rsp 40 +
STACK CFI 56a7b .cfa: $rsp 48 +
STACK CFI 56a7d .cfa: $rsp 56 +
STACK CFI 56a7f .cfa: $rsp 64 +
STACK CFI 56a81 .cfa: $rsp 72 +
STACK CFI 56a83 .cfa: $rsp 80 +
STACK CFI 56a85 .cfa: $rsp 88 +
STACK CFI 56a87 .cfa: $rsp 96 +
STACK CFI 56a89 .cfa: $rsp 104 +
STACK CFI 56a8b .cfa: $rsp 112 +
STACK CFI 56a8d .cfa: $rsp 120 +
STACK CFI 56a8f .cfa: $rsp 128 +
STACK CFI 56a96 .cfa: $rsp 136 +
STACK CFI 56a9d .cfa: $rsp 144 +
STACK CFI 56aa9 .cfa: $rsp 8 +
STACK CFI INIT 56aaa 39 .cfa: $rsp 8 + .ra: .cfa -8 + ^
STACK CFI 56aae .cfa: $rsp 24 +
STACK CFI 56ab0 .cfa: $rsp 32 +
STACK CFI 56ab2 .cfa: $rsp 40 +
STACK CFI 56ab4 .cfa: $rsp 48 +
STACK CFI 56ab6 .cfa: $rsp 56 +
STACK CFI 56ab8 .cfa: $rsp 64 +
STACK CFI 56aba .cfa: $rsp 72 +
STACK CFI 56abc .cfa: $rsp 80 +
STACK CFI 56abe .cfa: $rsp 88 +
STACK CFI 56ac0 .cfa: $rsp 96 +
STACK CFI 56ac2 .cfa: $rsp 104 +
STACK CFI 56ac4 .cfa: $rsp 112 +
STACK CFI 56ac6 .cfa: $rsp 120 +
STACK CFI 56ac8 .cfa: $rsp 128 +
STACK CFI 56acf .cfa: $rsp 136 +
STACK CFI 56ad6 .cfa: $rsp 144 +
STACK CFI 56ae2 .cfa: $rsp 8 +
STACK CFI INIT 56ae3 39 .cfa: $rsp 8 + .ra: .cfa -8 + ^
STACK CFI 56ae7 .cfa: $rsp 24 +
STACK CFI 56ae9 .cfa: $rsp 32 +
STACK CFI 56aeb .cfa: $rsp 40 +
STACK CFI 56aed .cfa: $rsp 48 +
STACK CFI 56aef .cfa: $rsp 56 +
STACK CFI 56af1 .cfa: $rsp 64 +
STACK CFI 56af3 .cfa: $rsp 72 +
STACK CFI 56af5 .cfa: $rsp 80 +
STACK CFI 56af7 .cfa: $rsp 88 +
STACK CFI 56af9 .cfa: $rsp 96 +
STACK CFI 56afb .cfa: $rsp 104 +
STACK CFI 56afd .cfa: $rsp 112 +
STACK CFI 56aff .cfa: $rsp 120 +
STACK CFI 56b01 .cfa: $rsp 128 +
STACK CFI 56b08 .cfa: $rsp 136 +
STACK CFI 56b0f .cfa: $rsp 144 +
STACK CFI 56b1b .cfa: $rsp 8 +
STACK CFI INIT 56b1c 39 .cfa: $rsp 8 + .ra: .cfa -8 + ^
STACK CFI 56b20 .cfa: $rsp 24 +
STACK CFI 56b22 .cfa: $rsp 32 +
STACK CFI 56b24 .cfa: $rsp 40 +
STACK CFI 56b26 .cfa: $rsp 48 +
STACK CFI 56b28 .cfa: $rsp 56 +
STACK CFI 56b2a .cfa: $rsp 64 +
STACK CFI 56b2c .cfa: $rsp 72 +
STACK CFI 56b2e .cfa: $rsp 80 +
STACK CFI 56b30 .cfa: $rsp 88 +
STACK CFI 56b32 .cfa: $rsp 96 +
STACK CFI 56b34 .cfa: $rsp 104 +
STACK CFI 56b36 .cfa: $rsp 112 +
STACK CFI 56b38 .cfa: $rsp 120 +
STACK CFI 56b3a .cfa: $rsp 128 +
STACK CFI 56b41 .cfa: $rsp 136 +
STACK CFI 56b48 .cfa: $rsp 144 +
STACK CFI 56b54 .cfa: $rsp 8 +
STACK CFI INIT 56b55 39 .cfa: $rsp 8 + .ra: .cfa -8 + ^
STACK CFI 56b59 .cfa: $rsp 24 +
STACK CFI 56b5b .cfa: $rsp 32 +
STACK CFI 56b5d .cfa: $rsp 40 +
STACK CFI 56b5f .cfa: $rsp 48 +
STACK CFI 56b61 .cfa: $rsp 56 +
STACK CFI 56b63 .cfa: $rsp 64 +
STACK CFI 56b65 .cfa: $rsp 72 +
STACK CFI 56b67 .cfa: $rsp 80 +
STACK CFI 56b69 .cfa: $rsp 88 +
STACK CFI 56b6b .cfa: $rsp 96 +
STACK CFI 56b6d .cfa: $rsp 104 +
STACK CFI 56b6f .cfa: $rsp 112 +
STACK CFI 56b71 .cfa: $rsp 120 +
STACK CFI 56b73 .cfa: $rsp 128 +
STACK CFI 56b7a .cfa: $rsp 136 +
STACK CFI 56b81 .cfa: $rsp 144 +
STACK CFI 56b8d .cfa: $rsp 8 +
STACK CFI INIT 56b8e 39 .cfa: $rsp 8 + .ra: .cfa -8 + ^
STACK CFI 56b92 .cfa: $rsp 24 +
STACK CFI 56b94 .cfa: $rsp 32 +
STACK CFI 56b96 .cfa: $rsp 40 +
STACK CFI 56b98 .cfa: $rsp 48 +
STACK CFI 56b9a .cfa: $rsp 56 +
STACK CFI 56b9c .cfa: $rsp 64 +
STACK CFI 56b9e .cfa: $rsp 72 +
STACK CFI 56ba0 .cfa: $rsp 80 +
STACK CFI 56ba2 .cfa: $rsp 88 +
STACK CFI 56ba4 .cfa: $rsp 96 +
STACK CFI 56ba6 .cfa: $rsp 104 +
STACK CFI 56ba8 .cfa: $rsp 112 +
STACK CFI 56baa .cfa: $rsp 120 +
STACK CFI 56bac .cfa: $rsp 128 +
STACK CFI 56bb3 .cfa: $rsp 136 +
STACK CFI 56bba .cfa: $rsp 144 +
STACK CFI 56bc6 .cfa: $rsp 8 +
STACK CFI INIT 56bc7 39 .cfa: $rsp 8 + .ra: .cfa -8 + ^
STACK CFI 56bcb .cfa: $rsp 24 +
STACK CFI 56bcd .cfa: $rsp 32 +
STACK CFI 56bcf .cfa: $rsp 40 +
STACK CFI 56bd1 .cfa: $rsp 48 +
STACK CFI 56bd3 .cfa: $rsp 56 +
STACK CFI 56bd5 .cfa: $rsp 64 +
STACK CFI 56bd7 .cfa: $rsp 72 +
STACK CFI 56bd9 .cfa: $rsp 80 +
STACK CFI 56bdb .cfa: $rsp 88 +
STACK CFI 56bdd .cfa: $rsp 96 +
STACK CFI 56bdf .cfa: $rsp 104 +
STACK CFI 56be1 .cfa: $rsp 112 +
STACK CFI 56be3 .cfa: $rsp 120 +
STACK CFI 56be5 .cfa: $rsp 128 +
STACK CFI 56bec .cfa: $rsp 136 +
STACK CFI 56bf3 .cfa: $rsp 144 +
STACK CFI 56bff .cfa: $rsp 8 +
STACK CFI INIT 56c00 39 .cfa: $rsp 8 + .ra: .cfa -8 + ^
STACK CFI 56c04 .cfa: $rsp 24 +
STACK CFI 56c06 .cfa: $rsp 32 +
STACK CFI 56c08 .cfa: $rsp 40 +
STACK CFI 56c0a .cfa: $rsp 48 +
STACK CFI 56c0c .cfa: $rsp 56 +
STACK CFI 56c0e .cfa: $rsp 64 +
STACK CFI 56c10 .cfa: $rsp 72 +
STACK CFI 56c12 .cfa: $rsp 80 +
STACK CFI 56c14 .cfa: $rsp 88 +
STACK CFI 56c16 .cfa: $rsp 96 +
STACK CFI 56c18 .cfa: $rsp 104 +
STACK CFI 56c1a .cfa: $rsp 112 +
STACK CFI 56c1c .cfa: $rsp 120 +
STACK CFI 56c1e .cfa: $rsp 128 +
STACK CFI 56c25 .cfa: $rsp 136 +
STACK CFI 56c2c .cfa: $rsp 144 +
STACK CFI 56c38 .cfa: $rsp 8 +
STACK CFI INIT 56c39 39 .cfa: $rsp 8 + .ra: .cfa -8 + ^
STACK CFI 56c3d .cfa: $rsp 24 +
STACK CFI 56c3f .cfa: $rsp 32 +
STACK CFI 56c41 .cfa: $rsp 40 +
STACK CFI 56c43 .cfa: $rsp 48 +
STACK CFI 56c45 .cfa: $rsp 56 +
STACK CFI 56c47 .cfa: $rsp 64 +
STACK CFI 56c49 .cfa: $rsp 72 +
STACK CFI 56c4b .cfa: $rsp 80 +
STACK CFI 56c4d .cfa: $rsp 88 +
STACK CFI 56c4f .cfa: $rsp 96 +
STACK CFI 56c51 .cfa: $rsp 104 +
STACK CFI 56c53 .cfa: $rsp 112 +
STACK CFI 56c55 .cfa: $rsp 120 +
STACK CFI 56c57 .cfa: $rsp 128 +
STACK CFI 56c5e .cfa: $rsp 136 +
STACK CFI 56c65 .cfa: $rsp 144 +
STACK CFI 56c71 .cfa: $rsp 8 +
STACK CFI INIT 56c72 39 .cfa: $rsp 8 + .ra: .cfa -8 + ^
STACK CFI 56c76 .cfa: $rsp 24 +
STACK CFI 56c78 .cfa: $rsp 32 +
STACK CFI 56c7a .cfa: $rsp 40 +
STACK CFI 56c7c .cfa: $rsp 48 +
STACK CFI 56c7e .cfa: $rsp 56 +
STACK CFI 56c80 .cfa: $rsp 64 +
STACK CFI 56c82 .cfa: $rsp 72 +
STACK CFI 56c84 .cfa: $rsp 80 +
STACK CFI 56c86 .cfa: $rsp 88 +
STACK CFI 56c88 .cfa: $rsp 96 +
STACK CFI 56c8a .cfa: $rsp 104 +
STACK CFI 56c8c .cfa: $rsp 112 +
STACK CFI 56c8e .cfa: $rsp 120 +
STACK CFI 56c90 .cfa: $rsp 128 +
STACK CFI 56c97 .cfa: $rsp 136 +
STACK CFI 56c9e .cfa: $rsp 144 +
STACK CFI 56caa .cfa: $rsp 8 +
STACK CFI INIT 56cab 39 .cfa: $rsp 8 + .ra: .cfa -8 + ^
STACK CFI 56caf .cfa: $rsp 24 +
STACK CFI 56cb1 .cfa: $rsp 32 +
STACK CFI 56cb3 .cfa: $rsp 40 +
STACK CFI 56cb5 .cfa: $rsp 48 +
STACK CFI 56cb7 .cfa: $rsp 56 +
STACK CFI 56cb9 .cfa: $rsp 64 +
STACK CFI 56cbb .cfa: $rsp 72 +
STACK CFI 56cbd .cfa: $rsp 80 +
STACK CFI 56cbf .cfa: $rsp 88 +
STACK CFI 56cc1 .cfa: $rsp 96 +
STACK CFI 56cc3 .cfa: $rsp 104 +
STACK CFI 56cc5 .cfa: $rsp 112 +
STACK CFI 56cc7 .cfa: $rsp 120 +
STACK CFI 56cc9 .cfa: $rsp 128 +
STACK CFI 56cd0 .cfa: $rsp 136 +
STACK CFI 56cd7 .cfa: $rsp 144 +
STACK CFI 56ce3 .cfa: $rsp 8 +
STACK CFI INIT 56ce4 39 .cfa: $rsp 8 + .ra: .cfa -8 + ^
STACK CFI 56ce8 .cfa: $rsp 24 +
STACK CFI 56cea .cfa: $rsp 32 +
STACK CFI 56cec .cfa: $rsp 40 +
STACK CFI 56cee .cfa: $rsp 48 +
STACK CFI 56cf0 .cfa: $rsp 56 +
STACK CFI 56cf2 .cfa: $rsp 64 +
STACK CFI 56cf4 .cfa: $rsp 72 +
STACK CFI 56cf6 .cfa: $rsp 80 +
STACK CFI 56cf8 .cfa: $rsp 88 +
STACK CFI 56cfa .cfa: $rsp 96 +
STACK CFI 56cfc .cfa: $rsp 104 +
STACK CFI 56cfe .cfa: $rsp 112 +
STACK CFI 56d00 .cfa: $rsp 120 +
STACK CFI 56d02 .cfa: $rsp 128 +
STACK CFI 56d09 .cfa: $rsp 136 +
STACK CFI 56d10 .cfa: $rsp 144 +
STACK CFI 56d1c .cfa: $rsp 8 +
STACK CFI INIT 56d1d 39 .cfa: $rsp 8 + .ra: .cfa -8 + ^
STACK CFI 56d21 .cfa: $rsp 24 +
STACK CFI 56d23 .cfa: $rsp 32 +
STACK CFI 56d25 .cfa: $rsp 40 +
STACK CFI 56d27 .cfa: $rsp 48 +
STACK CFI 56d29 .cfa: $rsp 56 +
STACK CFI 56d2b .cfa: $rsp 64 +
STACK CFI 56d2d .cfa: $rsp 72 +
STACK CFI 56d2f .cfa: $rsp 80 +
STACK CFI 56d31 .cfa: $rsp 88 +
STACK CFI 56d33 .cfa: $rsp 96 +
STACK CFI 56d35 .cfa: $rsp 104 +
STACK CFI 56d37 .cfa: $rsp 112 +
STACK CFI 56d39 .cfa: $rsp 120 +
STACK CFI 56d3b .cfa: $rsp 128 +
STACK CFI 56d42 .cfa: $rsp 136 +
STACK CFI 56d49 .cfa: $rsp 144 +
STACK CFI 56d55 .cfa: $rsp 8 +
STACK CFI INIT 56d56 39 .cfa: $rsp 8 + .ra: .cfa -8 + ^
STACK CFI 56d5a .cfa: $rsp 24 +
STACK CFI 56d5c .cfa: $rsp 32 +
STACK CFI 56d5e .cfa: $rsp 40 +
STACK CFI 56d60 .cfa: $rsp 48 +
STACK CFI 56d62 .cfa: $rsp 56 +
STACK CFI 56d64 .cfa: $rsp 64 +
STACK CFI 56d66 .cfa: $rsp 72 +
STACK CFI 56d68 .cfa: $rsp 80 +
STACK CFI 56d6a .cfa: $rsp 88 +
STACK CFI 56d6c .cfa: $rsp 96 +
STACK CFI 56d6e .cfa: $rsp 104 +
STACK CFI 56d70 .cfa: $rsp 112 +
STACK CFI 56d72 .cfa: $rsp 120 +
STACK CFI 56d74 .cfa: $rsp 128 +
STACK CFI 56d7b .cfa: $rsp 136 +
STACK CFI 56d82 .cfa: $rsp 144 +
STACK CFI 56d8e .cfa: $rsp 8 +
STACK CFI INIT 56d8f 39 .cfa: $rsp 8 + .ra: .cfa -8 + ^
STACK CFI 56d93 .cfa: $rsp 24 +
STACK CFI 56d95 .cfa: $rsp 32 +
STACK CFI 56d97 .cfa: $rsp 40 +
STACK CFI 56d99 .cfa: $rsp 48 +
STACK CFI 56d9b .cfa: $rsp 56 +
STACK CFI 56d9d .cfa: $rsp 64 +
STACK CFI 56d9f .cfa: $rsp 72 +
STACK CFI 56da1 .cfa: $rsp 80 +
STACK CFI 56da3 .cfa: $rsp 88 +
STACK CFI 56da5 .cfa: $rsp 96 +
STACK CFI 56da7 .cfa: $rsp 104 +
STACK CFI 56da9 .cfa: $rsp 112 +
STACK CFI 56dab .cfa: $rsp 120 +
STACK CFI 56dad .cfa: $rsp 128 +
STACK CFI 56db4 .cfa: $rsp 136 +
STACK CFI 56dbb .cfa: $rsp 144 +
STACK CFI 56dc7 .cfa: $rsp 8 +
STACK CFI INIT 56dc8 39 .cfa: $rsp 8 + .ra: .cfa -8 + ^
STACK CFI 56dcc .cfa: $rsp 24 +
STACK CFI 56dce .cfa: $rsp 32 +
STACK CFI 56dd0 .cfa: $rsp 40 +
STACK CFI 56dd2 .cfa: $rsp 48 +
STACK CFI 56dd4 .cfa: $rsp 56 +
STACK CFI 56dd6 .cfa: $rsp 64 +
STACK CFI 56dd8 .cfa: $rsp 72 +
STACK CFI 56dda .cfa: $rsp 80 +
STACK CFI 56ddc .cfa: $rsp 88 +
STACK CFI 56dde .cfa: $rsp 96 +
STACK CFI 56de0 .cfa: $rsp 104 +
STACK CFI 56de2 .cfa: $rsp 112 +
STACK CFI 56de4 .cfa: $rsp 120 +
STACK CFI 56de6 .cfa: $rsp 128 +
STACK CFI 56ded .cfa: $rsp 136 +
STACK CFI 56df4 .cfa: $rsp 144 +
STACK CFI 56e00 .cfa: $rsp 8 +
STACK CFI INIT 56e01 39 .cfa: $rsp 8 + .ra: .cfa -8 + ^
STACK CFI 56e05 .cfa: $rsp 24 +
STACK CFI 56e07 .cfa: $rsp 32 +
STACK CFI 56e09 .cfa: $rsp 40 +
STACK CFI 56e0b .cfa: $rsp 48 +
STACK CFI 56e0d .cfa: $rsp 56 +
STACK CFI 56e0f .cfa: $rsp 64 +
STACK CFI 56e11 .cfa: $rsp 72 +
STACK CFI 56e13 .cfa: $rsp 80 +
STACK CFI 56e15 .cfa: $rsp 88 +
STACK CFI 56e17 .cfa: $rsp 96 +
STACK CFI 56e19 .cfa: $rsp 104 +
STACK CFI 56e1b .cfa: $rsp 112 +
STACK CFI 56e1d .cfa: $rsp 120 +
STACK CFI 56e1f .cfa: $rsp 128 +
STACK CFI 56e26 .cfa: $rsp 136 +
STACK CFI 56e2d .cfa: $rsp 144 +
STACK CFI 56e39 .cfa: $rsp 8 +
STACK CFI INIT 56e3a 39 .cfa: $rsp 8 + .ra: .cfa -8 + ^
STACK CFI 56e3e .cfa: $rsp 24 +
STACK CFI 56e40 .cfa: $rsp 32 +
STACK CFI 56e42 .cfa: $rsp 40 +
STACK CFI 56e44 .cfa: $rsp 48 +
STACK CFI 56e46 .cfa: $rsp 56 +
STACK CFI 56e48 .cfa: $rsp 64 +
STACK CFI 56e4a .cfa: $rsp 72 +
STACK CFI 56e4c .cfa: $rsp 80 +
STACK CFI 56e4e .cfa: $rsp 88 +
STACK CFI 56e50 .cfa: $rsp 96 +
STACK CFI 56e52 .cfa: $rsp 104 +
STACK CFI 56e54 .cfa: $rsp 112 +
STACK CFI 56e56 .cfa: $rsp 120 +
STACK CFI 56e58 .cfa: $rsp 128 +
STACK CFI 56e5f .cfa: $rsp 136 +
STACK CFI 56e66 .cfa: $rsp 144 +
STACK CFI 56e72 .cfa: $rsp 8 +
STACK CFI INIT 56e73 39 .cfa: $rsp 8 + .ra: .cfa -8 + ^
STACK CFI 56e77 .cfa: $rsp 24 +
STACK CFI 56e79 .cfa: $rsp 32 +
STACK CFI 56e7b .cfa: $rsp 40 +
STACK CFI 56e7d .cfa: $rsp 48 +
STACK CFI 56e7f .cfa: $rsp 56 +
STACK CFI 56e81 .cfa: $rsp 64 +
STACK CFI 56e83 .cfa: $rsp 72 +
STACK CFI 56e85 .cfa: $rsp 80 +
STACK CFI 56e87 .cfa: $rsp 88 +
STACK CFI 56e89 .cfa: $rsp 96 +
STACK CFI 56e8b .cfa: $rsp 104 +
STACK CFI 56e8d .cfa: $rsp 112 +
STACK CFI 56e8f .cfa: $rsp 120 +
STACK CFI 56e91 .cfa: $rsp 128 +
STACK CFI 56e98 .cfa: $rsp 136 +
STACK CFI 56e9f .cfa: $rsp 144 +
STACK CFI 56eab .cfa: $rsp 8 +
STACK CFI INIT 56eac 39 .cfa: $rsp 8 + .ra: .cfa -8 + ^
STACK CFI 56eb0 .cfa: $rsp 24 +
STACK CFI 56eb2 .cfa: $rsp 32 +
STACK CFI 56eb4 .cfa: $rsp 40 +
STACK CFI 56eb6 .cfa: $rsp 48 +
STACK CFI 56eb8 .cfa: $rsp 56 +
STACK CFI 56eba .cfa: $rsp 64 +
STACK CFI 56ebc .cfa: $rsp 72 +
STACK CFI 56ebe .cfa: $rsp 80 +
STACK CFI 56ec0 .cfa: $rsp 88 +
STACK CFI 56ec2 .cfa: $rsp 96 +
STACK CFI 56ec4 .cfa: $rsp 104 +
STACK CFI 56ec6 .cfa: $rsp 112 +
STACK CFI 56ec8 .cfa: $rsp 120 +
STACK CFI 56eca .cfa: $rsp 128 +
STACK CFI 56ed1 .cfa: $rsp 136 +
STACK CFI 56ed8 .cfa: $rsp 144 +
STACK CFI 56ee4 .cfa: $rsp 8 +
STACK CFI INIT 56ee5 39 .cfa: $rsp 8 + .ra: .cfa -8 + ^
STACK CFI 56ee9 .cfa: $rsp 24 +
STACK CFI 56eeb .cfa: $rsp 32 +
STACK CFI 56eed .cfa: $rsp 40 +
STACK CFI 56eef .cfa: $rsp 48 +
STACK CFI 56ef1 .cfa: $rsp 56 +
STACK CFI 56ef3 .cfa: $rsp 64 +
STACK CFI 56ef5 .cfa: $rsp 72 +
STACK CFI 56ef7 .cfa: $rsp 80 +
STACK CFI 56ef9 .cfa: $rsp 88 +
STACK CFI 56efb .cfa: $rsp 96 +
STACK CFI 56efd .cfa: $rsp 104 +
STACK CFI 56eff .cfa: $rsp 112 +
STACK CFI 56f01 .cfa: $rsp 120 +
STACK CFI 56f03 .cfa: $rsp 128 +
STACK CFI 56f0a .cfa: $rsp 136 +
STACK CFI 56f11 .cfa: $rsp 144 +
STACK CFI 56f1d .cfa: $rsp 8 +
STACK CFI INIT 56f1e 39 .cfa: $rsp 8 + .ra: .cfa -8 + ^
STACK CFI 56f22 .cfa: $rsp 24 +
STACK CFI 56f24 .cfa: $rsp 32 +
STACK CFI 56f26 .cfa: $rsp 40 +
STACK CFI 56f28 .cfa: $rsp 48 +
STACK CFI 56f2a .cfa: $rsp 56 +
STACK CFI 56f2c .cfa: $rsp 64 +
STACK CFI 56f2e .cfa: $rsp 72 +
STACK CFI 56f30 .cfa: $rsp 80 +
STACK CFI 56f32 .cfa: $rsp 88 +
STACK CFI 56f34 .cfa: $rsp 96 +
STACK CFI 56f36 .cfa: $rsp 104 +
STACK CFI 56f38 .cfa: $rsp 112 +
STACK CFI 56f3a .cfa: $rsp 120 +
STACK CFI 56f3c .cfa: $rsp 128 +
STACK CFI 56f43 .cfa: $rsp 136 +
STACK CFI 56f4a .cfa: $rsp 144 +
STACK CFI 56f56 .cfa: $rsp 8 +
STACK CFI INIT 56f57 39 .cfa: $rsp 8 + .ra: .cfa -8 + ^
STACK CFI 56f5b .cfa: $rsp 24 +
STACK CFI 56f5d .cfa: $rsp 32 +
STACK CFI 56f5f .cfa: $rsp 40 +
STACK CFI 56f61 .cfa: $rsp 48 +
STACK CFI 56f63 .cfa: $rsp 56 +
STACK CFI 56f65 .cfa: $rsp 64 +
STACK CFI 56f67 .cfa: $rsp 72 +
STACK CFI 56f69 .cfa: $rsp 80 +
STACK CFI 56f6b .cfa: $rsp 88 +
STACK CFI 56f6d .cfa: $rsp 96 +
STACK CFI 56f6f .cfa: $rsp 104 +
STACK CFI 56f71 .cfa: $rsp 112 +
STACK CFI 56f73 .cfa: $rsp 120 +
STACK CFI 56f75 .cfa: $rsp 128 +
STACK CFI 56f7c .cfa: $rsp 136 +
STACK CFI 56f83 .cfa: $rsp 144 +
STACK CFI 56f8f .cfa: $rsp 8 +
STACK CFI INIT 56f90 39 .cfa: $rsp 8 + .ra: .cfa -8 + ^
STACK CFI 56f94 .cfa: $rsp 24 +
STACK CFI 56f96 .cfa: $rsp 32 +
STACK CFI 56f98 .cfa: $rsp 40 +
STACK CFI 56f9a .cfa: $rsp 48 +
STACK CFI 56f9c .cfa: $rsp 56 +
STACK CFI 56f9e .cfa: $rsp 64 +
STACK CFI 56fa0 .cfa: $rsp 72 +
STACK CFI 56fa2 .cfa: $rsp 80 +
STACK CFI 56fa4 .cfa: $rsp 88 +
STACK CFI 56fa6 .cfa: $rsp 96 +
STACK CFI 56fa8 .cfa: $rsp 104 +
STACK CFI 56faa .cfa: $rsp 112 +
STACK CFI 56fac .cfa: $rsp 120 +
STACK CFI 56fae .cfa: $rsp 128 +
STACK CFI 56fb5 .cfa: $rsp 136 +
STACK CFI 56fbc .cfa: $rsp 144 +
STACK CFI 56fc8 .cfa: $rsp 8 +
STACK CFI INIT 56fc9 39 .cfa: $rsp 8 + .ra: .cfa -8 + ^
STACK CFI 56fcd .cfa: $rsp 24 +
STACK CFI 56fcf .cfa: $rsp 32 +
STACK CFI 56fd1 .cfa: $rsp 40 +
STACK CFI 56fd3 .cfa: $rsp 48 +
STACK CFI 56fd5 .cfa: $rsp 56 +
STACK CFI 56fd7 .cfa: $rsp 64 +
STACK CFI 56fd9 .cfa: $rsp 72 +
STACK CFI 56fdb .cfa: $rsp 80 +
STACK CFI 56fdd .cfa: $rsp 88 +
STACK CFI 56fdf .cfa: $rsp 96 +
STACK CFI 56fe1 .cfa: $rsp 104 +
STACK CFI 56fe3 .cfa: $rsp 112 +
STACK CFI 56fe5 .cfa: $rsp 120 +
STACK CFI 56fe7 .cfa: $rsp 128 +
STACK CFI 56fee .cfa: $rsp 136 +
STACK CFI 56ff5 .cfa: $rsp 144 +
STACK CFI 57001 .cfa: $rsp 8 +
STACK CFI INIT 57002 39 .cfa: $rsp 8 + .ra: .cfa -8 + ^
STACK CFI 57006 .cfa: $rsp 24 +
STACK CFI 57008 .cfa: $rsp 32 +
STACK CFI 5700a .cfa: $rsp 40 +
STACK CFI 5700c .cfa: $rsp 48 +
STACK CFI 5700e .cfa: $rsp 56 +
STACK CFI 57010 .cfa: $rsp 64 +
STACK CFI 57012 .cfa: $rsp 72 +
STACK CFI 57014 .cfa: $rsp 80 +
STACK CFI 57016 .cfa: $rsp 88 +
STACK CFI 57018 .cfa: $rsp 96 +
STACK CFI 5701a .cfa: $rsp 104 +
STACK CFI 5701c .cfa: $rsp 112 +
STACK CFI 5701e .cfa: $rsp 120 +
STACK CFI 57020 .cfa: $rsp 128 +
STACK CFI 57027 .cfa: $rsp 136 +
STACK CFI 5702e .cfa: $rsp 144 +
STACK CFI 5703a .cfa: $rsp 8 +
STACK CFI INIT 5703b 39 .cfa: $rsp 8 + .ra: .cfa -8 + ^
STACK CFI 5703f .cfa: $rsp 24 +
STACK CFI 57041 .cfa: $rsp 32 +
STACK CFI 57043 .cfa: $rsp 40 +
STACK CFI 57045 .cfa: $rsp 48 +
STACK CFI 57047 .cfa: $rsp 56 +
STACK CFI 57049 .cfa: $rsp 64 +
STACK CFI 5704b .cfa: $rsp 72 +
STACK CFI 5704d .cfa: $rsp 80 +
STACK CFI 5704f .cfa: $rsp 88 +
STACK CFI 57051 .cfa: $rsp 96 +
STACK CFI 57053 .cfa: $rsp 104 +
STACK CFI 57055 .cfa: $rsp 112 +
STACK CFI 57057 .cfa: $rsp 120 +
STACK CFI 57059 .cfa: $rsp 128 +
STACK CFI 57060 .cfa: $rsp 136 +
STACK CFI 57067 .cfa: $rsp 144 +
STACK CFI 57073 .cfa: $rsp 8 +
STACK CFI INIT 57074 39 .cfa: $rsp 8 + .ra: .cfa -8 + ^
STACK CFI 57078 .cfa: $rsp 24 +
STACK CFI 5707a .cfa: $rsp 32 +
STACK CFI 5707c .cfa: $rsp 40 +
STACK CFI 5707e .cfa: $rsp 48 +
STACK CFI 57080 .cfa: $rsp 56 +
STACK CFI 57082 .cfa: $rsp 64 +
STACK CFI 57084 .cfa: $rsp 72 +
STACK CFI 57086 .cfa: $rsp 80 +
STACK CFI 57088 .cfa: $rsp 88 +
STACK CFI 5708a .cfa: $rsp 96 +
STACK CFI 5708c .cfa: $rsp 104 +
STACK CFI 5708e .cfa: $rsp 112 +
STACK CFI 57090 .cfa: $rsp 120 +
STACK CFI 57092 .cfa: $rsp 128 +
STACK CFI 57099 .cfa: $rsp 136 +
STACK CFI 570a0 .cfa: $rsp 144 +
STACK CFI 570ac .cfa: $rsp 8 +
STACK CFI INIT 570ad 39 .cfa: $rsp 8 + .ra: .cfa -8 + ^
STACK CFI 570b1 .cfa: $rsp 24 +
STACK CFI 570b3 .cfa: $rsp 32 +
STACK CFI 570b5 .cfa: $rsp 40 +
STACK CFI 570b7 .cfa: $rsp 48 +
STACK CFI 570b9 .cfa: $rsp 56 +
STACK CFI 570bb .cfa: $rsp 64 +
STACK CFI 570bd .cfa: $rsp 72 +
STACK CFI 570bf .cfa: $rsp 80 +
STACK CFI 570c1 .cfa: $rsp 88 +
STACK CFI 570c3 .cfa: $rsp 96 +
STACK CFI 570c5 .cfa: $rsp 104 +
STACK CFI 570c7 .cfa: $rsp 112 +
STACK CFI 570c9 .cfa: $rsp 120 +
STACK CFI 570cb .cfa: $rsp 128 +
STACK CFI 570d2 .cfa: $rsp 136 +
STACK CFI 570d9 .cfa: $rsp 144 +
STACK CFI 570e5 .cfa: $rsp 8 +
STACK CFI INIT 570e6 39 .cfa: $rsp 8 + .ra: .cfa -8 + ^
STACK CFI 570ea .cfa: $rsp 24 +
STACK CFI 570ec .cfa: $rsp 32 +
STACK CFI 570ee .cfa: $rsp 40 +
STACK CFI 570f0 .cfa: $rsp 48 +
STACK CFI 570f2 .cfa: $rsp 56 +
STACK CFI 570f4 .cfa: $rsp 64 +
STACK CFI 570f6 .cfa: $rsp 72 +
STACK CFI 570f8 .cfa: $rsp 80 +
STACK CFI 570fa .cfa: $rsp 88 +
STACK CFI 570fc .cfa: $rsp 96 +
STACK CFI 570fe .cfa: $rsp 104 +
STACK CFI 57100 .cfa: $rsp 112 +
STACK CFI 57102 .cfa: $rsp 120 +
STACK CFI 57104 .cfa: $rsp 128 +
STACK CFI 5710b .cfa: $rsp 136 +
STACK CFI 57112 .cfa: $rsp 144 +
STACK CFI 5711e .cfa: $rsp 8 +
STACK CFI INIT 5711f 39 .cfa: $rsp 8 + .ra: .cfa -8 + ^
STACK CFI 57123 .cfa: $rsp 24 +
STACK CFI 57125 .cfa: $rsp 32 +
STACK CFI 57127 .cfa: $rsp 40 +
STACK CFI 57129 .cfa: $rsp 48 +
STACK CFI 5712b .cfa: $rsp 56 +
STACK CFI 5712d .cfa: $rsp 64 +
STACK CFI 5712f .cfa: $rsp 72 +
STACK CFI 57131 .cfa: $rsp 80 +
STACK CFI 57133 .cfa: $rsp 88 +
STACK CFI 57135 .cfa: $rsp 96 +
STACK CFI 57137 .cfa: $rsp 104 +
STACK CFI 57139 .cfa: $rsp 112 +
STACK CFI 5713b .cfa: $rsp 120 +
STACK CFI 5713d .cfa: $rsp 128 +
STACK CFI 57144 .cfa: $rsp 136 +
STACK CFI 5714b .cfa: $rsp 144 +
STACK CFI 57157 .cfa: $rsp 8 +
STACK CFI INIT 57158 39 .cfa: $rsp 8 + .ra: .cfa -8 + ^
STACK CFI 5715c .cfa: $rsp 24 +
STACK CFI 5715e .cfa: $rsp 32 +
STACK CFI 57160 .cfa: $rsp 40 +
STACK CFI 57162 .cfa: $rsp 48 +
STACK CFI 57164 .cfa: $rsp 56 +
STACK CFI 57166 .cfa: $rsp 64 +
STACK CFI 57168 .cfa: $rsp 72 +
STACK CFI 5716a .cfa: $rsp 80 +
STACK CFI 5716c .cfa: $rsp 88 +
STACK CFI 5716e .cfa: $rsp 96 +
STACK CFI 57170 .cfa: $rsp 104 +
STACK CFI 57172 .cfa: $rsp 112 +
STACK CFI 57174 .cfa: $rsp 120 +
STACK CFI 57176 .cfa: $rsp 128 +
STACK CFI 5717d .cfa: $rsp 136 +
STACK CFI 57184 .cfa: $rsp 144 +
STACK CFI 57190 .cfa: $rsp 8 +
STACK CFI INIT 57191 39 .cfa: $rsp 8 + .ra: .cfa -8 + ^
STACK CFI 57195 .cfa: $rsp 24 +
STACK CFI 57197 .cfa: $rsp 32 +
STACK CFI 57199 .cfa: $rsp 40 +
STACK CFI 5719b .cfa: $rsp 48 +
STACK CFI 5719d .cfa: $rsp 56 +
STACK CFI 5719f .cfa: $rsp 64 +
STACK CFI 571a1 .cfa: $rsp 72 +
STACK CFI 571a3 .cfa: $rsp 80 +
STACK CFI 571a5 .cfa: $rsp 88 +
STACK CFI 571a7 .cfa: $rsp 96 +
STACK CFI 571a9 .cfa: $rsp 104 +
STACK CFI 571ab .cfa: $rsp 112 +
STACK CFI 571ad .cfa: $rsp 120 +
STACK CFI 571af .cfa: $rsp 128 +
STACK CFI 571b6 .cfa: $rsp 136 +
STACK CFI 571bd .cfa: $rsp 144 +
STACK CFI 571c9 .cfa: $rsp 8 +
STACK CFI INIT 571ca 39 .cfa: $rsp 8 + .ra: .cfa -8 + ^
STACK CFI 571ce .cfa: $rsp 24 +
STACK CFI 571d0 .cfa: $rsp 32 +
STACK CFI 571d2 .cfa: $rsp 40 +
STACK CFI 571d4 .cfa: $rsp 48 +
STACK CFI 571d6 .cfa: $rsp 56 +
STACK CFI 571d8 .cfa: $rsp 64 +
STACK CFI 571da .cfa: $rsp 72 +
STACK CFI 571dc .cfa: $rsp 80 +
STACK CFI 571de .cfa: $rsp 88 +
STACK CFI 571e0 .cfa: $rsp 96 +
STACK CFI 571e2 .cfa: $rsp 104 +
STACK CFI 571e4 .cfa: $rsp 112 +
STACK CFI 571e6 .cfa: $rsp 120 +
STACK CFI 571e8 .cfa: $rsp 128 +
STACK CFI 571ef .cfa: $rsp 136 +
STACK CFI 571f6 .cfa: $rsp 144 +
STACK CFI 57202 .cfa: $rsp 8 +
STACK CFI INIT 57203 39 .cfa: $rsp 8 + .ra: .cfa -8 + ^
STACK CFI 57207 .cfa: $rsp 24 +
STACK CFI 57209 .cfa: $rsp 32 +
STACK CFI 5720b .cfa: $rsp 40 +
STACK CFI 5720d .cfa: $rsp 48 +
STACK CFI 5720f .cfa: $rsp 56 +
STACK CFI 57211 .cfa: $rsp 64 +
STACK CFI 57213 .cfa: $rsp 72 +
STACK CFI 57215 .cfa: $rsp 80 +
STACK CFI 57217 .cfa: $rsp 88 +
STACK CFI 57219 .cfa: $rsp 96 +
STACK CFI 5721b .cfa: $rsp 104 +
STACK CFI 5721d .cfa: $rsp 112 +
STACK CFI 5721f .cfa: $rsp 120 +
STACK CFI 57221 .cfa: $rsp 128 +
STACK CFI 57228 .cfa: $rsp 136 +
STACK CFI 5722f .cfa: $rsp 144 +
STACK CFI 5723b .cfa: $rsp 8 +
STACK CFI INIT 5723c 39 .cfa: $rsp 8 + .ra: .cfa -8 + ^
STACK CFI 57240 .cfa: $rsp 24 +
STACK CFI 57242 .cfa: $rsp 32 +
STACK CFI 57244 .cfa: $rsp 40 +
STACK CFI 57246 .cfa: $rsp 48 +
STACK CFI 57248 .cfa: $rsp 56 +
STACK CFI 5724a .cfa: $rsp 64 +
STACK CFI 5724c .cfa: $rsp 72 +
STACK CFI 5724e .cfa: $rsp 80 +
STACK CFI 57250 .cfa: $rsp 88 +
STACK CFI 57252 .cfa: $rsp 96 +
STACK CFI 57254 .cfa: $rsp 104 +
STACK CFI 57256 .cfa: $rsp 112 +
STACK CFI 57258 .cfa: $rsp 120 +
STACK CFI 5725a .cfa: $rsp 128 +
STACK CFI 57261 .cfa: $rsp 136 +
STACK CFI 57268 .cfa: $rsp 144 +
STACK CFI 57274 .cfa: $rsp 8 +
STACK CFI INIT 57275 39 .cfa: $rsp 8 + .ra: .cfa -8 + ^
STACK CFI 57279 .cfa: $rsp 24 +
STACK CFI 5727b .cfa: $rsp 32 +
STACK CFI 5727d .cfa: $rsp 40 +
STACK CFI 5727f .cfa: $rsp 48 +
STACK CFI 57281 .cfa: $rsp 56 +
STACK CFI 57283 .cfa: $rsp 64 +
STACK CFI 57285 .cfa: $rsp 72 +
STACK CFI 57287 .cfa: $rsp 80 +
STACK CFI 57289 .cfa: $rsp 88 +
STACK CFI 5728b .cfa: $rsp 96 +
STACK CFI 5728d .cfa: $rsp 104 +
STACK CFI 5728f .cfa: $rsp 112 +
STACK CFI 57291 .cfa: $rsp 120 +
STACK CFI 57293 .cfa: $rsp 128 +
STACK CFI 5729a .cfa: $rsp 136 +
STACK CFI 572a1 .cfa: $rsp 144 +
STACK CFI 572ad .cfa: $rsp 8 +
STACK CFI INIT 572ae 39 .cfa: $rsp 8 + .ra: .cfa -8 + ^
STACK CFI 572b2 .cfa: $rsp 24 +
STACK CFI 572b4 .cfa: $rsp 32 +
STACK CFI 572b6 .cfa: $rsp 40 +
STACK CFI 572b8 .cfa: $rsp 48 +
STACK CFI 572ba .cfa: $rsp 56 +
STACK CFI 572bc .cfa: $rsp 64 +
STACK CFI 572be .cfa: $rsp 72 +
STACK CFI 572c0 .cfa: $rsp 80 +
STACK CFI 572c2 .cfa: $rsp 88 +
STACK CFI 572c4 .cfa: $rsp 96 +
STACK CFI 572c6 .cfa: $rsp 104 +
STACK CFI 572c8 .cfa: $rsp 112 +
STACK CFI 572ca .cfa: $rsp 120 +
STACK CFI 572cc .cfa: $rsp 128 +
STACK CFI 572d3 .cfa: $rsp 136 +
STACK CFI 572da .cfa: $rsp 144 +
STACK CFI 572e6 .cfa: $rsp 8 +
STACK CFI INIT 572e7 39 .cfa: $rsp 8 + .ra: .cfa -8 + ^
STACK CFI 572eb .cfa: $rsp 24 +
STACK CFI 572ed .cfa: $rsp 32 +
STACK CFI 572ef .cfa: $rsp 40 +
STACK CFI 572f1 .cfa: $rsp 48 +
STACK CFI 572f3 .cfa: $rsp 56 +
STACK CFI 572f5 .cfa: $rsp 64 +
STACK CFI 572f7 .cfa: $rsp 72 +
STACK CFI 572f9 .cfa: $rsp 80 +
STACK CFI 572fb .cfa: $rsp 88 +
STACK CFI 572fd .cfa: $rsp 96 +
STACK CFI 572ff .cfa: $rsp 104 +
STACK CFI 57301 .cfa: $rsp 112 +
STACK CFI 57303 .cfa: $rsp 120 +
STACK CFI 57305 .cfa: $rsp 128 +
STACK CFI 5730c .cfa: $rsp 136 +
STACK CFI 57313 .cfa: $rsp 144 +
STACK CFI 5731f .cfa: $rsp 8 +
STACK CFI INIT 57320 39 .cfa: $rsp 8 + .ra: .cfa -8 + ^
STACK CFI 57324 .cfa: $rsp 24 +
STACK CFI 57326 .cfa: $rsp 32 +
STACK CFI 57328 .cfa: $rsp 40 +
STACK CFI 5732a .cfa: $rsp 48 +
STACK CFI 5732c .cfa: $rsp 56 +
STACK CFI 5732e .cfa: $rsp 64 +
STACK CFI 57330 .cfa: $rsp 72 +
STACK CFI 57332 .cfa: $rsp 80 +
STACK CFI 57334 .cfa: $rsp 88 +
STACK CFI 57336 .cfa: $rsp 96 +
STACK CFI 57338 .cfa: $rsp 104 +
STACK CFI 5733a .cfa: $rsp 112 +
STACK CFI 5733c .cfa: $rsp 120 +
STACK CFI 5733e .cfa: $rsp 128 +
STACK CFI 57345 .cfa: $rsp 136 +
STACK CFI 5734c .cfa: $rsp 144 +
STACK CFI 57358 .cfa: $rsp 8 +
STACK CFI INIT 57359 39 .cfa: $rsp 8 + .ra: .cfa -8 + ^
STACK CFI 5735d .cfa: $rsp 24 +
STACK CFI 5735f .cfa: $rsp 32 +
STACK CFI 57361 .cfa: $rsp 40 +
STACK CFI 57363 .cfa: $rsp 48 +
STACK CFI 57365 .cfa: $rsp 56 +
STACK CFI 57367 .cfa: $rsp 64 +
STACK CFI 57369 .cfa: $rsp 72 +
STACK CFI 5736b .cfa: $rsp 80 +
STACK CFI 5736d .cfa: $rsp 88 +
STACK CFI 5736f .cfa: $rsp 96 +
STACK CFI 57371 .cfa: $rsp 104 +
STACK CFI 57373 .cfa: $rsp 112 +
STACK CFI 57375 .cfa: $rsp 120 +
STACK CFI 57377 .cfa: $rsp 128 +
STACK CFI 5737e .cfa: $rsp 136 +
STACK CFI 57385 .cfa: $rsp 144 +
STACK CFI 57391 .cfa: $rsp 8 +
STACK CFI INIT 57392 39 .cfa: $rsp 8 + .ra: .cfa -8 + ^
STACK CFI 57396 .cfa: $rsp 24 +
STACK CFI 57398 .cfa: $rsp 32 +
STACK CFI 5739a .cfa: $rsp 40 +
STACK CFI 5739c .cfa: $rsp 48 +
STACK CFI 5739e .cfa: $rsp 56 +
STACK CFI 573a0 .cfa: $rsp 64 +
STACK CFI 573a2 .cfa: $rsp 72 +
STACK CFI 573a4 .cfa: $rsp 80 +
STACK CFI 573a6 .cfa: $rsp 88 +
STACK CFI 573a8 .cfa: $rsp 96 +
STACK CFI 573aa .cfa: $rsp 104 +
STACK CFI 573ac .cfa: $rsp 112 +
STACK CFI 573ae .cfa: $rsp 120 +
STACK CFI 573b0 .cfa: $rsp 128 +
STACK CFI 573b7 .cfa: $rsp 136 +
STACK CFI 573be .cfa: $rsp 144 +
STACK CFI 573ca .cfa: $rsp 8 +
STACK CFI INIT 573cb 39 .cfa: $rsp 8 + .ra: .cfa -8 + ^
STACK CFI 573cf .cfa: $rsp 24 +
STACK CFI 573d1 .cfa: $rsp 32 +
STACK CFI 573d3 .cfa: $rsp 40 +
STACK CFI 573d5 .cfa: $rsp 48 +
STACK CFI 573d7 .cfa: $rsp 56 +
STACK CFI 573d9 .cfa: $rsp 64 +
STACK CFI 573db .cfa: $rsp 72 +
STACK CFI 573dd .cfa: $rsp 80 +
STACK CFI 573df .cfa: $rsp 88 +
STACK CFI 573e1 .cfa: $rsp 96 +
STACK CFI 573e3 .cfa: $rsp 104 +
STACK CFI 573e5 .cfa: $rsp 112 +
STACK CFI 573e7 .cfa: $rsp 120 +
STACK CFI 573e9 .cfa: $rsp 128 +
STACK CFI 573f0 .cfa: $rsp 136 +
STACK CFI 573f7 .cfa: $rsp 144 +
STACK CFI 57403 .cfa: $rsp 8 +
STACK CFI INIT 57404 39 .cfa: $rsp 8 + .ra: .cfa -8 + ^
STACK CFI 57408 .cfa: $rsp 24 +
STACK CFI 5740a .cfa: $rsp 32 +
STACK CFI 5740c .cfa: $rsp 40 +
STACK CFI 5740e .cfa: $rsp 48 +
STACK CFI 57410 .cfa: $rsp 56 +
STACK CFI 57412 .cfa: $rsp 64 +
STACK CFI 57414 .cfa: $rsp 72 +
STACK CFI 57416 .cfa: $rsp 80 +
STACK CFI 57418 .cfa: $rsp 88 +
STACK CFI 5741a .cfa: $rsp 96 +
STACK CFI 5741c .cfa: $rsp 104 +
STACK CFI 5741e .cfa: $rsp 112 +
STACK CFI 57420 .cfa: $rsp 120 +
STACK CFI 57422 .cfa: $rsp 128 +
STACK CFI 57429 .cfa: $rsp 136 +
STACK CFI 57430 .cfa: $rsp 144 +
STACK CFI 5743c .cfa: $rsp 8 +
STACK CFI INIT 5743d 39 .cfa: $rsp 8 + .ra: .cfa -8 + ^
STACK CFI 57441 .cfa: $rsp 24 +
STACK CFI 57443 .cfa: $rsp 32 +
STACK CFI 57445 .cfa: $rsp 40 +
STACK CFI 57447 .cfa: $rsp 48 +
STACK CFI 57449 .cfa: $rsp 56 +
STACK CFI 5744b .cfa: $rsp 64 +
STACK CFI 5744d .cfa: $rsp 72 +
STACK CFI 5744f .cfa: $rsp 80 +
STACK CFI 57451 .cfa: $rsp 88 +
STACK CFI 57453 .cfa: $rsp 96 +
STACK CFI 57455 .cfa: $rsp 104 +
STACK CFI 57457 .cfa: $rsp 112 +
STACK CFI 57459 .cfa: $rsp 120 +
STACK CFI 5745b .cfa: $rsp 128 +
STACK CFI 57462 .cfa: $rsp 136 +
STACK CFI 57469 .cfa: $rsp 144 +
STACK CFI 57475 .cfa: $rsp 8 +
STACK CFI INIT 57476 39 .cfa: $rsp 8 + .ra: .cfa -8 + ^
STACK CFI 5747a .cfa: $rsp 24 +
STACK CFI 5747c .cfa: $rsp 32 +
STACK CFI 5747e .cfa: $rsp 40 +
STACK CFI 57480 .cfa: $rsp 48 +
STACK CFI 57482 .cfa: $rsp 56 +
STACK CFI 57484 .cfa: $rsp 64 +
STACK CFI 57486 .cfa: $rsp 72 +
STACK CFI 57488 .cfa: $rsp 80 +
STACK CFI 5748a .cfa: $rsp 88 +
STACK CFI 5748c .cfa: $rsp 96 +
STACK CFI 5748e .cfa: $rsp 104 +
STACK CFI 57490 .cfa: $rsp 112 +
STACK CFI 57492 .cfa: $rsp 120 +
STACK CFI 57494 .cfa: $rsp 128 +
STACK CFI 5749b .cfa: $rsp 136 +
STACK CFI 574a2 .cfa: $rsp 144 +
STACK CFI 574ae .cfa: $rsp 8 +
STACK CFI INIT 574af 39 .cfa: $rsp 8 + .ra: .cfa -8 + ^
STACK CFI 574b3 .cfa: $rsp 24 +
STACK CFI 574b5 .cfa: $rsp 32 +
STACK CFI 574b7 .cfa: $rsp 40 +
STACK CFI 574b9 .cfa: $rsp 48 +
STACK CFI 574bb .cfa: $rsp 56 +
STACK CFI 574bd .cfa: $rsp 64 +
STACK CFI 574bf .cfa: $rsp 72 +
STACK CFI 574c1 .cfa: $rsp 80 +
STACK CFI 574c3 .cfa: $rsp 88 +
STACK CFI 574c5 .cfa: $rsp 96 +
STACK CFI 574c7 .cfa: $rsp 104 +
STACK CFI 574c9 .cfa: $rsp 112 +
STACK CFI 574cb .cfa: $rsp 120 +
STACK CFI 574cd .cfa: $rsp 128 +
STACK CFI 574d4 .cfa: $rsp 136 +
STACK CFI 574db .cfa: $rsp 144 +
STACK CFI 574e7 .cfa: $rsp 8 +
STACK CFI INIT 574e8 39 .cfa: $rsp 8 + .ra: .cfa -8 + ^
STACK CFI 574ec .cfa: $rsp 24 +
STACK CFI 574ee .cfa: $rsp 32 +
STACK CFI 574f0 .cfa: $rsp 40 +
STACK CFI 574f2 .cfa: $rsp 48 +
STACK CFI 574f4 .cfa: $rsp 56 +
STACK CFI 574f6 .cfa: $rsp 64 +
STACK CFI 574f8 .cfa: $rsp 72 +
STACK CFI 574fa .cfa: $rsp 80 +
STACK CFI 574fc .cfa: $rsp 88 +
STACK CFI 574fe .cfa: $rsp 96 +
STACK CFI 57500 .cfa: $rsp 104 +
STACK CFI 57502 .cfa: $rsp 112 +
STACK CFI 57504 .cfa: $rsp 120 +
STACK CFI 57506 .cfa: $rsp 128 +
STACK CFI 5750d .cfa: $rsp 136 +
STACK CFI 57514 .cfa: $rsp 144 +
STACK CFI 57520 .cfa: $rsp 8 +
STACK CFI INIT 57521 39 .cfa: $rsp 8 + .ra: .cfa -8 + ^
STACK CFI 57525 .cfa: $rsp 24 +
STACK CFI 57527 .cfa: $rsp 32 +
STACK CFI 57529 .cfa: $rsp 40 +
STACK CFI 5752b .cfa: $rsp 48 +
STACK CFI 5752d .cfa: $rsp 56 +
STACK CFI 5752f .cfa: $rsp 64 +
STACK CFI 57531 .cfa: $rsp 72 +
STACK CFI 57533 .cfa: $rsp 80 +
STACK CFI 57535 .cfa: $rsp 88 +
STACK CFI 57537 .cfa: $rsp 96 +
STACK CFI 57539 .cfa: $rsp 104 +
STACK CFI 5753b .cfa: $rsp 112 +
STACK CFI 5753d .cfa: $rsp 120 +
STACK CFI 5753f .cfa: $rsp 128 +
STACK CFI 57546 .cfa: $rsp 136 +
STACK CFI 5754d .cfa: $rsp 144 +
STACK CFI 57559 .cfa: $rsp 8 +
STACK CFI INIT 5755a 39 .cfa: $rsp 8 + .ra: .cfa -8 + ^
STACK CFI 5755e .cfa: $rsp 24 +
STACK CFI 57560 .cfa: $rsp 32 +
STACK CFI 57562 .cfa: $rsp 40 +
STACK CFI 57564 .cfa: $rsp 48 +
STACK CFI 57566 .cfa: $rsp 56 +
STACK CFI 57568 .cfa: $rsp 64 +
STACK CFI 5756a .cfa: $rsp 72 +
STACK CFI 5756c .cfa: $rsp 80 +
STACK CFI 5756e .cfa: $rsp 88 +
STACK CFI 57570 .cfa: $rsp 96 +
STACK CFI 57572 .cfa: $rsp 104 +
STACK CFI 57574 .cfa: $rsp 112 +
STACK CFI 57576 .cfa: $rsp 120 +
STACK CFI 57578 .cfa: $rsp 128 +
STACK CFI 5757f .cfa: $rsp 136 +
STACK CFI 57586 .cfa: $rsp 144 +
STACK CFI 57592 .cfa: $rsp 8 +
STACK CFI INIT 57593 39 .cfa: $rsp 8 + .ra: .cfa -8 + ^
STACK CFI 57597 .cfa: $rsp 24 +
STACK CFI 57599 .cfa: $rsp 32 +
STACK CFI 5759b .cfa: $rsp 40 +
STACK CFI 5759d .cfa: $rsp 48 +
STACK CFI 5759f .cfa: $rsp 56 +
STACK CFI 575a1 .cfa: $rsp 64 +
STACK CFI 575a3 .cfa: $rsp 72 +
STACK CFI 575a5 .cfa: $rsp 80 +
STACK CFI 575a7 .cfa: $rsp 88 +
STACK CFI 575a9 .cfa: $rsp 96 +
STACK CFI 575ab .cfa: $rsp 104 +
STACK CFI 575ad .cfa: $rsp 112 +
STACK CFI 575af .cfa: $rsp 120 +
STACK CFI 575b1 .cfa: $rsp 128 +
STACK CFI 575b8 .cfa: $rsp 136 +
STACK CFI 575bf .cfa: $rsp 144 +
STACK CFI 575cb .cfa: $rsp 8 +
STACK CFI INIT 575cc 39 .cfa: $rsp 8 + .ra: .cfa -8 + ^
STACK CFI 575d0 .cfa: $rsp 24 +
STACK CFI 575d2 .cfa: $rsp 32 +
STACK CFI 575d4 .cfa: $rsp 40 +
STACK CFI 575d6 .cfa: $rsp 48 +
STACK CFI 575d8 .cfa: $rsp 56 +
STACK CFI 575da .cfa: $rsp 64 +
STACK CFI 575dc .cfa: $rsp 72 +
STACK CFI 575de .cfa: $rsp 80 +
STACK CFI 575e0 .cfa: $rsp 88 +
STACK CFI 575e2 .cfa: $rsp 96 +
STACK CFI 575e4 .cfa: $rsp 104 +
STACK CFI 575e6 .cfa: $rsp 112 +
STACK CFI 575e8 .cfa: $rsp 120 +
STACK CFI 575ea .cfa: $rsp 128 +
STACK CFI 575f1 .cfa: $rsp 136 +
STACK CFI 575f8 .cfa: $rsp 144 +
STACK CFI 57604 .cfa: $rsp 8 +
STACK CFI INIT 57605 39 .cfa: $rsp 8 + .ra: .cfa -8 + ^
STACK CFI 57609 .cfa: $rsp 24 +
STACK CFI 5760b .cfa: $rsp 32 +
STACK CFI 5760d .cfa: $rsp 40 +
STACK CFI 5760f .cfa: $rsp 48 +
STACK CFI 57611 .cfa: $rsp 56 +
STACK CFI 57613 .cfa: $rsp 64 +
STACK CFI 57615 .cfa: $rsp 72 +
STACK CFI 57617 .cfa: $rsp 80 +
STACK CFI 57619 .cfa: $rsp 88 +
STACK CFI 5761b .cfa: $rsp 96 +
STACK CFI 5761d .cfa: $rsp 104 +
STACK CFI 5761f .cfa: $rsp 112 +
STACK CFI 57621 .cfa: $rsp 120 +
STACK CFI 57623 .cfa: $rsp 128 +
STACK CFI 5762a .cfa: $rsp 136 +
STACK CFI 57631 .cfa: $rsp 144 +
STACK CFI 5763d .cfa: $rsp 8 +
STACK CFI INIT 5763e 39 .cfa: $rsp 8 + .ra: .cfa -8 + ^
STACK CFI 57642 .cfa: $rsp 24 +
STACK CFI 57644 .cfa: $rsp 32 +
STACK CFI 57646 .cfa: $rsp 40 +
STACK CFI 57648 .cfa: $rsp 48 +
STACK CFI 5764a .cfa: $rsp 56 +
STACK CFI 5764c .cfa: $rsp 64 +
STACK CFI 5764e .cfa: $rsp 72 +
STACK CFI 57650 .cfa: $rsp 80 +
STACK CFI 57652 .cfa: $rsp 88 +
STACK CFI 57654 .cfa: $rsp 96 +
STACK CFI 57656 .cfa: $rsp 104 +
STACK CFI 57658 .cfa: $rsp 112 +
STACK CFI 5765a .cfa: $rsp 120 +
STACK CFI 5765c .cfa: $rsp 128 +
STACK CFI 57663 .cfa: $rsp 136 +
STACK CFI 5766a .cfa: $rsp 144 +
STACK CFI 57676 .cfa: $rsp 8 +
STACK CFI INIT 57677 39 .cfa: $rsp 8 + .ra: .cfa -8 + ^
STACK CFI 5767b .cfa: $rsp 24 +
STACK CFI 5767d .cfa: $rsp 32 +
STACK CFI 5767f .cfa: $rsp 40 +
STACK CFI 57681 .cfa: $rsp 48 +
STACK CFI 57683 .cfa: $rsp 56 +
STACK CFI 57685 .cfa: $rsp 64 +
STACK CFI 57687 .cfa: $rsp 72 +
STACK CFI 57689 .cfa: $rsp 80 +
STACK CFI 5768b .cfa: $rsp 88 +
STACK CFI 5768d .cfa: $rsp 96 +
STACK CFI 5768f .cfa: $rsp 104 +
STACK CFI 57691 .cfa: $rsp 112 +
STACK CFI 57693 .cfa: $rsp 120 +
STACK CFI 57695 .cfa: $rsp 128 +
STACK CFI 5769c .cfa: $rsp 136 +
STACK CFI 576a3 .cfa: $rsp 144 +
STACK CFI 576af .cfa: $rsp 8 +
STACK CFI INIT 576b0 39 .cfa: $rsp 8 + .ra: .cfa -8 + ^
STACK CFI 576b4 .cfa: $rsp 24 +
STACK CFI 576b6 .cfa: $rsp 32 +
STACK CFI 576b8 .cfa: $rsp 40 +
STACK CFI 576ba .cfa: $rsp 48 +
STACK CFI 576bc .cfa: $rsp 56 +
STACK CFI 576be .cfa: $rsp 64 +
STACK CFI 576c0 .cfa: $rsp 72 +
STACK CFI 576c2 .cfa: $rsp 80 +
STACK CFI 576c4 .cfa: $rsp 88 +
STACK CFI 576c6 .cfa: $rsp 96 +
STACK CFI 576c8 .cfa: $rsp 104 +
STACK CFI 576ca .cfa: $rsp 112 +
STACK CFI 576cc .cfa: $rsp 120 +
STACK CFI 576ce .cfa: $rsp 128 +
STACK CFI 576d5 .cfa: $rsp 136 +
STACK CFI 576dc .cfa: $rsp 144 +
STACK CFI 576e8 .cfa: $rsp 8 +
STACK CFI INIT 576e9 39 .cfa: $rsp 8 + .ra: .cfa -8 + ^
STACK CFI 576ed .cfa: $rsp 24 +
STACK CFI 576ef .cfa: $rsp 32 +
STACK CFI 576f1 .cfa: $rsp 40 +
STACK CFI 576f3 .cfa: $rsp 48 +
STACK CFI 576f5 .cfa: $rsp 56 +
STACK CFI 576f7 .cfa: $rsp 64 +
STACK CFI 576f9 .cfa: $rsp 72 +
STACK CFI 576fb .cfa: $rsp 80 +
STACK CFI 576fd .cfa: $rsp 88 +
STACK CFI 576ff .cfa: $rsp 96 +
STACK CFI 57701 .cfa: $rsp 104 +
STACK CFI 57703 .cfa: $rsp 112 +
STACK CFI 57705 .cfa: $rsp 120 +
STACK CFI 57707 .cfa: $rsp 128 +
STACK CFI 5770e .cfa: $rsp 136 +
STACK CFI 57715 .cfa: $rsp 144 +
STACK CFI 57721 .cfa: $rsp 8 +
STACK CFI INIT 57722 39 .cfa: $rsp 8 + .ra: .cfa -8 + ^
STACK CFI 57726 .cfa: $rsp 24 +
STACK CFI 57728 .cfa: $rsp 32 +
STACK CFI 5772a .cfa: $rsp 40 +
STACK CFI 5772c .cfa: $rsp 48 +
STACK CFI 5772e .cfa: $rsp 56 +
STACK CFI 57730 .cfa: $rsp 64 +
STACK CFI 57732 .cfa: $rsp 72 +
STACK CFI 57734 .cfa: $rsp 80 +
STACK CFI 57736 .cfa: $rsp 88 +
STACK CFI 57738 .cfa: $rsp 96 +
STACK CFI 5773a .cfa: $rsp 104 +
STACK CFI 5773c .cfa: $rsp 112 +
STACK CFI 5773e .cfa: $rsp 120 +
STACK CFI 57740 .cfa: $rsp 128 +
STACK CFI 57747 .cfa: $rsp 136 +
STACK CFI 5774e .cfa: $rsp 144 +
STACK CFI 5775a .cfa: $rsp 8 +
STACK CFI INIT 5775b 39 .cfa: $rsp 8 + .ra: .cfa -8 + ^
STACK CFI 5775f .cfa: $rsp 24 +
STACK CFI 57761 .cfa: $rsp 32 +
STACK CFI 57763 .cfa: $rsp 40 +
STACK CFI 57765 .cfa: $rsp 48 +
STACK CFI 57767 .cfa: $rsp 56 +
STACK CFI 57769 .cfa: $rsp 64 +
STACK CFI 5776b .cfa: $rsp 72 +
STACK CFI 5776d .cfa: $rsp 80 +
STACK CFI 5776f .cfa: $rsp 88 +
STACK CFI 57771 .cfa: $rsp 96 +
STACK CFI 57773 .cfa: $rsp 104 +
STACK CFI 57775 .cfa: $rsp 112 +
STACK CFI 57777 .cfa: $rsp 120 +
STACK CFI 57779 .cfa: $rsp 128 +
STACK CFI 57780 .cfa: $rsp 136 +
STACK CFI 57787 .cfa: $rsp 144 +
STACK CFI 57793 .cfa: $rsp 8 +
STACK CFI INIT 57794 39 .cfa: $rsp 8 + .ra: .cfa -8 + ^
STACK CFI 57798 .cfa: $rsp 24 +
STACK CFI 5779a .cfa: $rsp 32 +
STACK CFI 5779c .cfa: $rsp 40 +
STACK CFI 5779e .cfa: $rsp 48 +
STACK CFI 577a0 .cfa: $rsp 56 +
STACK CFI 577a2 .cfa: $rsp 64 +
STACK CFI 577a4 .cfa: $rsp 72 +
STACK CFI 577a6 .cfa: $rsp 80 +
STACK CFI 577a8 .cfa: $rsp 88 +
STACK CFI 577aa .cfa: $rsp 96 +
STACK CFI 577ac .cfa: $rsp 104 +
STACK CFI 577ae .cfa: $rsp 112 +
STACK CFI 577b0 .cfa: $rsp 120 +
STACK CFI 577b2 .cfa: $rsp 128 +
STACK CFI 577b9 .cfa: $rsp 136 +
STACK CFI 577c0 .cfa: $rsp 144 +
STACK CFI 577cc .cfa: $rsp 8 +
STACK CFI INIT 577cd 39 .cfa: $rsp 8 + .ra: .cfa -8 + ^
STACK CFI 577d1 .cfa: $rsp 24 +
STACK CFI 577d3 .cfa: $rsp 32 +
STACK CFI 577d5 .cfa: $rsp 40 +
STACK CFI 577d7 .cfa: $rsp 48 +
STACK CFI 577d9 .cfa: $rsp 56 +
STACK CFI 577db .cfa: $rsp 64 +
STACK CFI 577dd .cfa: $rsp 72 +
STACK CFI 577df .cfa: $rsp 80 +
STACK CFI 577e1 .cfa: $rsp 88 +
STACK CFI 577e3 .cfa: $rsp 96 +
STACK CFI 577e5 .cfa: $rsp 104 +
STACK CFI 577e7 .cfa: $rsp 112 +
STACK CFI 577e9 .cfa: $rsp 120 +
STACK CFI 577eb .cfa: $rsp 128 +
STACK CFI 577f2 .cfa: $rsp 136 +
STACK CFI 577f9 .cfa: $rsp 144 +
STACK CFI 57805 .cfa: $rsp 8 +
STACK CFI INIT 57806 39 .cfa: $rsp 8 + .ra: .cfa -8 + ^
STACK CFI 5780a .cfa: $rsp 24 +
STACK CFI 5780c .cfa: $rsp 32 +
STACK CFI 5780e .cfa: $rsp 40 +
STACK CFI 57810 .cfa: $rsp 48 +
STACK CFI 57812 .cfa: $rsp 56 +
STACK CFI 57814 .cfa: $rsp 64 +
STACK CFI 57816 .cfa: $rsp 72 +
STACK CFI 57818 .cfa: $rsp 80 +
STACK CFI 5781a .cfa: $rsp 88 +
STACK CFI 5781c .cfa: $rsp 96 +
STACK CFI 5781e .cfa: $rsp 104 +
STACK CFI 57820 .cfa: $rsp 112 +
STACK CFI 57822 .cfa: $rsp 120 +
STACK CFI 57824 .cfa: $rsp 128 +
STACK CFI 5782b .cfa: $rsp 136 +
STACK CFI 57832 .cfa: $rsp 144 +
STACK CFI 5783e .cfa: $rsp 8 +
STACK CFI INIT 5783f 39 .cfa: $rsp 8 + .ra: .cfa -8 + ^
STACK CFI 57843 .cfa: $rsp 24 +
STACK CFI 57845 .cfa: $rsp 32 +
STACK CFI 57847 .cfa: $rsp 40 +
STACK CFI 57849 .cfa: $rsp 48 +
STACK CFI 5784b .cfa: $rsp 56 +
STACK CFI 5784d .cfa: $rsp 64 +
STACK CFI 5784f .cfa: $rsp 72 +
STACK CFI 57851 .cfa: $rsp 80 +
STACK CFI 57853 .cfa: $rsp 88 +
STACK CFI 57855 .cfa: $rsp 96 +
STACK CFI 57857 .cfa: $rsp 104 +
STACK CFI 57859 .cfa: $rsp 112 +
STACK CFI 5785b .cfa: $rsp 120 +
STACK CFI 5785d .cfa: $rsp 128 +
STACK CFI 57864 .cfa: $rsp 136 +
STACK CFI 5786b .cfa: $rsp 144 +
STACK CFI 57877 .cfa: $rsp 8 +
STACK CFI INIT 57878 39 .cfa: $rsp 8 + .ra: .cfa -8 + ^
STACK CFI 5787c .cfa: $rsp 24 +
STACK CFI 5787e .cfa: $rsp 32 +
STACK CFI 57880 .cfa: $rsp 40 +
STACK CFI 57882 .cfa: $rsp 48 +
STACK CFI 57884 .cfa: $rsp 56 +
STACK CFI 57886 .cfa: $rsp 64 +
STACK CFI 57888 .cfa: $rsp 72 +
STACK CFI 5788a .cfa: $rsp 80 +
STACK CFI 5788c .cfa: $rsp 88 +
STACK CFI 5788e .cfa: $rsp 96 +
STACK CFI 57890 .cfa: $rsp 104 +
STACK CFI 57892 .cfa: $rsp 112 +
STACK CFI 57894 .cfa: $rsp 120 +
STACK CFI 57896 .cfa: $rsp 128 +
STACK CFI 5789d .cfa: $rsp 136 +
STACK CFI 578a4 .cfa: $rsp 144 +
STACK CFI 578b0 .cfa: $rsp 8 +
STACK CFI INIT 578b1 39 .cfa: $rsp 8 + .ra: .cfa -8 + ^
STACK CFI 578b5 .cfa: $rsp 24 +
STACK CFI 578b7 .cfa: $rsp 32 +
STACK CFI 578b9 .cfa: $rsp 40 +
STACK CFI 578bb .cfa: $rsp 48 +
STACK CFI 578bd .cfa: $rsp 56 +
STACK CFI 578bf .cfa: $rsp 64 +
STACK CFI 578c1 .cfa: $rsp 72 +
STACK CFI 578c3 .cfa: $rsp 80 +
STACK CFI 578c5 .cfa: $rsp 88 +
STACK CFI 578c7 .cfa: $rsp 96 +
STACK CFI 578c9 .cfa: $rsp 104 +
STACK CFI 578cb .cfa: $rsp 112 +
STACK CFI 578cd .cfa: $rsp 120 +
STACK CFI 578cf .cfa: $rsp 128 +
STACK CFI 578d6 .cfa: $rsp 136 +
STACK CFI 578dd .cfa: $rsp 144 +
STACK CFI 578e9 .cfa: $rsp 8 +
STACK CFI INIT 578ea 39 .cfa: $rsp 8 + .ra: .cfa -8 + ^
STACK CFI 578ee .cfa: $rsp 24 +
STACK CFI 578f0 .cfa: $rsp 32 +
STACK CFI 578f2 .cfa: $rsp 40 +
STACK CFI 578f4 .cfa: $rsp 48 +
STACK CFI 578f6 .cfa: $rsp 56 +
STACK CFI 578f8 .cfa: $rsp 64 +
STACK CFI 578fa .cfa: $rsp 72 +
STACK CFI 578fc .cfa: $rsp 80 +
STACK CFI 578fe .cfa: $rsp 88 +
STACK CFI 57900 .cfa: $rsp 96 +
STACK CFI 57902 .cfa: $rsp 104 +
STACK CFI 57904 .cfa: $rsp 112 +
STACK CFI 57906 .cfa: $rsp 120 +
STACK CFI 57908 .cfa: $rsp 128 +
STACK CFI 5790f .cfa: $rsp 136 +
STACK CFI 57916 .cfa: $rsp 144 +
STACK CFI 57922 .cfa: $rsp 8 +
STACK CFI INIT 57923 39 .cfa: $rsp 8 + .ra: .cfa -8 + ^
STACK CFI 57927 .cfa: $rsp 24 +
STACK CFI 57929 .cfa: $rsp 32 +
STACK CFI 5792b .cfa: $rsp 40 +
STACK CFI 5792d .cfa: $rsp 48 +
STACK CFI 5792f .cfa: $rsp 56 +
STACK CFI 57931 .cfa: $rsp 64 +
STACK CFI 57933 .cfa: $rsp 72 +
STACK CFI 57935 .cfa: $rsp 80 +
STACK CFI 57937 .cfa: $rsp 88 +
STACK CFI 57939 .cfa: $rsp 96 +
STACK CFI 5793b .cfa: $rsp 104 +
STACK CFI 5793d .cfa: $rsp 112 +
STACK CFI 5793f .cfa: $rsp 120 +
STACK CFI 57941 .cfa: $rsp 128 +
STACK CFI 57948 .cfa: $rsp 136 +
STACK CFI 5794f .cfa: $rsp 144 +
STACK CFI 5795b .cfa: $rsp 8 +
STACK CFI INIT 5795c 39 .cfa: $rsp 8 + .ra: .cfa -8 + ^
STACK CFI 57960 .cfa: $rsp 24 +
STACK CFI 57962 .cfa: $rsp 32 +
STACK CFI 57964 .cfa: $rsp 40 +
STACK CFI 57966 .cfa: $rsp 48 +
STACK CFI 57968 .cfa: $rsp 56 +
STACK CFI 5796a .cfa: $rsp 64 +
STACK CFI 5796c .cfa: $rsp 72 +
STACK CFI 5796e .cfa: $rsp 80 +
STACK CFI 57970 .cfa: $rsp 88 +
STACK CFI 57972 .cfa: $rsp 96 +
STACK CFI 57974 .cfa: $rsp 104 +
STACK CFI 57976 .cfa: $rsp 112 +
STACK CFI 57978 .cfa: $rsp 120 +
STACK CFI 5797a .cfa: $rsp 128 +
STACK CFI 57981 .cfa: $rsp 136 +
STACK CFI 57988 .cfa: $rsp 144 +
STACK CFI 57994 .cfa: $rsp 8 +
STACK CFI INIT 57995 39 .cfa: $rsp 8 + .ra: .cfa -8 + ^
STACK CFI 57999 .cfa: $rsp 24 +
STACK CFI 5799b .cfa: $rsp 32 +
STACK CFI 5799d .cfa: $rsp 40 +
STACK CFI 5799f .cfa: $rsp 48 +
STACK CFI 579a1 .cfa: $rsp 56 +
STACK CFI 579a3 .cfa: $rsp 64 +
STACK CFI 579a5 .cfa: $rsp 72 +
STACK CFI 579a7 .cfa: $rsp 80 +
STACK CFI 579a9 .cfa: $rsp 88 +
STACK CFI 579ab .cfa: $rsp 96 +
STACK CFI 579ad .cfa: $rsp 104 +
STACK CFI 579af .cfa: $rsp 112 +
STACK CFI 579b1 .cfa: $rsp 120 +
STACK CFI 579b3 .cfa: $rsp 128 +
STACK CFI 579ba .cfa: $rsp 136 +
STACK CFI 579c1 .cfa: $rsp 144 +
STACK CFI 579cd .cfa: $rsp 8 +
STACK CFI INIT 579ce 39 .cfa: $rsp 8 + .ra: .cfa -8 + ^
STACK CFI 579d2 .cfa: $rsp 24 +
STACK CFI 579d4 .cfa: $rsp 32 +
STACK CFI 579d6 .cfa: $rsp 40 +
STACK CFI 579d8 .cfa: $rsp 48 +
STACK CFI 579da .cfa: $rsp 56 +
STACK CFI 579dc .cfa: $rsp 64 +
STACK CFI 579de .cfa: $rsp 72 +
STACK CFI 579e0 .cfa: $rsp 80 +
STACK CFI 579e2 .cfa: $rsp 88 +
STACK CFI 579e4 .cfa: $rsp 96 +
STACK CFI 579e6 .cfa: $rsp 104 +
STACK CFI 579e8 .cfa: $rsp 112 +
STACK CFI 579ea .cfa: $rsp 120 +
STACK CFI 579ec .cfa: $rsp 128 +
STACK CFI 579f3 .cfa: $rsp 136 +
STACK CFI 579fa .cfa: $rsp 144 +
STACK CFI 57a06 .cfa: $rsp 8 +
STACK CFI INIT 57a07 39 .cfa: $rsp 8 + .ra: .cfa -8 + ^
STACK CFI 57a0b .cfa: $rsp 24 +
STACK CFI 57a0d .cfa: $rsp 32 +
STACK CFI 57a0f .cfa: $rsp 40 +
STACK CFI 57a11 .cfa: $rsp 48 +
STACK CFI 57a13 .cfa: $rsp 56 +
STACK CFI 57a15 .cfa: $rsp 64 +
STACK CFI 57a17 .cfa: $rsp 72 +
STACK CFI 57a19 .cfa: $rsp 80 +
STACK CFI 57a1b .cfa: $rsp 88 +
STACK CFI 57a1d .cfa: $rsp 96 +
STACK CFI 57a1f .cfa: $rsp 104 +
STACK CFI 57a21 .cfa: $rsp 112 +
STACK CFI 57a23 .cfa: $rsp 120 +
STACK CFI 57a25 .cfa: $rsp 128 +
STACK CFI 57a2c .cfa: $rsp 136 +
STACK CFI 57a33 .cfa: $rsp 144 +
STACK CFI 57a3f .cfa: $rsp 8 +
STACK CFI INIT 57a40 39 .cfa: $rsp 8 + .ra: .cfa -8 + ^
STACK CFI 57a44 .cfa: $rsp 24 +
STACK CFI 57a46 .cfa: $rsp 32 +
STACK CFI 57a48 .cfa: $rsp 40 +
STACK CFI 57a4a .cfa: $rsp 48 +
STACK CFI 57a4c .cfa: $rsp 56 +
STACK CFI 57a4e .cfa: $rsp 64 +
STACK CFI 57a50 .cfa: $rsp 72 +
STACK CFI 57a52 .cfa: $rsp 80 +
STACK CFI 57a54 .cfa: $rsp 88 +
STACK CFI 57a56 .cfa: $rsp 96 +
STACK CFI 57a58 .cfa: $rsp 104 +
STACK CFI 57a5a .cfa: $rsp 112 +
STACK CFI 57a5c .cfa: $rsp 120 +
STACK CFI 57a5e .cfa: $rsp 128 +
STACK CFI 57a65 .cfa: $rsp 136 +
STACK CFI 57a6c .cfa: $rsp 144 +
STACK CFI 57a78 .cfa: $rsp 8 +
STACK CFI INIT 57a79 39 .cfa: $rsp 8 + .ra: .cfa -8 + ^
STACK CFI 57a7d .cfa: $rsp 24 +
STACK CFI 57a7f .cfa: $rsp 32 +
STACK CFI 57a81 .cfa: $rsp 40 +
STACK CFI 57a83 .cfa: $rsp 48 +
STACK CFI 57a85 .cfa: $rsp 56 +
STACK CFI 57a87 .cfa: $rsp 64 +
STACK CFI 57a89 .cfa: $rsp 72 +
STACK CFI 57a8b .cfa: $rsp 80 +
STACK CFI 57a8d .cfa: $rsp 88 +
STACK CFI 57a8f .cfa: $rsp 96 +
STACK CFI 57a91 .cfa: $rsp 104 +
STACK CFI 57a93 .cfa: $rsp 112 +
STACK CFI 57a95 .cfa: $rsp 120 +
STACK CFI 57a97 .cfa: $rsp 128 +
STACK CFI 57a9e .cfa: $rsp 136 +
STACK CFI 57aa5 .cfa: $rsp 144 +
STACK CFI 57ab1 .cfa: $rsp 8 +
STACK CFI INIT 57ab2 39 .cfa: $rsp 8 + .ra: .cfa -8 + ^
STACK CFI 57ab6 .cfa: $rsp 24 +
STACK CFI 57ab8 .cfa: $rsp 32 +
STACK CFI 57aba .cfa: $rsp 40 +
STACK CFI 57abc .cfa: $rsp 48 +
STACK CFI 57abe .cfa: $rsp 56 +
STACK CFI 57ac0 .cfa: $rsp 64 +
STACK CFI 57ac2 .cfa: $rsp 72 +
STACK CFI 57ac4 .cfa: $rsp 80 +
STACK CFI 57ac6 .cfa: $rsp 88 +
STACK CFI 57ac8 .cfa: $rsp 96 +
STACK CFI 57aca .cfa: $rsp 104 +
STACK CFI 57acc .cfa: $rsp 112 +
STACK CFI 57ace .cfa: $rsp 120 +
STACK CFI 57ad0 .cfa: $rsp 128 +
STACK CFI 57ad7 .cfa: $rsp 136 +
STACK CFI 57ade .cfa: $rsp 144 +
STACK CFI 57aea .cfa: $rsp 8 +
STACK CFI INIT 57aeb 39 .cfa: $rsp 8 + .ra: .cfa -8 + ^
STACK CFI 57aef .cfa: $rsp 24 +
STACK CFI 57af1 .cfa: $rsp 32 +
STACK CFI 57af3 .cfa: $rsp 40 +
STACK CFI 57af5 .cfa: $rsp 48 +
STACK CFI 57af7 .cfa: $rsp 56 +
STACK CFI 57af9 .cfa: $rsp 64 +
STACK CFI 57afb .cfa: $rsp 72 +
STACK CFI 57afd .cfa: $rsp 80 +
STACK CFI 57aff .cfa: $rsp 88 +
STACK CFI 57b01 .cfa: $rsp 96 +
STACK CFI 57b03 .cfa: $rsp 104 +
STACK CFI 57b05 .cfa: $rsp 112 +
STACK CFI 57b07 .cfa: $rsp 120 +
STACK CFI 57b09 .cfa: $rsp 128 +
STACK CFI 57b10 .cfa: $rsp 136 +
STACK CFI 57b17 .cfa: $rsp 144 +
STACK CFI 57b23 .cfa: $rsp 8 +
STACK CFI INIT 57b24 39 .cfa: $rsp 8 + .ra: .cfa -8 + ^
STACK CFI 57b28 .cfa: $rsp 24 +
STACK CFI 57b2a .cfa: $rsp 32 +
STACK CFI 57b2c .cfa: $rsp 40 +
STACK CFI 57b2e .cfa: $rsp 48 +
STACK CFI 57b30 .cfa: $rsp 56 +
STACK CFI 57b32 .cfa: $rsp 64 +
STACK CFI 57b34 .cfa: $rsp 72 +
STACK CFI 57b36 .cfa: $rsp 80 +
STACK CFI 57b38 .cfa: $rsp 88 +
STACK CFI 57b3a .cfa: $rsp 96 +
STACK CFI 57b3c .cfa: $rsp 104 +
STACK CFI 57b3e .cfa: $rsp 112 +
STACK CFI 57b40 .cfa: $rsp 120 +
STACK CFI 57b42 .cfa: $rsp 128 +
STACK CFI 57b49 .cfa: $rsp 136 +
STACK CFI 57b50 .cfa: $rsp 144 +
STACK CFI 57b5c .cfa: $rsp 8 +
STACK CFI INIT 57b5d 39 .cfa: $rsp 8 + .ra: .cfa -8 + ^
STACK CFI 57b61 .cfa: $rsp 24 +
STACK CFI 57b63 .cfa: $rsp 32 +
STACK CFI 57b65 .cfa: $rsp 40 +
STACK CFI 57b67 .cfa: $rsp 48 +
STACK CFI 57b69 .cfa: $rsp 56 +
STACK CFI 57b6b .cfa: $rsp 64 +
STACK CFI 57b6d .cfa: $rsp 72 +
STACK CFI 57b6f .cfa: $rsp 80 +
STACK CFI 57b71 .cfa: $rsp 88 +
STACK CFI 57b73 .cfa: $rsp 96 +
STACK CFI 57b75 .cfa: $rsp 104 +
STACK CFI 57b77 .cfa: $rsp 112 +
STACK CFI 57b79 .cfa: $rsp 120 +
STACK CFI 57b7b .cfa: $rsp 128 +
STACK CFI 57b82 .cfa: $rsp 136 +
STACK CFI 57b89 .cfa: $rsp 144 +
STACK CFI 57b95 .cfa: $rsp 8 +
STACK CFI INIT 57b96 39 .cfa: $rsp 8 + .ra: .cfa -8 + ^
STACK CFI 57b9a .cfa: $rsp 24 +
STACK CFI 57b9c .cfa: $rsp 32 +
STACK CFI 57b9e .cfa: $rsp 40 +
STACK CFI 57ba0 .cfa: $rsp 48 +
STACK CFI 57ba2 .cfa: $rsp 56 +
STACK CFI 57ba4 .cfa: $rsp 64 +
STACK CFI 57ba6 .cfa: $rsp 72 +
STACK CFI 57ba8 .cfa: $rsp 80 +
STACK CFI 57baa .cfa: $rsp 88 +
STACK CFI 57bac .cfa: $rsp 96 +
STACK CFI 57bae .cfa: $rsp 104 +
STACK CFI 57bb0 .cfa: $rsp 112 +
STACK CFI 57bb2 .cfa: $rsp 120 +
STACK CFI 57bb4 .cfa: $rsp 128 +
STACK CFI 57bbb .cfa: $rsp 136 +
STACK CFI 57bc2 .cfa: $rsp 144 +
STACK CFI 57bce .cfa: $rsp 8 +
STACK CFI INIT 57bcf 39 .cfa: $rsp 8 + .ra: .cfa -8 + ^
STACK CFI 57bd3 .cfa: $rsp 24 +
STACK CFI 57bd5 .cfa: $rsp 32 +
STACK CFI 57bd7 .cfa: $rsp 40 +
STACK CFI 57bd9 .cfa: $rsp 48 +
STACK CFI 57bdb .cfa: $rsp 56 +
STACK CFI 57bdd .cfa: $rsp 64 +
STACK CFI 57bdf .cfa: $rsp 72 +
STACK CFI 57be1 .cfa: $rsp 80 +
STACK CFI 57be3 .cfa: $rsp 88 +
STACK CFI 57be5 .cfa: $rsp 96 +
STACK CFI 57be7 .cfa: $rsp 104 +
STACK CFI 57be9 .cfa: $rsp 112 +
STACK CFI 57beb .cfa: $rsp 120 +
STACK CFI 57bed .cfa: $rsp 128 +
STACK CFI 57bf4 .cfa: $rsp 136 +
STACK CFI 57bfb .cfa: $rsp 144 +
STACK CFI 57c07 .cfa: $rsp 8 +
STACK CFI INIT 57c08 39 .cfa: $rsp 8 + .ra: .cfa -8 + ^
STACK CFI 57c0c .cfa: $rsp 24 +
STACK CFI 57c0e .cfa: $rsp 32 +
STACK CFI 57c10 .cfa: $rsp 40 +
STACK CFI 57c12 .cfa: $rsp 48 +
STACK CFI 57c14 .cfa: $rsp 56 +
STACK CFI 57c16 .cfa: $rsp 64 +
STACK CFI 57c18 .cfa: $rsp 72 +
STACK CFI 57c1a .cfa: $rsp 80 +
STACK CFI 57c1c .cfa: $rsp 88 +
STACK CFI 57c1e .cfa: $rsp 96 +
STACK CFI 57c20 .cfa: $rsp 104 +
STACK CFI 57c22 .cfa: $rsp 112 +
STACK CFI 57c24 .cfa: $rsp 120 +
STACK CFI 57c26 .cfa: $rsp 128 +
STACK CFI 57c2d .cfa: $rsp 136 +
STACK CFI 57c34 .cfa: $rsp 144 +
STACK CFI 57c40 .cfa: $rsp 8 +
STACK CFI INIT 57c41 39 .cfa: $rsp 8 + .ra: .cfa -8 + ^
STACK CFI 57c45 .cfa: $rsp 24 +
STACK CFI 57c47 .cfa: $rsp 32 +
STACK CFI 57c49 .cfa: $rsp 40 +
STACK CFI 57c4b .cfa: $rsp 48 +
STACK CFI 57c4d .cfa: $rsp 56 +
STACK CFI 57c4f .cfa: $rsp 64 +
STACK CFI 57c51 .cfa: $rsp 72 +
STACK CFI 57c53 .cfa: $rsp 80 +
STACK CFI 57c55 .cfa: $rsp 88 +
STACK CFI 57c57 .cfa: $rsp 96 +
STACK CFI 57c59 .cfa: $rsp 104 +
STACK CFI 57c5b .cfa: $rsp 112 +
STACK CFI 57c5d .cfa: $rsp 120 +
STACK CFI 57c5f .cfa: $rsp 128 +
STACK CFI 57c66 .cfa: $rsp 136 +
STACK CFI 57c6d .cfa: $rsp 144 +
STACK CFI 57c79 .cfa: $rsp 8 +
STACK CFI INIT 57c7a 39 .cfa: $rsp 8 + .ra: .cfa -8 + ^
STACK CFI 57c7e .cfa: $rsp 24 +
STACK CFI 57c80 .cfa: $rsp 32 +
STACK CFI 57c82 .cfa: $rsp 40 +
STACK CFI 57c84 .cfa: $rsp 48 +
STACK CFI 57c86 .cfa: $rsp 56 +
STACK CFI 57c88 .cfa: $rsp 64 +
STACK CFI 57c8a .cfa: $rsp 72 +
STACK CFI 57c8c .cfa: $rsp 80 +
STACK CFI 57c8e .cfa: $rsp 88 +
STACK CFI 57c90 .cfa: $rsp 96 +
STACK CFI 57c92 .cfa: $rsp 104 +
STACK CFI 57c94 .cfa: $rsp 112 +
STACK CFI 57c96 .cfa: $rsp 120 +
STACK CFI 57c98 .cfa: $rsp 128 +
STACK CFI 57c9f .cfa: $rsp 136 +
STACK CFI 57ca6 .cfa: $rsp 144 +
STACK CFI 57cb2 .cfa: $rsp 8 +
STACK CFI INIT 57cb3 39 .cfa: $rsp 8 + .ra: .cfa -8 + ^
STACK CFI 57cb7 .cfa: $rsp 24 +
STACK CFI 57cb9 .cfa: $rsp 32 +
STACK CFI 57cbb .cfa: $rsp 40 +
STACK CFI 57cbd .cfa: $rsp 48 +
STACK CFI 57cbf .cfa: $rsp 56 +
STACK CFI 57cc1 .cfa: $rsp 64 +
STACK CFI 57cc3 .cfa: $rsp 72 +
STACK CFI 57cc5 .cfa: $rsp 80 +
STACK CFI 57cc7 .cfa: $rsp 88 +
STACK CFI 57cc9 .cfa: $rsp 96 +
STACK CFI 57ccb .cfa: $rsp 104 +
STACK CFI 57ccd .cfa: $rsp 112 +
STACK CFI 57ccf .cfa: $rsp 120 +
STACK CFI 57cd1 .cfa: $rsp 128 +
STACK CFI 57cd8 .cfa: $rsp 136 +
STACK CFI 57cdf .cfa: $rsp 144 +
STACK CFI 57ceb .cfa: $rsp 8 +
STACK CFI INIT 57cec 39 .cfa: $rsp 8 + .ra: .cfa -8 + ^
STACK CFI 57cf0 .cfa: $rsp 24 +
STACK CFI 57cf2 .cfa: $rsp 32 +
STACK CFI 57cf4 .cfa: $rsp 40 +
STACK CFI 57cf6 .cfa: $rsp 48 +
STACK CFI 57cf8 .cfa: $rsp 56 +
STACK CFI 57cfa .cfa: $rsp 64 +
STACK CFI 57cfc .cfa: $rsp 72 +
STACK CFI 57cfe .cfa: $rsp 80 +
STACK CFI 57d00 .cfa: $rsp 88 +
STACK CFI 57d02 .cfa: $rsp 96 +
STACK CFI 57d04 .cfa: $rsp 104 +
STACK CFI 57d06 .cfa: $rsp 112 +
STACK CFI 57d08 .cfa: $rsp 120 +
STACK CFI 57d0a .cfa: $rsp 128 +
STACK CFI 57d11 .cfa: $rsp 136 +
STACK CFI 57d18 .cfa: $rsp 144 +
STACK CFI 57d24 .cfa: $rsp 8 +
STACK CFI INIT 57d25 39 .cfa: $rsp 8 + .ra: .cfa -8 + ^
STACK CFI 57d29 .cfa: $rsp 24 +
STACK CFI 57d2b .cfa: $rsp 32 +
STACK CFI 57d2d .cfa: $rsp 40 +
STACK CFI 57d2f .cfa: $rsp 48 +
STACK CFI 57d31 .cfa: $rsp 56 +
STACK CFI 57d33 .cfa: $rsp 64 +
STACK CFI 57d35 .cfa: $rsp 72 +
STACK CFI 57d37 .cfa: $rsp 80 +
STACK CFI 57d39 .cfa: $rsp 88 +
STACK CFI 57d3b .cfa: $rsp 96 +
STACK CFI 57d3d .cfa: $rsp 104 +
STACK CFI 57d3f .cfa: $rsp 112 +
STACK CFI 57d41 .cfa: $rsp 120 +
STACK CFI 57d43 .cfa: $rsp 128 +
STACK CFI 57d4a .cfa: $rsp 136 +
STACK CFI 57d51 .cfa: $rsp 144 +
STACK CFI 57d5d .cfa: $rsp 8 +
STACK CFI INIT 57d5e 39 .cfa: $rsp 8 + .ra: .cfa -8 + ^
STACK CFI 57d62 .cfa: $rsp 24 +
STACK CFI 57d64 .cfa: $rsp 32 +
STACK CFI 57d66 .cfa: $rsp 40 +
STACK CFI 57d68 .cfa: $rsp 48 +
STACK CFI 57d6a .cfa: $rsp 56 +
STACK CFI 57d6c .cfa: $rsp 64 +
STACK CFI 57d6e .cfa: $rsp 72 +
STACK CFI 57d70 .cfa: $rsp 80 +
STACK CFI 57d72 .cfa: $rsp 88 +
STACK CFI 57d74 .cfa: $rsp 96 +
STACK CFI 57d76 .cfa: $rsp 104 +
STACK CFI 57d78 .cfa: $rsp 112 +
STACK CFI 57d7a .cfa: $rsp 120 +
STACK CFI 57d7c .cfa: $rsp 128 +
STACK CFI 57d83 .cfa: $rsp 136 +
STACK CFI 57d8a .cfa: $rsp 144 +
STACK CFI 57d96 .cfa: $rsp 8 +
STACK CFI INIT 57d97 39 .cfa: $rsp 8 + .ra: .cfa -8 + ^
STACK CFI 57d9b .cfa: $rsp 24 +
STACK CFI 57d9d .cfa: $rsp 32 +
STACK CFI 57d9f .cfa: $rsp 40 +
STACK CFI 57da1 .cfa: $rsp 48 +
STACK CFI 57da3 .cfa: $rsp 56 +
STACK CFI 57da5 .cfa: $rsp 64 +
STACK CFI 57da7 .cfa: $rsp 72 +
STACK CFI 57da9 .cfa: $rsp 80 +
STACK CFI 57dab .cfa: $rsp 88 +
STACK CFI 57dad .cfa: $rsp 96 +
STACK CFI 57daf .cfa: $rsp 104 +
STACK CFI 57db1 .cfa: $rsp 112 +
STACK CFI 57db3 .cfa: $rsp 120 +
STACK CFI 57db5 .cfa: $rsp 128 +
STACK CFI 57dbc .cfa: $rsp 136 +
STACK CFI 57dc3 .cfa: $rsp 144 +
STACK CFI 57dcf .cfa: $rsp 8 +
STACK CFI INIT 57dd0 39 .cfa: $rsp 8 + .ra: .cfa -8 + ^
STACK CFI 57dd4 .cfa: $rsp 24 +
STACK CFI 57dd6 .cfa: $rsp 32 +
STACK CFI 57dd8 .cfa: $rsp 40 +
STACK CFI 57dda .cfa: $rsp 48 +
STACK CFI 57ddc .cfa: $rsp 56 +
STACK CFI 57dde .cfa: $rsp 64 +
STACK CFI 57de0 .cfa: $rsp 72 +
STACK CFI 57de2 .cfa: $rsp 80 +
STACK CFI 57de4 .cfa: $rsp 88 +
STACK CFI 57de6 .cfa: $rsp 96 +
STACK CFI 57de8 .cfa: $rsp 104 +
STACK CFI 57dea .cfa: $rsp 112 +
STACK CFI 57dec .cfa: $rsp 120 +
STACK CFI 57dee .cfa: $rsp 128 +
STACK CFI 57df5 .cfa: $rsp 136 +
STACK CFI 57dfc .cfa: $rsp 144 +
STACK CFI 57e08 .cfa: $rsp 8 +
STACK CFI INIT 57e09 39 .cfa: $rsp 8 + .ra: .cfa -8 + ^
STACK CFI 57e0d .cfa: $rsp 24 +
STACK CFI 57e0f .cfa: $rsp 32 +
STACK CFI 57e11 .cfa: $rsp 40 +
STACK CFI 57e13 .cfa: $rsp 48 +
STACK CFI 57e15 .cfa: $rsp 56 +
STACK CFI 57e17 .cfa: $rsp 64 +
STACK CFI 57e19 .cfa: $rsp 72 +
STACK CFI 57e1b .cfa: $rsp 80 +
STACK CFI 57e1d .cfa: $rsp 88 +
STACK CFI 57e1f .cfa: $rsp 96 +
STACK CFI 57e21 .cfa: $rsp 104 +
STACK CFI 57e23 .cfa: $rsp 112 +
STACK CFI 57e25 .cfa: $rsp 120 +
STACK CFI 57e27 .cfa: $rsp 128 +
STACK CFI 57e2e .cfa: $rsp 136 +
STACK CFI 57e35 .cfa: $rsp 144 +
STACK CFI 57e41 .cfa: $rsp 8 +
STACK CFI INIT 57e42 39 .cfa: $rsp 8 + .ra: .cfa -8 + ^
STACK CFI 57e46 .cfa: $rsp 24 +
STACK CFI 57e48 .cfa: $rsp 32 +
STACK CFI 57e4a .cfa: $rsp 40 +
STACK CFI 57e4c .cfa: $rsp 48 +
STACK CFI 57e4e .cfa: $rsp 56 +
STACK CFI 57e50 .cfa: $rsp 64 +
STACK CFI 57e52 .cfa: $rsp 72 +
STACK CFI 57e54 .cfa: $rsp 80 +
STACK CFI 57e56 .cfa: $rsp 88 +
STACK CFI 57e58 .cfa: $rsp 96 +
STACK CFI 57e5a .cfa: $rsp 104 +
STACK CFI 57e5c .cfa: $rsp 112 +
STACK CFI 57e5e .cfa: $rsp 120 +
STACK CFI 57e60 .cfa: $rsp 128 +
STACK CFI 57e67 .cfa: $rsp 136 +
STACK CFI 57e6e .cfa: $rsp 144 +
STACK CFI 57e7a .cfa: $rsp 8 +
STACK CFI INIT 57e7b 39 .cfa: $rsp 8 + .ra: .cfa -8 + ^
STACK CFI 57e7f .cfa: $rsp 24 +
STACK CFI 57e81 .cfa: $rsp 32 +
STACK CFI 57e83 .cfa: $rsp 40 +
STACK CFI 57e85 .cfa: $rsp 48 +
STACK CFI 57e87 .cfa: $rsp 56 +
STACK CFI 57e89 .cfa: $rsp 64 +
STACK CFI 57e8b .cfa: $rsp 72 +
STACK CFI 57e8d .cfa: $rsp 80 +
STACK CFI 57e8f .cfa: $rsp 88 +
STACK CFI 57e91 .cfa: $rsp 96 +
STACK CFI 57e93 .cfa: $rsp 104 +
STACK CFI 57e95 .cfa: $rsp 112 +
STACK CFI 57e97 .cfa: $rsp 120 +
STACK CFI 57e99 .cfa: $rsp 128 +
STACK CFI 57ea0 .cfa: $rsp 136 +
STACK CFI 57ea7 .cfa: $rsp 144 +
STACK CFI 57eb3 .cfa: $rsp 8 +
STACK CFI INIT 57eb4 39 .cfa: $rsp 8 + .ra: .cfa -8 + ^
STACK CFI 57eb8 .cfa: $rsp 24 +
STACK CFI 57eba .cfa: $rsp 32 +
STACK CFI 57ebc .cfa: $rsp 40 +
STACK CFI 57ebe .cfa: $rsp 48 +
STACK CFI 57ec0 .cfa: $rsp 56 +
STACK CFI 57ec2 .cfa: $rsp 64 +
STACK CFI 57ec4 .cfa: $rsp 72 +
STACK CFI 57ec6 .cfa: $rsp 80 +
STACK CFI 57ec8 .cfa: $rsp 88 +
STACK CFI 57eca .cfa: $rsp 96 +
STACK CFI 57ecc .cfa: $rsp 104 +
STACK CFI 57ece .cfa: $rsp 112 +
STACK CFI 57ed0 .cfa: $rsp 120 +
STACK CFI 57ed2 .cfa: $rsp 128 +
STACK CFI 57ed9 .cfa: $rsp 136 +
STACK CFI 57ee0 .cfa: $rsp 144 +
STACK CFI 57eec .cfa: $rsp 8 +
STACK CFI INIT 57eed 39 .cfa: $rsp 8 + .ra: .cfa -8 + ^
STACK CFI 57ef1 .cfa: $rsp 24 +
STACK CFI 57ef3 .cfa: $rsp 32 +
STACK CFI 57ef5 .cfa: $rsp 40 +
STACK CFI 57ef7 .cfa: $rsp 48 +
STACK CFI 57ef9 .cfa: $rsp 56 +
STACK CFI 57efb .cfa: $rsp 64 +
STACK CFI 57efd .cfa: $rsp 72 +
STACK CFI 57eff .cfa: $rsp 80 +
STACK CFI 57f01 .cfa: $rsp 88 +
STACK CFI 57f03 .cfa: $rsp 96 +
STACK CFI 57f05 .cfa: $rsp 104 +
STACK CFI 57f07 .cfa: $rsp 112 +
STACK CFI 57f09 .cfa: $rsp 120 +
STACK CFI 57f0b .cfa: $rsp 128 +
STACK CFI 57f12 .cfa: $rsp 136 +
STACK CFI 57f19 .cfa: $rsp 144 +
STACK CFI 57f25 .cfa: $rsp 8 +
STACK CFI INIT 57f26 39 .cfa: $rsp 8 + .ra: .cfa -8 + ^
STACK CFI 57f2a .cfa: $rsp 24 +
STACK CFI 57f2c .cfa: $rsp 32 +
STACK CFI 57f2e .cfa: $rsp 40 +
STACK CFI 57f30 .cfa: $rsp 48 +
STACK CFI 57f32 .cfa: $rsp 56 +
STACK CFI 57f34 .cfa: $rsp 64 +
STACK CFI 57f36 .cfa: $rsp 72 +
STACK CFI 57f38 .cfa: $rsp 80 +
STACK CFI 57f3a .cfa: $rsp 88 +
STACK CFI 57f3c .cfa: $rsp 96 +
STACK CFI 57f3e .cfa: $rsp 104 +
STACK CFI 57f40 .cfa: $rsp 112 +
STACK CFI 57f42 .cfa: $rsp 120 +
STACK CFI 57f44 .cfa: $rsp 128 +
STACK CFI 57f4b .cfa: $rsp 136 +
STACK CFI 57f52 .cfa: $rsp 144 +
STACK CFI 57f5e .cfa: $rsp 8 +
STACK CFI INIT 57f5f 39 .cfa: $rsp 8 + .ra: .cfa -8 + ^
STACK CFI 57f63 .cfa: $rsp 24 +
STACK CFI 57f65 .cfa: $rsp 32 +
STACK CFI 57f67 .cfa: $rsp 40 +
STACK CFI 57f69 .cfa: $rsp 48 +
STACK CFI 57f6b .cfa: $rsp 56 +
STACK CFI 57f6d .cfa: $rsp 64 +
STACK CFI 57f6f .cfa: $rsp 72 +
STACK CFI 57f71 .cfa: $rsp 80 +
STACK CFI 57f73 .cfa: $rsp 88 +
STACK CFI 57f75 .cfa: $rsp 96 +
STACK CFI 57f77 .cfa: $rsp 104 +
STACK CFI 57f79 .cfa: $rsp 112 +
STACK CFI 57f7b .cfa: $rsp 120 +
STACK CFI 57f7d .cfa: $rsp 128 +
STACK CFI 57f84 .cfa: $rsp 136 +
STACK CFI 57f8b .cfa: $rsp 144 +
STACK CFI 57f97 .cfa: $rsp 8 +
STACK CFI INIT 57f98 39 .cfa: $rsp 8 + .ra: .cfa -8 + ^
STACK CFI 57f9c .cfa: $rsp 24 +
STACK CFI 57f9e .cfa: $rsp 32 +
STACK CFI 57fa0 .cfa: $rsp 40 +
STACK CFI 57fa2 .cfa: $rsp 48 +
STACK CFI 57fa4 .cfa: $rsp 56 +
STACK CFI 57fa6 .cfa: $rsp 64 +
STACK CFI 57fa8 .cfa: $rsp 72 +
STACK CFI 57faa .cfa: $rsp 80 +
STACK CFI 57fac .cfa: $rsp 88 +
STACK CFI 57fae .cfa: $rsp 96 +
STACK CFI 57fb0 .cfa: $rsp 104 +
STACK CFI 57fb2 .cfa: $rsp 112 +
STACK CFI 57fb4 .cfa: $rsp 120 +
STACK CFI 57fb6 .cfa: $rsp 128 +
STACK CFI 57fbd .cfa: $rsp 136 +
STACK CFI 57fc4 .cfa: $rsp 144 +
STACK CFI 57fd0 .cfa: $rsp 8 +
STACK CFI INIT 57fd1 39 .cfa: $rsp 8 + .ra: .cfa -8 + ^
STACK CFI 57fd5 .cfa: $rsp 24 +
STACK CFI 57fd7 .cfa: $rsp 32 +
STACK CFI 57fd9 .cfa: $rsp 40 +
STACK CFI 57fdb .cfa: $rsp 48 +
STACK CFI 57fdd .cfa: $rsp 56 +
STACK CFI 57fdf .cfa: $rsp 64 +
STACK CFI 57fe1 .cfa: $rsp 72 +
STACK CFI 57fe3 .cfa: $rsp 80 +
STACK CFI 57fe5 .cfa: $rsp 88 +
STACK CFI 57fe7 .cfa: $rsp 96 +
STACK CFI 57fe9 .cfa: $rsp 104 +
STACK CFI 57feb .cfa: $rsp 112 +
STACK CFI 57fed .cfa: $rsp 120 +
STACK CFI 57fef .cfa: $rsp 128 +
STACK CFI 57ff6 .cfa: $rsp 136 +
STACK CFI 57ffd .cfa: $rsp 144 +
STACK CFI 58009 .cfa: $rsp 8 +
STACK CFI INIT 5800a 39 .cfa: $rsp 8 + .ra: .cfa -8 + ^
STACK CFI 5800e .cfa: $rsp 24 +
STACK CFI 58010 .cfa: $rsp 32 +
STACK CFI 58012 .cfa: $rsp 40 +
STACK CFI 58014 .cfa: $rsp 48 +
STACK CFI 58016 .cfa: $rsp 56 +
STACK CFI 58018 .cfa: $rsp 64 +
STACK CFI 5801a .cfa: $rsp 72 +
STACK CFI 5801c .cfa: $rsp 80 +
STACK CFI 5801e .cfa: $rsp 88 +
STACK CFI 58020 .cfa: $rsp 96 +
STACK CFI 58022 .cfa: $rsp 104 +
STACK CFI 58024 .cfa: $rsp 112 +
STACK CFI 58026 .cfa: $rsp 120 +
STACK CFI 58028 .cfa: $rsp 128 +
STACK CFI 5802f .cfa: $rsp 136 +
STACK CFI 58036 .cfa: $rsp 144 +
STACK CFI 58042 .cfa: $rsp 8 +
STACK CFI INIT 58043 39 .cfa: $rsp 8 + .ra: .cfa -8 + ^
STACK CFI 58047 .cfa: $rsp 24 +
STACK CFI 58049 .cfa: $rsp 32 +
STACK CFI 5804b .cfa: $rsp 40 +
STACK CFI 5804d .cfa: $rsp 48 +
STACK CFI 5804f .cfa: $rsp 56 +
STACK CFI 58051 .cfa: $rsp 64 +
STACK CFI 58053 .cfa: $rsp 72 +
STACK CFI 58055 .cfa: $rsp 80 +
STACK CFI 58057 .cfa: $rsp 88 +
STACK CFI 58059 .cfa: $rsp 96 +
STACK CFI 5805b .cfa: $rsp 104 +
STACK CFI 5805d .cfa: $rsp 112 +
STACK CFI 5805f .cfa: $rsp 120 +
STACK CFI 58061 .cfa: $rsp 128 +
STACK CFI 58068 .cfa: $rsp 136 +
STACK CFI 5806f .cfa: $rsp 144 +
STACK CFI 5807b .cfa: $rsp 8 +
STACK CFI INIT 5807c 39 .cfa: $rsp 8 + .ra: .cfa -8 + ^
STACK CFI 58080 .cfa: $rsp 24 +
STACK CFI 58082 .cfa: $rsp 32 +
STACK CFI 58084 .cfa: $rsp 40 +
STACK CFI 58086 .cfa: $rsp 48 +
STACK CFI 58088 .cfa: $rsp 56 +
STACK CFI 5808a .cfa: $rsp 64 +
STACK CFI 5808c .cfa: $rsp 72 +
STACK CFI 5808e .cfa: $rsp 80 +
STACK CFI 58090 .cfa: $rsp 88 +
STACK CFI 58092 .cfa: $rsp 96 +
STACK CFI 58094 .cfa: $rsp 104 +
STACK CFI 58096 .cfa: $rsp 112 +
STACK CFI 58098 .cfa: $rsp 120 +
STACK CFI 5809a .cfa: $rsp 128 +
STACK CFI 580a1 .cfa: $rsp 136 +
STACK CFI 580a8 .cfa: $rsp 144 +
STACK CFI 580b4 .cfa: $rsp 8 +
STACK CFI INIT 580b5 39 .cfa: $rsp 8 + .ra: .cfa -8 + ^
STACK CFI 580b9 .cfa: $rsp 24 +
STACK CFI 580bb .cfa: $rsp 32 +
STACK CFI 580bd .cfa: $rsp 40 +
STACK CFI 580bf .cfa: $rsp 48 +
STACK CFI 580c1 .cfa: $rsp 56 +
STACK CFI 580c3 .cfa: $rsp 64 +
STACK CFI 580c5 .cfa: $rsp 72 +
STACK CFI 580c7 .cfa: $rsp 80 +
STACK CFI 580c9 .cfa: $rsp 88 +
STACK CFI 580cb .cfa: $rsp 96 +
STACK CFI 580cd .cfa: $rsp 104 +
STACK CFI 580cf .cfa: $rsp 112 +
STACK CFI 580d1 .cfa: $rsp 120 +
STACK CFI 580d3 .cfa: $rsp 128 +
STACK CFI 580da .cfa: $rsp 136 +
STACK CFI 580e1 .cfa: $rsp 144 +
STACK CFI 580ed .cfa: $rsp 8 +
STACK CFI INIT 580ee 39 .cfa: $rsp 8 + .ra: .cfa -8 + ^
STACK CFI 580f2 .cfa: $rsp 24 +
STACK CFI 580f4 .cfa: $rsp 32 +
STACK CFI 580f6 .cfa: $rsp 40 +
STACK CFI 580f8 .cfa: $rsp 48 +
STACK CFI 580fa .cfa: $rsp 56 +
STACK CFI 580fc .cfa: $rsp 64 +
STACK CFI 580fe .cfa: $rsp 72 +
STACK CFI 58100 .cfa: $rsp 80 +
STACK CFI 58102 .cfa: $rsp 88 +
STACK CFI 58104 .cfa: $rsp 96 +
STACK CFI 58106 .cfa: $rsp 104 +
STACK CFI 58108 .cfa: $rsp 112 +
STACK CFI 5810a .cfa: $rsp 120 +
STACK CFI 5810c .cfa: $rsp 128 +
STACK CFI 58113 .cfa: $rsp 136 +
STACK CFI 5811a .cfa: $rsp 144 +
STACK CFI 58126 .cfa: $rsp 8 +
STACK CFI INIT 58127 39 .cfa: $rsp 8 + .ra: .cfa -8 + ^
STACK CFI 5812b .cfa: $rsp 24 +
STACK CFI 5812d .cfa: $rsp 32 +
STACK CFI 5812f .cfa: $rsp 40 +
STACK CFI 58131 .cfa: $rsp 48 +
STACK CFI 58133 .cfa: $rsp 56 +
STACK CFI 58135 .cfa: $rsp 64 +
STACK CFI 58137 .cfa: $rsp 72 +
STACK CFI 58139 .cfa: $rsp 80 +
STACK CFI 5813b .cfa: $rsp 88 +
STACK CFI 5813d .cfa: $rsp 96 +
STACK CFI 5813f .cfa: $rsp 104 +
STACK CFI 58141 .cfa: $rsp 112 +
STACK CFI 58143 .cfa: $rsp 120 +
STACK CFI 58145 .cfa: $rsp 128 +
STACK CFI 5814c .cfa: $rsp 136 +
STACK CFI 58153 .cfa: $rsp 144 +
STACK CFI 5815f .cfa: $rsp 8 +
STACK CFI INIT 58160 39 .cfa: $rsp 8 + .ra: .cfa -8 + ^
STACK CFI 58164 .cfa: $rsp 24 +
STACK CFI 58166 .cfa: $rsp 32 +
STACK CFI 58168 .cfa: $rsp 40 +
STACK CFI 5816a .cfa: $rsp 48 +
STACK CFI 5816c .cfa: $rsp 56 +
STACK CFI 5816e .cfa: $rsp 64 +
STACK CFI 58170 .cfa: $rsp 72 +
STACK CFI 58172 .cfa: $rsp 80 +
STACK CFI 58174 .cfa: $rsp 88 +
STACK CFI 58176 .cfa: $rsp 96 +
STACK CFI 58178 .cfa: $rsp 104 +
STACK CFI 5817a .cfa: $rsp 112 +
STACK CFI 5817c .cfa: $rsp 120 +
STACK CFI 5817e .cfa: $rsp 128 +
STACK CFI 58185 .cfa: $rsp 136 +
STACK CFI 5818c .cfa: $rsp 144 +
STACK CFI 58198 .cfa: $rsp 8 +
STACK CFI INIT 58199 39 .cfa: $rsp 8 + .ra: .cfa -8 + ^
STACK CFI 5819d .cfa: $rsp 24 +
STACK CFI 5819f .cfa: $rsp 32 +
STACK CFI 581a1 .cfa: $rsp 40 +
STACK CFI 581a3 .cfa: $rsp 48 +
STACK CFI 581a5 .cfa: $rsp 56 +
STACK CFI 581a7 .cfa: $rsp 64 +
STACK CFI 581a9 .cfa: $rsp 72 +
STACK CFI 581ab .cfa: $rsp 80 +
STACK CFI 581ad .cfa: $rsp 88 +
STACK CFI 581af .cfa: $rsp 96 +
STACK CFI 581b1 .cfa: $rsp 104 +
STACK CFI 581b3 .cfa: $rsp 112 +
STACK CFI 581b5 .cfa: $rsp 120 +
STACK CFI 581b7 .cfa: $rsp 128 +
STACK CFI 581be .cfa: $rsp 136 +
STACK CFI 581c5 .cfa: $rsp 144 +
STACK CFI 581d1 .cfa: $rsp 8 +
STACK CFI INIT 581d2 39 .cfa: $rsp 8 + .ra: .cfa -8 + ^
STACK CFI 581d6 .cfa: $rsp 24 +
STACK CFI 581d8 .cfa: $rsp 32 +
STACK CFI 581da .cfa: $rsp 40 +
STACK CFI 581dc .cfa: $rsp 48 +
STACK CFI 581de .cfa: $rsp 56 +
STACK CFI 581e0 .cfa: $rsp 64 +
STACK CFI 581e2 .cfa: $rsp 72 +
STACK CFI 581e4 .cfa: $rsp 80 +
STACK CFI 581e6 .cfa: $rsp 88 +
STACK CFI 581e8 .cfa: $rsp 96 +
STACK CFI 581ea .cfa: $rsp 104 +
STACK CFI 581ec .cfa: $rsp 112 +
STACK CFI 581ee .cfa: $rsp 120 +
STACK CFI 581f0 .cfa: $rsp 128 +
STACK CFI 581f7 .cfa: $rsp 136 +
STACK CFI 581fe .cfa: $rsp 144 +
STACK CFI 5820a .cfa: $rsp 8 +
STACK CFI INIT 5820b 39 .cfa: $rsp 8 + .ra: .cfa -8 + ^
STACK CFI 5820f .cfa: $rsp 24 +
STACK CFI 58211 .cfa: $rsp 32 +
STACK CFI 58213 .cfa: $rsp 40 +
STACK CFI 58215 .cfa: $rsp 48 +
STACK CFI 58217 .cfa: $rsp 56 +
STACK CFI 58219 .cfa: $rsp 64 +
STACK CFI 5821b .cfa: $rsp 72 +
STACK CFI 5821d .cfa: $rsp 80 +
STACK CFI 5821f .cfa: $rsp 88 +
STACK CFI 58221 .cfa: $rsp 96 +
STACK CFI 58223 .cfa: $rsp 104 +
STACK CFI 58225 .cfa: $rsp 112 +
STACK CFI 58227 .cfa: $rsp 120 +
STACK CFI 58229 .cfa: $rsp 128 +
STACK CFI 58230 .cfa: $rsp 136 +
STACK CFI 58237 .cfa: $rsp 144 +
STACK CFI 58243 .cfa: $rsp 8 +
STACK CFI INIT 58244 39 .cfa: $rsp 8 + .ra: .cfa -8 + ^
STACK CFI 58248 .cfa: $rsp 24 +
STACK CFI 5824a .cfa: $rsp 32 +
STACK CFI 5824c .cfa: $rsp 40 +
STACK CFI 5824e .cfa: $rsp 48 +
STACK CFI 58250 .cfa: $rsp 56 +
STACK CFI 58252 .cfa: $rsp 64 +
STACK CFI 58254 .cfa: $rsp 72 +
STACK CFI 58256 .cfa: $rsp 80 +
STACK CFI 58258 .cfa: $rsp 88 +
STACK CFI 5825a .cfa: $rsp 96 +
STACK CFI 5825c .cfa: $rsp 104 +
STACK CFI 5825e .cfa: $rsp 112 +
STACK CFI 58260 .cfa: $rsp 120 +
STACK CFI 58262 .cfa: $rsp 128 +
STACK CFI 58269 .cfa: $rsp 136 +
STACK CFI 58270 .cfa: $rsp 144 +
STACK CFI 5827c .cfa: $rsp 8 +
STACK CFI INIT 5827d 39 .cfa: $rsp 8 + .ra: .cfa -8 + ^
STACK CFI 58281 .cfa: $rsp 24 +
STACK CFI 58283 .cfa: $rsp 32 +
STACK CFI 58285 .cfa: $rsp 40 +
STACK CFI 58287 .cfa: $rsp 48 +
STACK CFI 58289 .cfa: $rsp 56 +
STACK CFI 5828b .cfa: $rsp 64 +
STACK CFI 5828d .cfa: $rsp 72 +
STACK CFI 5828f .cfa: $rsp 80 +
STACK CFI 58291 .cfa: $rsp 88 +
STACK CFI 58293 .cfa: $rsp 96 +
STACK CFI 58295 .cfa: $rsp 104 +
STACK CFI 58297 .cfa: $rsp 112 +
STACK CFI 58299 .cfa: $rsp 120 +
STACK CFI 5829b .cfa: $rsp 128 +
STACK CFI 582a2 .cfa: $rsp 136 +
STACK CFI 582a9 .cfa: $rsp 144 +
STACK CFI 582b5 .cfa: $rsp 8 +
STACK CFI INIT 582b6 39 .cfa: $rsp 8 + .ra: .cfa -8 + ^
STACK CFI 582ba .cfa: $rsp 24 +
STACK CFI 582bc .cfa: $rsp 32 +
STACK CFI 582be .cfa: $rsp 40 +
STACK CFI 582c0 .cfa: $rsp 48 +
STACK CFI 582c2 .cfa: $rsp 56 +
STACK CFI 582c4 .cfa: $rsp 64 +
STACK CFI 582c6 .cfa: $rsp 72 +
STACK CFI 582c8 .cfa: $rsp 80 +
STACK CFI 582ca .cfa: $rsp 88 +
STACK CFI 582cc .cfa: $rsp 96 +
STACK CFI 582ce .cfa: $rsp 104 +
STACK CFI 582d0 .cfa: $rsp 112 +
STACK CFI 582d2 .cfa: $rsp 120 +
STACK CFI 582d4 .cfa: $rsp 128 +
STACK CFI 582db .cfa: $rsp 136 +
STACK CFI 582e2 .cfa: $rsp 144 +
STACK CFI 582ee .cfa: $rsp 8 +
STACK CFI INIT 582ef 39 .cfa: $rsp 8 + .ra: .cfa -8 + ^
STACK CFI 582f3 .cfa: $rsp 24 +
STACK CFI 582f5 .cfa: $rsp 32 +
STACK CFI 582f7 .cfa: $rsp 40 +
STACK CFI 582f9 .cfa: $rsp 48 +
STACK CFI 582fb .cfa: $rsp 56 +
STACK CFI 582fd .cfa: $rsp 64 +
STACK CFI 582ff .cfa: $rsp 72 +
STACK CFI 58301 .cfa: $rsp 80 +
STACK CFI 58303 .cfa: $rsp 88 +
STACK CFI 58305 .cfa: $rsp 96 +
STACK CFI 58307 .cfa: $rsp 104 +
STACK CFI 58309 .cfa: $rsp 112 +
STACK CFI 5830b .cfa: $rsp 120 +
STACK CFI 5830d .cfa: $rsp 128 +
STACK CFI 58314 .cfa: $rsp 136 +
STACK CFI 5831b .cfa: $rsp 144 +
STACK CFI 58327 .cfa: $rsp 8 +
STACK CFI INIT 58328 39 .cfa: $rsp 8 + .ra: .cfa -8 + ^
STACK CFI 5832c .cfa: $rsp 24 +
STACK CFI 5832e .cfa: $rsp 32 +
STACK CFI 58330 .cfa: $rsp 40 +
STACK CFI 58332 .cfa: $rsp 48 +
STACK CFI 58334 .cfa: $rsp 56 +
STACK CFI 58336 .cfa: $rsp 64 +
STACK CFI 58338 .cfa: $rsp 72 +
STACK CFI 5833a .cfa: $rsp 80 +
STACK CFI 5833c .cfa: $rsp 88 +
STACK CFI 5833e .cfa: $rsp 96 +
STACK CFI 58340 .cfa: $rsp 104 +
STACK CFI 58342 .cfa: $rsp 112 +
STACK CFI 58344 .cfa: $rsp 120 +
STACK CFI 58346 .cfa: $rsp 128 +
STACK CFI 5834d .cfa: $rsp 136 +
STACK CFI 58354 .cfa: $rsp 144 +
STACK CFI 58360 .cfa: $rsp 8 +
STACK CFI INIT 58361 39 .cfa: $rsp 8 + .ra: .cfa -8 + ^
STACK CFI 58365 .cfa: $rsp 24 +
STACK CFI 58367 .cfa: $rsp 32 +
STACK CFI 58369 .cfa: $rsp 40 +
STACK CFI 5836b .cfa: $rsp 48 +
STACK CFI 5836d .cfa: $rsp 56 +
STACK CFI 5836f .cfa: $rsp 64 +
STACK CFI 58371 .cfa: $rsp 72 +
STACK CFI 58373 .cfa: $rsp 80 +
STACK CFI 58375 .cfa: $rsp 88 +
STACK CFI 58377 .cfa: $rsp 96 +
STACK CFI 58379 .cfa: $rsp 104 +
STACK CFI 5837b .cfa: $rsp 112 +
STACK CFI 5837d .cfa: $rsp 120 +
STACK CFI 5837f .cfa: $rsp 128 +
STACK CFI 58386 .cfa: $rsp 136 +
STACK CFI 5838d .cfa: $rsp 144 +
STACK CFI 58399 .cfa: $rsp 8 +
STACK CFI INIT 5839a 39 .cfa: $rsp 8 + .ra: .cfa -8 + ^
STACK CFI 5839e .cfa: $rsp 24 +
STACK CFI 583a0 .cfa: $rsp 32 +
STACK CFI 583a2 .cfa: $rsp 40 +
STACK CFI 583a4 .cfa: $rsp 48 +
STACK CFI 583a6 .cfa: $rsp 56 +
STACK CFI 583a8 .cfa: $rsp 64 +
STACK CFI 583aa .cfa: $rsp 72 +
STACK CFI 583ac .cfa: $rsp 80 +
STACK CFI 583ae .cfa: $rsp 88 +
STACK CFI 583b0 .cfa: $rsp 96 +
STACK CFI 583b2 .cfa: $rsp 104 +
STACK CFI 583b4 .cfa: $rsp 112 +
STACK CFI 583b6 .cfa: $rsp 120 +
STACK CFI 583b8 .cfa: $rsp 128 +
STACK CFI 583bf .cfa: $rsp 136 +
STACK CFI 583c6 .cfa: $rsp 144 +
STACK CFI 583d2 .cfa: $rsp 8 +
STACK CFI INIT 583d3 39 .cfa: $rsp 8 + .ra: .cfa -8 + ^
STACK CFI 583d7 .cfa: $rsp 24 +
STACK CFI 583d9 .cfa: $rsp 32 +
STACK CFI 583db .cfa: $rsp 40 +
STACK CFI 583dd .cfa: $rsp 48 +
STACK CFI 583df .cfa: $rsp 56 +
STACK CFI 583e1 .cfa: $rsp 64 +
STACK CFI 583e3 .cfa: $rsp 72 +
STACK CFI 583e5 .cfa: $rsp 80 +
STACK CFI 583e7 .cfa: $rsp 88 +
STACK CFI 583e9 .cfa: $rsp 96 +
STACK CFI 583eb .cfa: $rsp 104 +
STACK CFI 583ed .cfa: $rsp 112 +
STACK CFI 583ef .cfa: $rsp 120 +
STACK CFI 583f1 .cfa: $rsp 128 +
STACK CFI 583f8 .cfa: $rsp 136 +
STACK CFI 583ff .cfa: $rsp 144 +
STACK CFI 5840b .cfa: $rsp 8 +
STACK CFI INIT 5840c 39 .cfa: $rsp 8 + .ra: .cfa -8 + ^
STACK CFI 58410 .cfa: $rsp 24 +
STACK CFI 58412 .cfa: $rsp 32 +
STACK CFI 58414 .cfa: $rsp 40 +
STACK CFI 58416 .cfa: $rsp 48 +
STACK CFI 58418 .cfa: $rsp 56 +
STACK CFI 5841a .cfa: $rsp 64 +
STACK CFI 5841c .cfa: $rsp 72 +
STACK CFI 5841e .cfa: $rsp 80 +
STACK CFI 58420 .cfa: $rsp 88 +
STACK CFI 58422 .cfa: $rsp 96 +
STACK CFI 58424 .cfa: $rsp 104 +
STACK CFI 58426 .cfa: $rsp 112 +
STACK CFI 58428 .cfa: $rsp 120 +
STACK CFI 5842a .cfa: $rsp 128 +
STACK CFI 58431 .cfa: $rsp 136 +
STACK CFI 58438 .cfa: $rsp 144 +
STACK CFI 58444 .cfa: $rsp 8 +
STACK CFI INIT 58445 39 .cfa: $rsp 8 + .ra: .cfa -8 + ^
STACK CFI 58449 .cfa: $rsp 24 +
STACK CFI 5844b .cfa: $rsp 32 +
STACK CFI 5844d .cfa: $rsp 40 +
STACK CFI 5844f .cfa: $rsp 48 +
STACK CFI 58451 .cfa: $rsp 56 +
STACK CFI 58453 .cfa: $rsp 64 +
STACK CFI 58455 .cfa: $rsp 72 +
STACK CFI 58457 .cfa: $rsp 80 +
STACK CFI 58459 .cfa: $rsp 88 +
STACK CFI 5845b .cfa: $rsp 96 +
STACK CFI 5845d .cfa: $rsp 104 +
STACK CFI 5845f .cfa: $rsp 112 +
STACK CFI 58461 .cfa: $rsp 120 +
STACK CFI 58463 .cfa: $rsp 128 +
STACK CFI 5846a .cfa: $rsp 136 +
STACK CFI 58471 .cfa: $rsp 144 +
STACK CFI 5847d .cfa: $rsp 8 +
STACK CFI INIT 5847e 39 .cfa: $rsp 8 + .ra: .cfa -8 + ^
STACK CFI 58482 .cfa: $rsp 24 +
STACK CFI 58484 .cfa: $rsp 32 +
STACK CFI 58486 .cfa: $rsp 40 +
STACK CFI 58488 .cfa: $rsp 48 +
STACK CFI 5848a .cfa: $rsp 56 +
STACK CFI 5848c .cfa: $rsp 64 +
STACK CFI 5848e .cfa: $rsp 72 +
STACK CFI 58490 .cfa: $rsp 80 +
STACK CFI 58492 .cfa: $rsp 88 +
STACK CFI 58494 .cfa: $rsp 96 +
STACK CFI 58496 .cfa: $rsp 104 +
