MODULE Linux x86_64 8B0AC8409F1BF65ED193A92D13F2FD7F0 libsagegen.so.2.0
INFO CODE_ID 40C80A8B1B9F5EF6D193A92D13F2FD7FC3EFED5A
PUBLIC 1c000 0 _init
PUBLIC 1c9c0 0 (anonymous namespace)::recordSourceMapping(char*, char*) [clone .cold]
PUBLIC 1c9e6 0 (anonymous namespace)::getPrimTypeName(vst_s*, bool) [clone .cold]
PUBLIC 1ca58 0 Sage::getSignature[abi:cxx11](ssl_item_s const*) [clone .cold]
PUBLIC 1ca6e 0 Sage::getLcvName[abi:cxx11](ssl_item_s*, bool) [clone .cold]
PUBLIC 1ca8a 0 Sage::buildUnknownLcvName[abi:cxx11](ssl_item_s*, bool) [clone .cold]
PUBLIC 1cab8 0 (anonymous namespace)::logVlogObj(char const*, xst_s*, long*, std::__cxx11::basic_string<char, std::char_traits<char>, std::allocator<char> > const&) [clone .cold]
PUBLIC 1cb5e 0 (anonymous namespace)::recordHierNodeTypeSignals(ssl_item_s*, int) [clone .isra.0] [clone .cold]
PUBLIC 1cb6b 0 sagegen_ie_propagate_coercion.cold
PUBLIC 1cb78 0 (anonymous namespace)::getNodeTypeId(std::__cxx11::basic_string<char, std::char_traits<char>, std::allocator<char> > const&, bool*) [clone .cold]
PUBLIC 1cb8e 0 std::__detail::_Map_base<std::__cxx11::basic_string<char, std::char_traits<char>, std::allocator<char> >, std::pair<std::__cxx11::basic_string<char, std::char_traits<char>, std::allocator<char> > const, int>, std::allocator<std::pair<std::__cxx11::basic_string<char, std::char_traits<char>, std::allocator<char> > const, int> >, std::__detail::_Select1st, std::equal_to<std::__cxx11::basic_string<char, std::char_traits<char>, std::allocator<char> > >, std::hash<std::__cxx11::basic_string<char, std::char_traits<char>, std::allocator<char> > >, std::__detail::_Mod_range_hashing, std::__detail::_Default_ranged_hash, std::__detail::_Prime_rehash_policy, std::__detail::_Hashtable_traits<true, false, true>, true>::operator[](std::__cxx11::basic_string<char, std::char_traits<char>, std::allocator<char> > const&) [clone .constprop.0] [clone .cold]
PUBLIC 1cbb0 0 (anonymous namespace)::getPartitionId(long*) [clone .cold]
PUBLIC 1cbc6 0 (anonymous namespace)::getHierParent(int, ssl_item_s*, ssl_item_s const*, int*, std::__cxx11::basic_string<char, std::char_traits<char>, std::allocator<char> > const&) [clone .isra.0] [clone .constprop.0] [clone .cold]
PUBLIC 1cbe7 0 sagegen_ie_get_partition_coercion.cold
PUBLIC 1cc3c 0 _GLOBAL__sub_I_sagegen.cc.cold
PUBLIC 1cdb8 0 sagegen_begin_shutdown.cold
PUBLIC 1cdca 0 sagegen_ie_stitch_pair.cold
PUBLIC 1cf1b 0 sagegen_top_instance.cold
PUBLIC 1cf87 0 sagegen_ie_connect_oopr.cold
PUBLIC 1d056 0 (anonymous namespace)::recordHierNodeType(ssl_item_s*, bool) [clone .cold]
PUBLIC 1d169 0 (anonymous namespace)::recordScope(xst_s*, long*, std::__cxx11::basic_string<char, std::char_traits<char>, std::allocator<char> > const&) [clone .constprop.0] [clone .cold]
PUBLIC 1d17b 0 (anonymous namespace)::processXstItems(ssl_item_s*, idaStatusCodeT, char*, char*, std::__cxx11::basic_string<char, std::char_traits<char>, std::allocator<char> > const&) [clone .constprop.0] [clone .cold]
PUBLIC 1d21f 0 (anonymous namespace)::traverseDesignCallback(ssl_item_s*) [clone .cold]
PUBLIC 1d23e 0 sagegen_wait_and_cleanup.cold
PUBLIC 1d29e 0 (anonymous namespace)::exitHandler(long*, int) [clone .cold]
PUBLIC 1d35e 0 (anonymous namespace)::sagegenGenerate(char*, char*, char*, char*, char*, char*, int, bool, bool, void*, void*) [clone .cold]
PUBLIC 1d592 0 Sage::Logger::Logger() [clone .cold]
PUBLIC 1d65a 0 (anonymous namespace)::dumpMsgStr(std::__cxx11::basic_string<char, std::char_traits<char>, std::allocator<char> > const&, google::protobuf::Message&) [clone .cold]
PUBLIC 1d675 0 (anonymous namespace)::send(google::protobuf::Message const&, bool) [clone .cold]
PUBLIC 1d695 0 (anonymous namespace)::send(google::protobuf::Message const&, bool) [clone .constprop.0] [clone .cold]
PUBLIC 1d6b5 0 (anonymous namespace)::recordHierDataMsg(hiertreeproto_v2::MessageType_Type) [clone .cold]
PUBLIC 1d6c9 0 (anonymous namespace)::recordTypeObjDataMsg(typeinfoproto_v2::TypeInfoMessageType_Type) [clone .cold]
PUBLIC 1d6dd 0 (anonymous namespace)::recordTypeObjDataMsgAndDumpMsg(std::__cxx11::basic_string<char, std::char_traits<char>, std::allocator<char> > const&, typeinfoproto_v2::TypeInfoMessageType_Type) [clone .cold]
PUBLIC 1d6f1 0 Sage::Proto::recordHegDataMsg(hegproto_v2::Data_Type) [clone .cold]
PUBLIC 1d705 0 Sage::Proto::finishType() [clone .cold]
PUBLIC 1d719 0 Sage::Proto::finishCompositeClass() [clone .cold]
PUBLIC 1d72f 0 Sage::Proto::finishCompositeQDA() [clone .cold]
PUBLIC 1d745 0 Sage::Proto::finishCompositeStaticArray() [clone .cold]
PUBLIC 1d75b 0 Sage::Proto::finishCompositeMDA() [clone .cold]
PUBLIC 1d771 0 Sage::Proto::finishCompositeField() [clone .cold]
PUBLIC 1d787 0 Sage::Proto::finishCompositeStruct() [clone .cold]
PUBLIC 1d79d 0 Sage::Proto::finishCompositeUnion() [clone .cold]
PUBLIC 1d7b3 0 Sage::Proto::finishCompositeEnum() [clone .cold]
PUBLIC 1d7c9 0 Sage::Proto::addStartValue() [clone .cold]
PUBLIC 1d7dd 0 Sage::Proto::addEndValue() [clone .cold]
PUBLIC 1d7f1 0 Sage::Proto::getByteStream(unsigned char*, unsigned long) [clone .cold]
PUBLIC 1d819 0 Sage::Proto::recordPathNode(Sage::Util::PathTree::Node const*, bool) [clone .cold]
PUBLIC 1d843 0 Sage::Proto::commInit(char const*, bool, bool) [clone .cold]
PUBLIC 1db6b 0 Sage::Proto::startHegMacroArg(int, hegproto_v2::MacroRef&) [clone .cold]
PUBLIC 1db87 0 Sage::Proto::startHegMacroRef(int, int, int, int, int, std::__cxx11::basic_string<char, std::char_traits<char>, std::allocator<char> > const&, bool) [clone .cold]
PUBLIC 1dbd1 0 Sage::Proto::addHegTextRef(int, hegproto_v2::TextRef&) [clone .cold]
PUBLIC 1dbec 0 Sage::Proto::addHegMacroElem(std::__cxx11::basic_string<char, std::char_traits<char>, std::allocator<char> > const&, hegproto_v2::MacroElement_Type, int, int, hegproto_v2::MacroRef&) [clone .cold]
PUBLIC 1dc1f 0 (anonymous namespace)::createSourceLoc(int, Sage::GenSrcLoc const&, bool) [clone .cold]
PUBLIC 1dc33 0 (anonymous namespace)::dumpSrcLoc(int, Sage::GenSrcLoc const&) [clone .cold]
PUBLIC 1dc83 0 Sage::Proto::recordSourceLoc(int, Sage::GenSrcLoc const&, bool) [clone .cold]
PUBLIC 1dc97 0 (anonymous namespace)::processSourceMappingMsg(int, std::__cxx11::basic_string<char, std::char_traits<char>, std::allocator<char> > const&, int, std::__cxx11::basic_string<char, std::char_traits<char>, std::allocator<char> > const&, bool) [clone .cold]
PUBLIC 1dcda 0 (anonymous namespace)::processHierEdgeMsg(int, int, hiertreeproto_v2::Edge_EdgeKind, bool) [clone .cold]
PUBLIC 1dd0a 0 (anonymous namespace)::processHierNodeMsg(int, int, int, std::__cxx11::basic_string<char, std::char_traits<char>, std::allocator<char> > const&, int, bool) [clone .cold]
PUBLIC 1dd3a 0 (anonymous namespace)::createModuleItem(int, int, std::__cxx11::basic_string<char, std::char_traits<char>, std::allocator<char> > const&, int, hiertreeproto_v2::NamedBlock_Type, std::__cxx11::basic_string<char, std::char_traits<char>, std::allocator<char> > const&, bool) [clone .cold]
PUBLIC 1dd6a 0 Sage::Proto::recordParam(int, int, std::__cxx11::basic_string<char, std::char_traits<char>, std::allocator<char> > const&, int) [clone .cold]
PUBLIC 1dd9a 0 Sage::Proto::recordSignal(int, int, std::__cxx11::basic_string<char, std::char_traits<char>, std::allocator<char> > const&, int, bool, bool, bool, hiertreeproto_v2::Signal_Visibility) [clone .cold]
PUBLIC 1ddca 0 Sage::Proto::addPredefinedType(std::__cxx11::basic_string<char, std::char_traits<char>, std::allocator<char> > const&, bool, bool, bool, typeinfoproto_v2::PredefinedType_Type) [clone .cold]
PUBLIC 1de08 0 Sage::Proto::addStruct(std::__cxx11::basic_string<char, std::char_traits<char>, std::allocator<char> > const&, bool, bool, bool, bool, std::tuple<bool, bool, long, long>&) [clone .cold]
PUBLIC 1de32 0 Sage::Proto::addUnion(std::__cxx11::basic_string<char, std::char_traits<char>, std::allocator<char> > const&, bool, bool, bool, bool, std::tuple<bool, bool, long, long>&) [clone .cold]
PUBLIC 1de5c 0 Sage::Proto::addField(std::__cxx11::basic_string<char, std::char_traits<char>, std::allocator<char> > const&, typeinfoproto_v2::TypeInfoMessageType_Type) [clone .cold]
PUBLIC 1de9a 0 Sage::Proto::addEnum(std::__cxx11::basic_string<char, std::char_traits<char>, std::allocator<char> > const&, std::vector<std::pair<std::__cxx11::basic_string<char, std::char_traits<char>, std::allocator<char> >, common_v2::ByteStream*>, std::allocator<std::pair<std::__cxx11::basic_string<char, std::char_traits<char>, std::allocator<char> >, common_v2::ByteStream*> > > const&, unsigned long, bool, bool, bool) [clone .cold]
PUBLIC 1df16 0 Sage::Proto::addHegMacroElem(std::__cxx11::basic_string<char, std::char_traits<char>, std::allocator<char> > const&, hegproto_v2::MacroElement_Type, int, int, hegproto_v2::MacroArg&) [clone .cold]
PUBLIC 1df60 0 (anonymous namespace)::processDimension(std::tuple<bool, bool, long, long> const&) [clone .cold]
PUBLIC 1df8a 0 Sage::Proto::addArray(std::__cxx11::basic_string<char, std::char_traits<char>, std::allocator<char> > const&, std::vector<std::tuple<bool, bool, long, long>, std::allocator<std::tuple<bool, bool, long, long> > > const&, typeinfoproto_v2::TypeInfoMessageType_Type, bool, bool) [clone .cold]
PUBLIC 1dfe3 0 Sage::Proto::addQDA(std::__cxx11::basic_string<char, std::char_traits<char>, std::allocator<char> > const&, typeinfoproto_v2::QDAArray_Type, typeinfoproto_v2::TypeInfoMessageType_Type, typeinfoproto_v2::TypeInfoMessageType_Type) [clone .cold]
PUBLIC 1e021 0 Sage::Proto::addClassHandle(std::__cxx11::basic_string<char, std::char_traits<char>, std::allocator<char> > const&, int, int, typeinfoproto_v2::ClassHandle_Type, typeinfoproto_v2::TypeInfoMessageType_Type) [clone .cold]
PUBLIC 1e051 0 Sage::Proto::addVirtualInterface(std::__cxx11::basic_string<char, std::char_traits<char>, std::allocator<char> > const&, int, int) [clone .cold]
PUBLIC 1e065 0 Sage::Proto::markTypeParam() [clone .cold]
PUBLIC 1e094 0 Sage::Proto::addByteStream(unsigned char*, bool, unsigned long) [clone .cold]
PUBLIC 1e0c3 0 Sage::Proto::addStringValue(char*, unsigned long) [clone .cold]
PUBLIC 1e0e8 0 (anonymous namespace)::createNamedBlock(int, std::__cxx11::basic_string<char, std::char_traits<char>, std::allocator<char> > const&, int, hiertreeproto_v2::NamedBlock_Type, bool) [clone .cold]
PUBLIC 1e117 0 (anonymous namespace)::processGenvarMsg(int, int, std::__cxx11::basic_string<char, std::char_traits<char>, std::allocator<char> > const&, int, int, bool) [clone .cold]
PUBLIC 1e147 0 (anonymous namespace)::processPartitionInfoMsg(int, std::__cxx11::basic_string<char, std::char_traits<char>, std::allocator<char> > const&, std::__cxx11::basic_string<char, std::char_traits<char>, std::allocator<char> > const&, std::__cxx11::basic_string<char, std::char_traits<char>, std::allocator<char> > const&, std::__cxx11::basic_string<char, std::char_traits<char>, std::allocator<char> > const&, std::__cxx11::basic_string<char, std::char_traits<char>, std::allocator<char> > const&, std::__cxx11::basic_string<char, std::char_traits<char>, std::allocator<char> > const&, bool) [clone .cold]
PUBLIC 1e18e 0 (anonymous namespace)::processModuleItemPartitionMsg(int, std::__cxx11::basic_string<char, std::char_traits<char>, std::allocator<char> > const&, std::__cxx11::basic_string<char, std::char_traits<char>, std::allocator<char> > const&, std::__cxx11::basic_string<char, std::char_traits<char>, std::allocator<char> > const&, std::__cxx11::basic_string<char, std::char_traits<char>, std::allocator<char> > const&, int, bool) [clone .cold]
PUBLIC 1e1be 0 (anonymous namespace)::processStitchPointMsg(int, std::__cxx11::basic_string<char, std::char_traits<char>, std::allocator<char> > const&, std::__cxx11::basic_string<char, std::char_traits<char>, std::allocator<char> > const&, std::__cxx11::basic_string<char, std::char_traits<char>, std::allocator<char> > const&, int, int, bool) [clone .cold]
PUBLIC 1e1ee 0 (anonymous namespace)::processTopInstanceMsg(int, bool) [clone .cold]
PUBLIC 1e21e 0 (anonymous namespace)::processAttributeMsg(std::__cxx11::basic_string<char, std::char_traits<char>, std::allocator<char> > const&, std::__cxx11::basic_string<char, std::char_traits<char>, std::allocator<char> > const&, bool) [clone .cold]
PUBLIC 1e265 0 (anonymous namespace)::processOoprExternMsg(int, std::__cxx11::basic_string<char, std::char_traits<char>, std::allocator<char> > const&, std::__cxx11::basic_string<char, std::char_traits<char>, std::allocator<char> > const&, bool, int, bool) [clone .cold]
PUBLIC 1e2b6 0 (anonymous namespace)::processOoprTargetMsg(std::__cxx11::basic_string<char, std::char_traits<char>, std::allocator<char> > const&, std::__cxx11::basic_string<char, std::char_traits<char>, std::allocator<char> > const&, int, bool) [clone .cold]
PUBLIC 1e2e6 0 Sage::Proto::recordHegVariable(int, std::__cxx11::basic_string<char, std::char_traits<char>, std::allocator<char> > const&, int) [clone .cold]
PUBLIC 1e315 0 Sage::Proto::recordHegParameter(int, std::__cxx11::basic_string<char, std::char_traits<char>, std::allocator<char> > const&, int) [clone .cold]
PUBLIC 1e344 0 Sage::Proto::startHegModule(int, std::__cxx11::basic_string<char, std::char_traits<char>, std::allocator<char> > const&, int, std::vector<int, std::allocator<int> > const&, bool) [clone .cold]
PUBLIC 1e38b 0 Sage::Proto::recordHegPortDecl(int, std::__cxx11::basic_string<char, std::char_traits<char>, std::allocator<char> > const&, hegproto_v2::PortDecl_Direction, int, int) [clone .cold]
PUBLIC 1e3d0 0 Sage::Proto::recordHegElemRef(int, int, int) [clone .cold]
PUBLIC 1e415 0 Sage::Proto::recordHegConstant(int, std::__cxx11::basic_string<char, std::char_traits<char>, std::allocator<char> > const&, int) [clone .cold]
PUBLIC 1e444 0 Sage::Proto::recordHegInstance(int, int, std::__cxx11::basic_string<char, std::char_traits<char>, std::allocator<char> > const&, std::vector<int, std::allocator<int> > const&, std::vector<int, std::allocator<int> > const&, int) [clone .cold]
PUBLIC 1e4e9 0 Sage::Proto::recordHegAssignment(int, hegproto_v2::Assign_Type, int, int, int) [clone .cold]
PUBLIC 1e544 0 Sage::Proto::recordHegConditional(int, hegproto_v2::ConditionalStmt_Type, int, int, int, int) [clone .cold]
PUBLIC 1e5bf 0 Sage::Proto::recordHegSeqBlock(int, std::__cxx11::basic_string<char, std::char_traits<char>, std::allocator<char> > const&, std::vector<int, std::allocator<int> > const&, int) [clone .cold]
PUBLIC 1e606 0 Sage::Proto::recordHegAlways(int, int, int) [clone .cold]
PUBLIC 1e64b 0 Sage::Proto::recordHegAlwaysEventControl(int, std::vector<int, std::allocator<int> > const&, int, int) [clone .cold]
PUBLIC 1e6a9 0 Sage::Proto::recordHegEventExpression(int, hegproto_v2::EventExpression_Type, int, int) [clone .cold]
PUBLIC 1e6ee 0 Sage::Proto::recordHegBinaryOp(int, int, int, hegproto_v2::BinaryOperator_Type, int) [clone .cold]
PUBLIC 1e749 0 Sage::Proto::recordHegUnaryOp(int, int, hegproto_v2::UnaryOperator_Type, int) [clone .cold]
PUBLIC 1e78e 0 Sage::Proto::recordHegIncludeRef(std::__cxx11::basic_string<char, std::char_traits<char>, std::allocator<char> > const&, int, int) [clone .cold]
PUBLIC 1e7d5 0 Sage::Proto::recordHegSourceChunk(std::__cxx11::basic_string<char, std::char_traits<char>, std::allocator<char> > const&, int, int, int) [clone .cold]
PUBLIC 1e81a 0 Sage::Proto::recordHegMacroDef(int, std::__cxx11::basic_string<char, std::char_traits<char>, std::allocator<char> > const&, int, std::__cxx11::basic_string<char, std::char_traits<char>, std::allocator<char> > const&) [clone .cold]
PUBLIC 1e83d 0 Sage::Proto::startHegTextRef() [clone .cold]
PUBLIC 1e851 0 Sage::Proto::recordHegUnhandledType(int, int) [clone .cold]
PUBLIC 1e880 0 (anonymous namespace)::processCoercedPortMsg(int, std::__cxx11::basic_string<char, std::char_traits<char>, std::allocator<char> > const&, bool) [clone .cold]
PUBLIC 1e894 0 Sage::Proto::recordCoercedPort(int, char const*) [clone .cold]
PUBLIC 1e8bc 0 Sage::loadLib(char const*) [clone .cold]
PUBLIC 1e8e2 0 Sage::StringValue::record(unsigned char*, unsigned long) [clone .cold]
PUBLIC 1e93c 0 Sage::BasicValue::record(unsigned char*, unsigned long) [clone .cold]
PUBLIC 1e99a 0 (anonymous namespace)::getTypeName(vst_s*, via_external_s, long*) [clone .cold]
PUBLIC 1e9b0 0 Sage::Type::recordDanglingTypeRefs(int, std::__cxx11::basic_string<char, std::char_traits<char>, std::allocator<char> > const&) [clone .cold]
PUBLIC 1ea16 0 (anonymous namespace)::doVIFCType(std::__cxx11::basic_string<char, std::char_traits<char>, std::allocator<char> > const&, via_external_s, (anonymous namespace)::TypeObj&, bool) [clone .constprop.0] [clone .cold]
PUBLIC 1eac7 0 (anonymous namespace)::doPredefType(std::__cxx11::basic_string<char, std::char_traits<char>, std::allocator<char> > const&, bool, typeinfoproto_v2::PredefinedType_Type, (anonymous namespace)::TypeObj&, Sage::ArrayDimensionStack&, bool, bool, unsigned long, bool, unsigned char*) [clone .cold]
PUBLIC 1ed5c 0 (anonymous namespace)::doObjTypeAndValue(vst_s*, via_external_s, (anonymous namespace)::TypeObj&, Sage::ArrayDimensionStack&, bool, std::__cxx11::basic_string<char, std::char_traits<char>, std::allocator<char> >, unsigned char*, unsigned long, bool) [clone .cold]
PUBLIC 1efe0 0 (anonymous namespace)::doClassType(std::__cxx11::basic_string<char, std::char_traits<char>, std::allocator<char> > const&, via_external_s, (anonymous namespace)::TypeObj&, Sage::ArrayDimensionStack&, typeinfoproto_v2::ClassHandle_Type, bool) [clone .cold]
PUBLIC 1f16c 0 (anonymous namespace)::doStaticArrayType(std::__cxx11::basic_string<char, std::char_traits<char>, std::allocator<char> > const&, via_external_s, bool, (anonymous namespace)::TypeObj&, Sage::ArrayDimensionStack&, xst_s*, long*, unsigned char*, unsigned long, bool, bool) [clone .cold]
PUBLIC 1f2fe 0 (anonymous namespace)::doWireType(xst_s*, long*, vst_s*, via_external_s, (anonymous namespace)::TypeObj&, Sage::ArrayDimensionStack&) [clone .cold]
PUBLIC 1f38c 0 (anonymous namespace)::doVectorType(std::__cxx11::basic_string<char, std::char_traits<char>, std::allocator<char> > const&, via_external_s, bool, (anonymous namespace)::TypeObj&, Sage::ArrayDimensionStack&, xst_s*, long*, unsigned long, bool, unsigned char*, unsigned long, bool, bool) [clone .cold]
PUBLIC 1f63d 0 (anonymous namespace)::doStructUnionType(std::__cxx11::basic_string<char, std::char_traits<char>, std::allocator<char> > const&, via_external_s, bool, bool, (anonymous namespace)::TypeObj&, Sage::ArrayDimensionStack&, unsigned long, bool, unsigned char*, unsigned long, bool, bool) [clone .cold]
PUBLIC 1fb5d 0 Sage::Type::recordParameter(xst_s*, long*, int) [clone .cold]
PUBLIC 1fc58 0 Sage::Type::recordSignal(xst_s*, long*, int, bool, bool) [clone .cold]
PUBLIC 1fd87 0 Sage::HDLGraph::doUnhandledType(vst_s*, long*, int) [clone .cold]
PUBLIC 1fdd2 0 (anonymous namespace)::doElemRef(vst_s*, long*) [clone .cold]
PUBLIC 1fe65 0 (anonymous namespace)::doExpr(vst_s*, long*) [clone .cold]
PUBLIC 200be 0 (anonymous namespace)::doAssignment(vst_s*, long*, hegproto_v2::Assign_Type) [clone .cold]
PUBLIC 20124 0 (anonymous namespace)::doStatement(vst_s*, long*) [clone .cold]
PUBLIC 20227 0 (anonymous namespace)::doEventControls(vst_s*, std::vector<int, std::allocator<int> >&, long*) [clone .cold]
PUBLIC 2027a 0 (anonymous namespace)::doDeclarativeItems(ssl_item_s*) [clone .isra.0] [clone .cold]
PUBLIC 2050d 0 Sage::HDLGraph::recordHDLGraph(ssl_item_s*) [clone .cold]
PUBLIC 2066f 0 (anonymous namespace)::getNameFromVst(vst_s*) [clone .cold]
PUBLIC 20685 0 Sage::Text::getAnnotationLength(vst_s*, long*) [clone .cold]
PUBLIC 206c1 0 Sage::Text::endSrcInfo() [clone .cold]
PUBLIC 20ca2 0 (anonymous namespace)::getFileNode(std::__cxx11::basic_string<char, std::char_traits<char>, std::allocator<char> > const&, bool*) [clone .cold]
PUBLIC 20cb9 0 Sage::Text::recordSourceChunks(xst_s*) [clone .cold]
PUBLIC 20d25 0 std::_Function_handler<void (Sage::Util::PathTree::Node const*), Sage::Text::endSrcInfo()::{lambda(Sage::Util::PathTree::Node const*)#2}>::_M_invoke(std::_Any_data const&, Sage::Util::PathTree::Node const*&&) [clone .cold]
PUBLIC 20d7f 0 std::_Function_handler<void (Sage::Util::PathTree::Node const*), Sage::Text::endSrcInfo()::{lambda(Sage::Util::PathTree::Node const*)#1}>::_M_invoke(std::_Any_data const&, Sage::Util::PathTree::Node const*&&) [clone .cold]
PUBLIC 20dd9 0 (anonymous namespace)::storeMacroSrcLoc(int, int, int, int, int, std::__cxx11::basic_string<char, std::char_traits<char>, std::allocator<char> > const&, void*, bool) [clone .cold]
PUBLIC 20e56 0 void (anonymous namespace)::doMacroElem<hegproto_v2::MacroArg>(mac_elem_s*, long*, int, std::__cxx11::basic_string<char, std::char_traits<char>, std::allocator<char> > const&, hegproto_v2::MacroArg&, bool) [clone .constprop.0] [clone .cold]
PUBLIC 20e6c 0 Sage::Text::recordIncludeRefs(xst_s*) [clone .cold]
PUBLIC 20fa2 0 Sage::Text::recordSourceMapping(std::__cxx11::basic_string<char, std::char_traits<char>, std::allocator<char> > const&, std::__cxx11::basic_string<char, std::char_traits<char>, std::allocator<char> > const&) [clone .cold]
PUBLIC 20fef 0 Sage::Text::recordTextRefs(ssl_item_s*) [clone .cold]
PUBLIC 2110f 0 Sage::Text::getDefaultSrcLocId() [clone .cold]
PUBLIC 21189 0 Sage::Text::getSrcLoc(xst_s*, long*, bool) [clone .cold]
PUBLIC 211a5 0 Sage::Text::recordMacroRefs(ssl_item_s*) [clone .cold]
PUBLIC 21338 0 Sage::IO::IpcStream::connect() [clone .cold]
PUBLIC 21350 0 Sage::IO::IpcStream::IpcStream() [clone .cold]
PUBLIC 21387 0 Sage::IO::connectWriter(std::__cxx11::basic_string<char, std::char_traits<char>, std::allocator<char> >, char const*, bool, bool) [clone .cold]
PUBLIC 213c4 0 Sage::IO::IpcStream::IpcStream(std::__cxx11::basic_string<char, std::char_traits<char>, std::allocator<char> > const&) [clone .cold]
PUBLIC 21410 0 boost::filesystem::path::operator/=(char const*) [clone .cold]
PUBLIC 21428 0 boost::filesystem::path::operator/=(boost::filesystem::path const&) [clone .cold]
PUBLIC 21440 0 boost::filesystem::path::root_directory() const [clone .cold]
PUBLIC 21464 0 boost::filesystem::path::parent_path() const [clone .cold]
PUBLIC 2148a 0 boost::filesystem::path::begin() const [clone .cold]
PUBLIC 214b0 0 boost::filesystem::path::root_name() const [clone .cold]
PUBLIC 214cc 0 boost::filesystem::path::root_path() const [clone .cold]
PUBLIC 214f4 0 boost::filesystem::path::m_path_iterator_increment(boost::filesystem::path::iterator&) [clone .cold]
PUBLIC 2150c 0 boost::filesystem::path::relative_path() const [clone .cold]
PUBLIC 21528 0 boost::filesystem::path::extension() const [clone .cold]
PUBLIC 21544 0 boost::filesystem::path::replace_extension(boost::filesystem::path const&) [clone .cold]
PUBLIC 21560 0 boost::filesystem::path::stem() const [clone .cold]
PUBLIC 2159a 0 boost::filesystem::path::lexically_relative(boost::filesystem::path const&) const [clone .cold]
PUBLIC 21692 0 boost::filesystem::path::m_path_iterator_decrement(boost::filesystem::path::iterator&) [clone .cold]
PUBLIC 216aa 0 boost::filesystem::path::lexically_normal() const [clone .cold]
PUBLIC 2177a 0 boost::filesystem::path::codecvt() [clone .cold]
PUBLIC 2178e 0 boost::filesystem::path::imbue(std::locale const&) [clone .cold]
PUBLIC 217be 0 common_v2::Id::~Id() [clone .cold]
PUBLIC 217cc 0 common_v2::ByteStream::~ByteStream() [clone .cold]
PUBLIC 217da 0 common_v2::Id* google::protobuf::Arena::CreateMaybeMessage<common_v2::Id>(google::protobuf::Arena*) [clone .cold]
PUBLIC 217f0 0 common_v2::ByteStream* google::protobuf::Arena::CreateMaybeMessage<common_v2::ByteStream>(google::protobuf::Arena*) [clone .cold]
PUBLIC 21806 0 common_v2::Id::_InternalParse(char const*, google::protobuf::internal::ParseContext*) [clone .cold]
PUBLIC 21816 0 common_v2::ByteStream::MergeFrom(common_v2::ByteStream const&) [clone .cold]
PUBLIC 21826 0 common_v2::ByteStream::MergeFrom(google::protobuf::Message const&) [clone .cold]
PUBLIC 21836 0 common_v2::ByteStream::_InternalParse(char const*, google::protobuf::internal::ParseContext*) [clone .cold]
PUBLIC 21846 0 common_v2::Id::MergeFrom(common_v2::Id const&) [clone .cold]
PUBLIC 21856 0 common_v2::Id::MergeFrom(google::protobuf::Message const&) [clone .cold]
PUBLIC 21866 0 sourcelocproto_v2::PathNode* google::protobuf::Arena::CreateMaybeMessage<sourcelocproto_v2::PathNode>(google::protobuf::Arena*) [clone .cold]
PUBLIC 2187c 0 sourcelocproto_v2::SourceLoc* google::protobuf::Arena::CreateMaybeMessage<sourcelocproto_v2::SourceLoc>(google::protobuf::Arena*) [clone .cold]
PUBLIC 21892 0 sourcelocproto_v2::SourceMapping* google::protobuf::Arena::CreateMaybeMessage<sourcelocproto_v2::SourceMapping>(google::protobuf::Arena*) [clone .cold]
PUBLIC 218a8 0 sourcelocproto_v2::SourceLoc::MergeFrom(sourcelocproto_v2::SourceLoc const&) [clone .cold]
PUBLIC 218b8 0 sourcelocproto_v2::SourceLoc::MergeFrom(google::protobuf::Message const&) [clone .cold]
PUBLIC 218c8 0 sourcelocproto_v2::SourceMapping::SourceMapping(sourcelocproto_v2::SourceMapping const&) [clone .cold]
PUBLIC 218f2 0 sourcelocproto_v2::SourceLoc::SourceLoc(sourcelocproto_v2::SourceLoc const&) [clone .cold]
PUBLIC 2191c 0 sourcelocproto_v2::SourceMapping::MergeFrom(sourcelocproto_v2::SourceMapping const&) [clone .cold]
PUBLIC 2192c 0 sourcelocproto_v2::SourceMapping::MergeFrom(google::protobuf::Message const&) [clone .cold]
PUBLIC 2193c 0 sourcelocproto_v2::PathNode::PathNode(sourcelocproto_v2::PathNode const&) [clone .cold]
PUBLIC 21966 0 sourcelocproto_v2::PathNode::MergeFrom(sourcelocproto_v2::PathNode const&) [clone .cold]
PUBLIC 21976 0 sourcelocproto_v2::PathNode::MergeFrom(google::protobuf::Message const&) [clone .cold]
PUBLIC 21986 0 sourcelocproto_v2::PathNode::~PathNode() [clone .cold]
PUBLIC 21994 0 sourcelocproto_v2::SourceLoc::~SourceLoc() [clone .cold]
PUBLIC 219a2 0 sourcelocproto_v2::SourceMapping::~SourceMapping() [clone .cold]
PUBLIC 219b0 0 sourcelocproto_v2::PathNode::_InternalParse(char const*, google::protobuf::internal::ParseContext*) [clone .cold]
PUBLIC 219c0 0 sourcelocproto_v2::SourceLoc::_InternalParse(char const*, google::protobuf::internal::ParseContext*) [clone .cold]
PUBLIC 219d0 0 sourcelocproto_v2::SourceMapping::_InternalParse(char const*, google::protobuf::internal::ParseContext*) [clone .cold]
PUBLIC 219e0 0 msieproto_v2::Partition* google::protobuf::Arena::CreateMaybeMessage<msieproto_v2::Partition>(google::protobuf::Arena*) [clone .cold]
PUBLIC 219f6 0 msieproto_v2::ModuleItemPartition* google::protobuf::Arena::CreateMaybeMessage<msieproto_v2::ModuleItemPartition>(google::protobuf::Arena*) [clone .cold]
PUBLIC 21a0c 0 msieproto_v2::StitchPoint* google::protobuf::Arena::CreateMaybeMessage<msieproto_v2::StitchPoint>(google::protobuf::Arena*) [clone .cold]
PUBLIC 21a22 0 msieproto_v2::TopInstance* google::protobuf::Arena::CreateMaybeMessage<msieproto_v2::TopInstance>(google::protobuf::Arena*) [clone .cold]
PUBLIC 21a38 0 msieproto_v2::OoprExtern* google::protobuf::Arena::CreateMaybeMessage<msieproto_v2::OoprExtern>(google::protobuf::Arena*) [clone .cold]
PUBLIC 21a4e 0 msieproto_v2::OoprTarget* google::protobuf::Arena::CreateMaybeMessage<msieproto_v2::OoprTarget>(google::protobuf::Arena*) [clone .cold]
PUBLIC 21a64 0 msieproto_v2::Partition::Partition(msieproto_v2::Partition const&) [clone .cold]
PUBLIC 21a7a 0 msieproto_v2::TopInstance::TopInstance(msieproto_v2::TopInstance const&) [clone .cold]
PUBLIC 21a90 0 msieproto_v2::TopInstance::MergeFrom(msieproto_v2::TopInstance const&) [clone .cold]
PUBLIC 21aa0 0 msieproto_v2::TopInstance::MergeFrom(google::protobuf::Message const&) [clone .cold]
PUBLIC 21ab0 0 msieproto_v2::OoprTarget::OoprTarget(msieproto_v2::OoprTarget const&) [clone .cold]
PUBLIC 21ac6 0 msieproto_v2::OoprTarget::MergeFrom(msieproto_v2::OoprTarget const&) [clone .cold]
PUBLIC 21ad6 0 msieproto_v2::OoprTarget::MergeFrom(google::protobuf::Message const&) [clone .cold]
PUBLIC 21ae6 0 msieproto_v2::OoprExtern::MergeFrom(msieproto_v2::OoprExtern const&) [clone .cold]
PUBLIC 21af6 0 msieproto_v2::OoprExtern::MergeFrom(google::protobuf::Message const&) [clone .cold]
PUBLIC 21b06 0 msieproto_v2::OoprExtern::OoprExtern(msieproto_v2::OoprExtern const&) [clone .cold]
PUBLIC 21b30 0 msieproto_v2::Partition::MergeFrom(msieproto_v2::Partition const&) [clone .cold]
PUBLIC 21b40 0 msieproto_v2::Partition::MergeFrom(google::protobuf::Message const&) [clone .cold]
PUBLIC 21b50 0 msieproto_v2::ModuleItemPartition::MergeFrom(msieproto_v2::ModuleItemPartition const&) [clone .cold]
PUBLIC 21b60 0 msieproto_v2::ModuleItemPartition::MergeFrom(google::protobuf::Message const&) [clone .cold]
PUBLIC 21b70 0 msieproto_v2::StitchPoint::MergeFrom(msieproto_v2::StitchPoint const&) [clone .cold]
PUBLIC 21b80 0 msieproto_v2::StitchPoint::MergeFrom(google::protobuf::Message const&) [clone .cold]
PUBLIC 21b90 0 msieproto_v2::ModuleItemPartition::ModuleItemPartition(msieproto_v2::ModuleItemPartition const&) [clone .cold]
PUBLIC 21bba 0 msieproto_v2::StitchPoint::StitchPoint(msieproto_v2::StitchPoint const&) [clone .cold]
PUBLIC 21bfa 0 msieproto_v2::Partition::~Partition() [clone .cold]
PUBLIC 21c08 0 msieproto_v2::ModuleItemPartition::~ModuleItemPartition() [clone .cold]
PUBLIC 21c16 0 msieproto_v2::StitchPoint::~StitchPoint() [clone .cold]
PUBLIC 21c24 0 msieproto_v2::TopInstance::~TopInstance() [clone .cold]
PUBLIC 21c32 0 msieproto_v2::OoprExtern::~OoprExtern() [clone .cold]
PUBLIC 21c40 0 msieproto_v2::OoprTarget::~OoprTarget() [clone .cold]
PUBLIC 21c4e 0 msieproto_v2::Partition::_InternalParse(char const*, google::protobuf::internal::ParseContext*) [clone .cold]
PUBLIC 21c5e 0 msieproto_v2::ModuleItemPartition::_InternalParse(char const*, google::protobuf::internal::ParseContext*) [clone .cold]
PUBLIC 21c6e 0 msieproto_v2::StitchPoint::_InternalParse(char const*, google::protobuf::internal::ParseContext*) [clone .cold]
PUBLIC 21c7e 0 msieproto_v2::TopInstance::_InternalParse(char const*, google::protobuf::internal::ParseContext*) [clone .cold]
PUBLIC 21c8e 0 msieproto_v2::OoprExtern::_InternalParse(char const*, google::protobuf::internal::ParseContext*) [clone .cold]
PUBLIC 21c9e 0 msieproto_v2::OoprTarget::_InternalParse(char const*, google::protobuf::internal::ParseContext*) [clone .cold]
PUBLIC 21cae 0 typeinfoproto_v2::StaticArray::~StaticArray() [clone .cold]
PUBLIC 21cbc 0 typeinfoproto_v2::Union::~Union() [clone .cold]
PUBLIC 21cca 0 typeinfoproto_v2::PredefinedType::~PredefinedType() [clone .cold]
PUBLIC 21cd8 0 typeinfoproto_v2::MultiDimensionArray::~MultiDimensionArray() [clone .cold]
PUBLIC 21ce6 0 typeinfoproto_v2::DimensionInfo::~DimensionInfo() [clone .cold]
PUBLIC 21cf4 0 typeinfoproto_v2::Enum::~Enum() [clone .cold]
PUBLIC 21d02 0 typeinfoproto_v2::Struct::~Struct() [clone .cold]
PUBLIC 21d10 0 typeinfoproto_v2::TypeInfoMessageType::~TypeInfoMessageType() [clone .cold]
PUBLIC 21d1e 0 typeinfoproto_v2::QDAArray::~QDAArray() [clone .cold]
PUBLIC 21d2c 0 typeinfoproto_v2::Field::~Field() [clone .cold]
PUBLIC 21d3a 0 typeinfoproto_v2::TypeInfoMessageType* google::protobuf::Arena::CreateMaybeMessage<typeinfoproto_v2::TypeInfoMessageType>(google::protobuf::Arena*) [clone .cold]
PUBLIC 21d50 0 typeinfoproto_v2::Enum* google::protobuf::Arena::CreateMaybeMessage<typeinfoproto_v2::Enum>(google::protobuf::Arena*) [clone .cold]
PUBLIC 21d66 0 typeinfoproto_v2::EnumFieldInfo* google::protobuf::Arena::CreateMaybeMessage<typeinfoproto_v2::EnumFieldInfo>(google::protobuf::Arena*) [clone .cold]
PUBLIC 21d7c 0 typeinfoproto_v2::DimensionInfo* google::protobuf::Arena::CreateMaybeMessage<typeinfoproto_v2::DimensionInfo>(google::protobuf::Arena*) [clone .cold]
PUBLIC 21d92 0 typeinfoproto_v2::PredefinedType* google::protobuf::Arena::CreateMaybeMessage<typeinfoproto_v2::PredefinedType>(google::protobuf::Arena*) [clone .cold]
PUBLIC 21da8 0 typeinfoproto_v2::QDAArray* google::protobuf::Arena::CreateMaybeMessage<typeinfoproto_v2::QDAArray>(google::protobuf::Arena*) [clone .cold]
PUBLIC 21dbe 0 typeinfoproto_v2::ClassHandle* google::protobuf::Arena::CreateMaybeMessage<typeinfoproto_v2::ClassHandle>(google::protobuf::Arena*) [clone .cold]
PUBLIC 21dd4 0 typeinfoproto_v2::VirtualInterface* google::protobuf::Arena::CreateMaybeMessage<typeinfoproto_v2::VirtualInterface>(google::protobuf::Arena*) [clone .cold]
PUBLIC 21dea 0 typeinfoproto_v2::StaticArray* google::protobuf::Arena::CreateMaybeMessage<typeinfoproto_v2::StaticArray>(google::protobuf::Arena*) [clone .cold]
PUBLIC 21e00 0 typeinfoproto_v2::Struct* google::protobuf::Arena::CreateMaybeMessage<typeinfoproto_v2::Struct>(google::protobuf::Arena*) [clone .cold]
PUBLIC 21e16 0 typeinfoproto_v2::Field* google::protobuf::Arena::CreateMaybeMessage<typeinfoproto_v2::Field>(google::protobuf::Arena*) [clone .cold]
PUBLIC 21e2c 0 typeinfoproto_v2::Union* google::protobuf::Arena::CreateMaybeMessage<typeinfoproto_v2::Union>(google::protobuf::Arena*) [clone .cold]
PUBLIC 21e42 0 typeinfoproto_v2::MultiDimensionArray* google::protobuf::Arena::CreateMaybeMessage<typeinfoproto_v2::MultiDimensionArray>(google::protobuf::Arena*) [clone .cold]
PUBLIC 21e58 0 typeinfoproto_v2::TypeInfoMessageType::_InternalParse(char const*, google::protobuf::internal::ParseContext*) [clone .cold]
PUBLIC 21e68 0 typeinfoproto_v2::DimensionInfo::_InternalParse(char const*, google::protobuf::internal::ParseContext*) [clone .cold]
PUBLIC 21e78 0 typeinfoproto_v2::ClassHandle::MergeFrom(typeinfoproto_v2::ClassHandle const&) [clone .cold]
PUBLIC 21e88 0 typeinfoproto_v2::ClassHandle::MergeFrom(google::protobuf::Message const&) [clone .cold]
PUBLIC 21e98 0 typeinfoproto_v2::Enum::_InternalParse(char const*, google::protobuf::internal::ParseContext*) [clone .cold]
PUBLIC 21ea8 0 typeinfoproto_v2::PredefinedType::_InternalParse(char const*, google::protobuf::internal::ParseContext*) [clone .cold]
PUBLIC 21eb8 0 typeinfoproto_v2::QDAArray::_InternalParse(char const*, google::protobuf::internal::ParseContext*) [clone .cold]
PUBLIC 21ec8 0 typeinfoproto_v2::StaticArray::_InternalParse(char const*, google::protobuf::internal::ParseContext*) [clone .cold]
PUBLIC 21ed8 0 typeinfoproto_v2::Struct::_InternalParse(char const*, google::protobuf::internal::ParseContext*) [clone .cold]
PUBLIC 21ee8 0 typeinfoproto_v2::Field::_InternalParse(char const*, google::protobuf::internal::ParseContext*) [clone .cold]
PUBLIC 21ef8 0 typeinfoproto_v2::Union::_InternalParse(char const*, google::protobuf::internal::ParseContext*) [clone .cold]
PUBLIC 21f08 0 typeinfoproto_v2::MultiDimensionArray::_InternalParse(char const*, google::protobuf::internal::ParseContext*) [clone .cold]
PUBLIC 21f18 0 typeinfoproto_v2::TypeInfoMessageType::MergeFrom(typeinfoproto_v2::TypeInfoMessageType const&) [clone .cold]
PUBLIC 21f28 0 typeinfoproto_v2::TypeInfoMessageType::MergeFrom(google::protobuf::Message const&) [clone .cold]
PUBLIC 21f38 0 typeinfoproto_v2::Field::MergeFrom(typeinfoproto_v2::Field const&) [clone .cold]
PUBLIC 21f48 0 typeinfoproto_v2::Field::MergeFrom(google::protobuf::Message const&) [clone .cold]
PUBLIC 21f58 0 typeinfoproto_v2::EnumFieldInfo::EnumFieldInfo(typeinfoproto_v2::EnumFieldInfo const&) [clone .cold]
PUBLIC 21f6e 0 typeinfoproto_v2::QDAArray::MergeFrom(typeinfoproto_v2::QDAArray const&) [clone .cold]
PUBLIC 21f7e 0 typeinfoproto_v2::QDAArray::MergeFrom(google::protobuf::Message const&) [clone .cold]
PUBLIC 21f8e 0 typeinfoproto_v2::MultiDimensionArray::MergeFrom(typeinfoproto_v2::MultiDimensionArray const&) [clone .cold]
PUBLIC 21f9e 0 typeinfoproto_v2::MultiDimensionArray::MergeFrom(google::protobuf::Message const&) [clone .cold]
PUBLIC 21fae 0 typeinfoproto_v2::StaticArray::MergeFrom(typeinfoproto_v2::StaticArray const&) [clone .cold]
PUBLIC 21fbe 0 typeinfoproto_v2::StaticArray::MergeFrom(google::protobuf::Message const&) [clone .cold]
PUBLIC 21fce 0 typeinfoproto_v2::Enum::MergeFrom(typeinfoproto_v2::Enum const&) [clone .cold]
PUBLIC 21fde 0 typeinfoproto_v2::Enum::MergeFrom(google::protobuf::Message const&) [clone .cold]
PUBLIC 21fee 0 typeinfoproto_v2::DimensionInfo::MergeFrom(typeinfoproto_v2::DimensionInfo const&) [clone .cold]
PUBLIC 21ffe 0 typeinfoproto_v2::DimensionInfo::MergeFrom(google::protobuf::Message const&) [clone .cold]
PUBLIC 2200e 0 typeinfoproto_v2::EnumFieldInfo::MergeFrom(typeinfoproto_v2::EnumFieldInfo const&) [clone .cold]
PUBLIC 2201e 0 typeinfoproto_v2::EnumFieldInfo::MergeFrom(google::protobuf::Message const&) [clone .cold]
PUBLIC 2202e 0 typeinfoproto_v2::PredefinedType::MergeFrom(typeinfoproto_v2::PredefinedType const&) [clone .cold]
PUBLIC 2203e 0 typeinfoproto_v2::PredefinedType::MergeFrom(google::protobuf::Message const&) [clone .cold]
PUBLIC 2204e 0 typeinfoproto_v2::Struct::MergeFrom(typeinfoproto_v2::Struct const&) [clone .cold]
PUBLIC 2205e 0 typeinfoproto_v2::Struct::MergeFrom(google::protobuf::Message const&) [clone .cold]
PUBLIC 2206e 0 typeinfoproto_v2::Union::MergeFrom(typeinfoproto_v2::Union const&) [clone .cold]
PUBLIC 2207e 0 typeinfoproto_v2::Union::MergeFrom(google::protobuf::Message const&) [clone .cold]
PUBLIC 2208e 0 typeinfoproto_v2::VirtualInterface::VirtualInterface(typeinfoproto_v2::VirtualInterface const&) [clone .cold]
PUBLIC 220b8 0 typeinfoproto_v2::ClassHandle::ClassHandle(typeinfoproto_v2::ClassHandle const&) [clone .cold]
PUBLIC 220e2 0 typeinfoproto_v2::VirtualInterface::MergeFrom(typeinfoproto_v2::VirtualInterface const&) [clone .cold]
PUBLIC 220f2 0 typeinfoproto_v2::VirtualInterface::MergeFrom(google::protobuf::Message const&) [clone .cold]
PUBLIC 22102 0 typeinfoproto_v2::EnumFieldInfo::~EnumFieldInfo() [clone .cold]
PUBLIC 22110 0 typeinfoproto_v2::EnumFieldInfo::_InternalParse(char const*, google::protobuf::internal::ParseContext*) [clone .cold]
PUBLIC 22130 0 typeinfoproto_v2::ClassHandle::~ClassHandle() [clone .cold]
PUBLIC 2213e 0 typeinfoproto_v2::VirtualInterface::~VirtualInterface() [clone .cold]
PUBLIC 2214c 0 typeinfoproto_v2::ClassHandle::_InternalParse(char const*, google::protobuf::internal::ParseContext*) [clone .cold]
PUBLIC 2215c 0 typeinfoproto_v2::VirtualInterface::_InternalParse(char const*, google::protobuf::internal::ParseContext*) [clone .cold]
PUBLIC 2216c 0 hegproto_v2::Data::~Data() [clone .cold]
PUBLIC 2217a 0 hegproto_v2::Variable* google::protobuf::Arena::CreateMaybeMessage<hegproto_v2::Variable>(google::protobuf::Arena*) [clone .cold]
PUBLIC 22190 0 hegproto_v2::Constant* google::protobuf::Arena::CreateMaybeMessage<hegproto_v2::Constant>(google::protobuf::Arena*) [clone .cold]
PUBLIC 221a6 0 hegproto_v2::Parameter* google::protobuf::Arena::CreateMaybeMessage<hegproto_v2::Parameter>(google::protobuf::Arena*) [clone .cold]
PUBLIC 221bc 0 hegproto_v2::UnhandledType* google::protobuf::Arena::CreateMaybeMessage<hegproto_v2::UnhandledType>(google::protobuf::Arena*) [clone .cold]
PUBLIC 221d2 0 hegproto_v2::ElemRef* google::protobuf::Arena::CreateMaybeMessage<hegproto_v2::ElemRef>(google::protobuf::Arena*) [clone .cold]
PUBLIC 221e8 0 hegproto_v2::AlwaysConstruct* google::protobuf::Arena::CreateMaybeMessage<hegproto_v2::AlwaysConstruct>(google::protobuf::Arena*) [clone .cold]
PUBLIC 221fe 0 hegproto_v2::Assign* google::protobuf::Arena::CreateMaybeMessage<hegproto_v2::Assign>(google::protobuf::Arena*) [clone .cold]
PUBLIC 22214 0 hegproto_v2::ConditionalStmt* google::protobuf::Arena::CreateMaybeMessage<hegproto_v2::ConditionalStmt>(google::protobuf::Arena*) [clone .cold]
PUBLIC 2222a 0 hegproto_v2::BinaryOperator* google::protobuf::Arena::CreateMaybeMessage<hegproto_v2::BinaryOperator>(google::protobuf::Arena*) [clone .cold]
PUBLIC 22240 0 hegproto_v2::UnaryOperator* google::protobuf::Arena::CreateMaybeMessage<hegproto_v2::UnaryOperator>(google::protobuf::Arena*) [clone .cold]
PUBLIC 22256 0 hegproto_v2::PortDecl* google::protobuf::Arena::CreateMaybeMessage<hegproto_v2::PortDecl>(google::protobuf::Arena*) [clone .cold]
PUBLIC 2226c 0 hegproto_v2::DimensionInfo* google::protobuf::Arena::CreateMaybeMessage<hegproto_v2::DimensionInfo>(google::protobuf::Arena*) [clone .cold]
PUBLIC 22282 0 hegproto_v2::NamePrefix* google::protobuf::Arena::CreateMaybeMessage<hegproto_v2::NamePrefix>(google::protobuf::Arena*) [clone .cold]
PUBLIC 22298 0 hegproto_v2::Data* google::protobuf::Arena::CreateMaybeMessage<hegproto_v2::Data>(google::protobuf::Arena*) [clone .cold]
PUBLIC 222ae 0 hegproto_v2::SourceChunk* google::protobuf::Arena::CreateMaybeMessage<hegproto_v2::SourceChunk>(google::protobuf::Arena*) [clone .cold]
PUBLIC 222c4 0 hegproto_v2::IncludeRef* google::protobuf::Arena::CreateMaybeMessage<hegproto_v2::IncludeRef>(google::protobuf::Arena*) [clone .cold]
PUBLIC 222da 0 hegproto_v2::MacroElement* google::protobuf::Arena::CreateMaybeMessage<hegproto_v2::MacroElement>(google::protobuf::Arena*) [clone .cold]
PUBLIC 222f0 0 hegproto_v2::MacroArg* google::protobuf::Arena::CreateMaybeMessage<hegproto_v2::MacroArg>(google::protobuf::Arena*) [clone .cold]
PUBLIC 22306 0 hegproto_v2::MacroDefinition* google::protobuf::Arena::CreateMaybeMessage<hegproto_v2::MacroDefinition>(google::protobuf::Arena*) [clone .cold]
PUBLIC 2231c 0 hegproto_v2::Data::_InternalParse(char const*, google::protobuf::internal::ParseContext*) [clone .cold]
PUBLIC 2232c 0 hegproto_v2::ConditionalStmt::ConditionalStmt(hegproto_v2::ConditionalStmt const&) [clone .cold]
PUBLIC 22396 0 hegproto_v2::TextRef::InternalSwap(hegproto_v2::TextRef*) [clone .cold]
PUBLIC 223b6 0 hegproto_v2::UnhandledConstruct::InternalSwap(hegproto_v2::UnhandledConstruct*) [clone .cold]
PUBLIC 223d6 0 hegproto_v2::IndexedExpression::InternalSwap(hegproto_v2::IndexedExpression*) [clone .cold]
PUBLIC 223f6 0 hegproto_v2::EventExpression::InternalSwap(hegproto_v2::EventExpression*) [clone .cold]
PUBLIC 22416 0 hegproto_v2::EventCtrlStmt::InternalSwap(hegproto_v2::EventCtrlStmt*) [clone .cold]
PUBLIC 22436 0 hegproto_v2::ModuleInstantiation::InternalSwap(hegproto_v2::ModuleInstantiation*) [clone .cold]
PUBLIC 22476 0 hegproto_v2::SourceChunk::SourceChunk(hegproto_v2::SourceChunk const&) [clone .cold]
PUBLIC 2248c 0 hegproto_v2::Data::MergeFrom(hegproto_v2::Data const&) [clone .cold]
PUBLIC 2249c 0 hegproto_v2::Data::MergeFrom(google::protobuf::Message const&) [clone .cold]
PUBLIC 224ac 0 hegproto_v2::Block::InternalSwap(hegproto_v2::Block*) [clone .cold]
PUBLIC 224cc 0 hegproto_v2::InstantiationInfo::InternalSwap(hegproto_v2::InstantiationInfo*) [clone .cold]
PUBLIC 224ec 0 hegproto_v2::Module::InternalSwap(hegproto_v2::Module*) [clone .cold]
PUBLIC 2250c 0 hegproto_v2::IncludeRef::IncludeRef(hegproto_v2::IncludeRef const&) [clone .cold]
PUBLIC 22536 0 hegproto_v2::UnhandledType::UnhandledType(hegproto_v2::UnhandledType const&) [clone .cold]
PUBLIC 22560 0 hegproto_v2::SourceChunk::MergeFrom(hegproto_v2::SourceChunk const&) [clone .cold]
PUBLIC 22570 0 hegproto_v2::SourceChunk::MergeFrom(google::protobuf::Message const&) [clone .cold]
PUBLIC 22580 0 hegproto_v2::DimensionInfo::DimensionInfo(hegproto_v2::DimensionInfo const&) [clone .cold]
PUBLIC 225aa 0 hegproto_v2::MacroRef::InternalSwap(hegproto_v2::MacroRef*) [clone .cold]
PUBLIC 225ea 0 hegproto_v2::UnhandledType::MergeFrom(hegproto_v2::UnhandledType const&) [clone .cold]
PUBLIC 225fa 0 hegproto_v2::UnhandledType::MergeFrom(google::protobuf::Message const&) [clone .cold]
PUBLIC 2260a 0 hegproto_v2::IncludeRef::MergeFrom(hegproto_v2::IncludeRef const&) [clone .cold]
PUBLIC 2261a 0 hegproto_v2::IncludeRef::MergeFrom(google::protobuf::Message const&) [clone .cold]
PUBLIC 2262a 0 hegproto_v2::Variable::Variable(hegproto_v2::Variable const&) [clone .cold]
PUBLIC 22654 0 hegproto_v2::Parameter::Parameter(hegproto_v2::Parameter const&) [clone .cold]
PUBLIC 2267e 0 hegproto_v2::Constant::Constant(hegproto_v2::Constant const&) [clone .cold]
PUBLIC 226a8 0 hegproto_v2::MacroElement::MacroElement(hegproto_v2::MacroElement const&) [clone .cold]
PUBLIC 226d2 0 hegproto_v2::MacroArg::MacroArg(hegproto_v2::MacroArg const&) [clone .cold]
PUBLIC 226fc 0 hegproto_v2::Variable::MergeFrom(hegproto_v2::Variable const&) [clone .cold]
PUBLIC 2270c 0 hegproto_v2::Variable::MergeFrom(google::protobuf::Message const&) [clone .cold]
PUBLIC 2271c 0 hegproto_v2::Constant::MergeFrom(hegproto_v2::Constant const&) [clone .cold]
PUBLIC 2272c 0 hegproto_v2::Constant::MergeFrom(google::protobuf::Message const&) [clone .cold]
PUBLIC 2273c 0 hegproto_v2::Parameter::MergeFrom(hegproto_v2::Parameter const&) [clone .cold]
PUBLIC 2274c 0 hegproto_v2::Parameter::MergeFrom(google::protobuf::Message const&) [clone .cold]
PUBLIC 2275c 0 hegproto_v2::MacroElement::MergeFrom(hegproto_v2::MacroElement const&) [clone .cold]
PUBLIC 2276c 0 hegproto_v2::MacroElement::MergeFrom(google::protobuf::Message const&) [clone .cold]
PUBLIC 2277c 0 hegproto_v2::MacroArg::MergeFrom(hegproto_v2::MacroArg const&) [clone .cold]
PUBLIC 2278c 0 hegproto_v2::MacroArg::MergeFrom(google::protobuf::Message const&) [clone .cold]
PUBLIC 2279c 0 hegproto_v2::ElemRef::ElemRef(hegproto_v2::ElemRef const&) [clone .cold]
PUBLIC 227dc 0 hegproto_v2::AlwaysConstruct::AlwaysConstruct(hegproto_v2::AlwaysConstruct const&) [clone .cold]
PUBLIC 2281c 0 hegproto_v2::MacroDefinition::MergeFrom(hegproto_v2::MacroDefinition const&) [clone .cold]
PUBLIC 2282c 0 hegproto_v2::MacroDefinition::MergeFrom(google::protobuf::Message const&) [clone .cold]
PUBLIC 2283c 0 hegproto_v2::UnaryOperator::UnaryOperator(hegproto_v2::UnaryOperator const&) [clone .cold]
PUBLIC 2287c 0 hegproto_v2::AlwaysConstruct::MergeFrom(hegproto_v2::AlwaysConstruct const&) [clone .cold]
PUBLIC 2288c 0 hegproto_v2::AlwaysConstruct::MergeFrom(google::protobuf::Message const&) [clone .cold]
PUBLIC 2289c 0 hegproto_v2::ElemRef::MergeFrom(hegproto_v2::ElemRef const&) [clone .cold]
PUBLIC 228ac 0 hegproto_v2::ElemRef::MergeFrom(google::protobuf::Message const&) [clone .cold]
PUBLIC 228bc 0 hegproto_v2::DimensionInfo::MergeFrom(hegproto_v2::DimensionInfo const&) [clone .cold]
PUBLIC 228cc 0 hegproto_v2::DimensionInfo::MergeFrom(google::protobuf::Message const&) [clone .cold]
PUBLIC 228dc 0 hegproto_v2::MacroDefinition::MacroDefinition(hegproto_v2::MacroDefinition const&) [clone .cold]
PUBLIC 22906 0 hegproto_v2::UnaryOperator::MergeFrom(hegproto_v2::UnaryOperator const&) [clone .cold]
PUBLIC 22916 0 hegproto_v2::UnaryOperator::MergeFrom(google::protobuf::Message const&) [clone .cold]
PUBLIC 22926 0 hegproto_v2::PortDecl::MergeFrom(hegproto_v2::PortDecl const&) [clone .cold]
PUBLIC 22936 0 hegproto_v2::PortDecl::MergeFrom(google::protobuf::Message const&) [clone .cold]
PUBLIC 22946 0 hegproto_v2::PortDecl::PortDecl(hegproto_v2::PortDecl const&) [clone .cold]
PUBLIC 22986 0 hegproto_v2::BinaryOperator::BinaryOperator(hegproto_v2::BinaryOperator const&) [clone .cold]
PUBLIC 229da 0 hegproto_v2::Assign::Assign(hegproto_v2::Assign const&) [clone .cold]
PUBLIC 22a2e 0 hegproto_v2::BinaryOperator::MergeFrom(hegproto_v2::BinaryOperator const&) [clone .cold]
PUBLIC 22a3e 0 hegproto_v2::BinaryOperator::MergeFrom(google::protobuf::Message const&) [clone .cold]
PUBLIC 22a4e 0 hegproto_v2::Assign::MergeFrom(hegproto_v2::Assign const&) [clone .cold]
PUBLIC 22a5e 0 hegproto_v2::Assign::MergeFrom(google::protobuf::Message const&) [clone .cold]
PUBLIC 22a6e 0 hegproto_v2::ConditionalStmt::MergeFrom(hegproto_v2::ConditionalStmt const&) [clone .cold]
PUBLIC 22a7e 0 hegproto_v2::ConditionalStmt::MergeFrom(google::protobuf::Message const&) [clone .cold]
PUBLIC 22a8e 0 hegproto_v2::TextRef::MergeFrom(hegproto_v2::TextRef const&) [clone .cold]
PUBLIC 22aae 0 hegproto_v2::TextRef::MergeFrom(google::protobuf::Message const&) [clone .cold]
PUBLIC 22abe 0 hegproto_v2::UnhandledConstruct::MergeFrom(hegproto_v2::UnhandledConstruct const&) [clone .cold]
PUBLIC 22ade 0 hegproto_v2::UnhandledConstruct::MergeFrom(google::protobuf::Message const&) [clone .cold]
PUBLIC 22aee 0 hegproto_v2::ModuleInstantiation::MergeFrom(hegproto_v2::ModuleInstantiation const&) [clone .cold]
PUBLIC 22b1e 0 hegproto_v2::ModuleInstantiation::MergeFrom(google::protobuf::Message const&) [clone .cold]
PUBLIC 22b2e 0 hegproto_v2::EventExpression::MergeFrom(hegproto_v2::EventExpression const&) [clone .cold]
PUBLIC 22b4e 0 hegproto_v2::EventExpression::MergeFrom(google::protobuf::Message const&) [clone .cold]
PUBLIC 22b5e 0 hegproto_v2::Block::MergeFrom(hegproto_v2::Block const&) [clone .cold]
PUBLIC 22b7e 0 hegproto_v2::Block::MergeFrom(google::protobuf::Message const&) [clone .cold]
PUBLIC 22b8e 0 hegproto_v2::InstantiationInfo::MergeFrom(hegproto_v2::InstantiationInfo const&) [clone .cold]
PUBLIC 22bae 0 hegproto_v2::InstantiationInfo::MergeFrom(google::protobuf::Message const&) [clone .cold]
PUBLIC 22bbe 0 hegproto_v2::Module::MergeFrom(hegproto_v2::Module const&) [clone .cold]
PUBLIC 22bde 0 hegproto_v2::Module::MergeFrom(google::protobuf::Message const&) [clone .cold]
PUBLIC 22bee 0 hegproto_v2::EventCtrlStmt::MergeFrom(hegproto_v2::EventCtrlStmt const&) [clone .cold]
PUBLIC 22c0e 0 hegproto_v2::EventCtrlStmt::MergeFrom(google::protobuf::Message const&) [clone .cold]
PUBLIC 22c1e 0 hegproto_v2::IndexedExpression::MergeFrom(hegproto_v2::IndexedExpression const&) [clone .cold]
PUBLIC 22c3e 0 hegproto_v2::IndexedExpression::MergeFrom(google::protobuf::Message const&) [clone .cold]
PUBLIC 22c4e 0 hegproto_v2::MacroRef::MergeFrom(hegproto_v2::MacroRef const&) [clone .cold]
PUBLIC 22c7e 0 hegproto_v2::MacroRef::MergeFrom(google::protobuf::Message const&) [clone .cold]
PUBLIC 22c8e 0 hegproto_v2::Variable::~Variable() [clone .cold]
PUBLIC 22c9c 0 hegproto_v2::Constant::~Constant() [clone .cold]
PUBLIC 22caa 0 hegproto_v2::Parameter::~Parameter() [clone .cold]
PUBLIC 22cb8 0 hegproto_v2::UnhandledType::~UnhandledType() [clone .cold]
PUBLIC 22cc6 0 hegproto_v2::ElemRef::~ElemRef() [clone .cold]
PUBLIC 22cd4 0 hegproto_v2::Block::Block(google::protobuf::Arena*) [clone .cold]
PUBLIC 22ce6 0 hegproto_v2::Block* google::protobuf::Arena::CreateMaybeMessage<hegproto_v2::Block>(google::protobuf::Arena*) [clone .cold]
PUBLIC 22cfc 0 hegproto_v2::Block::Block(hegproto_v2::Block const&) [clone .cold]
PUBLIC 22d48 0 hegproto_v2::EventCtrlStmt::EventCtrlStmt(google::protobuf::Arena*) [clone .cold]
PUBLIC 22d5a 0 hegproto_v2::EventCtrlStmt* google::protobuf::Arena::CreateMaybeMessage<hegproto_v2::EventCtrlStmt>(google::protobuf::Arena*) [clone .cold]
PUBLIC 22d70 0 hegproto_v2::EventCtrlStmt::EventCtrlStmt(hegproto_v2::EventCtrlStmt const&) [clone .cold]
PUBLIC 22dae 0 hegproto_v2::EventExpression::EventExpression(google::protobuf::Arena*) [clone .cold]
PUBLIC 22dc0 0 hegproto_v2::EventExpression* google::protobuf::Arena::CreateMaybeMessage<hegproto_v2::EventExpression>(google::protobuf::Arena*) [clone .cold]
PUBLIC 22dd6 0 hegproto_v2::EventExpression::EventExpression(hegproto_v2::EventExpression const&) [clone .cold]
PUBLIC 22e22 0 hegproto_v2::ModuleInstantiation::ModuleInstantiation(google::protobuf::Arena*) [clone .cold]
PUBLIC 22e3c 0 hegproto_v2::ModuleInstantiation* google::protobuf::Arena::CreateMaybeMessage<hegproto_v2::ModuleInstantiation>(google::protobuf::Arena*) [clone .cold]
PUBLIC 22e52 0 hegproto_v2::ModuleInstantiation::ModuleInstantiation(hegproto_v2::ModuleInstantiation const&) [clone .cold]
PUBLIC 22ec4 0 hegproto_v2::InstantiationInfo::InstantiationInfo(google::protobuf::Arena*) [clone .cold]
PUBLIC 22ed6 0 hegproto_v2::InstantiationInfo* google::protobuf::Arena::CreateMaybeMessage<hegproto_v2::InstantiationInfo>(google::protobuf::Arena*) [clone .cold]
PUBLIC 22eec 0 hegproto_v2::InstantiationInfo::InstantiationInfo(hegproto_v2::InstantiationInfo const&) [clone .cold]
PUBLIC 22f38 0 hegproto_v2::IndexedExpression::IndexedExpression(google::protobuf::Arena*) [clone .cold]
PUBLIC 22f4a 0 hegproto_v2::IndexedExpression* google::protobuf::Arena::CreateMaybeMessage<hegproto_v2::IndexedExpression>(google::protobuf::Arena*) [clone .cold]
PUBLIC 22f60 0 hegproto_v2::IndexedExpression::IndexedExpression(hegproto_v2::IndexedExpression const&) [clone .cold]
PUBLIC 22f9e 0 hegproto_v2::Module::Module(google::protobuf::Arena*) [clone .cold]
PUBLIC 22fb0 0 hegproto_v2::Module* google::protobuf::Arena::CreateMaybeMessage<hegproto_v2::Module>(google::protobuf::Arena*) [clone .cold]
PUBLIC 22fc6 0 hegproto_v2::Module::Module(hegproto_v2::Module const&) [clone .cold]
PUBLIC 23012 0 hegproto_v2::UnhandledConstruct::UnhandledConstruct(google::protobuf::Arena*) [clone .cold]
PUBLIC 23024 0 hegproto_v2::UnhandledConstruct* google::protobuf::Arena::CreateMaybeMessage<hegproto_v2::UnhandledConstruct>(google::protobuf::Arena*) [clone .cold]
PUBLIC 2303a 0 hegproto_v2::UnhandledConstruct::UnhandledConstruct(hegproto_v2::UnhandledConstruct const&) [clone .cold]
PUBLIC 23078 0 hegproto_v2::TextRef::TextRef(google::protobuf::Arena*) [clone .cold]
PUBLIC 2308a 0 hegproto_v2::TextRef* google::protobuf::Arena::CreateMaybeMessage<hegproto_v2::TextRef>(google::protobuf::Arena*) [clone .cold]
PUBLIC 230a0 0 hegproto_v2::TextRef::TextRef(hegproto_v2::TextRef const&) [clone .cold]
PUBLIC 230d0 0 hegproto_v2::AlwaysConstruct::~AlwaysConstruct() [clone .cold]
PUBLIC 230de 0 hegproto_v2::Assign::~Assign() [clone .cold]
PUBLIC 230ec 0 hegproto_v2::ConditionalStmt::~ConditionalStmt() [clone .cold]
PUBLIC 230fa 0 hegproto_v2::BinaryOperator::~BinaryOperator() [clone .cold]
PUBLIC 23108 0 hegproto_v2::UnaryOperator::~UnaryOperator() [clone .cold]
PUBLIC 23116 0 hegproto_v2::PortDecl::~PortDecl() [clone .cold]
PUBLIC 23124 0 hegproto_v2::DimensionInfo::~DimensionInfo() [clone .cold]
PUBLIC 23132 0 hegproto_v2::NamePrefix::MergeFrom(hegproto_v2::NamePrefix const&) [clone .cold]
PUBLIC 23142 0 hegproto_v2::NamePrefix::MergeFrom(google::protobuf::Message const&) [clone .cold]
PUBLIC 23152 0 hegproto_v2::NamePrefix::NamePrefix(hegproto_v2::NamePrefix const&) [clone .cold]
PUBLIC 23168 0 hegproto_v2::NamePrefix::~NamePrefix() [clone .cold]
PUBLIC 23176 0 hegproto_v2::SourceChunk::~SourceChunk() [clone .cold]
PUBLIC 23184 0 hegproto_v2::IncludeRef::~IncludeRef() [clone .cold]
PUBLIC 23192 0 hegproto_v2::MacroElement::~MacroElement() [clone .cold]
PUBLIC 231a0 0 hegproto_v2::MacroArg::~MacroArg() [clone .cold]
PUBLIC 231ae 0 hegproto_v2::MacroRef::MacroRef(google::protobuf::Arena*) [clone .cold]
PUBLIC 231c8 0 hegproto_v2::MacroRef* google::protobuf::Arena::CreateMaybeMessage<hegproto_v2::MacroRef>(google::protobuf::Arena*) [clone .cold]
PUBLIC 231de 0 hegproto_v2::MacroRef::MacroRef(hegproto_v2::MacroRef const&) [clone .cold]
PUBLIC 2325e 0 hegproto_v2::MacroRef::~MacroRef() [clone .cold]
PUBLIC 2326c 0 hegproto_v2::MacroDefinition::~MacroDefinition() [clone .cold]
PUBLIC 2327a 0 hegproto_v2::Block::~Block() [clone .cold]
PUBLIC 23288 0 hegproto_v2::TextRef::~TextRef() [clone .cold]
PUBLIC 23296 0 hegproto_v2::EventExpression::~EventExpression() [clone .cold]
PUBLIC 232a4 0 hegproto_v2::InstantiationInfo::~InstantiationInfo() [clone .cold]
PUBLIC 232b2 0 hegproto_v2::Module::~Module() [clone .cold]
PUBLIC 232c0 0 hegproto_v2::IndexedExpression::~IndexedExpression() [clone .cold]
PUBLIC 232ce 0 hegproto_v2::EventCtrlStmt::~EventCtrlStmt() [clone .cold]
PUBLIC 232dc 0 hegproto_v2::UnhandledConstruct::~UnhandledConstruct() [clone .cold]
PUBLIC 232ea 0 hegproto_v2::ModuleInstantiation::~ModuleInstantiation() [clone .cold]
PUBLIC 232f8 0 hegproto_v2::Variable::_InternalParse(char const*, google::protobuf::internal::ParseContext*) [clone .cold]
PUBLIC 23308 0 hegproto_v2::Constant::_InternalParse(char const*, google::protobuf::internal::ParseContext*) [clone .cold]
PUBLIC 23318 0 hegproto_v2::Parameter::_InternalParse(char const*, google::protobuf::internal::ParseContext*) [clone .cold]
PUBLIC 23328 0 hegproto_v2::UnhandledType::_InternalParse(char const*, google::protobuf::internal::ParseContext*) [clone .cold]
PUBLIC 23338 0 hegproto_v2::ElemRef::_InternalParse(char const*, google::protobuf::internal::ParseContext*) [clone .cold]
PUBLIC 23348 0 hegproto_v2::Block::_InternalParse(char const*, google::protobuf::internal::ParseContext*) [clone .cold]
PUBLIC 23358 0 hegproto_v2::EventCtrlStmt::_InternalParse(char const*, google::protobuf::internal::ParseContext*) [clone .cold]
PUBLIC 23368 0 hegproto_v2::EventExpression::_InternalParse(char const*, google::protobuf::internal::ParseContext*) [clone .cold]
PUBLIC 23378 0 hegproto_v2::AlwaysConstruct::_InternalParse(char const*, google::protobuf::internal::ParseContext*) [clone .cold]
PUBLIC 23388 0 hegproto_v2::Assign::_InternalParse(char const*, google::protobuf::internal::ParseContext*) [clone .cold]
PUBLIC 23398 0 hegproto_v2::ConditionalStmt::_InternalParse(char const*, google::protobuf::internal::ParseContext*) [clone .cold]
PUBLIC 233a8 0 hegproto_v2::BinaryOperator::_InternalParse(char const*, google::protobuf::internal::ParseContext*) [clone .cold]
PUBLIC 233b8 0 hegproto_v2::UnaryOperator::_InternalParse(char const*, google::protobuf::internal::ParseContext*) [clone .cold]
PUBLIC 233c8 0 hegproto_v2::ModuleInstantiation::_InternalParse(char const*, google::protobuf::internal::ParseContext*) [clone .cold]
PUBLIC 233d8 0 hegproto_v2::InstantiationInfo::_InternalParse(char const*, google::protobuf::internal::ParseContext*) [clone .cold]
PUBLIC 233e8 0 hegproto_v2::PortDecl::_InternalParse(char const*, google::protobuf::internal::ParseContext*) [clone .cold]
PUBLIC 233f8 0 hegproto_v2::IndexedExpression::_InternalParse(char const*, google::protobuf::internal::ParseContext*) [clone .cold]
PUBLIC 23408 0 hegproto_v2::DimensionInfo::_InternalParse(char const*, google::protobuf::internal::ParseContext*) [clone .cold]
PUBLIC 23418 0 hegproto_v2::NamePrefix::_InternalParse(char const*, google::protobuf::internal::ParseContext*) [clone .cold]
PUBLIC 23428 0 hegproto_v2::Module::_InternalParse(char const*, google::protobuf::internal::ParseContext*) [clone .cold]
PUBLIC 23438 0 hegproto_v2::UnhandledConstruct::_InternalParse(char const*, google::protobuf::internal::ParseContext*) [clone .cold]
PUBLIC 23448 0 hegproto_v2::SourceChunk::_InternalParse(char const*, google::protobuf::internal::ParseContext*) [clone .cold]
PUBLIC 23458 0 hegproto_v2::IncludeRef::_InternalParse(char const*, google::protobuf::internal::ParseContext*) [clone .cold]
PUBLIC 23468 0 hegproto_v2::MacroElement::_InternalParse(char const*, google::protobuf::internal::ParseContext*) [clone .cold]
PUBLIC 23478 0 hegproto_v2::MacroArg::_InternalParse(char const*, google::protobuf::internal::ParseContext*) [clone .cold]
PUBLIC 23488 0 hegproto_v2::MacroRef::_InternalParse(char const*, google::protobuf::internal::ParseContext*) [clone .cold]
PUBLIC 234a8 0 hegproto_v2::MacroDefinition::_InternalParse(char const*, google::protobuf::internal::ParseContext*) [clone .cold]
PUBLIC 234b8 0 hegproto_v2::TextRef::_InternalParse(char const*, google::protobuf::internal::ParseContext*) [clone .cold]
PUBLIC 234c8 0 hegproto_v2::Block::_InternalSerialize(unsigned char*, google::protobuf::io::EpsCopyOutputStream*) const [clone .cold]
PUBLIC 234e8 0 hegproto_v2::EventCtrlStmt::_InternalSerialize(unsigned char*, google::protobuf::io::EpsCopyOutputStream*) const [clone .cold]
PUBLIC 23508 0 hegproto_v2::EventExpression::_InternalSerialize(unsigned char*, google::protobuf::io::EpsCopyOutputStream*) const [clone .cold]
PUBLIC 23528 0 hegproto_v2::ModuleInstantiation::_InternalSerialize(unsigned char*, google::protobuf::io::EpsCopyOutputStream*) const [clone .cold]
PUBLIC 23568 0 hegproto_v2::InstantiationInfo::_InternalSerialize(unsigned char*, google::protobuf::io::EpsCopyOutputStream*) const [clone .cold]
PUBLIC 23588 0 hegproto_v2::IndexedExpression::_InternalSerialize(unsigned char*, google::protobuf::io::EpsCopyOutputStream*) const [clone .cold]
PUBLIC 235a8 0 hegproto_v2::Module::_InternalSerialize(unsigned char*, google::protobuf::io::EpsCopyOutputStream*) const [clone .cold]
PUBLIC 235c8 0 hegproto_v2::UnhandledConstruct::_InternalSerialize(unsigned char*, google::protobuf::io::EpsCopyOutputStream*) const [clone .cold]
PUBLIC 235e8 0 hegproto_v2::TextRef::_InternalSerialize(unsigned char*, google::protobuf::io::EpsCopyOutputStream*) const [clone .cold]
PUBLIC 23608 0 hegproto_v2::MacroRef::_InternalSerialize(unsigned char*, google::protobuf::io::EpsCopyOutputStream*) const [clone .cold]
PUBLIC 23648 0 hiertreeproto_v2::Attribute::~Attribute() [clone .cold]
PUBLIC 23656 0 hiertreeproto_v2::MessageType::~MessageType() [clone .cold]
PUBLIC 23664 0 hiertreeproto_v2::Signal_Attribute::~Signal_Attribute() [clone .cold]
PUBLIC 23672 0 hiertreeproto_v2::Node* google::protobuf::Arena::CreateMaybeMessage<hiertreeproto_v2::Node>(google::protobuf::Arena*) [clone .cold]
PUBLIC 23688 0 hiertreeproto_v2::NamedBlock* google::protobuf::Arena::CreateMaybeMessage<hiertreeproto_v2::NamedBlock>(google::protobuf::Arena*) [clone .cold]
PUBLIC 2369e 0 hiertreeproto_v2::Signal_Attribute* google::protobuf::Arena::CreateMaybeMessage<hiertreeproto_v2::Signal_Attribute>(google::protobuf::Arena*) [clone .cold]
PUBLIC 236b4 0 hiertreeproto_v2::Signal* google::protobuf::Arena::CreateMaybeMessage<hiertreeproto_v2::Signal>(google::protobuf::Arena*) [clone .cold]
PUBLIC 236ca 0 hiertreeproto_v2::ModuleItem* google::protobuf::Arena::CreateMaybeMessage<hiertreeproto_v2::ModuleItem>(google::protobuf::Arena*) [clone .cold]
PUBLIC 236e0 0 hiertreeproto_v2::Edge* google::protobuf::Arena::CreateMaybeMessage<hiertreeproto_v2::Edge>(google::protobuf::Arena*) [clone .cold]
PUBLIC 236f6 0 hiertreeproto_v2::Genvar* google::protobuf::Arena::CreateMaybeMessage<hiertreeproto_v2::Genvar>(google::protobuf::Arena*) [clone .cold]
PUBLIC 2370c 0 hiertreeproto_v2::ParameterValue* google::protobuf::Arena::CreateMaybeMessage<hiertreeproto_v2::ParameterValue>(google::protobuf::Arena*) [clone .cold]
PUBLIC 23722 0 hiertreeproto_v2::Parameter* google::protobuf::Arena::CreateMaybeMessage<hiertreeproto_v2::Parameter>(google::protobuf::Arena*) [clone .cold]
PUBLIC 23738 0 hiertreeproto_v2::Attribute* google::protobuf::Arena::CreateMaybeMessage<hiertreeproto_v2::Attribute>(google::protobuf::Arena*) [clone .cold]
PUBLIC 2374e 0 hiertreeproto_v2::MessageType* google::protobuf::Arena::CreateMaybeMessage<hiertreeproto_v2::MessageType>(google::protobuf::Arena*) [clone .cold]
PUBLIC 23764 0 hiertreeproto_v2::CoercedPort* google::protobuf::Arena::CreateMaybeMessage<hiertreeproto_v2::CoercedPort>(google::protobuf::Arena*) [clone .cold]
PUBLIC 2377a 0 hiertreeproto_v2::Signal_Attribute::_InternalParse(char const*, google::protobuf::internal::ParseContext*) [clone .cold]
PUBLIC 2378a 0 hiertreeproto_v2::MessageType::_InternalParse(char const*, google::protobuf::internal::ParseContext*) [clone .cold]
PUBLIC 2379a 0 hiertreeproto_v2::Node::Node(hiertreeproto_v2::Node const&) [clone .cold]
PUBLIC 237ee 0 hiertreeproto_v2::Attribute::_InternalParse(char const*, google::protobuf::internal::ParseContext*) [clone .cold]
PUBLIC 237fe 0 hiertreeproto_v2::CoercedPort::CoercedPort(hiertreeproto_v2::CoercedPort const&) [clone .cold]
PUBLIC 23814 0 hiertreeproto_v2::MessageType::MergeFrom(hiertreeproto_v2::MessageType const&) [clone .cold]
PUBLIC 23824 0 hiertreeproto_v2::MessageType::MergeFrom(google::protobuf::Message const&) [clone .cold]
PUBLIC 23834 0 hiertreeproto_v2::Attribute::MergeFrom(hiertreeproto_v2::Attribute const&) [clone .cold]
PUBLIC 23844 0 hiertreeproto_v2::Attribute::MergeFrom(google::protobuf::Message const&) [clone .cold]
PUBLIC 23854 0 hiertreeproto_v2::ParameterValue::ParameterValue(hiertreeproto_v2::ParameterValue const&) [clone .cold]
PUBLIC 2386a 0 hiertreeproto_v2::CoercedPort::MergeFrom(hiertreeproto_v2::CoercedPort const&) [clone .cold]
PUBLIC 2387a 0 hiertreeproto_v2::CoercedPort::MergeFrom(google::protobuf::Message const&) [clone .cold]
PUBLIC 2388a 0 hiertreeproto_v2::Signal_Attribute::MergeFrom(hiertreeproto_v2::Signal_Attribute const&) [clone .cold]
PUBLIC 2389a 0 hiertreeproto_v2::Signal_Attribute::MergeFrom(google::protobuf::Message const&) [clone .cold]
PUBLIC 238aa 0 hiertreeproto_v2::Edge::Edge(hiertreeproto_v2::Edge const&) [clone .cold]
PUBLIC 238d4 0 hiertreeproto_v2::ParameterValue::MergeFrom(hiertreeproto_v2::ParameterValue const&) [clone .cold]
PUBLIC 238e4 0 hiertreeproto_v2::ParameterValue::MergeFrom(google::protobuf::Message const&) [clone .cold]
PUBLIC 238f4 0 hiertreeproto_v2::Edge::MergeFrom(hiertreeproto_v2::Edge const&) [clone .cold]
PUBLIC 23904 0 hiertreeproto_v2::Edge::MergeFrom(google::protobuf::Message const&) [clone .cold]
PUBLIC 23914 0 hiertreeproto_v2::NamedBlock::NamedBlock(hiertreeproto_v2::NamedBlock const&) [clone .cold]
PUBLIC 2393e 0 hiertreeproto_v2::NamedBlock::MergeFrom(hiertreeproto_v2::NamedBlock const&) [clone .cold]
PUBLIC 2394e 0 hiertreeproto_v2::NamedBlock::MergeFrom(google::protobuf::Message const&) [clone .cold]
PUBLIC 2395e 0 hiertreeproto_v2::Parameter::MergeFrom(hiertreeproto_v2::Parameter const&) [clone .cold]
PUBLIC 2396e 0 hiertreeproto_v2::Parameter::MergeFrom(google::protobuf::Message const&) [clone .cold]
PUBLIC 2397e 0 hiertreeproto_v2::Parameter::Parameter(hiertreeproto_v2::Parameter const&) [clone .cold]
PUBLIC 239be 0 hiertreeproto_v2::Genvar::MergeFrom(hiertreeproto_v2::Genvar const&) [clone .cold]
PUBLIC 239ce 0 hiertreeproto_v2::Genvar::MergeFrom(google::protobuf::Message const&) [clone .cold]
PUBLIC 239de 0 hiertreeproto_v2::Genvar::Genvar(hiertreeproto_v2::Genvar const&) [clone .cold]
PUBLIC 23a1e 0 hiertreeproto_v2::ModuleItem::MergeFrom(hiertreeproto_v2::ModuleItem const&) [clone .cold]
PUBLIC 23a2e 0 hiertreeproto_v2::ModuleItem::MergeFrom(google::protobuf::Message const&) [clone .cold]
PUBLIC 23a3e 0 hiertreeproto_v2::Signal::MergeFrom(hiertreeproto_v2::Signal const&) [clone .cold]
PUBLIC 23a4e 0 hiertreeproto_v2::Signal::MergeFrom(google::protobuf::Message const&) [clone .cold]
PUBLIC 23a5e 0 hiertreeproto_v2::Node::MergeFrom(hiertreeproto_v2::Node const&) [clone .cold]
PUBLIC 23a6e 0 hiertreeproto_v2::Node::MergeFrom(google::protobuf::Message const&) [clone .cold]
PUBLIC 23a7e 0 hiertreeproto_v2::ModuleItem::ModuleItem(hiertreeproto_v2::ModuleItem const&) [clone .cold]
PUBLIC 23abe 0 hiertreeproto_v2::Signal::Signal(hiertreeproto_v2::Signal const&) [clone .cold]
PUBLIC 23b12 0 hiertreeproto_v2::Node::~Node() [clone .cold]
PUBLIC 23b20 0 hiertreeproto_v2::NamedBlock::~NamedBlock() [clone .cold]
PUBLIC 23b2e 0 hiertreeproto_v2::Signal::~Signal() [clone .cold]
PUBLIC 23b3c 0 hiertreeproto_v2::ModuleItem::~ModuleItem() [clone .cold]
PUBLIC 23b4a 0 hiertreeproto_v2::Edge::~Edge() [clone .cold]
PUBLIC 23b58 0 hiertreeproto_v2::Genvar::~Genvar() [clone .cold]
PUBLIC 23b66 0 hiertreeproto_v2::Parameter::~Parameter() [clone .cold]
PUBLIC 23b74 0 hiertreeproto_v2::CoercedPort::~CoercedPort() [clone .cold]
PUBLIC 23b82 0 hiertreeproto_v2::Node::_InternalParse(char const*, google::protobuf::internal::ParseContext*) [clone .cold]
PUBLIC 23b92 0 hiertreeproto_v2::NamedBlock::_InternalParse(char const*, google::protobuf::internal::ParseContext*) [clone .cold]
PUBLIC 23ba2 0 hiertreeproto_v2::Signal::_InternalParse(char const*, google::protobuf::internal::ParseContext*) [clone .cold]
PUBLIC 23bc2 0 hiertreeproto_v2::ModuleItem::_InternalParse(char const*, google::protobuf::internal::ParseContext*) [clone .cold]
PUBLIC 23bd2 0 hiertreeproto_v2::Edge::_InternalParse(char const*, google::protobuf::internal::ParseContext*) [clone .cold]
PUBLIC 23be2 0 hiertreeproto_v2::Genvar::_InternalParse(char const*, google::protobuf::internal::ParseContext*) [clone .cold]
PUBLIC 23bf2 0 hiertreeproto_v2::Parameter::_InternalParse(char const*, google::protobuf::internal::ParseContext*) [clone .cold]
PUBLIC 23c02 0 hiertreeproto_v2::CoercedPort::_InternalParse(char const*, google::protobuf::internal::ParseContext*) [clone .cold]
PUBLIC 23c12 0 hiertreeproto_v2::ParameterValue::~ParameterValue() [clone .cold]
PUBLIC 23c20 0 hiertreeproto_v2::ParameterValue::_InternalParse(char const*, google::protobuf::internal::ParseContext*) [clone .cold]
PUBLIC 23c40 0 google::protobuf::internal::LogMessage::operator<<(google::protobuf::util::Status const&) [clone .cold]
PUBLIC 23c5c 0 google::protobuf::internal::LogMessage::Finish() [clone .cold]
PUBLIC 23d42 0 google::protobuf::internal::LogMessage::operator<<(google::protobuf::uint128 const&) [clone .cold]
PUBLIC 23dea 0 google::protobuf::internal::VerifyVersion(int, int, char const*) [clone .cold]
PUBLIC 23e5a 0 google::protobuf::internal::LogMessage::operator<<(google::protobuf::StringPiece const&) [clone .cold]
PUBLIC 23e70 0 google::protobuf::uint128::DivModImpl(google::protobuf::uint128, google::protobuf::uint128, google::protobuf::uint128*, google::protobuf::uint128*) [clone .cold]
PUBLIC 23e80 0 google::protobuf::operator<<(std::ostream&, google::protobuf::uint128 const&) [clone .cold]
PUBLIC 23f38 0 google::protobuf::util::Status::Status(google::protobuf::util::error::Code, google::protobuf::StringPiece) [clone .cold]
PUBLIC 23f4e 0 google::protobuf::util::Status::ToString[abi:cxx11]() const [clone .cold]
PUBLIC 23f7b 0 google::protobuf::util::operator<<(std::ostream&, google::protobuf::util::Status const&) [clone .cold]
PUBLIC 23f96 0 google::protobuf::StringPiece::LogFatalSizeTooBig(unsigned long, char const*) [clone .cold]
PUBLIC 23fa6 0 google::protobuf::internal::ArenaImpl::NewBlock(google::protobuf::internal::ArenaImpl::Block*, unsigned long) [clone .cold]
PUBLIC 23fb6 0 google::protobuf::internal::InitProtobufDefaults() [clone .cold]
PUBLIC 23fca 0 google::protobuf::internal::SerializeMessageNoTable(google::protobuf::MessageLite const*, google::protobuf::internal::ArrayOutput*) [clone .cold]
PUBLIC 23fda 0 google::protobuf::internal::SerializeNotImplemented(int) [clone .cold]
PUBLIC 23fea 0 google::protobuf::internal::GenericSwap(google::protobuf::MessageLite*, google::protobuf::MessageLite*) [clone .cold]
PUBLIC 23ffc 0 google::protobuf::internal::InitSCCImpl(google::protobuf::internal::SCCInfoBase*) [clone .cold]
PUBLIC 2400c 0 google::protobuf::internal::SerializeInternalToArray(unsigned char const*, google::protobuf::internal::FieldMetadata const*, int, bool, unsigned char*) [clone .cold]
PUBLIC 2401c 0 google::protobuf::MessageLite::LogInitializationErrorMessage() const [clone .cold]
PUBLIC 24070 0 google::protobuf::MessageLite::SerializePartialToCodedStream(google::protobuf::io::CodedOutputStream*) const [clone .cold]
PUBLIC 240de 0 google::protobuf::MessageLite::SerializePartialToZeroCopyStream(google::protobuf::io::ZeroCopyOutputStream*) const [clone .cold]
PUBLIC 240fe 0 google::protobuf::MessageLite::AppendPartialToString(std::__cxx11::basic_string<char, std::char_traits<char>, std::allocator<char> >*) const [clone .cold]
PUBLIC 2411e 0 google::protobuf::MessageLite::SerializePartialToArray(void*, int) const [clone .cold]
PUBLIC 2413e 0 google::protobuf::MessageLite::SerializeAsString[abi:cxx11]() const [clone .cold]
PUBLIC 24154 0 google::protobuf::MessageLite::SerializePartialAsString[abi:cxx11]() const [clone .cold]
PUBLIC 2416a 0 google::protobuf::ShutdownProtobufLibrary() [clone .cold]
PUBLIC 2417a 0 google::protobuf::internal::OnShutdownRun(void (*)(void const*), void const*) [clone .cold]
PUBLIC 241a0 0 google::protobuf::MessageLite::ParseFromFileDescriptor(int) [clone .cold]
PUBLIC 241cc 0 google::protobuf::MessageLite::ParsePartialFromFileDescriptor(int) [clone .cold]
PUBLIC 241f8 0 google::protobuf::MessageLite::ParseFromIstream(std::istream*) [clone .cold]
PUBLIC 24224 0 google::protobuf::MessageLite::ParsePartialFromIstream(std::istream*) [clone .cold]
PUBLIC 24250 0 google::protobuf::MessageLite::SerializeToFileDescriptor(int) const [clone .cold]
PUBLIC 24260 0 google::protobuf::MessageLite::SerializePartialToFileDescriptor(int) const [clone .cold]
PUBLIC 24270 0 google::protobuf::MessageLite::SerializeToOstream(std::ostream*) const [clone .cold]
PUBLIC 24280 0 google::protobuf::MessageLite::SerializePartialToOstream(std::ostream*) const [clone .cold]
PUBLIC 24290 0 google::protobuf::internal::VerifyUTF8(google::protobuf::StringPiece, char const*) [clone .cold]
PUBLIC 242a8 0 google::protobuf::internal::WireFormatLite::SkipField(google::protobuf::io::CodedInputStream*, unsigned int, google::protobuf::io::CodedOutputStream*) [clone .cold]
PUBLIC 242be 0 google::protobuf::internal::WireFormatLite::WriteString(int, std::__cxx11::basic_string<char, std::char_traits<char>, std::allocator<char> > const&, google::protobuf::io::CodedOutputStream*) [clone .cold]
PUBLIC 242ce 0 google::protobuf::internal::WireFormatLite::WriteStringMaybeAliased(int, std::__cxx11::basic_string<char, std::char_traits<char>, std::allocator<char> > const&, google::protobuf::io::CodedOutputStream*) [clone .cold]
PUBLIC 242de 0 google::protobuf::internal::WireFormatLite::WriteBytes(int, std::__cxx11::basic_string<char, std::char_traits<char>, std::allocator<char> > const&, google::protobuf::io::CodedOutputStream*) [clone .cold]
PUBLIC 242ee 0 google::protobuf::internal::WireFormatLite::WriteBytesMaybeAliased(int, std::__cxx11::basic_string<char, std::char_traits<char>, std::allocator<char> > const&, google::protobuf::io::CodedOutputStream*) [clone .cold]
PUBLIC 242fe 0 google::protobuf::internal::PrintUTF8ErrorLog(char const*, char const*, bool) [clone .cold]
PUBLIC 2432c 0 google::protobuf::io::CodedInputStream::PrintTotalBytesLimitError() [clone .cold]
PUBLIC 2433c 0 google::protobuf::io::CodedInputStream::Refresh() [clone .cold]
PUBLIC 2434c 0 google::protobuf::io::ConcatenatingInputStream::BackUp(int) [clone .cold]
PUBLIC 2435c 0 google::protobuf::io::FileInputStream::CopyingFileInputStream::Read(void*, int) [clone .cold]
PUBLIC 2436c 0 google::protobuf::io::FileInputStream::CopyingFileInputStream::Skip(int) [clone .cold]
PUBLIC 2437c 0 google::protobuf::io::FileOutputStream::CopyingFileOutputStream::Write(void const*, int) [clone .cold]
PUBLIC 2438c 0 google::protobuf::io::FileInputStream::CopyingFileInputStream::Close() [clone .cold]
PUBLIC 2439c 0 google::protobuf::io::FileInputStream::FileInputStream(int, int) [clone .cold]
PUBLIC 243ac 0 google::protobuf::io::FileOutputStream::CopyingFileOutputStream::Close() [clone .cold]
PUBLIC 243bc 0 google::protobuf::io::FileOutputStream::FileOutputStream(int, int) [clone .cold]
PUBLIC 243cc 0 google::protobuf::io::IstreamInputStream::IstreamInputStream(std::istream*, int) [clone .cold]
PUBLIC 243dc 0 google::protobuf::io::OstreamOutputStream::OstreamOutputStream(std::ostream*, int) [clone .cold]
PUBLIC 243ec 0 google::protobuf::io::ArrayInputStream::BackUp(int) [clone .cold]
PUBLIC 2441c 0 google::protobuf::io::ArrayInputStream::Skip(int) [clone .cold]
PUBLIC 2442c 0 google::protobuf::io::ArrayOutputStream::BackUp(int) [clone .cold]
PUBLIC 2445c 0 google::protobuf::io::StringOutputStream::ByteCount() const [clone .cold]
PUBLIC 2446c 0 google::protobuf::io::CopyingOutputStreamAdaptor::BackUp(int) [clone .cold]
PUBLIC 2449c 0 google::protobuf::io::CopyingInputStreamAdaptor::BackUp(int) [clone .cold]
PUBLIC 244cc 0 google::protobuf::io::StringOutputStream::BackUp(int) [clone .cold]
PUBLIC 244fc 0 google::protobuf::io::StringOutputStream::Next(void**, int*) [clone .cold]
PUBLIC 2451c 0 google::protobuf::io::CopyingInputStreamAdaptor::Skip(int) [clone .cold]
PUBLIC 2452c 0 google::protobuf::io::CopyingInputStreamAdaptor::FreeBuffer() [clone .cold]
PUBLIC 2453c 0 google::protobuf::(anonymous namespace)::ReportReflectionUsageError(google::protobuf::Descriptor const*, google::protobuf::FieldDescriptor const*, char const*, char const*) [clone .cold]
PUBLIC 2454c 0 google::protobuf::(anonymous namespace)::ReportReflectionUsageEnumTypeError(google::protobuf::Descriptor const*, google::protobuf::FieldDescriptor const*, char const*, google::protobuf::EnumValueDescriptor const*) [clone .cold]
PUBLIC 2455c 0 google::protobuf::(anonymous namespace)::ReportReflectionUsageTypeError(google::protobuf::Descriptor const*, google::protobuf::FieldDescriptor const*, char const*, google::protobuf::FieldDescriptor::CppType) [clone .cold]
PUBLIC 2456c 0 google::protobuf::Reflection::SetRepeatedString(google::protobuf::Message*, google::protobuf::FieldDescriptor const*, int, std::__cxx11::basic_string<char, std::char_traits<char>, std::allocator<char> >) const [clone .cold]
PUBLIC 24584 0 google::protobuf::Reflection::AddString(google::protobuf::Message*, google::protobuf::FieldDescriptor const*, std::__cxx11::basic_string<char, std::char_traits<char>, std::allocator<char> >) const [clone .cold]
PUBLIC 2459c 0 google::protobuf::Reflection::RepeatedFieldData(google::protobuf::Message*, google::protobuf::FieldDescriptor const*, google::protobuf::FieldDescriptor::CppType, google::protobuf::Descriptor const*) const [clone .cold]
PUBLIC 245d6 0 google::protobuf::Reflection::MutableRawRepeatedField(google::protobuf::Message*, google::protobuf::FieldDescriptor const*, google::protobuf::FieldDescriptor::CppType, int, google::protobuf::Descriptor const*) const [clone .cold]
PUBLIC 245e6 0 google::protobuf::Reflection::GetRawRepeatedField(google::protobuf::Message const&, google::protobuf::FieldDescriptor const*, google::protobuf::FieldDescriptor::CppType, int, google::protobuf::Descriptor const*) const [clone .cold]
PUBLIC 24606 0 google::protobuf::Reflection::InsertOrLookupMapValue(google::protobuf::Message*, google::protobuf::FieldDescriptor const*, google::protobuf::MapKey const&, google::protobuf::MapValueRef*) const [clone .cold]
PUBLIC 2461e 0 google::protobuf::Reflection::MapBegin(google::protobuf::Message*, google::protobuf::FieldDescriptor const*) const [clone .cold]
PUBLIC 24672 0 google::protobuf::Reflection::MapEnd(google::protobuf::Message*, google::protobuf::FieldDescriptor const*) const [clone .cold]
PUBLIC 246c6 0 google::protobuf::Reflection::FieldSize(google::protobuf::Message const&, google::protobuf::FieldDescriptor const*) const [clone .cold]
PUBLIC 246d6 0 google::protobuf::(anonymous namespace)::AssignDescriptorsImpl(google::protobuf::internal::DescriptorTable const*, bool) [clone .cold]
PUBLIC 24720 0 google::protobuf::Reflection::SetString(google::protobuf::Message*, google::protobuf::FieldDescriptor const*, std::__cxx11::basic_string<char, std::char_traits<char>, std::allocator<char> >) const [clone .cold]
PUBLIC 24738 0 google::protobuf::Reflection::SwapOneofField(google::protobuf::Message*, google::protobuf::Message*, google::protobuf::OneofDescriptor const*) const [clone .cold]
PUBLIC 24786 0 google::protobuf::Reflection::SwapField(google::protobuf::Message*, google::protobuf::Message*, google::protobuf::FieldDescriptor const*) const [clone .cold]
PUBLIC 247be 0 google::protobuf::Reflection::Swap(google::protobuf::Message*, google::protobuf::Message*) const [clone .cold]
PUBLIC 247f2 0 google::protobuf::Reflection::SwapFields(google::protobuf::Message*, google::protobuf::Message*, std::vector<google::protobuf::FieldDescriptor const*, std::allocator<google::protobuf::FieldDescriptor const*> > const&) const [clone .cold]
PUBLIC 24842 0 std::_Rb_tree<google::protobuf::internal::KeyView<google::protobuf::MapKey>*, google::protobuf::internal::KeyView<google::protobuf::MapKey>*, std::_Identity<google::protobuf::internal::KeyView<google::protobuf::MapKey>*>, google::protobuf::internal::DerefCompare<google::protobuf::internal::KeyView<google::protobuf::MapKey> >, google::protobuf::internal::MapAllocator<google::protobuf::internal::KeyView<google::protobuf::MapKey>*> >::_M_lower_bound(std::_Rb_tree_node<google::protobuf::internal::KeyView<google::protobuf::MapKey>*>*, std::_Rb_tree_node_base*, google::protobuf::internal::KeyView<google::protobuf::MapKey>* const&) [clone .isra.0] [clone .cold]
PUBLIC 24872 0 google::protobuf::internal::DynamicMapField::SetMapIteratorValue(google::protobuf::MapIterator*) const [clone .cold]
PUBLIC 24892 0 google::protobuf::internal::DynamicMapField::DynamicMapField(google::protobuf::Message const*) [clone .cold]
PUBLIC 248c2 0 google::protobuf::internal::DynamicMapField::DynamicMapField(google::protobuf::Message const*, google::protobuf::Arena*) [clone .cold]
PUBLIC 248f2 0 google::protobuf::internal::DynamicMapField::SyncRepeatedFieldWithMapNoLock() const [clone .cold]
PUBLIC 24a24 0 google::protobuf::internal::DynamicMapField::SyncMapWithRepeatedFieldNoLock() const [clone .cold]
PUBLIC 24a68 0 google::protobuf::internal::DynamicMapField::MergeFrom(google::protobuf::internal::MapFieldBase const&) [clone .cold]
PUBLIC 24cd4 0 google::protobuf::internal::DynamicMapField::Swap(google::protobuf::internal::MapFieldBase*) [clone .cold]
PUBLIC 24d9c 0 google::protobuf::Message::SetCachedSize(int) const [clone .cold]
PUBLIC 24dac 0 google::protobuf::Message::MergeFrom(google::protobuf::Message const&) [clone .cold]
PUBLIC 24dc6 0 google::protobuf::Message::CopyFrom(google::protobuf::Message const&) [clone .cold]
PUBLIC 24de0 0 google::protobuf::(anonymous namespace)::GeneratedMessageFactory::singleton() [clone .cold]
PUBLIC 24df4 0 google::protobuf::Message::FindInitializationErrors(std::vector<std::__cxx11::basic_string<char, std::char_traits<char>, std::allocator<char> >, std::allocator<std::__cxx11::basic_string<char, std::char_traits<char>, std::allocator<char> > > >*) const [clone .cold]
PUBLIC 24e0a 0 google::protobuf::Message::InitializationErrorString[abi:cxx11]() const [clone .cold]
PUBLIC 24e54 0 google::protobuf::Message::CheckInitialized() const [clone .cold]
PUBLIC 24e78 0 google::protobuf::Reflection::RepeatedFieldAccessor(google::protobuf::FieldDescriptor const*) const [clone .cold]
PUBLIC 24e98 0 google::protobuf::(anonymous namespace)::GeneratedMessageFactory::GetPrototype(google::protobuf::Descriptor const*) [clone .cold]
PUBLIC 24ec8 0 google::protobuf::MessageFactory::InternalRegisterGeneratedFile(google::protobuf::internal::DescriptorTable const*) [clone .cold]
PUBLIC 24efa 0 google::protobuf::MessageFactory::InternalRegisterGeneratedMessage(google::protobuf::Descriptor const*, google::protobuf::Message const*) [clone .cold]
PUBLIC 24f2c 0 google::protobuf::internal::GenericSwap(google::protobuf::Message*, google::protobuf::Message*) [clone .cold]
PUBLIC 24f42 0 google::protobuf::internal::GetReflectionOrDie(google::protobuf::Message const&) [clone .cold]
PUBLIC 24f62 0 google::protobuf::internal::ReflectionOps::Merge(google::protobuf::Message const&, google::protobuf::Message*) [clone .cold]
PUBLIC 24fce 0 google::protobuf::internal::ReflectionOps::Clear(google::protobuf::Message*) [clone .cold]
PUBLIC 24fe4 0 google::protobuf::internal::ReflectionOps::IsInitialized(google::protobuf::Message const&) [clone .cold]
PUBLIC 250dc 0 google::protobuf::internal::ReflectionOps::DiscardUnknownFields(google::protobuf::Message*) [clone .cold]
PUBLIC 251cf 0 google::protobuf::internal::SubMessagePrefix(std::__cxx11::basic_string<char, std::char_traits<char>, std::allocator<char> > const&, google::protobuf::FieldDescriptor const*, int) [clone .cold]
PUBLIC 251f4 0 google::protobuf::internal::ReflectionOps::FindInitializationErrors(google::protobuf::Message const&, std::__cxx11::basic_string<char, std::char_traits<char>, std::allocator<char> > const&, std::vector<std::__cxx11::basic_string<char, std::char_traits<char>, std::allocator<char> >, std::allocator<std::__cxx11::basic_string<char, std::char_traits<char>, std::allocator<char> > > >*) [clone .cold]
PUBLIC 25268 0 google::protobuf::(anonymous namespace)::FieldValuePrinterWrapper::PrintMessageEnd(google::protobuf::Message const&, int, int, bool, google::protobuf::TextFormat::BaseTextGenerator*) const [clone .cold]
PUBLIC 25284 0 google::protobuf::(anonymous namespace)::FieldValuePrinterWrapper::PrintMessageStart(google::protobuf::Message const&, int, int, bool, google::protobuf::TextFormat::BaseTextGenerator*) const [clone .cold]
PUBLIC 252a0 0 google::protobuf::(anonymous namespace)::FieldValuePrinterWrapper::PrintFieldName(google::protobuf::Message const&, google::protobuf::Reflection const*, google::protobuf::FieldDescriptor const*, google::protobuf::TextFormat::BaseTextGenerator*) const [clone .cold]
PUBLIC 252bc 0 google::protobuf::(anonymous namespace)::FieldValuePrinterWrapper::PrintFieldName(google::protobuf::Message const&, int, int, google::protobuf::Reflection const*, google::protobuf::FieldDescriptor const*, google::protobuf::TextFormat::BaseTextGenerator*) const [clone .cold]
PUBLIC 252d8 0 google::protobuf::(anonymous namespace)::FieldValuePrinterWrapper::PrintEnum(int, std::__cxx11::basic_string<char, std::char_traits<char>, std::allocator<char> > const&, google::protobuf::TextFormat::BaseTextGenerator*) const [clone .cold]
PUBLIC 252f4 0 google::protobuf::(anonymous namespace)::FieldValuePrinterWrapper::PrintBytes(std::__cxx11::basic_string<char, std::char_traits<char>, std::allocator<char> > const&, google::protobuf::TextFormat::BaseTextGenerator*) const [clone .cold]
PUBLIC 25310 0 google::protobuf::(anonymous namespace)::FieldValuePrinterWrapper::PrintString(std::__cxx11::basic_string<char, std::char_traits<char>, std::allocator<char> > const&, google::protobuf::TextFormat::BaseTextGenerator*) const [clone .cold]
PUBLIC 2532c 0 google::protobuf::(anonymous namespace)::FieldValuePrinterWrapper::PrintDouble(double, google::protobuf::TextFormat::BaseTextGenerator*) const [clone .cold]
PUBLIC 25348 0 google::protobuf::(anonymous namespace)::FieldValuePrinterWrapper::PrintFloat(float, google::protobuf::TextFormat::BaseTextGenerator*) const [clone .cold]
PUBLIC 25364 0 google::protobuf::(anonymous namespace)::FieldValuePrinterWrapper::PrintUInt64(unsigned long, google::protobuf::TextFormat::BaseTextGenerator*) const [clone .cold]
PUBLIC 25380 0 google::protobuf::(anonymous namespace)::FieldValuePrinterWrapper::PrintInt64(long, google::protobuf::TextFormat::BaseTextGenerator*) const [clone .cold]
PUBLIC 2539c 0 google::protobuf::(anonymous namespace)::FieldValuePrinterWrapper::PrintUInt32(unsigned int, google::protobuf::TextFormat::BaseTextGenerator*) const [clone .cold]
PUBLIC 253b8 0 google::protobuf::(anonymous namespace)::FieldValuePrinterWrapper::PrintInt32(int, google::protobuf::TextFormat::BaseTextGenerator*) const [clone .cold]
PUBLIC 253d4 0 google::protobuf::(anonymous namespace)::FieldValuePrinterWrapper::PrintBool(bool, google::protobuf::TextFormat::BaseTextGenerator*) const [clone .cold]
PUBLIC 253f0 0 google::protobuf::TextFormat::FastFieldValuePrinter::PrintString(std::__cxx11::basic_string<char, std::char_traits<char>, std::allocator<char> > const&, google::protobuf::TextFormat::BaseTextGenerator*) const [clone .cold]
PUBLIC 2540c 0 google::protobuf::(anonymous namespace)::FastFieldValuePrinterUtf8Escaping::PrintString(std::__cxx11::basic_string<char, std::char_traits<char>, std::allocator<char> > const&, google::protobuf::TextFormat::BaseTextGenerator*) const [clone .cold]
PUBLIC 25427 0 google::protobuf::CheckFieldIndex(google::protobuf::FieldDescriptor const*, int) [clone .cold]
PUBLIC 25447 0 google::protobuf::(anonymous namespace)::CheckParseInputSize(google::protobuf::StringPiece, google::protobuf::io::ErrorCollector*) [clone .isra.0] [clone .cold]
PUBLIC 25464 0 google::protobuf::TextFormat::Printer::SetDefaultFieldValuePrinter(google::protobuf::TextFormat::FieldValuePrinter const*) [clone .cold]
PUBLIC 2547a 0 google::protobuf::TextFormat::Printer::SetUseUtf8StringEscaping(bool) [clone .cold]
PUBLIC 254a4 0 google::protobuf::TextFormat::Printer::Printer() [clone .cold]
PUBLIC 254d6 0 google::protobuf::TextFormat::Printer::RegisterFieldValuePrinter(google::protobuf::FieldDescriptor const*, google::protobuf::TextFormat::FieldValuePrinter const*) [clone .cold]
PUBLIC 2551c 0 google::protobuf::TextFormat::FastFieldValuePrinter::PrintInt32(int, google::protobuf::TextFormat::BaseTextGenerator*) const [clone .cold]
PUBLIC 25532 0 google::protobuf::TextFormat::FastFieldValuePrinter::PrintUInt32(unsigned int, google::protobuf::TextFormat::BaseTextGenerator*) const [clone .cold]
PUBLIC 25548 0 google::protobuf::TextFormat::FastFieldValuePrinter::PrintInt64(long, google::protobuf::TextFormat::BaseTextGenerator*) const [clone .cold]
PUBLIC 2555e 0 google::protobuf::TextFormat::FastFieldValuePrinter::PrintUInt64(unsigned long, google::protobuf::TextFormat::BaseTextGenerator*) const [clone .cold]
PUBLIC 25574 0 google::protobuf::TextFormat::Printer::PrintFieldName(google::protobuf::Message const&, int, int, google::protobuf::Reflection const*, google::protobuf::FieldDescriptor const*, google::protobuf::TextFormat::Printer::TextGenerator*) const [clone .cold]
PUBLIC 2558a 0 google::protobuf::TextFormat::Printer::PrintUnknownFields(google::protobuf::UnknownFieldSet const&, google::protobuf::TextFormat::Printer::TextGenerator*, int) const [clone .cold]
PUBLIC 255f0 0 google::protobuf::TextFormat::Printer::PrintUnknownFields(google::protobuf::UnknownFieldSet const&, google::protobuf::io::ZeroCopyOutputStream*) const [clone .cold]
PUBLIC 25600 0 google::protobuf::TextFormat::PrintUnknownFields(google::protobuf::UnknownFieldSet const&, google::protobuf::io::ZeroCopyOutputStream*) [clone .cold]
PUBLIC 25610 0 google::protobuf::TextFormat::PrintUnknownFieldsToString(google::protobuf::UnknownFieldSet const&, std::__cxx11::basic_string<char, std::char_traits<char>, std::allocator<char> >*) [clone .cold]
PUBLIC 25620 0 google::protobuf::TextFormat::FastFieldValuePrinter::PrintFloat(float, google::protobuf::TextFormat::BaseTextGenerator*) const [clone .cold]
PUBLIC 25636 0 google::protobuf::TextFormat::FastFieldValuePrinter::PrintDouble(double, google::protobuf::TextFormat::BaseTextGenerator*) const [clone .cold]
PUBLIC 2564c 0 google::protobuf::TextFormat::FieldValuePrinter::PrintBool[abi:cxx11](bool) const [clone .cold]
PUBLIC 2565c 0 google::protobuf::TextFormat::FieldValuePrinter::PrintInt32[abi:cxx11](int) const [clone .cold]
PUBLIC 2566c 0 google::protobuf::TextFormat::FieldValuePrinter::PrintUInt32[abi:cxx11](unsigned int) const [clone .cold]
PUBLIC 2567c 0 google::protobuf::TextFormat::FieldValuePrinter::PrintInt64[abi:cxx11](long) const [clone .cold]
PUBLIC 2568c 0 google::protobuf::TextFormat::FieldValuePrinter::PrintUInt64[abi:cxx11](unsigned long) const [clone .cold]
PUBLIC 2569c 0 google::protobuf::TextFormat::FieldValuePrinter::PrintFloat[abi:cxx11](float) const [clone .cold]
PUBLIC 256ac 0 google::protobuf::TextFormat::FieldValuePrinter::PrintDouble[abi:cxx11](double) const [clone .cold]
PUBLIC 256bc 0 google::protobuf::TextFormat::FieldValuePrinter::PrintString(std::__cxx11::basic_string<char, std::char_traits<char>, std::allocator<char> > const&) const [clone .cold]
PUBLIC 256cc 0 google::protobuf::TextFormat::FieldValuePrinter::PrintEnum(int, std::__cxx11::basic_string<char, std::char_traits<char>, std::allocator<char> > const&) const [clone .cold]
PUBLIC 256dc 0 google::protobuf::TextFormat::FieldValuePrinter::PrintFieldName[abi:cxx11](google::protobuf::Message const&, google::protobuf::Reflection const*, google::protobuf::FieldDescriptor const*) const [clone .cold]
PUBLIC 256ec 0 google::protobuf::TextFormat::FieldValuePrinter::PrintMessageStart[abi:cxx11](google::protobuf::Message const&, int, int, bool) const [clone .cold]
PUBLIC 256fc 0 google::protobuf::TextFormat::FieldValuePrinter::PrintMessageEnd[abi:cxx11](google::protobuf::Message const&, int, int, bool) const [clone .cold]
PUBLIC 2570c 0 google::protobuf::internal::MapFieldPrinterHelper::CopyKey(google::protobuf::MapKey const&, google::protobuf::Message*, google::protobuf::FieldDescriptor const*) [clone .cold]
PUBLIC 257f4 0 google::protobuf::internal::MapFieldPrinterHelper::CopyValue(google::protobuf::MapValueRef const&, google::protobuf::Message*, google::protobuf::FieldDescriptor const*) [clone .cold]
PUBLIC 25950 0 google::protobuf::internal::MapFieldPrinterHelper::SortMap(google::protobuf::Message const&, google::protobuf::Reflection const*, google::protobuf::FieldDescriptor const*, google::protobuf::MessageFactory*, std::vector<google::protobuf::Message const*, std::allocator<google::protobuf::Message const*> >*) [clone .cold]
PUBLIC 2597e 0 google::protobuf::TextFormat::Parser::MergeUsingImpl(google::protobuf::io::ZeroCopyInputStream*, google::protobuf::Message*, google::protobuf::TextFormat::Parser::ParserImpl*) [clone .cold]
PUBLIC 259ee 0 google::protobuf::TextFormat::Parser::Parse(google::protobuf::io::ZeroCopyInputStream*, google::protobuf::Message*) [clone .cold]
PUBLIC 25a3e 0 google::protobuf::TextFormat::ParseFromString(std::__cxx11::basic_string<char, std::char_traits<char>, std::allocator<char> > const&, google::protobuf::Message*) [clone .cold]
PUBLIC 25a4e 0 google::protobuf::TextFormat::Parse(google::protobuf::io::ZeroCopyInputStream*, google::protobuf::Message*) [clone .cold]
PUBLIC 25a5e 0 google::protobuf::TextFormat::Parser::Merge(google::protobuf::io::ZeroCopyInputStream*, google::protobuf::Message*) [clone .cold]
PUBLIC 25aae 0 google::protobuf::TextFormat::MergeFromString(std::__cxx11::basic_string<char, std::char_traits<char>, std::allocator<char> > const&, google::protobuf::Message*) [clone .cold]
PUBLIC 25abe 0 google::protobuf::TextFormat::Merge(google::protobuf::io::ZeroCopyInputStream*, google::protobuf::Message*) [clone .cold]
PUBLIC 25ace 0 google::protobuf::TextFormat::Parser::ParseFieldValueFromString(std::__cxx11::basic_string<char, std::char_traits<char>, std::allocator<char> > const&, google::protobuf::FieldDescriptor const*, google::protobuf::Message*) [clone .cold]
PUBLIC 25b1e 0 google::protobuf::TextFormat::ParseFieldValueFromString(std::__cxx11::basic_string<char, std::char_traits<char>, std::allocator<char> > const&, google::protobuf::FieldDescriptor const*, google::protobuf::Message*) [clone .cold]
PUBLIC 25b2e 0 google::protobuf::TextFormat::Printer::PrintField(google::protobuf::Message const&, google::protobuf::Reflection const*, google::protobuf::FieldDescriptor const*, google::protobuf::TextFormat::Printer::TextGenerator*) const [clone .cold]
PUBLIC 25b60 0 google::protobuf::TextFormat::Printer::Print(google::protobuf::Message const&, google::protobuf::TextFormat::Printer::TextGenerator*) const [clone .cold]
PUBLIC 25b9c 0 google::protobuf::TextFormat::Printer::PrintAny(google::protobuf::Message const&, google::protobuf::TextFormat::Printer::TextGenerator*) const [clone .cold]
PUBLIC 25c36 0 google::protobuf::TextFormat::Printer::Print(google::protobuf::Message const&, google::protobuf::io::ZeroCopyOutputStream*) const [clone .cold]
PUBLIC 25c46 0 google::protobuf::Message::DebugString[abi:cxx11]() const [clone .cold]
PUBLIC 25c64 0 google::protobuf::Message::PrintDebugString() const [clone .cold]
PUBLIC 25c80 0 google::protobuf::Message::ShortDebugString[abi:cxx11]() const [clone .cold]
PUBLIC 25c9e 0 google::protobuf::Message::Utf8DebugString[abi:cxx11]() const [clone .cold]
PUBLIC 25cbc 0 google::protobuf::TextFormat::PrintToString(google::protobuf::Message const&, std::__cxx11::basic_string<char, std::char_traits<char>, std::allocator<char> >*) [clone .cold]
PUBLIC 25ccc 0 google::protobuf::TextFormat::Print(google::protobuf::Message const&, google::protobuf::io::ZeroCopyOutputStream*) [clone .cold]
PUBLIC 25cdc 0 google::protobuf::TextFormat::Printer::PrintFieldValue(google::protobuf::Message const&, google::protobuf::Reflection const*, google::protobuf::FieldDescriptor const*, int, google::protobuf::TextFormat::Printer::TextGenerator*) const [clone .cold]
PUBLIC 25d2e 0 google::protobuf::TextFormat::Printer::PrintFieldValueToString(google::protobuf::Message const&, google::protobuf::FieldDescriptor const*, int, std::__cxx11::basic_string<char, std::char_traits<char>, std::allocator<char> >*) const [clone .cold]
PUBLIC 25d3e 0 google::protobuf::TextFormat::PrintFieldValueToString(google::protobuf::Message const&, google::protobuf::FieldDescriptor const*, int, std::__cxx11::basic_string<char, std::char_traits<char>, std::allocator<char> >*) [clone .cold]
PUBLIC 25d4e 0 google::protobuf::UnknownFieldSet::default_instance() [clone .cold]
PUBLIC 25d62 0 google::protobuf::UnknownField::DeepCopy(google::protobuf::UnknownField const&) [clone .cold]
PUBLIC 25d78 0 google::protobuf::UnknownFieldSet::MergeFromCodedStream(google::protobuf::io::CodedInputStream*) [clone .cold]
PUBLIC 25da2 0 google::protobuf::UnknownFieldSet::ParseFromZeroCopyStream(google::protobuf::io::ZeroCopyInputStream*) [clone .cold]
PUBLIC 25db2 0 google::protobuf::internal::WireFormat::ParseAndMergeMessageSetField(unsigned int, google::protobuf::FieldDescriptor const*, google::protobuf::Message*, google::protobuf::io::CodedInputStream*) [clone .cold]
PUBLIC 25dc2 0 google::protobuf::internal::WireFormat::ParseAndMergeMessageSetItem(google::protobuf::io::CodedInputStream*, google::protobuf::Message*) [clone .cold]
PUBLIC 25de1 0 google::protobuf::internal::MapKeyDataOnlyByteSize(google::protobuf::FieldDescriptor const*, google::protobuf::MapKey const&) [clone .cold]
PUBLIC 25e01 0 google::protobuf::internal::MapValueRefDataOnlyByteSize(google::protobuf::FieldDescriptor const*, google::protobuf::MapValueRef const&) [clone .cold]
PUBLIC 25e21 0 google::protobuf::internal::InternalSerializeMapEntry(google::protobuf::FieldDescriptor const*, google::protobuf::MapKey const&, google::protobuf::MapValueRef const&, unsigned char*, google::protobuf::io::EpsCopyOutputStream*) [clone .cold]
PUBLIC 25e62 0 google::protobuf::internal::WireFormat::FieldDataOnlyByteSize(google::protobuf::FieldDescriptor const*, google::protobuf::Message const&) [clone .cold]
PUBLIC 25e96 0 google::protobuf::internal::WireFormat::ByteSize(google::protobuf::Message const&) [clone .cold]
PUBLIC 25eae 0 google::protobuf::internal::WireFormat::ParseAndMergeField(unsigned int, google::protobuf::FieldDescriptor const*, google::protobuf::Message*, google::protobuf::io::CodedInputStream*) [clone .cold]
PUBLIC 25f24 0 google::protobuf::internal::WireFormat::_InternalParseAndMergeField(google::protobuf::Message*, char const*, google::protobuf::internal::ParseContext*, unsigned long, google::protobuf::Reflection const*, google::protobuf::FieldDescriptor const*) [clone .cold]
PUBLIC 25f70 0 google::protobuf::internal::WireFormat::InternalSerializeField(google::protobuf::FieldDescriptor const*, google::protobuf::Message const&, unsigned char*, google::protobuf::io::EpsCopyOutputStream*) [clone .cold]
PUBLIC 26040 0 google::protobuf::internal::WireFormat::_InternalSerialize(google::protobuf::Message const&, unsigned char*, google::protobuf::io::EpsCopyOutputStream*) [clone .cold]
PUBLIC 26058 0 google::protobuf::io::Tokenizer::Tokenizer(google::protobuf::io::ZeroCopyInputStream*, google::protobuf::io::ErrorCollector*) [clone .cold]
PUBLIC 2607c 0 google::protobuf::io::Tokenizer::ParseFloat(std::__cxx11::basic_string<char, std::char_traits<char>, std::allocator<char> > const&) [clone .cold]
PUBLIC 260a0 0 google::protobuf::io::Tokenizer::ParseStringAppend(std::__cxx11::basic_string<char, std::char_traits<char>, std::allocator<char> > const&, std::__cxx11::basic_string<char, std::char_traits<char>, std::allocator<char> >*) [clone .cold]
PUBLIC 260c4 0 google::protobuf::io::Tokenizer::ConsumeBlockComment(std::__cxx11::basic_string<char, std::char_traits<char>, std::allocator<char> >*) [clone .cold]
PUBLIC 260dc 0 google::protobuf::io::Tokenizer::ConsumeNumber(bool, bool) [clone .cold]
PUBLIC 26160 0 google::protobuf::io::Tokenizer::ConsumeString(char) [clone .cold]
PUBLIC 261e4 0 google::protobuf::io::Tokenizer::Next() [clone .cold]
PUBLIC 2620a 0 google::protobuf::io::Tokenizer::NextWithComments(std::__cxx11::basic_string<char, std::char_traits<char>, std::allocator<char> >*, std::vector<std::__cxx11::basic_string<char, std::char_traits<char>, std::allocator<char> >, std::allocator<std::__cxx11::basic_string<char, std::char_traits<char>, std::allocator<char> > > >*, std::__cxx11::basic_string<char, std::char_traits<char>, std::allocator<char> >*) [clone .cold]
PUBLIC 2624b 0 google::protobuf::util::ParseDelimitedFromZeroCopyStream(google::protobuf::MessageLite*, google::protobuf::io::ZeroCopyInputStream*, bool*) [clone .cold]
PUBLIC 2625b 0 google::protobuf::util::SerializeDelimitedToZeroCopyStream(google::protobuf::MessageLite const&, google::protobuf::io::ZeroCopyOutputStream*) [clone .cold]
PUBLIC 2626b 0 google::protobuf::util::SerializeDelimitedToFileDescriptor(google::protobuf::MessageLite const&, int) [clone .cold]
PUBLIC 2627b 0 google::protobuf::util::SerializeDelimitedToOstream(google::protobuf::MessageLite const&, std::ostream*) [clone .cold]
PUBLIC 2628b 0 google::protobuf::StringPrintf[abi:cxx11](char const*, ...) [clone .cold]
PUBLIC 262a1 0 google::protobuf::StringPrintfVector(char const*, std::vector<std::__cxx11::basic_string<char, std::char_traits<char>, std::allocator<char> >, std::allocator<std::__cxx11::basic_string<char, std::char_traits<char>, std::allocator<char> > > > const&) [clone .cold]
PUBLIC 262b1 0 google::protobuf::StringReplace(std::__cxx11::basic_string<char, std::char_traits<char>, std::allocator<char> > const&, std::__cxx11::basic_string<char, std::char_traits<char>, std::allocator<char> > const&, std::__cxx11::basic_string<char, std::char_traits<char>, std::allocator<char> > const&, bool) [clone .cold]
PUBLIC 262c7 0 google::protobuf::JoinStrings(std::vector<std::__cxx11::basic_string<char, std::char_traits<char>, std::allocator<char> >, std::allocator<std::__cxx11::basic_string<char, std::char_traits<char>, std::allocator<char> > > > const&, char const*, std::__cxx11::basic_string<char, std::char_traits<char>, std::allocator<char> >*) [clone .cold]
PUBLIC 262d7 0 google::protobuf::UnescapeCEscapeString(std::__cxx11::basic_string<char, std::char_traits<char>, std::allocator<char> > const&, std::__cxx11::basic_string<char, std::char_traits<char>, std::allocator<char> >*, std::vector<std::__cxx11::basic_string<char, std::char_traits<char>, std::allocator<char> >, std::allocator<std::__cxx11::basic_string<char, std::char_traits<char>, std::allocator<char> > > >*) [clone .cold]
PUBLIC 262ef 0 google::protobuf::CEscape(std::__cxx11::basic_string<char, std::char_traits<char>, std::allocator<char> > const&) [clone .cold]
PUBLIC 26305 0 google::protobuf::FastHexToBuffer(int, char*) [clone .cold]
PUBLIC 26315 0 google::protobuf::safe_strtob(google::protobuf::StringPiece, bool*) [clone .cold]
PUBLIC 26325 0 google::protobuf::StrCat[abi:cxx11](google::protobuf::strings::AlphaNum const&, google::protobuf::strings::AlphaNum const&) [clone .cold]
PUBLIC 2633b 0 google::protobuf::StrCat[abi:cxx11](google::protobuf::strings::AlphaNum const&, google::protobuf::strings::AlphaNum const&, google::protobuf::strings::AlphaNum const&) [clone .cold]
PUBLIC 26351 0 google::protobuf::StrCat[abi:cxx11](google::protobuf::strings::AlphaNum const&, google::protobuf::strings::AlphaNum const&, google::protobuf::strings::AlphaNum const&, google::protobuf::strings::AlphaNum const&) [clone .cold]
PUBLIC 26367 0 google::protobuf::StrCat[abi:cxx11](google::protobuf::strings::AlphaNum const&, google::protobuf::strings::AlphaNum const&, google::protobuf::strings::AlphaNum const&, google::protobuf::strings::AlphaNum const&, google::protobuf::strings::AlphaNum const&) [clone .cold]
PUBLIC 2637f 0 google::protobuf::StrCat[abi:cxx11](google::protobuf::strings::AlphaNum const&, google::protobuf::strings::AlphaNum const&, google::protobuf::strings::AlphaNum const&, google::protobuf::strings::AlphaNum const&, google::protobuf::strings::AlphaNum const&, google::protobuf::strings::AlphaNum const&) [clone .cold]
PUBLIC 26397 0 google::protobuf::StrCat[abi:cxx11](google::protobuf::strings::AlphaNum const&, google::protobuf::strings::AlphaNum const&, google::protobuf::strings::AlphaNum const&, google::protobuf::strings::AlphaNum const&, google::protobuf::strings::AlphaNum const&, google::protobuf::strings::AlphaNum const&, google::protobuf::strings::AlphaNum const&) [clone .cold]
PUBLIC 263af 0 google::protobuf::StrCat[abi:cxx11](google::protobuf::strings::AlphaNum const&, google::protobuf::strings::AlphaNum const&, google::protobuf::strings::AlphaNum const&, google::protobuf::strings::AlphaNum const&, google::protobuf::strings::AlphaNum const&, google::protobuf::strings::AlphaNum const&, google::protobuf::strings::AlphaNum const&, google::protobuf::strings::AlphaNum const&) [clone .cold]
PUBLIC 263c7 0 google::protobuf::StrCat[abi:cxx11](google::protobuf::strings::AlphaNum const&, google::protobuf::strings::AlphaNum const&, google::protobuf::strings::AlphaNum const&, google::protobuf::strings::AlphaNum const&, google::protobuf::strings::AlphaNum const&, google::protobuf::strings::AlphaNum const&, google::protobuf::strings::AlphaNum const&, google::protobuf::strings::AlphaNum const&, google::protobuf::strings::AlphaNum const&) [clone .cold]
PUBLIC 263df 0 google::protobuf::GlobalReplaceSubstring(std::__cxx11::basic_string<char, std::char_traits<char>, std::allocator<char> > const&, std::__cxx11::basic_string<char, std::char_traits<char>, std::allocator<char> > const&, std::__cxx11::basic_string<char, std::char_traits<char>, std::allocator<char> >*) [clone .cold]
PUBLIC 26408 0 google::protobuf::Base64EscapeInternal(unsigned char const*, int, char*, int, char const*, bool) [clone .cold]
PUBLIC 26418 0 google::protobuf::internal::NoLocaleStrtod(char const*, char**) [clone .cold]
PUBLIC 26460 0 google::protobuf::UnescapeCEscapeString(std::__cxx11::basic_string<char, std::char_traits<char>, std::allocator<char> > const&) [clone .cold]
PUBLIC 26470 0 google::protobuf::strings::Utf8SafeCEscape(std::__cxx11::basic_string<char, std::char_traits<char>, std::allocator<char> > const&) [clone .cold]
PUBLIC 26480 0 google::protobuf::strings::CHexEscape(std::__cxx11::basic_string<char, std::char_traits<char>, std::allocator<char> > const&) [clone .cold]
PUBLIC 26490 0 google::protobuf::safe_strto32(std::__cxx11::basic_string<char, std::char_traits<char>, std::allocator<char> > const&, int*) [clone .cold]
PUBLIC 264a6 0 google::protobuf::safe_strtou32(std::__cxx11::basic_string<char, std::char_traits<char>, std::allocator<char> > const&, unsigned int*) [clone .cold]
PUBLIC 264bc 0 google::protobuf::safe_strto64(std::__cxx11::basic_string<char, std::char_traits<char>, std::allocator<char> > const&, long*) [clone .cold]
PUBLIC 264d2 0 google::protobuf::safe_strtou64(std::__cxx11::basic_string<char, std::char_traits<char>, std::allocator<char> > const&, unsigned long*) [clone .cold]
PUBLIC 264e8 0 google::protobuf::CleanStringLineEndings(std::__cxx11::basic_string<char, std::char_traits<char>, std::allocator<char> > const&, std::__cxx11::basic_string<char, std::char_traits<char>, std::allocator<char> >*, bool) [clone .cold]
PUBLIC 264fe 0 google::protobuf::SplitStringUsing(std::__cxx11::basic_string<char, std::char_traits<char>, std::allocator<char> > const&, char const*, std::vector<std::__cxx11::basic_string<char, std::char_traits<char>, std::allocator<char> >, std::allocator<std::__cxx11::basic_string<char, std::char_traits<char>, std::allocator<char> > > >*) [clone .cold]
PUBLIC 26515 0 google::protobuf::SplitStringAllowEmpty(std::__cxx11::basic_string<char, std::char_traits<char>, std::allocator<char> > const&, char const*, std::vector<std::__cxx11::basic_string<char, std::char_traits<char>, std::allocator<char> >, std::allocator<std::__cxx11::basic_string<char, std::char_traits<char>, std::allocator<char> > > >*) [clone .cold]
PUBLIC 2652c 0 google::protobuf::internal::ArenaStringPtr::CreateInstanceNoArena(std::__cxx11::basic_string<char, std::char_traits<char>, std::allocator<char> > const*) [clone .isra.0] [clone .constprop.0] [clone .cold]
PUBLIC 26542 0 google::protobuf::internal::AnyMetadata::InternalPackFrom(google::protobuf::MessageLite const&, google::protobuf::StringPiece, google::protobuf::StringPiece) [clone .cold]
PUBLIC 2655e 0 google::protobuf::internal::AnyMetadata::InternalIs(google::protobuf::StringPiece) const [clone .cold]
PUBLIC 26584 0 google::protobuf::internal::ExtensionSet::FindExtensionInfoFromFieldNumber(int, int, google::protobuf::internal::ExtensionFinder*, google::protobuf::internal::ExtensionInfo*, bool*) [clone .cold]
PUBLIC 26594 0 google::protobuf::internal::ExtensionSet::Extension::ByteSize(int) const [clone .cold]
PUBLIC 265a4 0 google::protobuf::internal::ExtensionSet::Extension::GetSize() const [clone .cold]
PUBLIC 265b4 0 google::protobuf::internal::ExtensionSet::ExtensionType(int) const [clone .cold]
PUBLIC 265d4 0 google::protobuf::internal::ExtensionSet::GetRepeatedInt32(int, int) const [clone .cold]
PUBLIC 265e4 0 google::protobuf::internal::ExtensionSet::GetRepeatedInt64(int, int) const [clone .cold]
PUBLIC 265f4 0 google::protobuf::internal::ExtensionSet::GetRepeatedUInt32(int, int) const [clone .cold]
PUBLIC 26604 0 google::protobuf::internal::ExtensionSet::GetRepeatedUInt64(int, int) const [clone .cold]
PUBLIC 26614 0 google::protobuf::internal::ExtensionSet::GetRepeatedFloat(int, int) const [clone .cold]
PUBLIC 26624 0 google::protobuf::internal::ExtensionSet::GetRepeatedDouble(int, int) const [clone .cold]
PUBLIC 26634 0 google::protobuf::internal::ExtensionSet::GetRepeatedBool(int, int) const [clone .cold]
PUBLIC 26644 0 google::protobuf::internal::ExtensionSet::GetRepeatedEnum(int, int) const [clone .cold]
PUBLIC 26654 0 google::protobuf::internal::ExtensionSet::GetRepeatedString[abi:cxx11](int, int) const [clone .cold]
PUBLIC 26664 0 google::protobuf::internal::ExtensionSet::GetRepeatedMessage(int, int) const [clone .cold]
PUBLIC 26674 0 google::protobuf::internal::ExtensionSet::SetRepeatedInt32(int, int, int) [clone .cold]
PUBLIC 26684 0 google::protobuf::internal::ExtensionSet::SetRepeatedInt64(int, int, long) [clone .cold]
PUBLIC 26694 0 google::protobuf::internal::ExtensionSet::SetRepeatedUInt32(int, int, unsigned int) [clone .cold]
PUBLIC 266a4 0 google::protobuf::internal::ExtensionSet::SetRepeatedUInt64(int, int, unsigned long) [clone .cold]
PUBLIC 266b4 0 google::protobuf::internal::ExtensionSet::SetRepeatedFloat(int, int, float) [clone .cold]
PUBLIC 266c4 0 google::protobuf::internal::ExtensionSet::SetRepeatedDouble(int, int, double) [clone .cold]
PUBLIC 266d4 0 google::protobuf::internal::ExtensionSet::SetRepeatedBool(int, int, bool) [clone .cold]
PUBLIC 266e4 0 google::protobuf::internal::ExtensionSet::MutableRawRepeatedField(int) [clone .cold]
PUBLIC 266f4 0 google::protobuf::internal::ExtensionSet::SetRepeatedEnum(int, int, int) [clone .cold]
PUBLIC 26704 0 google::protobuf::internal::ExtensionSet::MutableRepeatedString[abi:cxx11](int, int) [clone .cold]
PUBLIC 26714 0 google::protobuf::internal::ExtensionSet::MutableRepeatedMessage(int, int) [clone .cold]
PUBLIC 26724 0 google::protobuf::internal::ExtensionSet::RemoveLast(int) [clone .cold]
PUBLIC 26734 0 google::protobuf::internal::ExtensionSet::ReleaseLast(int) [clone .cold]
PUBLIC 26744 0 google::protobuf::internal::ExtensionSet::SwapElements(int, int, int) [clone .cold]
PUBLIC 26754 0 google::protobuf::internal::RepeatedPrimitiveDefaults::default_instance() [clone .cold]
PUBLIC 26768 0 google::protobuf::internal::RepeatedStringTypeTraits::GetDefaultRepeatedField[abi:cxx11]() [clone .cold]
PUBLIC 2678c 0 google::protobuf::internal::ExtensionSet::Extension::InternalSerializeFieldWithCachedSizesToArray(int, unsigned char*, google::protobuf::io::EpsCopyOutputStream*) const [clone .cold]
PUBLIC 2679c 0 google::protobuf::internal::ExtensionSet::Extension::InternalSerializeMessageSetItemWithCachedSizesToArray(int, unsigned char*, google::protobuf::io::EpsCopyOutputStream*) const [clone .cold]
PUBLIC 267ac 0 google::protobuf::internal::(anonymous namespace)::Register(google::protobuf::MessageLite const*, int, google::protobuf::internal::ExtensionInfo) [clone .constprop.0] [clone .cold]
PUBLIC 2681a 0 google::protobuf::internal::ExtensionSet::RegisterMessageExtension(google::protobuf::MessageLite const*, int, unsigned char, bool, bool, google::protobuf::MessageLite const*) [clone .cold]
PUBLIC 2682a 0 google::protobuf::internal::ExtensionSet::RegisterEnumExtension(google::protobuf::MessageLite const*, int, unsigned char, bool, bool, bool (*)(int)) [clone .cold]
PUBLIC 2683a 0 google::protobuf::internal::ExtensionSet::RegisterExtension(google::protobuf::MessageLite const*, int, unsigned char, bool, bool) [clone .cold]
PUBLIC 2686a 0 google::protobuf::internal::ExtensionSet::MutableRawRepeatedField(int, unsigned char, bool, google::protobuf::FieldDescriptor const*) [clone .cold]
PUBLIC 26880 0 google::protobuf::internal::ExtensionSet::AddString[abi:cxx11](int, unsigned char, google::protobuf::FieldDescriptor const*) [clone .cold]
PUBLIC 26896 0 google::protobuf::internal::ExtensionSet::ParseField(unsigned long, char const*, google::protobuf::MessageLite const*, google::protobuf::internal::InternalMetadata*, google::protobuf::internal::ParseContext*) [clone .cold]
PUBLIC 268b6 0 google::protobuf::internal::ExtensionSet::ParseFieldWithExtensionInfo(int, bool, google::protobuf::internal::ExtensionInfo const&, google::protobuf::io::CodedInputStream*, google::protobuf::internal::FieldSkipper*) [clone .cold]
PUBLIC 268c6 0 google::protobuf::internal::ExtensionSet::ParseField(unsigned int, google::protobuf::io::CodedInputStream*, google::protobuf::MessageLite const*) [clone .cold]
PUBLIC 268e0 0 google::protobuf::internal::ExtensionSet::ParseField(unsigned int, google::protobuf::io::CodedInputStream*, google::protobuf::MessageLite const*, google::protobuf::io::CodedOutputStream*) [clone .cold]
PUBLIC 268fa 0 google::protobuf::internal::ExtensionSet::ParseMessageSetItemLite(google::protobuf::io::CodedInputStream*, google::protobuf::internal::ExtensionFinder*, google::protobuf::internal::FieldSkipper*) [clone .cold]
PUBLIC 2691a 0 google::protobuf::internal::ExtensionSet::ParseMessageSet(google::protobuf::io::CodedInputStream*, google::protobuf::MessageLite const*, std::__cxx11::basic_string<char, std::char_traits<char>, std::allocator<char> >*) [clone .cold]
PUBLIC 2693c 0 google::protobuf::internal::ExtensionSet::InternalExtensionMergeFrom(int, google::protobuf::internal::ExtensionSet::Extension const&) [clone .cold]
PUBLIC 26968 0 google::protobuf::internal::ExtensionSet::SwapExtension(google::protobuf::internal::ExtensionSet*, int) [clone .cold]
PUBLIC 26978 0 google::protobuf::internal::ExtensionSet::Swap(google::protobuf::internal::ExtensionSet*) [clone .cold]
PUBLIC 26988 0 google::protobuf::io::ZeroCopyOutputStream::WriteAliasedRaw(void const*, int) [clone .cold]
PUBLIC 26998 0 google::protobuf::internal::ArenaStringPtr::CreateInstanceNoArena(std::__cxx11::basic_string<char, std::char_traits<char>, std::allocator<char> > const*) [clone .isra.0] [clone .constprop.0] [clone .cold]
PUBLIC 269ae 0 google::protobuf::internal::AnyMetadata::PackFrom(google::protobuf::Message const&, std::__cxx11::basic_string<char, std::char_traits<char>, std::allocator<char> > const&) [clone .cold]
PUBLIC 269ca 0 google::protobuf::internal::AnyMetadata::PackFrom(google::protobuf::Message const&) [clone .cold]
PUBLIC 269e2 0 google::protobuf::(anonymous namespace)::OptionsToInterpret::~OptionsToInterpret()
PUBLIC 26a1a 0 google::protobuf::(anonymous namespace)::GeneratedDatabase() [clone .cold]
PUBLIC 26a3e 0 std::pair<std::__detail::_Node_iterator<std::pair<std::pair<google::protobuf::EnumDescriptor const*, int> const, google::protobuf::EnumValueDescriptor const*>, false, true>, bool> std::_Hashtable<std::pair<google::protobuf::EnumDescriptor const*, int>, std::pair<std::pair<google::protobuf::EnumDescriptor const*, int> const, google::protobuf::EnumValueDescriptor const*>, std::allocator<std::pair<std::pair<google::protobuf::EnumDescriptor const*, int> const, google::protobuf::EnumValueDescriptor const*> >, std::__detail::_Select1st, std::equal_to<std::pair<google::protobuf::EnumDescriptor const*, int> >, google::protobuf::(anonymous namespace)::PointerIntegerPairHash<std::pair<google::protobuf::EnumDescriptor const*, int> >, std::__detail::_Mod_range_hashing, std::__detail::_Default_ranged_hash, std::__detail::_Prime_rehash_policy, std::__detail::_Hashtable_traits<true, false, true> >::_M_insert<std::pair<std::pair<google::protobuf::EnumDescriptor const*, int> const, google::protobuf::EnumValueDescriptor const*> const&, std::__detail::_AllocNode<std::allocator<std::__detail::_Hash_node<std::pair<std::pair<google::protobuf::EnumDescriptor const*, int> const, google::protobuf::EnumValueDescriptor const*>, true> > > >(std::pair<std::pair<google::protobuf::EnumDescriptor const*, int> const, google::protobuf::EnumValueDescriptor const*> const&, std::__detail::_AllocNode<std::allocator<std::__detail::_Hash_node<std::pair<std::pair<google::protobuf::EnumDescriptor const*, int> const, google::protobuf::EnumValueDescriptor const*>, true> > > const&, std::integral_constant<bool, true>, unsigned long) [clone .isra.0] [clone .constprop.0] [clone .cold]
PUBLIC 26a7a 0 std::pair<std::__detail::_Node_iterator<std::pair<std::pair<void const*, char const*> const, google::protobuf::FieldDescriptor const*>, false, true>, bool> std::_Hashtable<std::pair<void const*, char const*>, std::pair<std::pair<void const*, char const*> const, google::protobuf::FieldDescriptor const*>, std::allocator<std::pair<std::pair<void const*, char const*> const, google::protobuf::FieldDescriptor const*> >, std::__detail::_Select1st, google::protobuf::(anonymous namespace)::PointerStringPairEqual, google::protobuf::(anonymous namespace)::PointerStringPairHash, std::__detail::_Mod_range_hashing, std::__detail::_Default_ranged_hash, std::__detail::_Prime_rehash_policy, std::__detail::_Hashtable_traits<true, false, true> >::_M_insert<std::pair<std::pair<void const*, char const*> const, google::protobuf::FieldDescriptor const*> const&, std::__detail::_AllocNode<std::allocator<std::__detail::_Hash_node<std::pair<std::pair<void const*, char const*> const, google::protobuf::FieldDescriptor const*>, true> > > >(std::pair<std::pair<void const*, char const*> const, google::protobuf::FieldDescriptor const*> const&, std::__detail::_AllocNode<std::allocator<std::__detail::_Hash_node<std::pair<std::pair<void const*, char const*> const, google::protobuf::FieldDescriptor const*>, true> > > const&, std::integral_constant<bool, true>, unsigned long) [clone .isra.0] [clone .constprop.0] [clone .cold]
PUBLIC 26ab6 0 std::_Hashtable<std::pair<void const*, char const*>, std::pair<std::pair<void const*, char const*> const, google::protobuf::FieldDescriptor const*>, std::allocator<std::pair<std::pair<void const*, char const*> const, google::protobuf::FieldDescriptor const*> >, std::__detail::_Select1st, google::protobuf::(anonymous namespace)::PointerStringPairEqual, google::protobuf::(anonymous namespace)::PointerStringPairHash, std::__detail::_Mod_range_hashing, std::__detail::_Default_ranged_hash, std::__detail::_Prime_rehash_policy, std::__detail::_Hashtable_traits<true, false, true> >::_Hashtable(unsigned long, google::protobuf::(anonymous namespace)::PointerStringPairHash const&, std::__detail::_Mod_range_hashing const&, std::__detail::_Default_ranged_hash const&, google::protobuf::(anonymous namespace)::PointerStringPairEqual const&, std::__detail::_Select1st const&, std::allocator<std::pair<std::pair<void const*, char const*> const, google::protobuf::FieldDescriptor const*> > const&) [clone .isra.0] [clone .constprop.0] [clone .cold]
PUBLIC 26ac6 0 std::_Hashtable<std::pair<google::protobuf::EnumDescriptor const*, int>, std::pair<std::pair<google::protobuf::EnumDescriptor const*, int> const, google::protobuf::EnumValueDescriptor const*>, std::allocator<std::pair<std::pair<google::protobuf::EnumDescriptor const*, int> const, google::protobuf::EnumValueDescriptor const*> >, std::__detail::_Select1st, std::equal_to<std::pair<google::protobuf::EnumDescriptor const*, int> >, google::protobuf::(anonymous namespace)::PointerIntegerPairHash<std::pair<google::protobuf::EnumDescriptor const*, int> >, std::__detail::_Mod_range_hashing, std::__detail::_Default_ranged_hash, std::__detail::_Prime_rehash_policy, std::__detail::_Hashtable_traits<true, false, true> >::_Hashtable(unsigned long, google::protobuf::(anonymous namespace)::PointerIntegerPairHash<std::pair<google::protobuf::EnumDescriptor const*, int> > const&, std::__detail::_Mod_range_hashing const&, std::__detail::_Default_ranged_hash const&, std::equal_to<std::pair<google::protobuf::EnumDescriptor const*, int> > const&, std::__detail::_Select1st const&, std::allocator<std::pair<std::pair<google::protobuf::EnumDescriptor const*, int> const, google::protobuf::EnumValueDescriptor const*> > const&) [clone .isra.0] [clone .constprop.0] [clone .cold]
PUBLIC 26ad6 0 std::default_delete<google::protobuf::UnknownFieldSet>::operator()(google::protobuf::UnknownFieldSet*) const [clone .isra.0] [clone .part.0]
PUBLIC 26b04 0 google::protobuf::(anonymous namespace)::SourceLocationCommentPrinter::~SourceLocationCommentPrinter()
PUBLIC 26b80 0 google::protobuf::(anonymous namespace)::ToJsonName(std::__cxx11::basic_string<char, std::char_traits<char>, std::allocator<char> > const&) [clone .cold]
PUBLIC 26b98 0 google::protobuf::(anonymous namespace)::ToCamelCase(std::__cxx11::basic_string<char, std::char_traits<char>, std::allocator<char> > const&, bool) [clone .cold]
PUBLIC 26bb0 0 google::protobuf::FileDescriptor::SyntaxName(google::protobuf::FileDescriptor::Syntax) [clone .cold]
PUBLIC 26bc0 0 google::protobuf::FileDescriptorTables::AddAliasUnderParent(void const*, std::__cxx11::basic_string<char, std::char_traits<char>, std::allocator<char> > const&, google::protobuf::Symbol) [clone .cold]
PUBLIC 26bfc 0 google::protobuf::FileDescriptorTables::AddFieldByNumber(google::protobuf::FieldDescriptor const*) [clone .cold]
PUBLIC 26c3a 0 google::protobuf::DescriptorPool::InternalAddGeneratedFile(void const*, int) [clone .cold]
PUBLIC 26c4a 0 google::protobuf::Descriptor::CopyJsonNameTo(google::protobuf::DescriptorProto*) const [clone .cold]
PUBLIC 26c5a 0 google::protobuf::FileDescriptor::CopyJsonNameTo(google::protobuf::FileDescriptorProto*) const [clone .cold]
PUBLIC 26c6a 0 google::protobuf::DescriptorBuilder::AddError(std::__cxx11::basic_string<char, std::char_traits<char>, std::allocator<char> > const&, google::protobuf::Message const&, google::protobuf::DescriptorPool::ErrorCollector::ErrorLocation, std::__cxx11::basic_string<char, std::char_traits<char>, std::allocator<char> > const&) [clone .cold]
PUBLIC 26c8a 0 google::protobuf::DescriptorBuilder::AddWarning(std::__cxx11::basic_string<char, std::char_traits<char>, std::allocator<char> > const&, google::protobuf::Message const&, google::protobuf::DescriptorPool::ErrorCollector::ErrorLocation, std::__cxx11::basic_string<char, std::char_traits<char>, std::allocator<char> > const&) [clone .cold]
PUBLIC 26c9a 0 google::protobuf::DescriptorBuilder::OptionInterpreter::SetInt32(int, int, google::protobuf::FieldDescriptor::Type, google::protobuf::UnknownFieldSet*) [clone .cold]
PUBLIC 26caa 0 google::protobuf::DescriptorBuilder::OptionInterpreter::SetInt64(int, long, google::protobuf::FieldDescriptor::Type, google::protobuf::UnknownFieldSet*) [clone .cold]
PUBLIC 26cba 0 google::protobuf::DescriptorBuilder::OptionInterpreter::SetUInt32(int, unsigned int, google::protobuf::FieldDescriptor::Type, google::protobuf::UnknownFieldSet*) [clone .cold]
PUBLIC 26cca 0 google::protobuf::DescriptorBuilder::OptionInterpreter::SetUInt64(int, unsigned long, google::protobuf::FieldDescriptor::Type, google::protobuf::UnknownFieldSet*) [clone .cold]
PUBLIC 26cda 0 google::protobuf::internal::LazyDescriptor::Set(google::protobuf::Descriptor const*) [clone .cold]
PUBLIC 26d0a 0 google::protobuf::(anonymous namespace)::SourceLocationCommentPrinter::AddPreComment(std::__cxx11::basic_string<char, std::char_traits<char>, std::allocator<char> >*) [clone .cold]
PUBLIC 26ddc 0 google::protobuf::FileDescriptorTables::FileDescriptorTables() [clone .cold]
PUBLIC 26e78 0 google::protobuf::DescriptorBuilder::AddNotDefinedError(std::__cxx11::basic_string<char, std::char_traits<char>, std::allocator<char> > const&, google::protobuf::Message const&, google::protobuf::DescriptorPool::ErrorCollector::ErrorLocation, std::__cxx11::basic_string<char, std::char_traits<char>, std::allocator<char> > const&) [clone .cold]
PUBLIC 26f9a 0 google::protobuf::DescriptorBuilder::AddTwiceListedError(google::protobuf::FileDescriptorProto const&, int) [clone .cold]
PUBLIC 26fc4 0 google::protobuf::DescriptorBuilder::AddImportError(google::protobuf::FileDescriptorProto const&, int) [clone .cold]
PUBLIC 27004 0 google::protobuf::DescriptorBuilder::OptionInterpreter::ExamineIfOptionIsSet(__gnu_cxx::__normal_iterator<google::protobuf::FieldDescriptor const* const*, std::vector<google::protobuf::FieldDescriptor const*, std::allocator<google::protobuf::FieldDescriptor const*> > >, __gnu_cxx::__normal_iterator<google::protobuf::FieldDescriptor const* const*, std::vector<google::protobuf::FieldDescriptor const*, std::allocator<google::protobuf::FieldDescriptor const*> > >, google::protobuf::FieldDescriptor const*, std::__cxx11::basic_string<char, std::char_traits<char>, std::allocator<char> > const&, google::protobuf::UnknownFieldSet const&) [clone .cold]
PUBLIC 2706a 0 google::protobuf::DescriptorPool::Tables::AllocateString(std::__cxx11::basic_string<char, std::char_traits<char>, std::allocator<char> > const&) [clone .cold]
PUBLIC 27080 0 google::protobuf::internal::LazyDescriptor::SetLazy(std::__cxx11::basic_string<char, std::char_traits<char>, std::allocator<char> > const&, google::protobuf::FileDescriptor const*) [clone .cold]
PUBLIC 270f0 0 google::protobuf::DescriptorPool::Tables::AllocateFileTables() [clone .cold]
PUBLIC 27106 0 google::protobuf::DescriptorPool::NewPlaceholderFileWithMutexHeld(std::__cxx11::basic_string<char, std::char_traits<char>, std::allocator<char> > const&) const [clone .cold]
PUBLIC 27124 0 google::protobuf::DescriptorPool::NewPlaceholderFile(std::__cxx11::basic_string<char, std::char_traits<char>, std::allocator<char> > const&) const [clone .cold]
PUBLIC 27143 0 google::protobuf::(anonymous namespace)::RetrieveOptionsAssumingRightPool(int, google::protobuf::Message const&, std::vector<std::__cxx11::basic_string<char, std::char_traits<char>, std::allocator<char> >, std::allocator<std::__cxx11::basic_string<char, std::char_traits<char>, std::allocator<char> > > >*) [clone .cold]
PUBLIC 27236 0 google::protobuf::DescriptorBuilder::LogUnusedDependency(google::protobuf::FileDescriptorProto const&, google::protobuf::FileDescriptor const*) [clone .cold]
PUBLIC 27266 0 google::protobuf::DescriptorBuilder::DetectMapConflicts(google::protobuf::Descriptor const*, google::protobuf::DescriptorProto const&) [clone .cold]
PUBLIC 2733a 0 google::protobuf::DescriptorBuilder::CheckEnumValueUniqueness(google::protobuf::EnumDescriptorProto const&, google::protobuf::EnumDescriptor const*) [clone .cold]
PUBLIC 27430 0 google::protobuf::DescriptorBuilder::AddError(std::__cxx11::basic_string<char, std::char_traits<char>, std::allocator<char> > const&, google::protobuf::Message const&, google::protobuf::DescriptorPool::ErrorCollector::ErrorLocation, char const*) [clone .cold]
PUBLIC 27448 0 google::protobuf::DescriptorBuilder::ValidateSymbolName(std::__cxx11::basic_string<char, std::char_traits<char>, std::allocator<char> > const&, std::__cxx11::basic_string<char, std::char_traits<char>, std::allocator<char> > const&, google::protobuf::Message const&) [clone .cold]
PUBLIC 27472 0 google::protobuf::DescriptorBuilder::ValidateMapEntry(google::protobuf::FieldDescriptor*, google::protobuf::FieldDescriptorProto const&) [clone .cold]
PUBLIC 2748e 0 google::protobuf::DescriptorBuilder::ValidateJSType(google::protobuf::FieldDescriptor*, google::protobuf::FieldDescriptorProto const&) [clone .cold]
PUBLIC 274aa 0 google::protobuf::DescriptorBuilder::DescriptorBuilder(google::protobuf::DescriptorPool const*, google::protobuf::DescriptorPool::Tables*, google::protobuf::DescriptorPool::ErrorCollector*) [clone .cold]
PUBLIC 27544 0 google::protobuf::DescriptorBuilder::AddRecursiveImportError(google::protobuf::FileDescriptorProto const&, int) [clone .cold]
PUBLIC 2755c 0 google::protobuf::DescriptorBuilder::OptionInterpreter::AddWithoutInterpreting(google::protobuf::UninterpretedOption const&, google::protobuf::Message*) [clone .cold]
PUBLIC 27584 0 google::protobuf::MethodDescriptor::CopyTo(google::protobuf::MethodDescriptorProto*) const [clone .cold]
PUBLIC 275b2 0 google::protobuf::DescriptorBuilder::ValidateProto3Field(google::protobuf::FieldDescriptor*, google::protobuf::FieldDescriptorProto const&) [clone .cold]
PUBLIC 27674 0 google::protobuf::DescriptorPool::NewPlaceholderWithMutexHeld(std::__cxx11::basic_string<char, std::char_traits<char>, std::allocator<char> > const&, google::protobuf::DescriptorPool::PlaceholderType) const [clone .cold]
PUBLIC 2768c 0 google::protobuf::DescriptorPool::NewPlaceholder(std::__cxx11::basic_string<char, std::char_traits<char>, std::allocator<char> > const&, google::protobuf::DescriptorPool::PlaceholderType) const [clone .cold]
PUBLIC 276ac 0 google::protobuf::FieldDescriptor::DefaultValueAsString[abi:cxx11](bool) const [clone .cold]
PUBLIC 27706 0 google::protobuf::FieldDescriptor::CopyTo(google::protobuf::FieldDescriptorProto*) const [clone .cold]
PUBLIC 27768 0 google::protobuf::FileDescriptor::CopyTo(google::protobuf::FileDescriptorProto*) const [clone .cold]
PUBLIC 27780 0 google::protobuf::DescriptorPool::IsSubSymbolOfBuiltType(std::__cxx11::basic_string<char, std::char_traits<char>, std::allocator<char> > const&) const [clone .cold]
PUBLIC 27796 0 google::protobuf::FileDescriptorTables::GetSourceLocation(std::vector<int, std::allocator<int> > const&, google::protobuf::SourceCodeInfo const*) const [clone .cold]
PUBLIC 277ae 0 google::protobuf::FileDescriptor::GetSourceLocation(std::vector<int, std::allocator<int> > const&, google::protobuf::SourceLocation*) const [clone .cold]
PUBLIC 277be 0 google::protobuf::FileDescriptor::GetSourceLocation(google::protobuf::SourceLocation*) const [clone .cold]
PUBLIC 277d4 0 google::protobuf::Descriptor::GetSourceLocation(google::protobuf::SourceLocation*) const [clone .cold]
PUBLIC 277ea 0 google::protobuf::FieldDescriptor::GetSourceLocation(google::protobuf::SourceLocation*) const [clone .cold]
PUBLIC 27800 0 google::protobuf::OneofDescriptor::GetSourceLocation(google::protobuf::SourceLocation*) const [clone .cold]
PUBLIC 27816 0 google::protobuf::EnumDescriptor::GetSourceLocation(google::protobuf::SourceLocation*) const [clone .cold]
PUBLIC 2782c 0 google::protobuf::MethodDescriptor::GetSourceLocation(google::protobuf::SourceLocation*) const [clone .cold]
PUBLIC 27842 0 google::protobuf::ServiceDescriptor::GetSourceLocation(google::protobuf::SourceLocation*) const [clone .cold]
PUBLIC 27858 0 google::protobuf::EnumValueDescriptor::GetSourceLocation(google::protobuf::SourceLocation*) const [clone .cold]
PUBLIC 2786e 0 google::protobuf::FileDescriptorTables::BuildLocationsByPath(std::pair<google::protobuf::FileDescriptorTables const*, google::protobuf::SourceCodeInfo const*>*) [clone .cold]
PUBLIC 278ea 0 google::protobuf::DescriptorPool::Tables::Tables() [clone .cold]
PUBLIC 27c84 0 google::protobuf::DescriptorPool::DescriptorPool() [clone .cold]
PUBLIC 27c9a 0 google::protobuf::DescriptorPool::DescriptorPool(google::protobuf::DescriptorDatabase*, google::protobuf::DescriptorPool::ErrorCollector*) [clone .cold]
PUBLIC 27cb0 0 google::protobuf::DescriptorPool::internal_generated_pool() [clone .cold]
PUBLIC 27cd2 0 google::protobuf::EnumDescriptor::FindValueByNumberCreatingIfUnknown(int) const [clone .cold]
PUBLIC 27d36 0 google::protobuf::DescriptorPool::DescriptorPool(google::protobuf::DescriptorPool const*) [clone .cold]
PUBLIC 27d4c 0 google::protobuf::DescriptorBuilder::ValidateProto3Message(google::protobuf::Descriptor*, google::protobuf::DescriptorProto const&) [clone .cold]
PUBLIC 27dda 0 google::protobuf::DescriptorBuilder::ValidateEnumOptions(google::protobuf::EnumDescriptor*, google::protobuf::EnumDescriptorProto const&) [clone .cold]
PUBLIC 27e3e 0 google::protobuf::DescriptorBuilder::ValidateMessageOptions(google::protobuf::Descriptor*, google::protobuf::DescriptorProto const&) [clone .cold]
PUBLIC 27e5a 0 google::protobuf::DescriptorBuilder::ValidateFileOptions(google::protobuf::FileDescriptor*, google::protobuf::FileDescriptorProto const&) [clone .cold]
PUBLIC 27e84 0 google::protobuf::DescriptorPool::Tables::AddSymbol(std::__cxx11::basic_string<char, std::char_traits<char>, std::allocator<char> > const&, google::protobuf::Symbol) [clone .cold]
PUBLIC 27ea6 0 google::protobuf::DescriptorBuilder::AddSymbol(std::__cxx11::basic_string<char, std::char_traits<char>, std::allocator<char> > const&, void const*, std::__cxx11::basic_string<char, std::char_traits<char>, std::allocator<char> > const&, google::protobuf::Message const&, google::protobuf::Symbol) [clone .cold]
PUBLIC 27fb4 0 google::protobuf::DescriptorBuilder::AddPackage(std::__cxx11::basic_string<char, std::char_traits<char>, std::allocator<char> > const&, google::protobuf::Message const&, google::protobuf::FileDescriptor const*) [clone .cold]
PUBLIC 28014 0 google::protobuf::DescriptorPool::Tables::AddFile(google::protobuf::FileDescriptor const*) [clone .cold]
PUBLIC 28036 0 google::protobuf::ExistingFileMatchesProto(google::protobuf::FileDescriptor const*, google::protobuf::FileDescriptorProto const&) [clone .cold]
PUBLIC 2806c 0 google::protobuf::DescriptorBuilder::OptionInterpreter::OptionInterpreter(google::protobuf::DescriptorBuilder*) [clone .cold]
PUBLIC 2809e 0 google::protobuf::DescriptorBuilder::AllocateOptions(google::protobuf::FileOptions const&, google::protobuf::FileDescriptor*) [clone .cold]
PUBLIC 280e4 0 google::protobuf::DescriptorBuilder::BuildFieldOrExtension(google::protobuf::FieldDescriptorProto const&, google::protobuf::Descriptor*, google::protobuf::FieldDescriptor*, bool) [clone .cold]
PUBLIC 2818e 0 google::protobuf::DescriptorBuilder::BuildExtensionRange(google::protobuf::DescriptorProto_ExtensionRange const&, google::protobuf::Descriptor const*, google::protobuf::Descriptor::ExtensionRange*) [clone .cold]
PUBLIC 281b6 0 google::protobuf::DescriptorBuilder::BuildOneof(google::protobuf::OneofDescriptorProto const&, google::protobuf::Descriptor*, google::protobuf::OneofDescriptor*) [clone .cold]
PUBLIC 281de 0 google::protobuf::DescriptorBuilder::BuildEnumValue(google::protobuf::EnumValueDescriptorProto const&, google::protobuf::EnumDescriptor const*, google::protobuf::EnumValueDescriptor*) [clone .cold]
PUBLIC 28298 0 google::protobuf::DescriptorBuilder::BuildEnum(google::protobuf::EnumDescriptorProto const&, google::protobuf::Descriptor const*, google::protobuf::EnumDescriptor*) [clone .cold]
PUBLIC 28346 0 google::protobuf::DescriptorBuilder::BuildMessage(google::protobuf::DescriptorProto const&, google::protobuf::Descriptor const*, google::protobuf::Descriptor*) [clone .cold]
PUBLIC 283be 0 google::protobuf::DescriptorBuilder::BuildMethod(google::protobuf::MethodDescriptorProto const&, google::protobuf::ServiceDescriptor const*, google::protobuf::MethodDescriptor*) [clone .cold]
PUBLIC 283e6 0 google::protobuf::DescriptorBuilder::BuildService(google::protobuf::ServiceDescriptorProto const&, void const*, google::protobuf::ServiceDescriptor*) [clone .cold]
PUBLIC 2840e 0 google::protobuf::DescriptorBuilder::OptionInterpreter::UpdateSourceCodeInfo(google::protobuf::SourceCodeInfo*) [clone .cold]
PUBLIC 28430 0 google::protobuf::DescriptorBuilder::BuildFileImpl(google::protobuf::FileDescriptorProto const&) [clone .cold]
PUBLIC 285c6 0 google::protobuf::DescriptorPool::BuildFile(google::protobuf::FileDescriptorProto const&) [clone .cold]
PUBLIC 285f6 0 google::protobuf::DescriptorPool::BuildFileCollectingErrors(google::protobuf::FileDescriptorProto const&, google::protobuf::DescriptorPool::ErrorCollector*) [clone .cold]
PUBLIC 28626 0 google::protobuf::DescriptorPool::BuildFileFromDatabase(google::protobuf::FileDescriptorProto const&) const [clone .cold]
PUBLIC 28636 0 google::protobuf::DescriptorPool::TryFindFileInFallbackDatabase(std::__cxx11::basic_string<char, std::char_traits<char>, std::allocator<char> > const&) const [clone .cold]
PUBLIC 28646 0 google::protobuf::DescriptorPool::FindFileByName(std::__cxx11::basic_string<char, std::char_traits<char>, std::allocator<char> > const&) const [clone .cold]
PUBLIC 28666 0 google::protobuf::FileDescriptor::InternalDependenciesOnceInit() const [clone .cold]
PUBLIC 28676 0 google::protobuf::DescriptorPool::TryFindSymbolInFallbackDatabase(std::__cxx11::basic_string<char, std::char_traits<char>, std::allocator<char> > const&) const [clone .cold]
PUBLIC 28686 0 google::protobuf::DescriptorPool::Tables::FindByNameHelper(google::protobuf::DescriptorPool const*, std::__cxx11::basic_string<char, std::char_traits<char>, std::allocator<char> > const&) [clone .cold]
PUBLIC 286a5 0 google::protobuf::(anonymous namespace)::RetrieveOptions(int, google::protobuf::Message const&, google::protobuf::DescriptorPool const*, std::vector<std::__cxx11::basic_string<char, std::char_traits<char>, std::allocator<char> >, std::allocator<std::__cxx11::basic_string<char, std::char_traits<char>, std::allocator<char> > > >*) [clone .constprop.0] [clone .cold]
PUBLIC 286e1 0 google::protobuf::(anonymous namespace)::FormatLineOptions(int, google::protobuf::Message const&, google::protobuf::DescriptorPool const*, std::__cxx11::basic_string<char, std::char_traits<char>, std::allocator<char> >*) [clone .cold]
PUBLIC 2870a 0 google::protobuf::MethodDescriptor::DebugString(int, std::__cxx11::basic_string<char, std::char_traits<char>, std::allocator<char> >*, google::protobuf::DebugStringOptions const&) const [clone .cold]
PUBLIC 287c8 0 google::protobuf::MethodDescriptor::DebugStringWithOptions[abi:cxx11](google::protobuf::DebugStringOptions const&) const [clone .cold]
PUBLIC 287de 0 google::protobuf::ServiceDescriptor::DebugString(std::__cxx11::basic_string<char, std::char_traits<char>, std::allocator<char> >*, google::protobuf::DebugStringOptions const&) const [clone .cold]
PUBLIC 28884 0 google::protobuf::ServiceDescriptor::DebugStringWithOptions[abi:cxx11](google::protobuf::DebugStringOptions const&) const [clone .cold]
PUBLIC 2889a 0 google::protobuf::(anonymous namespace)::FormatBracketedOptions(int, google::protobuf::Message const&, google::protobuf::DescriptorPool const*, std::__cxx11::basic_string<char, std::char_traits<char>, std::allocator<char> >*) [clone .constprop.0] [clone .cold]
PUBLIC 288ce 0 google::protobuf::EnumValueDescriptor::DebugString(int, std::__cxx11::basic_string<char, std::char_traits<char>, std::allocator<char> >*, google::protobuf::DebugStringOptions const&) const [clone .cold]
PUBLIC 28988 0 google::protobuf::EnumDescriptor::DebugString(int, std::__cxx11::basic_string<char, std::char_traits<char>, std::allocator<char> >*, google::protobuf::DebugStringOptions const&) const [clone .cold]
PUBLIC 28a56 0 google::protobuf::EnumDescriptor::DebugStringWithOptions[abi:cxx11](google::protobuf::DebugStringOptions const&) const [clone .cold]
PUBLIC 28a6c 0 google::protobuf::Descriptor::DebugString(int, std::__cxx11::basic_string<char, std::char_traits<char>, std::allocator<char> >*, google::protobuf::DebugStringOptions const&, bool) const [clone .cold]
PUBLIC 28b3c 0 google::protobuf::FieldDescriptor::DebugString(int, std::__cxx11::basic_string<char, std::char_traits<char>, std::allocator<char> >*, google::protobuf::DebugStringOptions const&) const [clone .cold]
PUBLIC 28c8a 0 google::protobuf::FieldDescriptor::DebugStringWithOptions[abi:cxx11](google::protobuf::DebugStringOptions const&) const [clone .cold]
PUBLIC 28ca0 0 google::protobuf::DescriptorBuilder::OptionInterpreter::SetAggregateOption(google::protobuf::FieldDescriptor const*, google::protobuf::UnknownFieldSet*) [clone .cold]
PUBLIC 28dd2 0 google::protobuf::OneofDescriptor::DebugString(int, std::__cxx11::basic_string<char, std::char_traits<char>, std::allocator<char> >*, google::protobuf::DebugStringOptions const&) const [clone .cold]
PUBLIC 28e74 0 google::protobuf::OneofDescriptor::DebugStringWithOptions[abi:cxx11](google::protobuf::DebugStringOptions const&) const [clone .cold]
PUBLIC 28e8a 0 google::protobuf::Descriptor::DebugStringWithOptions[abi:cxx11](google::protobuf::DebugStringOptions const&) const [clone .cold]
PUBLIC 28ea0 0 google::protobuf::FileDescriptor::DebugStringWithOptions[abi:cxx11](google::protobuf::DebugStringOptions const&) const [clone .cold]
PUBLIC 29108 0 google::protobuf::EnumValueDescriptor::DebugStringWithOptions[abi:cxx11](google::protobuf::DebugStringOptions const&) const [clone .cold]
PUBLIC 2911e 0 google::protobuf::DescriptorPool::CrossLinkOnDemandHelper(std::__cxx11::basic_string<char, std::char_traits<char>, std::allocator<char> > const&, bool) const [clone .cold]
PUBLIC 29134 0 google::protobuf::FieldDescriptor::InternalTypeOnceInit() const [clone .cold]
PUBLIC 29188 0 google::protobuf::internal::LazyDescriptor::OnceInternal() [clone .cold]
PUBLIC 29198 0 google::protobuf::DescriptorPool::FindFileContainingSymbol(std::__cxx11::basic_string<char, std::char_traits<char>, std::allocator<char> > const&) const [clone .cold]
PUBLIC 291b8 0 google::protobuf::DescriptorBuilder::FindSymbolNotEnforcingDepsHelper(google::protobuf::DescriptorPool const*, std::__cxx11::basic_string<char, std::char_traits<char>, std::allocator<char> > const&, bool) [clone .cold]
PUBLIC 291d8 0 google::protobuf::DescriptorBuilder::LookupSymbolNoPlaceholder(std::__cxx11::basic_string<char, std::char_traits<char>, std::allocator<char> > const&, std::__cxx11::basic_string<char, std::char_traits<char>, std::allocator<char> > const&, google::protobuf::DescriptorBuilder::ResolveMode, bool) [clone .cold]
PUBLIC 2921c 0 google::protobuf::DescriptorBuilder::CrossLinkMethod(google::protobuf::MethodDescriptor*, google::protobuf::MethodDescriptorProto const&) [clone .cold]
PUBLIC 29270 0 google::protobuf::DescriptorBuilder::CrossLinkField(google::protobuf::FieldDescriptor*, google::protobuf::FieldDescriptorProto const&) [clone .cold]
PUBLIC 29442 0 google::protobuf::DescriptorBuilder::CrossLinkMessage(google::protobuf::Descriptor*, google::protobuf::DescriptorProto const&) [clone .cold]
PUBLIC 294de 0 google::protobuf::DescriptorBuilder::OptionInterpreter::SetOptionValue(google::protobuf::FieldDescriptor const*, google::protobuf::UnknownFieldSet*) [clone .cold]
PUBLIC 298b4 0 google::protobuf::DescriptorBuilder::OptionInterpreter::InterpretSingleOption(google::protobuf::Message*, std::vector<int, std::allocator<int> > const&, std::vector<int, std::allocator<int> > const&) [clone .cold]
PUBLIC 29b36 0 google::protobuf::DescriptorPool::TryFindExtensionInFallbackDatabase(google::protobuf::Descriptor const*, int) const [clone .cold]
PUBLIC 29b46 0 google::protobuf::DescriptorPool::FindExtensionByNumber(google::protobuf::Descriptor const*, int) const [clone .cold]
PUBLIC 29b66 0 google::protobuf::DescriptorPool::FindAllExtensions(google::protobuf::Descriptor const*, std::vector<google::protobuf::FieldDescriptor const*, std::allocator<google::protobuf::FieldDescriptor const*> >*) const [clone .cold]
PUBLIC 29b94 0 google::protobuf::DescriptorPoolDatabase::FindAllExtensionNumbers(std::__cxx11::basic_string<char, std::char_traits<char>, std::allocator<char> > const&, std::vector<int, std::allocator<int> >*) [clone .cold]
PUBLIC 29bac 0 google::protobuf::MergedDescriptorDatabase::MergedDescriptorDatabase(std::vector<google::protobuf::DescriptorDatabase*, std::allocator<google::protobuf::DescriptorDatabase*> > const&) [clone .cold]
PUBLIC 29bbc 0 google::protobuf::MergedDescriptorDatabase::MergedDescriptorDatabase(google::protobuf::DescriptorDatabase*, google::protobuf::DescriptorDatabase*) [clone .cold]
PUBLIC 29bda 0 google::protobuf::(anonymous namespace)::RecordMessageNames(google::protobuf::DescriptorProto const&, std::__cxx11::basic_string<char, std::char_traits<char>, std::allocator<char> > const&, std::set<std::__cxx11::basic_string<char, std::char_traits<char>, std::allocator<char> >, std::less<std::__cxx11::basic_string<char, std::char_traits<char>, std::allocator<char> > >, std::allocator<std::__cxx11::basic_string<char, std::char_traits<char>, std::allocator<char> > > >*) [clone .cold]
PUBLIC 29c00 0 google::protobuf::EncodedDescriptorDatabase::Add(void const*, int) [clone .cold]
PUBLIC 29c2e 0 google::protobuf::MergedDescriptorDatabase::FindAllExtensionNumbers(std::__cxx11::basic_string<char, std::char_traits<char>, std::allocator<char> > const&, std::vector<int, std::allocator<int> >*) [clone .cold]
PUBLIC 29c54 0 bool google::protobuf::(anonymous namespace)::ForAllFileProtos<google::protobuf::DescriptorDatabase::FindAllPackageNames(std::vector<std::__cxx11::basic_string<char, std::char_traits<char>, std::allocator<char> >, std::allocator<std::__cxx11::basic_string<char, std::char_traits<char>, std::allocator<char> > > >*)::{lambda(google::protobuf::FileDescriptorProto const&, std::set<std::__cxx11::basic_string<char, std::char_traits<char>, std::allocator<char> >, std::less<std::__cxx11::basic_string<char, std::char_traits<char>, std::allocator<char> > >, std::allocator<std::__cxx11::basic_string<char, std::char_traits<char>, std::allocator<char> > > >*)#1}>(google::protobuf::DescriptorDatabase*, google::protobuf::DescriptorDatabase::FindAllPackageNames(std::vector<std::__cxx11::basic_string<char, std::char_traits<char>, std::allocator<char> >, std::allocator<std::__cxx11::basic_string<char, std::char_traits<char>, std::allocator<char> > > >*)::{lambda(google::protobuf::FileDescriptorProto const&, std::set<std::__cxx11::basic_string<char, std::char_traits<char>, std::allocator<char> >, std::less<std::__cxx11::basic_string<char, std::char_traits<char>, std::allocator<char> > >, std::allocator<std::__cxx11::basic_string<char, std::char_traits<char>, std::allocator<char> > > >*)#1}, std::vector<std::__cxx11::basic_string<char, std::char_traits<char>, std::allocator<char> >, std::allocator<std::__cxx11::basic_string<char, std::char_traits<char>, std::allocator<char> > > >*) [clone .isra.0] [clone .cold]
PUBLIC 29c83 0 bool google::protobuf::(anonymous namespace)::ForAllFileProtos<google::protobuf::DescriptorDatabase::FindAllMessageNames(std::vector<std::__cxx11::basic_string<char, std::char_traits<char>, std::allocator<char> >, std::allocator<std::__cxx11::basic_string<char, std::char_traits<char>, std::allocator<char> > > >*)::{lambda(google::protobuf::FileDescriptorProto const&, std::set<std::__cxx11::basic_string<char, std::char_traits<char>, std::allocator<char> >, std::less<std::__cxx11::basic_string<char, std::char_traits<char>, std::allocator<char> > >, std::allocator<std::__cxx11::basic_string<char, std::char_traits<char>, std::allocator<char> > > >*)#1}>(google::protobuf::DescriptorDatabase*, google::protobuf::DescriptorDatabase::FindAllMessageNames(std::vector<std::__cxx11::basic_string<char, std::char_traits<char>, std::allocator<char> >, std::allocator<std::__cxx11::basic_string<char, std::char_traits<char>, std::allocator<char> > > >*)::{lambda(google::protobuf::FileDescriptorProto const&, std::set<std::__cxx11::basic_string<char, std::char_traits<char>, std::allocator<char> >, std::less<std::__cxx11::basic_string<char, std::char_traits<char>, std::allocator<char> > >, std::allocator<std::__cxx11::basic_string<char, std::char_traits<char>, std::allocator<char> > > >*)#1}, std::vector<std::__cxx11::basic_string<char, std::char_traits<char>, std::allocator<char> >, std::allocator<std::__cxx11::basic_string<char, std::char_traits<char>, std::allocator<char> > > >*) [clone .isra.0] [clone .cold]
PUBLIC 29cb2 0 google::protobuf::EncodedDescriptorDatabase::FindNameOfFileContainingSymbol(std::__cxx11::basic_string<char, std::char_traits<char>, std::allocator<char> > const&, std::__cxx11::basic_string<char, std::char_traits<char>, std::allocator<char> >*) [clone .cold]
PUBLIC 29cca 0 google::protobuf::MergedDescriptorDatabase::FindFileContainingSymbol(std::__cxx11::basic_string<char, std::char_traits<char>, std::allocator<char> > const&, google::protobuf::FileDescriptorProto*) [clone .cold]
PUBLIC 29cda 0 google::protobuf::MergedDescriptorDatabase::FindFileContainingExtension(std::__cxx11::basic_string<char, std::char_traits<char>, std::allocator<char> > const&, int, google::protobuf::FileDescriptorProto*) [clone .cold]
PUBLIC 29cea 0 google::protobuf::SimpleDescriptorDatabase::Add(google::protobuf::FileDescriptorProto const&) [clone .cold]
PUBLIC 29d00 0 google::protobuf::SourceCodeInfo_Location::SourceCodeInfo_Location(google::protobuf::Arena*) [clone .cold]
PUBLIC 29d22 0 google::protobuf::GeneratedCodeInfo_Annotation::GeneratedCodeInfo_Annotation(google::protobuf::Arena*) [clone .cold]
PUBLIC 29d34 0 google::protobuf::DescriptorProto_ExtensionRange* google::protobuf::Arena::CreateMaybeMessage<google::protobuf::DescriptorProto_ExtensionRange>(google::protobuf::Arena*) [clone .cold]
PUBLIC 29d4a 0 google::protobuf::DescriptorProto_ReservedRange* google::protobuf::Arena::CreateMaybeMessage<google::protobuf::DescriptorProto_ReservedRange>(google::protobuf::Arena*) [clone .cold]
PUBLIC 29d60 0 google::protobuf::FieldDescriptorProto* google::protobuf::Arena::CreateMaybeMessage<google::protobuf::FieldDescriptorProto>(google::protobuf::Arena*) [clone .cold]
PUBLIC 29d76 0 google::protobuf::OneofDescriptorProto* google::protobuf::Arena::CreateMaybeMessage<google::protobuf::OneofDescriptorProto>(google::protobuf::Arena*) [clone .cold]
PUBLIC 29d8c 0 google::protobuf::EnumDescriptorProto_EnumReservedRange* google::protobuf::Arena::CreateMaybeMessage<google::protobuf::EnumDescriptorProto_EnumReservedRange>(google::protobuf::Arena*) [clone .cold]
PUBLIC 29da2 0 google::protobuf::EnumValueDescriptorProto* google::protobuf::Arena::CreateMaybeMessage<google::protobuf::EnumValueDescriptorProto>(google::protobuf::Arena*) [clone .cold]
PUBLIC 29db8 0 google::protobuf::MethodDescriptorProto* google::protobuf::Arena::CreateMaybeMessage<google::protobuf::MethodDescriptorProto>(google::protobuf::Arena*) [clone .cold]
PUBLIC 29dce 0 google::protobuf::UninterpretedOption_NamePart* google::protobuf::Arena::CreateMaybeMessage<google::protobuf::UninterpretedOption_NamePart>(google::protobuf::Arena*) [clone .cold]
PUBLIC 29de4 0 google::protobuf::SourceCodeInfo_Location* google::protobuf::Arena::CreateMaybeMessage<google::protobuf::SourceCodeInfo_Location>(google::protobuf::Arena*) [clone .cold]
PUBLIC 29dfa 0 google::protobuf::GeneratedCodeInfo_Annotation* google::protobuf::Arena::CreateMaybeMessage<google::protobuf::GeneratedCodeInfo_Annotation>(google::protobuf::Arena*) [clone .cold]
PUBLIC 29e10 0 google::protobuf::UninterpretedOption::UninterpretedOption(google::protobuf::Arena*) [clone .cold]
PUBLIC 29e22 0 google::protobuf::UninterpretedOption* google::protobuf::Arena::CreateMaybeMessage<google::protobuf::UninterpretedOption>(google::protobuf::Arena*) [clone .cold]
PUBLIC 29e38 0 google::protobuf::ExtensionRangeOptions::ExtensionRangeOptions(google::protobuf::Arena*) [clone .cold]
PUBLIC 29e52 0 google::protobuf::ExtensionRangeOptions* google::protobuf::Arena::CreateMaybeMessage<google::protobuf::ExtensionRangeOptions>(google::protobuf::Arena*) [clone .cold]
PUBLIC 29e68 0 google::protobuf::FileOptions::FileOptions(google::protobuf::Arena*) [clone .cold]
PUBLIC 29e82 0 google::protobuf::FileOptions* google::protobuf::Arena::CreateMaybeMessage<google::protobuf::FileOptions>(google::protobuf::Arena*) [clone .cold]
PUBLIC 29e98 0 google::protobuf::MessageOptions::MessageOptions(google::protobuf::Arena*) [clone .cold]
PUBLIC 29eb2 0 google::protobuf::MessageOptions* google::protobuf::Arena::CreateMaybeMessage<google::protobuf::MessageOptions>(google::protobuf::Arena*) [clone .cold]
PUBLIC 29ec8 0 google::protobuf::FieldOptions::FieldOptions(google::protobuf::Arena*) [clone .cold]
PUBLIC 29ee2 0 google::protobuf::FieldOptions* google::protobuf::Arena::CreateMaybeMessage<google::protobuf::FieldOptions>(google::protobuf::Arena*) [clone .cold]
PUBLIC 29ef8 0 google::protobuf::OneofOptions::OneofOptions(google::protobuf::Arena*) [clone .cold]
PUBLIC 29f12 0 google::protobuf::OneofOptions* google::protobuf::Arena::CreateMaybeMessage<google::protobuf::OneofOptions>(google::protobuf::Arena*) [clone .cold]
PUBLIC 29f28 0 google::protobuf::EnumOptions::EnumOptions(google::protobuf::Arena*) [clone .cold]
PUBLIC 29f42 0 google::protobuf::EnumOptions* google::protobuf::Arena::CreateMaybeMessage<google::protobuf::EnumOptions>(google::protobuf::Arena*) [clone .cold]
PUBLIC 29f58 0 google::protobuf::EnumValueOptions::EnumValueOptions(google::protobuf::Arena*) [clone .cold]
PUBLIC 29f72 0 google::protobuf::EnumValueOptions* google::protobuf::Arena::CreateMaybeMessage<google::protobuf::EnumValueOptions>(google::protobuf::Arena*) [clone .cold]
PUBLIC 29f88 0 google::protobuf::ServiceOptions::ServiceOptions(google::protobuf::Arena*) [clone .cold]
PUBLIC 29fa2 0 google::protobuf::ServiceOptions* google::protobuf::Arena::CreateMaybeMessage<google::protobuf::ServiceOptions>(google::protobuf::Arena*) [clone .cold]
PUBLIC 29fb8 0 google::protobuf::MethodOptions::MethodOptions(google::protobuf::Arena*) [clone .cold]
PUBLIC 29fd2 0 google::protobuf::MethodOptions* google::protobuf::Arena::CreateMaybeMessage<google::protobuf::MethodOptions>(google::protobuf::Arena*) [clone .cold]
PUBLIC 29fe8 0 google::protobuf::EnumDescriptorProto::EnumDescriptorProto(google::protobuf::Arena*) [clone .cold]
PUBLIC 2a00a 0 google::protobuf::EnumDescriptorProto* google::protobuf::Arena::CreateMaybeMessage<google::protobuf::EnumDescriptorProto>(google::protobuf::Arena*) [clone .cold]
PUBLIC 2a020 0 google::protobuf::DescriptorProto::DescriptorProto(google::protobuf::Arena*) [clone .cold]
PUBLIC 2a076 0 google::protobuf::DescriptorProto* google::protobuf::Arena::CreateMaybeMessage<google::protobuf::DescriptorProto>(google::protobuf::Arena*) [clone .cold]
PUBLIC 2a08c 0 google::protobuf::ServiceDescriptorProto::ServiceDescriptorProto(google::protobuf::Arena*) [clone .cold]
PUBLIC 2a09e 0 google::protobuf::ServiceDescriptorProto* google::protobuf::Arena::CreateMaybeMessage<google::protobuf::ServiceDescriptorProto>(google::protobuf::Arena*) [clone .cold]
PUBLIC 2a0b4 0 google::protobuf::FileDescriptorProto::FileDescriptorProto(google::protobuf::Arena*) [clone .cold]
PUBLIC 2a100 0 google::protobuf::FileDescriptorProto* google::protobuf::Arena::CreateMaybeMessage<google::protobuf::FileDescriptorProto>(google::protobuf::Arena*) [clone .cold]
PUBLIC 2a116 0 google::protobuf::SourceCodeInfo::SourceCodeInfo(google::protobuf::Arena*) [clone .cold]
PUBLIC 2a128 0 google::protobuf::SourceCodeInfo* google::protobuf::Arena::CreateMaybeMessage<google::protobuf::SourceCodeInfo>(google::protobuf::Arena*) [clone .cold]
PUBLIC 2a13e 0 google::protobuf::FileDescriptorSet::FileDescriptorSet(google::protobuf::Arena*) [clone .cold]
PUBLIC 2a150 0 google::protobuf::FileDescriptorSet* google::protobuf::Arena::CreateMaybeMessage<google::protobuf::FileDescriptorSet>(google::protobuf::Arena*) [clone .cold]
PUBLIC 2a166 0 google::protobuf::GeneratedCodeInfo::GeneratedCodeInfo(google::protobuf::Arena*) [clone .cold]
PUBLIC 2a178 0 google::protobuf::GeneratedCodeInfo* google::protobuf::Arena::CreateMaybeMessage<google::protobuf::GeneratedCodeInfo>(google::protobuf::Arena*) [clone .cold]
PUBLIC 2a18e 0 google::protobuf::GeneratedCodeInfo_Annotation::GeneratedCodeInfo_Annotation(google::protobuf::GeneratedCodeInfo_Annotation const&) [clone .cold]
PUBLIC 2a19e 0 google::protobuf::SourceCodeInfo_Location::SourceCodeInfo_Location(google::protobuf::SourceCodeInfo_Location const&) [clone .cold]
PUBLIC 2a1be 0 google::protobuf::OneofOptions::OneofOptions(google::protobuf::OneofOptions const&) [clone .cold]
PUBLIC 2a1d6 0 google::protobuf::OneofDescriptorProto::OneofDescriptorProto(google::protobuf::OneofDescriptorProto const&) [clone .cold]
PUBLIC 2a1ec 0 google::protobuf::ExtensionRangeOptions::ExtensionRangeOptions(google::protobuf::ExtensionRangeOptions const&) [clone .cold]
PUBLIC 2a204 0 google::protobuf::DescriptorProto_ExtensionRange::DescriptorProto_ExtensionRange(google::protobuf::DescriptorProto_ExtensionRange const&) [clone .cold]
PUBLIC 2a21a 0 google::protobuf::EnumValueOptions::EnumValueOptions(google::protobuf::EnumValueOptions const&) [clone .cold]
PUBLIC 2a232 0 google::protobuf::EnumValueDescriptorProto::EnumValueDescriptorProto(google::protobuf::EnumValueDescriptorProto const&) [clone .cold]
PUBLIC 2a248 0 google::protobuf::MessageOptions::MessageOptions(google::protobuf::MessageOptions const&) [clone .cold]
PUBLIC 2a260 0 google::protobuf::EnumOptions::EnumOptions(google::protobuf::EnumOptions const&) [clone .cold]
PUBLIC 2a278 0 google::protobuf::EnumDescriptorProto::EnumDescriptorProto(google::protobuf::EnumDescriptorProto const&) [clone .cold]
PUBLIC 2a2a6 0 google::protobuf::ServiceOptions::ServiceOptions(google::protobuf::ServiceOptions const&) [clone .cold]
PUBLIC 2a2be 0 google::protobuf::MethodOptions::MethodOptions(google::protobuf::MethodOptions const&) [clone .cold]
PUBLIC 2a2d6 0 google::protobuf::MethodDescriptorProto::MethodDescriptorProto(google::protobuf::MethodDescriptorProto const&) [clone .cold]
PUBLIC 2a2ec 0 google::protobuf::FieldOptions::FieldOptions(google::protobuf::FieldOptions const&) [clone .cold]
PUBLIC 2a304 0 google::protobuf::FieldDescriptorProto::FieldDescriptorProto(google::protobuf::FieldDescriptorProto const&) [clone .cold]
PUBLIC 2a31a 0 google::protobuf::ServiceDescriptorProto::ServiceDescriptorProto(google::protobuf::ServiceDescriptorProto const&) [clone .cold]
PUBLIC 2a338 0 google::protobuf::DescriptorProto::DescriptorProto(google::protobuf::DescriptorProto const&) [clone .cold]
PUBLIC 2a398 0 google::protobuf::FileOptions::FileOptions(google::protobuf::FileOptions const&) [clone .cold]
PUBLIC 2a3b0 0 google::protobuf::UninterpretedOption::UninterpretedOption(google::protobuf::UninterpretedOption const&) [clone .cold]
PUBLIC 2a3c0 0 google::protobuf::FileDescriptorSet::FileDescriptorSet(google::protobuf::FileDescriptorSet const&) [clone .cold]
PUBLIC 2a3d0 0 google::protobuf::SourceCodeInfo::SourceCodeInfo(google::protobuf::SourceCodeInfo const&) [clone .cold]
PUBLIC 2a3e0 0 google::protobuf::FileDescriptorProto::FileDescriptorProto(google::protobuf::FileDescriptorProto const&) [clone .cold]
PUBLIC 2a446 0 google::protobuf::GeneratedCodeInfo::GeneratedCodeInfo(google::protobuf::GeneratedCodeInfo const&) [clone .cold]
PUBLIC 2a456 0 google::protobuf::DynamicMessageFactory::DynamicMessageFactory() [clone .cold]
PUBLIC 2a466 0 google::protobuf::DynamicMessageFactory::DynamicMessageFactory(google::protobuf::DescriptorPool const*) [clone .cold]
PUBLIC 2a476 0 google::protobuf::DynamicMessageFactory::GetPrototypeNoLock(google::protobuf::Descriptor const*) [clone .cold]
PUBLIC 2a51a 0 google::protobuf::DynamicMessage::CrossLinkPrototypes() [clone .cold]
PUBLIC 2a52a 0 google::protobuf::DynamicMessageFactory::GetPrototype(google::protobuf::Descriptor const*) [clone .cold]
PUBLIC 2a540 0 google::protobuf::internal::ExtensionSet::ParseField(unsigned int, google::protobuf::io::CodedInputStream*, google::protobuf::Message const*, google::protobuf::UnknownFieldSet*) [clone .cold]
PUBLIC 2a572 0 google::protobuf::internal::ExtensionSet::ParseMessageSetItem(google::protobuf::io::CodedInputStream*, google::protobuf::internal::ExtensionFinder*, google::protobuf::internal::MessageSetFieldSkipper*) [clone .cold]
PUBLIC 2a592 0 google::protobuf::internal::ExtensionSet::ParseMessageSet(google::protobuf::io::CodedInputStream*, google::protobuf::Message const*, google::protobuf::UnknownFieldSet*) [clone .cold]
PUBLIC 2a5c4 0 google::protobuf::internal::DescriptorPoolExtensionFinder::Find(int, google::protobuf::internal::ExtensionInfo*) [clone .cold]
PUBLIC 2a5d4 0 google::protobuf::internal::ExtensionSet::AddMessage(google::protobuf::FieldDescriptor const*, google::protobuf::MessageFactory*) [clone .cold]
PUBLIC 2a5e4 0 google::protobuf::internal::ExtensionSet::ParseField(unsigned long, char const*, google::protobuf::Message const*, google::protobuf::internal::InternalMetadata*, google::protobuf::internal::ParseContext*) [clone .cold]
PUBLIC 2a624 0 google::protobuf::strings::SubstituteAndAppend(std::__cxx11::basic_string<char, std::char_traits<char>, std::allocator<char> >*, char const*, google::protobuf::strings::internal::SubstituteArg const&, google::protobuf::strings::internal::SubstituteArg const&, google::protobuf::strings::internal::SubstituteArg const&, google::protobuf::strings::internal::SubstituteArg const&, google::protobuf::strings::internal::SubstituteArg const&, google::protobuf::strings::internal::SubstituteArg const&, google::protobuf::strings::internal::SubstituteArg const&, google::protobuf::strings::internal::SubstituteArg const&, google::protobuf::strings::internal::SubstituteArg const&, google::protobuf::strings::internal::SubstituteArg const&) [clone .cold]
PUBLIC 2a68a 0 google::protobuf::strings::Substitute[abi:cxx11](char const*, google::protobuf::strings::internal::SubstituteArg const&, google::protobuf::strings::internal::SubstituteArg const&, google::protobuf::strings::internal::SubstituteArg const&, google::protobuf::strings::internal::SubstituteArg const&, google::protobuf::strings::internal::SubstituteArg const&, google::protobuf::strings::internal::SubstituteArg const&, google::protobuf::strings::internal::SubstituteArg const&, google::protobuf::strings::internal::SubstituteArg const&, google::protobuf::strings::internal::SubstituteArg const&, google::protobuf::strings::internal::SubstituteArg const&) [clone .cold]
PUBLIC 2a6a0 0 _GLOBAL__sub_I_sagegen.cc
PUBLIC 2afe0 0 _GLOBAL__sub_I_logger.cc
PUBLIC 2b030 0 _GLOBAL__sub_I_protobuf_producer.cc
PUBLIC 2b1a0 0 _GLOBAL__sub_I_values.cc
PUBLIC 2b1e0 0 _GLOBAL__sub_I_typeobj.cc
PUBLIC 2b2c0 0 _GLOBAL__sub_I_hdlgraph.cc
PUBLIC 2b370 0 _GLOBAL__sub_I_source_info.cc
PUBLIC 2b550 0 _GLOBAL__sub_I_io.cc
PUBLIC 2b580 0 _GLOBAL__sub_I_proto_api.cc
PUBLIC 2b5c0 0 _GLOBAL__sub_I_error_code.cpp
PUBLIC 2b5f0 0 _GLOBAL__sub_I_common_v2.pb.cc
PUBLIC 2b630 0 _GLOBAL__sub_I_sourcelocdb_v2.pb.cc
PUBLIC 2b670 0 _GLOBAL__sub_I_msiedb_v2.pb.cc
PUBLIC 2b6b0 0 _GLOBAL__sub_I_typeinfo_v2.pb.cc
PUBLIC 2b6f0 0 _GLOBAL__sub_I_hegdb_v2.pb.cc
PUBLIC 2b730 0 _GLOBAL__sub_I_hiertreedb_v2.pb.cc
PUBLIC 2b770 0 _GLOBAL__sub_I_common.cc
PUBLIC 2b7a0 0 _GLOBAL__sub_I_int128.cc
PUBLIC 2b7d0 0 _GLOBAL__sub_I_status.cc
PUBLIC 2b890 0 _GLOBAL__sub_I_stringpiece.cc
PUBLIC 2b8c0 0 _GLOBAL__sub_I_arena.cc
PUBLIC 2b8f0 0 _GLOBAL__sub_I_generated_message_util.cc
PUBLIC 2b920 0 _GLOBAL__sub_I_implicit_weak_message.cc
PUBLIC 2b950 0 _GLOBAL__sub_I_message_lite.cc
PUBLIC 2b980 0 _GLOBAL__sub_I_parse_context.cc
PUBLIC 2b9b0 0 _GLOBAL__sub_I_repeated_field.cc
PUBLIC 2b9e0 0 _GLOBAL__sub_I_wire_format_lite.cc
PUBLIC 2ba10 0 _GLOBAL__sub_I_coded_stream.cc
PUBLIC 2ba40 0 _GLOBAL__sub_I_zero_copy_stream_impl.cc
PUBLIC 2ba70 0 _GLOBAL__sub_I_zero_copy_stream_impl_lite.cc
PUBLIC 2baa0 0 _GLOBAL__sub_I_generated_message_reflection.cc
PUBLIC 2bad0 0 _GLOBAL__sub_I_map_field.cc
PUBLIC 2bb00 0 _GLOBAL__sub_I_message.cc
PUBLIC 2bb30 0 _GLOBAL__sub_I_reflection_ops.cc
PUBLIC 2bb60 0 _GLOBAL__sub_I_text_format.cc
PUBLIC 2bb90 0 _GLOBAL__sub_I_unknown_field_set.cc
PUBLIC 2bbc0 0 _GLOBAL__sub_I_wire_format.cc
PUBLIC 2bbf0 0 _GLOBAL__sub_I_tokenizer.cc
PUBLIC 2bc20 0 _GLOBAL__sub_I_delimited_message_util.cc
PUBLIC 2bc50 0 _GLOBAL__sub_I_stringprintf.cc
PUBLIC 2bc80 0 _GLOBAL__sub_I_structurally_valid.cc
PUBLIC 2bcc0 0 _GLOBAL__sub_I_strutil.cc
PUBLIC 2bcf0 0 _GLOBAL__sub_I_any_lite.cc
PUBLIC 2bd20 0 _GLOBAL__sub_I_extension_set.cc
PUBLIC 2bd50 0 _GLOBAL__sub_I_strtod.cc
PUBLIC 2bd80 0 _GLOBAL__sub_I_zero_copy_stream.cc
PUBLIC 2bdb0 0 _GLOBAL__sub_I_any.cc
PUBLIC 2bde0 0 _GLOBAL__sub_I_descriptor.cc
PUBLIC 2be30 0 _GLOBAL__sub_I_descriptor_database.cc
PUBLIC 2be60 0 _GLOBAL__sub_I_descriptor.pb.cc
PUBLIC 2bea0 0 _GLOBAL__sub_I_dynamic_message.cc
PUBLIC 2bed0 0 _GLOBAL__sub_I_extension_set_heavy.cc
PUBLIC 2bf00 0 _GLOBAL__sub_I_substitute.cc
PUBLIC 2bf30 0 deregister_tm_clones
PUBLIC 2bf60 0 register_tm_clones
PUBLIC 2bfa0 0 __do_global_dtors_aux
PUBLIC 2bfe0 0 frame_dummy
PUBLIC 2bff0 0 (anonymous namespace)::isValidScope(xst_s*)
PUBLIC 2c130 0 (anonymous namespace)::skipScope(ssl_item_s*)
PUBLIC 2c1f0 0 Sage::FuncLoader<&(anonymous namespace)::dsngenLibName, &(anonymous namespace)::str_dsngen_lcvname, char*, ssl_item_s*, int>::~FuncLoader()
PUBLIC 2c200 0 __tcf_0
PUBLIC 2c250 0 Sage::LibLoader<&(anonymous namespace)::dsngenLibName>::libInit() [clone .isra.0] [clone .part.0]
PUBLIC 2c270 0 (anonymous namespace)::getPrimTypeKind(ssl_item_s*)
PUBLIC 2c460 0 Sage::Logger::stream(int) [clone .constprop.0]
PUBLIC 2c4c0 0 void std::__cxx11::basic_string<char, std::char_traits<char>, std::allocator<char> >::_M_construct<char*>(char*, char*, std::forward_iterator_tag) [clone .constprop.0]
PUBLIC 2c560 0 std::__cxx11::basic_string<char, std::char_traits<char>, std::allocator<char> >::basic_string(char const*, std::allocator<char> const&) [clone .isra.0]
PUBLIC 2c620 0 Sage::FuncLoader<&(anonymous namespace)::dsngenLibName, &(anonymous namespace)::str_dsngen_process_scope_oomrs, void, ssl_item_s*, char*, char*, ._839 (ssl_item_s*, xst_s*, ssl_item_s*, char const*, char const*, char const*, char const*, char const*)>::funcInit() [clone .isra.0]
PUBLIC 2c680 0 Sage::FuncLoader<&(anonymous namespace)::dsngenLibName, &(anonymous namespace)::str_dsngen_print_scope_path_to_buf, char const*, char*, ssl_item_s*, char const*, bool>::funcInit() [clone .isra.0]
PUBLIC 2c6e0 0 Sage::FuncLoader<&(anonymous namespace)::dsngenLibName, &(anonymous namespace)::str_dsngen_record_aname_to_db, void, char*, ssl_item_s*>::funcInit() [clone .isra.0]
PUBLIC 2c740 0 Sage::FuncLoader<&(anonymous namespace)::dsngenLibName, &(anonymous namespace)::str_dsngen_idaDesignRecordHierarchyEntry, idaStatusCodeT, char const*, char const*, char const*, idaHierarchyKindT, idaHierarchySubKindT, int, char const*, char const*, char const*, int, int>::funcInit() [clone .isra.0]
PUBLIC 2c7a0 0 (anonymous namespace)::escapeWrap(std::__cxx11::basic_string<char, std::char_traits<char>, std::allocator<char> > const&, std::__cxx11::basic_string<char, std::char_traits<char>, std::allocator<char> >&)
PUBLIC 2c810 0 (anonymous namespace)::fileSysErr(std::__cxx11::basic_string<char, std::char_traits<char>, std::allocator<char> > const&, std::__cxx11::basic_string<char, std::char_traits<char>, std::allocator<char> > const&)
PUBLIC 2c9e0 0 (anonymous namespace)::recordSourceMapping(char*, char*)
PUBLIC 2cc40 0 std::__cxx11::basic_string<char, std::char_traits<char>, std::allocator<char> > __gnu_cxx::__to_xstring<std::__cxx11::basic_string<char, std::char_traits<char>, std::allocator<char> >, char>(int (*)(char*, unsigned long, char const*, __va_list_tag*), unsigned long, char const*, ...) [clone .constprop.0]
PUBLIC 2cd70 0 (anonymous namespace)::getPrimTypeName(vst_s*, bool)
PUBLIC 2d580 0 Sage::getSvStringData(unsigned char*, unsigned long&)
PUBLIC 2d690 0 Sage::getSignature[abi:cxx11](ssl_item_s const*)
PUBLIC 2db10 0 Sage::getLcvName[abi:cxx11](ssl_item_s*, bool)
PUBLIC 2dec0 0 Sage::buildUnknownLcvName[abi:cxx11](ssl_item_s*, bool)
PUBLIC 2e100 0 (anonymous namespace)::logVlogObj(char const*, xst_s*, long*, std::__cxx11::basic_string<char, std::char_traits<char>, std::allocator<char> > const&)
PUBLIC 2ec80 0 Sage::getLcvName[abi:cxx11](xst_s*, long*, bool)
PUBLIC 2ecb0 0 Sage::getCurrentIdCounter()
PUBLIC 2ecc0 0 Sage::getIdCounterAndIncrement()
PUBLIC 2ecd0 0 Sage::incrementIdCounter()
PUBLIC 2ece0 0 Sage::incrementIdCounterAndGet()
PUBLIC 2ecf0 0 Sage::getTypeIdMap[abi:cxx11]()
PUBLIC 2ed00 0 Sage::sagegenProfPush(int)
PUBLIC 2ed60 0 Sage::sagegenProfPop()
PUBLIC 2edd0 0 (anonymous namespace)::recordHierNodeTypeSignals(ssl_item_s*, int) [clone .isra.0]
PUBLIC 2eff0 0 sagegen_generate_xmclone
PUBLIC 2f000 0 sagegen_xmclone_prepare
PUBLIC 2f010 0 sagegen_xmclone_complete
PUBLIC 2f020 0 sagegen_xmclone_data_prepared
PUBLIC 2f030 0 sagegen_xmclone_start_cb
PUBLIC 2f040 0 sagegen_xmclone_end_cb
PUBLIC 2f050 0 sagegen_ie_propagate_coercion
PUBLIC 2f110 0 std::_Rb_tree_iterator<std::pair<std::pair<std::__cxx11::basic_string<char, std::char_traits<char>, std::allocator<char> >, int> const, int> > std::_Rb_tree<std::pair<std::__cxx11::basic_string<char, std::char_traits<char>, std::allocator<char> >, int>, std::pair<std::pair<std::__cxx11::basic_string<char, std::char_traits<char>, std::allocator<char> >, int> const, int>, std::_Select1st<std::pair<std::pair<std::__cxx11::basic_string<char, std::char_traits<char>, std::allocator<char> >, int> const, int> >, std::less<std::pair<std::__cxx11::basic_string<char, std::char_traits<char>, std::allocator<char> >, int> >, std::allocator<std::pair<std::pair<std::__cxx11::basic_string<char, std::char_traits<char>, std::allocator<char> >, int> const, int> > >::_M_emplace_hint_unique<std::piecewise_construct_t const&, std::tuple<std::pair<std::__cxx11::basic_string<char, std::char_traits<char>, std::allocator<char> >, int>&&>, std::tuple<> >(std::_Rb_tree_const_iterator<std::pair<std::pair<std::__cxx11::basic_string<char, std::char_traits<char>, std::allocator<char> >, int> const, int> >, std::piecewise_construct_t const&, std::tuple<std::pair<std::__cxx11::basic_string<char, std::char_traits<char>, std::allocator<char> >, int>&&>&&, std::tuple<>&&) [clone .isra.0]
PUBLIC 2f8d0 0 (anonymous namespace)::getNodeTypeId(std::__cxx11::basic_string<char, std::char_traits<char>, std::allocator<char> > const&, bool*)
PUBLIC 2fbc0 0 std::__detail::_Map_base<std::__cxx11::basic_string<char, std::char_traits<char>, std::allocator<char> >, std::pair<std::__cxx11::basic_string<char, std::char_traits<char>, std::allocator<char> > const, int>, std::allocator<std::pair<std::__cxx11::basic_string<char, std::char_traits<char>, std::allocator<char> > const, int> >, std::__detail::_Select1st, std::equal_to<std::__cxx11::basic_string<char, std::char_traits<char>, std::allocator<char> > >, std::hash<std::__cxx11::basic_string<char, std::char_traits<char>, std::allocator<char> > >, std::__detail::_Mod_range_hashing, std::__detail::_Default_ranged_hash, std::__detail::_Prime_rehash_policy, std::__detail::_Hashtable_traits<true, false, true>, true>::operator[](std::__cxx11::basic_string<char, std::char_traits<char>, std::allocator<char> > const&) [clone .constprop.0]
PUBLIC 2fcd0 0 (anonymous namespace)::getPartitionId(long*)
PUBLIC 2fd60 0 (anonymous namespace)::getNodeId(xst_s*, long*, bool*)
PUBLIC 30170 0 (anonymous namespace)::getHierParent(int, ssl_item_s*, ssl_item_s const*, int*, std::__cxx11::basic_string<char, std::char_traits<char>, std::allocator<char> > const&) [clone .isra.0] [clone .constprop.0]
PUBLIC 306e0 0 sagegen_ie_get_partition_coercion
PUBLIC 315c0 0 (anonymous namespace)::recordCoercedPort(ssl_item_s*, ssl_item_s*)
PUBLIC 31700 0 sagegen_begin_shutdown
PUBLIC 31c60 0 sagegen_ie_stitch_pair
PUBLIC 333b0 0 sagegen_top_instance
PUBLIC 33780 0 sagegen_ie_connect_oopr
PUBLIC 34100 0 (anonymous namespace)::recordHierNodeType(ssl_item_s*, bool)
PUBLIC 352f0 0 (anonymous namespace)::recordScope(xst_s*, long*, std::__cxx11::basic_string<char, std::char_traits<char>, std::allocator<char> > const&) [clone .constprop.0]
PUBLIC 35f40 0 (anonymous namespace)::processXstItems(ssl_item_s*, idaStatusCodeT, char*, char*, std::__cxx11::basic_string<char, std::char_traits<char>, std::allocator<char> > const&) [clone .constprop.0]
PUBLIC 374c0 0 (anonymous namespace)::traverseDesignCallback(ssl_item_s*)
PUBLIC 37dd0 0 sagegen_wait_and_cleanup
PUBLIC 38050 0 (anonymous namespace)::exitHandler(long*, int)
PUBLIC 383c0 0 (anonymous namespace)::sagegenGenerate(char*, char*, char*, char*, char*, char*, int, bool, bool, void*, void*)
PUBLIC 3ad30 0 sagegen_generate
PUBLIC 3ad50 0 std::ctype<char>::do_widen(char) const
PUBLIC 3ad60 0 Sage::ProtoAPI::commInit(char const*, bool, bool)
PUBLIC 3ad70 0 Sage::ProtoAPI::commSignalShutdown()
PUBLIC 3ad80 0 Sage::ProtoAPI::commWaitAndCleanup()
PUBLIC 3ad90 0 Sage::ProtoAPI::recordSourceLoc(int, Sage::GenSrcLoc const&, bool)
PUBLIC 3ada0 0 Sage::ProtoAPI::recordSourceMapping(int, std::__cxx11::basic_string<char, std::char_traits<char>, std::allocator<char> > const&, int, std::__cxx11::basic_string<char, std::char_traits<char>, std::allocator<char> > const&)
PUBLIC 3adb0 0 Sage::ProtoAPI::recordPathNode(Sage::Util::PathTree::Node const*, bool)
PUBLIC 3adc0 0 Sage::ProtoAPI::recordHierEdge(int, int, hiertreeproto_v2::Edge_EdgeKind)
PUBLIC 3add0 0 Sage::ProtoAPI::recordHierNode(int, int, int, std::__cxx11::basic_string<char, std::char_traits<char>, std::allocator<char> > const&, int)
PUBLIC 3ade0 0 Sage::ProtoAPI::startHierNodeType(int, int, std::__cxx11::basic_string<char, std::char_traits<char>, std::allocator<char> > const&, std::__cxx11::basic_string<char, std::char_traits<char>, std::allocator<char> > const&, int, hiertreeproto_v2::NamedBlock_Type)
PUBLIC 3adf0 0 Sage::ProtoAPI::recordCoercedPort(int, char const*)
PUBLIC 3ae00 0 Sage::ProtoAPI::addParam(int, int, std::__cxx11::basic_string<char, std::char_traits<char>, std::allocator<char> > const&, int)
PUBLIC 3ae10 0 Sage::ProtoAPI::finishType()
PUBLIC 3ae20 0 Sage::ProtoAPI::addSignal(int, int, std::__cxx11::basic_string<char, std::char_traits<char>, std::allocator<char> > const&, int, bool, bool, bool, hiertreeproto_v2::Signal_Visibility)
PUBLIC 3ae30 0 Sage::ProtoAPI::addPredefinedType(std::__cxx11::basic_string<char, std::char_traits<char>, std::allocator<char> > const&, bool, bool, bool, typeinfoproto_v2::PredefinedType_Type)
PUBLIC 3ae40 0 Sage::ProtoAPI::addStruct(std::__cxx11::basic_string<char, std::char_traits<char>, std::allocator<char> > const&, bool, bool, bool, bool, std::tuple<bool, bool, long, long>&)
PUBLIC 3ae50 0 Sage::ProtoAPI::addUnion(std::__cxx11::basic_string<char, std::char_traits<char>, std::allocator<char> > const&, bool, bool, bool, bool, std::tuple<bool, bool, long, long>&)
PUBLIC 3ae60 0 Sage::ProtoAPI::finishCompositeClass()
PUBLIC 3ae70 0 Sage::ProtoAPI::finishCompositeQDA()
PUBLIC 3ae80 0 Sage::ProtoAPI::finishCompositeStaticArray()
PUBLIC 3ae90 0 Sage::ProtoAPI::finishCompositeMDA()
PUBLIC 3aea0 0 Sage::ProtoAPI::finishCompositeField()
PUBLIC 3aeb0 0 Sage::ProtoAPI::finishCompositeStruct()
PUBLIC 3aec0 0 Sage::ProtoAPI::finishCompositeUnion()
PUBLIC 3aed0 0 Sage::ProtoAPI::finishCompositeEnum()
PUBLIC 3aee0 0 Sage::ProtoAPI::addField(std::__cxx11::basic_string<char, std::char_traits<char>, std::allocator<char> > const&, typeinfoproto_v2::TypeInfoMessageType_Type)
PUBLIC 3aef0 0 Sage::ProtoAPI::getByteStream(unsigned char*, unsigned long)
PUBLIC 3af00 0 Sage::ProtoAPI::addEnum(std::__cxx11::basic_string<char, std::char_traits<char>, std::allocator<char> > const&, std::vector<std::pair<std::__cxx11::basic_string<char, std::char_traits<char>, std::allocator<char> >, common_v2::ByteStream*>, std::allocator<std::pair<std::__cxx11::basic_string<char, std::char_traits<char>, std::allocator<char> >, common_v2::ByteStream*> > > const&, unsigned long, bool, bool, bool)
PUBLIC 3af10 0 Sage::ProtoAPI::addArray(std::__cxx11::basic_string<char, std::char_traits<char>, std::allocator<char> > const&, std::vector<std::tuple<bool, bool, long, long>, std::allocator<std::tuple<bool, bool, long, long> > > const&, typeinfoproto_v2::TypeInfoMessageType_Type, bool, bool)
PUBLIC 3af20 0 Sage::ProtoAPI::addQDA(std::__cxx11::basic_string<char, std::char_traits<char>, std::allocator<char> > const&, typeinfoproto_v2::QDAArray_Type, typeinfoproto_v2::TypeInfoMessageType_Type, typeinfoproto_v2::TypeInfoMessageType_Type)
PUBLIC 3af30 0 Sage::ProtoAPI::addClassHandle(std::__cxx11::basic_string<char, std::char_traits<char>, std::allocator<char> > const&, int, int, typeinfoproto_v2::ClassHandle_Type, typeinfoproto_v2::TypeInfoMessageType_Type)
PUBLIC 3af40 0 Sage::ProtoAPI::addVirtualInterface(std::__cxx11::basic_string<char, std::char_traits<char>, std::allocator<char> > const&, int, int)
PUBLIC 3af50 0 Sage::ProtoAPI::markTypeParam()
PUBLIC 3af60 0 Sage::ProtoAPI::addByteStream(unsigned char*, bool, unsigned long)
PUBLIC 3af70 0 Sage::ProtoAPI::addStringValue(char*, unsigned long)
PUBLIC 3af80 0 Sage::ProtoAPI::addStartValue()
PUBLIC 3af90 0 Sage::ProtoAPI::addEndValue()
PUBLIC 3afa0 0 Sage::ProtoAPI::recordPrimitiveType(int, std::__cxx11::basic_string<char, std::char_traits<char>, std::allocator<char> > const&, int, hiertreeproto_v2::NamedBlock_Type)
PUBLIC 3afb0 0 Sage::ProtoAPI::recordGenvar(int, int, std::__cxx11::basic_string<char, std::char_traits<char>, std::allocator<char> > const&, int, int)
PUBLIC 3afc0 0 Sage::ProtoAPI::recordPartitionInfo(int, std::__cxx11::basic_string<char, std::char_traits<char>, std::allocator<char> > const&, std::__cxx11::basic_string<char, std::char_traits<char>, std::allocator<char> > const&, std::__cxx11::basic_string<char, std::char_traits<char>, std::allocator<char> > const&, std::__cxx11::basic_string<char, std::char_traits<char>, std::allocator<char> > const&, std::__cxx11::basic_string<char, std::char_traits<char>, std::allocator<char> > const&, std::__cxx11::basic_string<char, std::char_traits<char>, std::allocator<char> > const&)
PUBLIC 3afd0 0 Sage::ProtoAPI::recordStitchPoint(int, std::__cxx11::basic_string<char, std::char_traits<char>, std::allocator<char> > const&, std::__cxx11::basic_string<char, std::char_traits<char>, std::allocator<char> > const&, std::__cxx11::basic_string<char, std::char_traits<char>, std::allocator<char> > const&, int, int)
PUBLIC 3afe0 0 Sage::ProtoAPI::recordModuleItemPartition(int, std::__cxx11::basic_string<char, std::char_traits<char>, std::allocator<char> > const&, std::__cxx11::basic_string<char, std::char_traits<char>, std::allocator<char> > const&, std::__cxx11::basic_string<char, std::char_traits<char>, std::allocator<char> > const&, std::__cxx11::basic_string<char, std::char_traits<char>, std::allocator<char> > const&, int)
PUBLIC 3aff0 0 Sage::ProtoAPI::recordTopInstance(int)
PUBLIC 3b000 0 Sage::ProtoAPI::recordAttribute(std::__cxx11::basic_string<char, std::char_traits<char>, std::allocator<char> > const&, std::__cxx11::basic_string<char, std::char_traits<char>, std::allocator<char> > const&)
PUBLIC 3b010 0 Sage::ProtoAPI::recordOoprExtern(int, std::__cxx11::basic_string<char, std::char_traits<char>, std::allocator<char> > const&, std::__cxx11::basic_string<char, std::char_traits<char>, std::allocator<char> > const&, bool, int)
PUBLIC 3b020 0 Sage::ProtoAPI::recordOoprTarget(std::__cxx11::basic_string<char, std::char_traits<char>, std::allocator<char> > const&, std::__cxx11::basic_string<char, std::char_traits<char>, std::allocator<char> > const&, int)
PUBLIC 3b030 0 Sage::ProtoAPI::recordHegDataMsg(hegproto_v2::Data_Type)
PUBLIC 3b040 0 Sage::ProtoAPI::recordHegVariable(int, std::__cxx11::basic_string<char, std::char_traits<char>, std::allocator<char> > const&, int)
PUBLIC 3b050 0 Sage::ProtoAPI::recordHegParameter(int, std::__cxx11::basic_string<char, std::char_traits<char>, std::allocator<char> > const&, int)
PUBLIC 3b060 0 Sage::ProtoAPI::recordHegPortDecl(int, std::__cxx11::basic_string<char, std::char_traits<char>, std::allocator<char> > const&, hegproto_v2::PortDecl_Direction, int, int)
PUBLIC 3b070 0 Sage::ProtoAPI::startHegModule(int, std::__cxx11::basic_string<char, std::char_traits<char>, std::allocator<char> > const&, int, std::vector<int, std::allocator<int> > const&, bool)
PUBLIC 3b080 0 Sage::ProtoAPI::recordHegElemRef(int, int, int)
PUBLIC 3b090 0 Sage::ProtoAPI::recordHegConstant(int, std::__cxx11::basic_string<char, std::char_traits<char>, std::allocator<char> > const&, int)
PUBLIC 3b0a0 0 Sage::ProtoAPI::recordHegInstance(int, int, std::__cxx11::basic_string<char, std::char_traits<char>, std::allocator<char> > const&, std::vector<int, std::allocator<int> > const&, std::vector<int, std::allocator<int> > const&, int)
PUBLIC 3b0b0 0 Sage::ProtoAPI::recordHegAssignment(int, hegproto_v2::Assign_Type, int, int, int)
PUBLIC 3b0c0 0 Sage::ProtoAPI::recordHegConditional(int, hegproto_v2::ConditionalStmt_Type, int, int, int, int)
PUBLIC 3b0d0 0 Sage::ProtoAPI::recordHegSeqBlock(int, std::__cxx11::basic_string<char, std::char_traits<char>, std::allocator<char> > const&, std::vector<int, std::allocator<int> > const&, int)
PUBLIC 3b0e0 0 Sage::ProtoAPI::recordHegAlways(int, int, int)
PUBLIC 3b0f0 0 Sage::ProtoAPI::recordHegAlwaysEventControl(int, std::vector<int, std::allocator<int> > const&, int, int)
PUBLIC 3b100 0 Sage::ProtoAPI::recordHegEventExpression(int, hegproto_v2::EventExpression_Type, int, int)
PUBLIC 3b110 0 Sage::ProtoAPI::recordHegBinaryOp(int, int, int, hegproto_v2::BinaryOperator_Type, int)
PUBLIC 3b120 0 Sage::ProtoAPI::recordHegUnaryOp(int, int, hegproto_v2::UnaryOperator_Type, int)
PUBLIC 3b130 0 Sage::ProtoAPI::recordHegIncludeRef(std::__cxx11::basic_string<char, std::char_traits<char>, std::allocator<char> > const&, int, int)
PUBLIC 3b140 0 Sage::ProtoAPI::recordHegSourceChunk(std::__cxx11::basic_string<char, std::char_traits<char>, std::allocator<char> > const&, int, int, int)
PUBLIC 3b150 0 Sage::ProtoAPI::startHegMacroRef(int, int, int, int, int, std::__cxx11::basic_string<char, std::char_traits<char>, std::allocator<char> > const&, bool)
PUBLIC 3b160 0 Sage::ProtoAPI::finishHegMacroRef(hegproto_v2::MacroRef&)
PUBLIC 3b170 0 Sage::ProtoAPI::startHegMacroArg(int, hegproto_v2::MacroRef&)
PUBLIC 3b180 0 Sage::ProtoAPI::recordHegMacroDef(int, std::__cxx11::basic_string<char, std::char_traits<char>, std::allocator<char> > const&, int, std::__cxx11::basic_string<char, std::char_traits<char>, std::allocator<char> > const&)
PUBLIC 3b190 0 Sage::ProtoAPI::addHegMacroElem(std::__cxx11::basic_string<char, std::char_traits<char>, std::allocator<char> > const&, hegproto_v2::MacroElement_Type, int, int, hegproto_v2::MacroRef&)
PUBLIC 3b1a0 0 Sage::ProtoAPI::addHegMacroElem(std::__cxx11::basic_string<char, std::char_traits<char>, std::allocator<char> > const&, hegproto_v2::MacroElement_Type, int, int, hegproto_v2::MacroArg&)
PUBLIC 3b1b0 0 Sage::ProtoAPI::startHegTextRef()
PUBLIC 3b1c0 0 Sage::ProtoAPI::addHegTextRef(int, hegproto_v2::TextRef&)
PUBLIC 3b1d0 0 Sage::ProtoAPI::finishHegTextRef(hegproto_v2::TextRef&)
PUBLIC 3b1e0 0 Sage::ProtoAPI::recordHegUnhandledType(int, int)
PUBLIC 3b1f0 0 std::vector<std::__cxx11::basic_string<char, std::char_traits<char>, std::allocator<char> >, std::allocator<std::__cxx11::basic_string<char, std::char_traits<char>, std::allocator<char> > > >::~vector()
PUBLIC 3b260 0 std::vector<std::pair<vst_s*, long*>, std::allocator<std::pair<vst_s*, long*> > >::~vector()
PUBLIC 3b280 0 Sage::CompleteProtoAPI::recordPrimitiveType(int, std::__cxx11::basic_string<char, std::char_traits<char>, std::allocator<char> > const&, int, hiertreeproto_v2::NamedBlock_Type)
PUBLIC 3b290 0 Sage::CompleteProtoAPI::recordHierNode(int, int, int, std::__cxx11::basic_string<char, std::char_traits<char>, std::allocator<char> > const&, int)
PUBLIC 3b2b0 0 Sage::CompleteProtoAPI::recordGenvar(int, int, std::__cxx11::basic_string<char, std::char_traits<char>, std::allocator<char> > const&, int, int)
PUBLIC 3b2d0 0 Sage::CompleteProtoAPI::startHierNodeType(int, int, std::__cxx11::basic_string<char, std::char_traits<char>, std::allocator<char> > const&, std::__cxx11::basic_string<char, std::char_traits<char>, std::allocator<char> > const&, int, hiertreeproto_v2::NamedBlock_Type)
PUBLIC 3b2f0 0 Sage::CompleteProtoAPI::recordModuleItemPartition(int, std::__cxx11::basic_string<char, std::char_traits<char>, std::allocator<char> > const&, std::__cxx11::basic_string<char, std::char_traits<char>, std::allocator<char> > const&, std::__cxx11::basic_string<char, std::char_traits<char>, std::allocator<char> > const&, std::__cxx11::basic_string<char, std::char_traits<char>, std::allocator<char> > const&, int)
PUBLIC 3b310 0 Sage::CompleteProtoAPI::commSignalShutdown()
PUBLIC 3b320 0 Sage::CompleteProtoAPI::commWaitAndCleanup()
PUBLIC 3b330 0 Sage::CompleteProtoAPI::recordCoercedPort(int, char const*)
PUBLIC 3b340 0 Sage::CompleteProtoAPI::commInit(char const*, bool, bool)
PUBLIC 3b360 0 Sage::CompleteProtoAPI::recordHegUnhandledType(int, int)
PUBLIC 3b370 0 Sage::CompleteProtoAPI::finishHegTextRef(hegproto_v2::TextRef&)
PUBLIC 3b380 0 Sage::CompleteProtoAPI::addHegTextRef(int, hegproto_v2::TextRef&)
PUBLIC 3b390 0 Sage::CompleteProtoAPI::startHegTextRef()
PUBLIC 3b3a0 0 Sage::CompleteProtoAPI::addHegMacroElem(std::__cxx11::basic_string<char, std::char_traits<char>, std::allocator<char> > const&, hegproto_v2::MacroElement_Type, int, int, hegproto_v2::MacroArg&)
PUBLIC 3b3c0 0 Sage::CompleteProtoAPI::addHegMacroElem(std::__cxx11::basic_string<char, std::char_traits<char>, std::allocator<char> > const&, hegproto_v2::MacroElement_Type, int, int, hegproto_v2::MacroRef&)
PUBLIC 3b3e0 0 Sage::CompleteProtoAPI::recordHegMacroDef(int, std::__cxx11::basic_string<char, std::char_traits<char>, std::allocator<char> > const&, int, std::__cxx11::basic_string<char, std::char_traits<char>, std::allocator<char> > const&)
PUBLIC 3b3f0 0 Sage::CompleteProtoAPI::startHegMacroArg(int, hegproto_v2::MacroRef&)
PUBLIC 3b400 0 Sage::CompleteProtoAPI::finishHegMacroRef(hegproto_v2::MacroRef&)
PUBLIC 3b410 0 Sage::CompleteProtoAPI::startHegMacroRef(int, int, int, int, int, std::__cxx11::basic_string<char, std::char_traits<char>, std::allocator<char> > const&, bool)
PUBLIC 3b430 0 Sage::CompleteProtoAPI::recordHegSourceChunk(std::__cxx11::basic_string<char, std::char_traits<char>, std::allocator<char> > const&, int, int, int)
PUBLIC 3b440 0 Sage::CompleteProtoAPI::recordHegIncludeRef(std::__cxx11::basic_string<char, std::char_traits<char>, std::allocator<char> > const&, int, int)
PUBLIC 3b450 0 Sage::CompleteProtoAPI::recordHegUnaryOp(int, int, hegproto_v2::UnaryOperator_Type, int)
PUBLIC 3b460 0 Sage::CompleteProtoAPI::recordHegBinaryOp(int, int, int, hegproto_v2::BinaryOperator_Type, int)
PUBLIC 3b480 0 Sage::CompleteProtoAPI::recordHegEventExpression(int, hegproto_v2::EventExpression_Type, int, int)
PUBLIC 3b490 0 Sage::CompleteProtoAPI::recordHegAlwaysEventControl(int, std::vector<int, std::allocator<int> > const&, int, int)
PUBLIC 3b4a0 0 Sage::CompleteProtoAPI::recordHegAlways(int, int, int)
PUBLIC 3b4b0 0 Sage::CompleteProtoAPI::recordHegSeqBlock(int, std::__cxx11::basic_string<char, std::char_traits<char>, std::allocator<char> > const&, std::vector<int, std::allocator<int> > const&, int)
PUBLIC 3b4c0 0 Sage::CompleteProtoAPI::recordHegConditional(int, hegproto_v2::ConditionalStmt_Type, int, int, int, int)
PUBLIC 3b4e0 0 Sage::CompleteProtoAPI::recordHegAssignment(int, hegproto_v2::Assign_Type, int, int, int)
PUBLIC 3b500 0 Sage::CompleteProtoAPI::recordHegInstance(int, int, std::__cxx11::basic_string<char, std::char_traits<char>, std::allocator<char> > const&, std::vector<int, std::allocator<int> > const&, std::vector<int, std::allocator<int> > const&, int)
PUBLIC 3b520 0 Sage::CompleteProtoAPI::recordHegConstant(int, std::__cxx11::basic_string<char, std::char_traits<char>, std::allocator<char> > const&, int)
PUBLIC 3b530 0 Sage::CompleteProtoAPI::recordHegElemRef(int, int, int)
PUBLIC 3b540 0 Sage::CompleteProtoAPI::startHegModule(int, std::__cxx11::basic_string<char, std::char_traits<char>, std::allocator<char> > const&, int, std::vector<int, std::allocator<int> > const&, bool)
PUBLIC 3b560 0 Sage::CompleteProtoAPI::recordHegPortDecl(int, std::__cxx11::basic_string<char, std::char_traits<char>, std::allocator<char> > const&, hegproto_v2::PortDecl_Direction, int, int)
PUBLIC 3b580 0 Sage::CompleteProtoAPI::recordHegParameter(int, std::__cxx11::basic_string<char, std::char_traits<char>, std::allocator<char> > const&, int)
PUBLIC 3b590 0 Sage::CompleteProtoAPI::recordHegVariable(int, std::__cxx11::basic_string<char, std::char_traits<char>, std::allocator<char> > const&, int)
PUBLIC 3b5a0 0 Sage::CompleteProtoAPI::recordHegDataMsg(hegproto_v2::Data_Type)
PUBLIC 3b5b0 0 Sage::CompleteProtoAPI::recordOoprTarget(std::__cxx11::basic_string<char, std::char_traits<char>, std::allocator<char> > const&, std::__cxx11::basic_string<char, std::char_traits<char>, std::allocator<char> > const&, int)
PUBLIC 3b5c0 0 Sage::CompleteProtoAPI::recordOoprExtern(int, std::__cxx11::basic_string<char, std::char_traits<char>, std::allocator<char> > const&, std::__cxx11::basic_string<char, std::char_traits<char>, std::allocator<char> > const&, bool, int)
PUBLIC 3b5e0 0 Sage::CompleteProtoAPI::recordAttribute(std::__cxx11::basic_string<char, std::char_traits<char>, std::allocator<char> > const&, std::__cxx11::basic_string<char, std::char_traits<char>, std::allocator<char> > const&)
PUBLIC 3b5f0 0 Sage::CompleteProtoAPI::recordTopInstance(int)
PUBLIC 3b600 0 Sage::CompleteProtoAPI::recordStitchPoint(int, std::__cxx11::basic_string<char, std::char_traits<char>, std::allocator<char> > const&, std::__cxx11::basic_string<char, std::char_traits<char>, std::allocator<char> > const&, std::__cxx11::basic_string<char, std::char_traits<char>, std::allocator<char> > const&, int, int)
PUBLIC 3b620 0 Sage::CompleteProtoAPI::recordPartitionInfo(int, std::__cxx11::basic_string<char, std::char_traits<char>, std::allocator<char> > const&, std::__cxx11::basic_string<char, std::char_traits<char>, std::allocator<char> > const&, std::__cxx11::basic_string<char, std::char_traits<char>, std::allocator<char> > const&, std::__cxx11::basic_string<char, std::char_traits<char>, std::allocator<char> > const&, std::__cxx11::basic_string<char, std::char_traits<char>, std::allocator<char> > const&, std::__cxx11::basic_string<char, std::char_traits<char>, std::allocator<char> > const&)
PUBLIC 3b650 0 Sage::CompleteProtoAPI::addEndValue()
PUBLIC 3b660 0 Sage::CompleteProtoAPI::addStartValue()
PUBLIC 3b670 0 Sage::CompleteProtoAPI::addStringValue(char*, unsigned long)
PUBLIC 3b680 0 Sage::CompleteProtoAPI::addByteStream(unsigned char*, bool, unsigned long)
PUBLIC 3b690 0 Sage::CompleteProtoAPI::markTypeParam()
PUBLIC 3b6a0 0 Sage::CompleteProtoAPI::addVirtualInterface(std::__cxx11::basic_string<char, std::char_traits<char>, std::allocator<char> > const&, int, int)
PUBLIC 3b6b0 0 Sage::CompleteProtoAPI::addClassHandle(std::__cxx11::basic_string<char, std::char_traits<char>, std::allocator<char> > const&, int, int, typeinfoproto_v2::ClassHandle_Type, typeinfoproto_v2::TypeInfoMessageType_Type)
PUBLIC 3b6d0 0 Sage::CompleteProtoAPI::addQDA(std::__cxx11::basic_string<char, std::char_traits<char>, std::allocator<char> > const&, typeinfoproto_v2::QDAArray_Type, typeinfoproto_v2::TypeInfoMessageType_Type, typeinfoproto_v2::TypeInfoMessageType_Type)
PUBLIC 3b6e0 0 Sage::CompleteProtoAPI::addArray(std::__cxx11::basic_string<char, std::char_traits<char>, std::allocator<char> > const&, std::vector<std::tuple<bool, bool, long, long>, std::allocator<std::tuple<bool, bool, long, long> > > const&, typeinfoproto_v2::TypeInfoMessageType_Type, bool, bool)
PUBLIC 3b700 0 Sage::CompleteProtoAPI::addEnum(std::__cxx11::basic_string<char, std::char_traits<char>, std::allocator<char> > const&, std::vector<std::pair<std::__cxx11::basic_string<char, std::char_traits<char>, std::allocator<char> >, common_v2::ByteStream*>, std::allocator<std::pair<std::__cxx11::basic_string<char, std::char_traits<char>, std::allocator<char> >, common_v2::ByteStream*> > > const&, unsigned long, bool, bool, bool)
PUBLIC 3b720 0 Sage::CompleteProtoAPI::getByteStream(unsigned char*, unsigned long)
PUBLIC 3b730 0 Sage::CompleteProtoAPI::addField(std::__cxx11::basic_string<char, std::char_traits<char>, std::allocator<char> > const&, typeinfoproto_v2::TypeInfoMessageType_Type)
PUBLIC 3b740 0 Sage::CompleteProtoAPI::finishCompositeEnum()
PUBLIC 3b750 0 Sage::CompleteProtoAPI::finishCompositeUnion()
PUBLIC 3b760 0 Sage::CompleteProtoAPI::finishCompositeStruct()
PUBLIC 3b770 0 Sage::CompleteProtoAPI::finishCompositeField()
PUBLIC 3b780 0 Sage::CompleteProtoAPI::finishCompositeMDA()
PUBLIC 3b790 0 Sage::CompleteProtoAPI::finishCompositeStaticArray()
PUBLIC 3b7a0 0 Sage::CompleteProtoAPI::finishCompositeQDA()
PUBLIC 3b7b0 0 Sage::CompleteProtoAPI::finishCompositeClass()
PUBLIC 3b7c0 0 Sage::CompleteProtoAPI::addUnion(std::__cxx11::basic_string<char, std::char_traits<char>, std::allocator<char> > const&, bool, bool, bool, bool, std::tuple<bool, bool, long, long>&)
PUBLIC 3b7f0 0 Sage::CompleteProtoAPI::addStruct(std::__cxx11::basic_string<char, std::char_traits<char>, std::allocator<char> > const&, bool, bool, bool, bool, std::tuple<bool, bool, long, long>&)
PUBLIC 3b820 0 Sage::CompleteProtoAPI::addPredefinedType(std::__cxx11::basic_string<char, std::char_traits<char>, std::allocator<char> > const&, bool, bool, bool, typeinfoproto_v2::PredefinedType_Type)
PUBLIC 3b840 0 Sage::CompleteProtoAPI::addSignal(int, int, std::__cxx11::basic_string<char, std::char_traits<char>, std::allocator<char> > const&, int, bool, bool, bool, hiertreeproto_v2::Signal_Visibility)
PUBLIC 3b880 0 Sage::CompleteProtoAPI::finishType()
PUBLIC 3b890 0 Sage::CompleteProtoAPI::addParam(int, int, std::__cxx11::basic_string<char, std::char_traits<char>, std::allocator<char> > const&, int)
PUBLIC 3b8a0 0 Sage::CompleteProtoAPI::recordHierEdge(int, int, hiertreeproto_v2::Edge_EdgeKind)
PUBLIC 3b8b0 0 Sage::CompleteProtoAPI::recordPathNode(Sage::Util::PathTree::Node const*, bool)
PUBLIC 3b8c0 0 Sage::CompleteProtoAPI::recordSourceMapping(int, std::__cxx11::basic_string<char, std::char_traits<char>, std::allocator<char> > const&, int, std::__cxx11::basic_string<char, std::char_traits<char>, std::allocator<char> > const&)
PUBLIC 3b8d0 0 Sage::CompleteProtoAPI::recordSourceLoc(int, Sage::GenSrcLoc const&, bool)
PUBLIC 3b8e0 0 boost::system::system_error::~system_error()
PUBLIC 3b910 0 boost::system::system_error::~system_error()
PUBLIC 3b950 0 std::unordered_map<std::pair<xst_s*, long*>, int, Sage::HashFuncPointersPair<xst_s, long>, std::equal_to<std::pair<xst_s*, long*> >, std::allocator<std::pair<std::pair<xst_s*, long*> const, int> > >::~unordered_map()
PUBLIC 3b9d0 0 std::unordered_set<std::__cxx11::basic_string<char, std::char_traits<char>, std::allocator<char> >, std::hash<std::__cxx11::basic_string<char, std::char_traits<char>, std::allocator<char> > >, std::equal_to<std::__cxx11::basic_string<char, std::char_traits<char>, std::allocator<char> > >, std::allocator<std::__cxx11::basic_string<char, std::char_traits<char>, std::allocator<char> > > >::~unordered_set()
PUBLIC 3ba70 0 std::unordered_map<std::__cxx11::basic_string<char, std::char_traits<char>, std::allocator<char> >, int, std::hash<std::__cxx11::basic_string<char, std::char_traits<char>, std::allocator<char> > >, std::equal_to<std::__cxx11::basic_string<char, std::char_traits<char>, std::allocator<char> > >, std::allocator<std::pair<std::__cxx11::basic_string<char, std::char_traits<char>, std::allocator<char> > const, int> > >::~unordered_map()
PUBLIC 3bb10 0 std::__cxx11::basic_string<char, std::char_traits<char>, std::allocator<char> > std::operator+<char, std::char_traits<char>, std::allocator<char> >(std::__cxx11::basic_string<char, std::char_traits<char>, std::allocator<char> >&&, std::__cxx11::basic_string<char, std::char_traits<char>, std::allocator<char> >&&)
PUBLIC 3bbe0 0 std::_Rb_tree<std::pair<std::__cxx11::basic_string<char, std::char_traits<char>, std::allocator<char> >, int>, std::pair<std::pair<std::__cxx11::basic_string<char, std::char_traits<char>, std::allocator<char> >, int> const, int>, std::_Select1st<std::pair<std::pair<std::__cxx11::basic_string<char, std::char_traits<char>, std::allocator<char> >, int> const, int> >, std::less<std::pair<std::__cxx11::basic_string<char, std::char_traits<char>, std::allocator<char> >, int> >, std::allocator<std::pair<std::pair<std::__cxx11::basic_string<char, std::char_traits<char>, std::allocator<char> >, int> const, int> > >::_M_erase(std::_Rb_tree_node<std::pair<std::pair<std::__cxx11::basic_string<char, std::char_traits<char>, std::allocator<char> >, int> const, int> >*)
PUBLIC 3bc50 0 std::map<std::pair<std::__cxx11::basic_string<char, std::char_traits<char>, std::allocator<char> >, int>, int, std::less<std::pair<std::__cxx11::basic_string<char, std::char_traits<char>, std::allocator<char> >, int> >, std::allocator<std::pair<std::pair<std::__cxx11::basic_string<char, std::char_traits<char>, std::allocator<char> >, int> const, int> > >::~map()
PUBLIC 3bcb0 0 std::_Hashtable<std::__cxx11::basic_string<char, std::char_traits<char>, std::allocator<char> >, std::pair<std::__cxx11::basic_string<char, std::char_traits<char>, std::allocator<char> > const, std::unordered_set<std::__cxx11::basic_string<char, std::char_traits<char>, std::allocator<char> >, std::hash<std::__cxx11::basic_string<char, std::char_traits<char>, std::allocator<char> > >, std::equal_to<std::__cxx11::basic_string<char, std::char_traits<char>, std::allocator<char> > >, std::allocator<std::__cxx11::basic_string<char, std::char_traits<char>, std::allocator<char> > > > >, std::allocator<std::pair<std::__cxx11::basic_string<char, std::char_traits<char>, std::allocator<char> > const, std::unordered_set<std::__cxx11::basic_string<char, std::char_traits<char>, std::allocator<char> >, std::hash<std::__cxx11::basic_string<char, std::char_traits<char>, std::allocator<char> > >, std::equal_to<std::__cxx11::basic_string<char, std::char_traits<char>, std::allocator<char> > >, std::allocator<std::__cxx11::basic_string<char, std::char_traits<char>, std::allocator<char> > > > > >, std::__detail::_Select1st, std::equal_to<std::__cxx11::basic_string<char, std::char_traits<char>, std::allocator<char> > >, std::hash<std::__cxx11::basic_string<char, std::char_traits<char>, std::allocator<char> > >, std::__detail::_Mod_range_hashing, std::__detail::_Default_ranged_hash, std::__detail::_Prime_rehash_policy, std::__detail::_Hashtable_traits<true, false, true> >::clear()
PUBLIC 3bdc0 0 std::unordered_map<std::__cxx11::basic_string<char, std::char_traits<char>, std::allocator<char> >, std::unordered_set<std::__cxx11::basic_string<char, std::char_traits<char>, std::allocator<char> >, std::hash<std::__cxx11::basic_string<char, std::char_traits<char>, std::allocator<char> > >, std::equal_to<std::__cxx11::basic_string<char, std::char_traits<char>, std::allocator<char> > >, std::allocator<std::__cxx11::basic_string<char, std::char_traits<char>, std::allocator<char> > > >, std::hash<std::__cxx11::basic_string<char, std::char_traits<char>, std::allocator<char> > >, std::equal_to<std::__cxx11::basic_string<char, std::char_traits<char>, std::allocator<char> > >, std::allocator<std::pair<std::__cxx11::basic_string<char, std::char_traits<char>, std::allocator<char> > const, std::unordered_set<std::__cxx11::basic_string<char, std::char_traits<char>, std::allocator<char> >, std::hash<std::__cxx11::basic_string<char, std::char_traits<char>, std::allocator<char> > >, std::equal_to<std::__cxx11::basic_string<char, std::char_traits<char>, std::allocator<char> > >, std::allocator<std::__cxx11::basic_string<char, std::char_traits<char>, std::allocator<char> > > > > > >::~unordered_map()
PUBLIC 3bdf0 0 void std::vector<std::__cxx11::basic_string<char, std::char_traits<char>, std::allocator<char> >, std::allocator<std::__cxx11::basic_string<char, std::char_traits<char>, std::allocator<char> > > >::_M_realloc_insert<std::__cxx11::basic_string<char, std::char_traits<char>, std::allocator<char> > const&>(__gnu_cxx::__normal_iterator<std::__cxx11::basic_string<char, std::char_traits<char>, std::allocator<char> >*, std::vector<std::__cxx11::basic_string<char, std::char_traits<char>, std::allocator<char> >, std::allocator<std::__cxx11::basic_string<char, std::char_traits<char>, std::allocator<char> > > > >, std::__cxx11::basic_string<char, std::char_traits<char>, std::allocator<char> > const&)
PUBLIC 3c0e0 0 std::_Rb_tree<std::pair<std::__cxx11::basic_string<char, std::char_traits<char>, std::allocator<char> >, int>, std::pair<std::pair<std::__cxx11::basic_string<char, std::char_traits<char>, std::allocator<char> >, int> const, int>, std::_Select1st<std::pair<std::pair<std::__cxx11::basic_string<char, std::char_traits<char>, std::allocator<char> >, int> const, int> >, std::less<std::pair<std::__cxx11::basic_string<char, std::char_traits<char>, std::allocator<char> >, int> >, std::allocator<std::pair<std::pair<std::__cxx11::basic_string<char, std::char_traits<char>, std::allocator<char> >, int> const, int> > >::_M_get_insert_unique_pos(std::pair<std::__cxx11::basic_string<char, std::char_traits<char>, std::allocator<char> >, int> const&)
PUBLIC 3c330 0 std::map<std::pair<std::__cxx11::basic_string<char, std::char_traits<char>, std::allocator<char> >, int>, int, std::less<std::pair<std::__cxx11::basic_string<char, std::char_traits<char>, std::allocator<char> >, int> >, std::allocator<std::pair<std::pair<std::__cxx11::basic_string<char, std::char_traits<char>, std::allocator<char> >, int> const, int> > >::operator[](std::pair<std::__cxx11::basic_string<char, std::char_traits<char>, std::allocator<char> >, int>&&)
PUBLIC 3c520 0 std::pair<std::_Rb_tree_iterator<std::pair<std::pair<std::__cxx11::basic_string<char, std::char_traits<char>, std::allocator<char> >, int> const, int> >, bool> std::_Rb_tree<std::pair<std::__cxx11::basic_string<char, std::char_traits<char>, std::allocator<char> >, int>, std::pair<std::pair<std::__cxx11::basic_string<char, std::char_traits<char>, std::allocator<char> >, int> const, int>, std::_Select1st<std::pair<std::pair<std::__cxx11::basic_string<char, std::char_traits<char>, std::allocator<char> >, int> const, int> >, std::less<std::pair<std::__cxx11::basic_string<char, std::char_traits<char>, std::allocator<char> >, int> >, std::allocator<std::pair<std::pair<std::__cxx11::basic_string<char, std::char_traits<char>, std::allocator<char> >, int> const, int> > >::_M_insert_unique<std::pair<std::pair<std::__cxx11::basic_string<char, std::char_traits<char>, std::allocator<char> >, int> const, int> >(std::pair<std::pair<std::__cxx11::basic_string<char, std::char_traits<char>, std::allocator<char> >, int> const, int>&&)
PUBLIC 3c770 0 void std::vector<std::pair<vst_s*, long*>, std::allocator<std::pair<vst_s*, long*> > >::_M_realloc_insert<std::pair<vst_s*, long*> >(__gnu_cxx::__normal_iterator<std::pair<vst_s*, long*>*, std::vector<std::pair<vst_s*, long*>, std::allocator<std::pair<vst_s*, long*> > > >, std::pair<vst_s*, long*>&&)
PUBLIC 3c930 0 std::_Hashtable<std::__cxx11::basic_string<char, std::char_traits<char>, std::allocator<char> >, std::pair<std::__cxx11::basic_string<char, std::char_traits<char>, std::allocator<char> > const, int>, std::allocator<std::pair<std::__cxx11::basic_string<char, std::char_traits<char>, std::allocator<char> > const, int> >, std::__detail::_Select1st, std::equal_to<std::__cxx11::basic_string<char, std::char_traits<char>, std::allocator<char> > >, std::hash<std::__cxx11::basic_string<char, std::char_traits<char>, std::allocator<char> > >, std::__detail::_Mod_range_hashing, std::__detail::_Default_ranged_hash, std::__detail::_Prime_rehash_policy, std::__detail::_Hashtable_traits<true, false, true> >::_M_rehash(unsigned long, unsigned long const&)
PUBLIC 3ca60 0 std::_Hashtable<std::__cxx11::basic_string<char, std::char_traits<char>, std::allocator<char> >, std::pair<std::__cxx11::basic_string<char, std::char_traits<char>, std::allocator<char> > const, int>, std::allocator<std::pair<std::__cxx11::basic_string<char, std::char_traits<char>, std::allocator<char> > const, int> >, std::__detail::_Select1st, std::equal_to<std::__cxx11::basic_string<char, std::char_traits<char>, std::allocator<char> > >, std::hash<std::__cxx11::basic_string<char, std::char_traits<char>, std::allocator<char> > >, std::__detail::_Mod_range_hashing, std::__detail::_Default_ranged_hash, std::__detail::_Prime_rehash_policy, std::__detail::_Hashtable_traits<true, false, true> >::_M_insert_unique_node(unsigned long, unsigned long, std::__detail::_Hash_node<std::pair<std::__cxx11::basic_string<char, std::char_traits<char>, std::allocator<char> > const, int>, true>*, unsigned long)
PUBLIC 3cb60 0 std::pair<std::__detail::_Node_iterator<std::pair<std::__cxx11::basic_string<char, std::char_traits<char>, std::allocator<char> > const, int>, false, true>, bool> std::_Hashtable<std::__cxx11::basic_string<char, std::char_traits<char>, std::allocator<char> >, std::pair<std::__cxx11::basic_string<char, std::char_traits<char>, std::allocator<char> > const, int>, std::allocator<std::pair<std::__cxx11::basic_string<char, std::char_traits<char>, std::allocator<char> > const, int> >, std::__detail::_Select1st, std::equal_to<std::__cxx11::basic_string<char, std::char_traits<char>, std::allocator<char> > >, std::hash<std::__cxx11::basic_string<char, std::char_traits<char>, std::allocator<char> > >, std::__detail::_Mod_range_hashing, std::__detail::_Default_ranged_hash, std::__detail::_Prime_rehash_policy, std::__detail::_Hashtable_traits<true, false, true> >::_M_emplace<std::pair<std::__cxx11::basic_string<char, std::char_traits<char>, std::allocator<char> > const, int> >(std::integral_constant<bool, true>, std::pair<std::__cxx11::basic_string<char, std::char_traits<char>, std::allocator<char> > const, int>&&)
PUBLIC 3cd60 0 std::_Hashtable<std::__cxx11::basic_string<char, std::char_traits<char>, std::allocator<char> >, std::pair<std::__cxx11::basic_string<char, std::char_traits<char>, std::allocator<char> > const, std::unordered_set<std::__cxx11::basic_string<char, std::char_traits<char>, std::allocator<char> >, std::hash<std::__cxx11::basic_string<char, std::char_traits<char>, std::allocator<char> > >, std::equal_to<std::__cxx11::basic_string<char, std::char_traits<char>, std::allocator<char> > >, std::allocator<std::__cxx11::basic_string<char, std::char_traits<char>, std::allocator<char> > > > >, std::allocator<std::pair<std::__cxx11::basic_string<char, std::char_traits<char>, std::allocator<char> > const, std::unordered_set<std::__cxx11::basic_string<char, std::char_traits<char>, std::allocator<char> >, std::hash<std::__cxx11::basic_string<char, std::char_traits<char>, std::allocator<char> > >, std::equal_to<std::__cxx11::basic_string<char, std::char_traits<char>, std::allocator<char> > >, std::allocator<std::__cxx11::basic_string<char, std::char_traits<char>, std::allocator<char> > > > > >, std::__detail::_Select1st, std::equal_to<std::__cxx11::basic_string<char, std::char_traits<char>, std::allocator<char> > >, std::hash<std::__cxx11::basic_string<char, std::char_traits<char>, std::allocator<char> > >, std::__detail::_Mod_range_hashing, std::__detail::_Default_ranged_hash, std::__detail::_Prime_rehash_policy, std::__detail::_Hashtable_traits<true, false, true> >::_M_rehash(unsigned long, unsigned long const&)
PUBLIC 3ce90 0 std::_Hashtable<std::__cxx11::basic_string<char, std::char_traits<char>, std::allocator<char> >, std::pair<std::__cxx11::basic_string<char, std::char_traits<char>, std::allocator<char> > const, std::unordered_set<std::__cxx11::basic_string<char, std::char_traits<char>, std::allocator<char> >, std::hash<std::__cxx11::basic_string<char, std::char_traits<char>, std::allocator<char> > >, std::equal_to<std::__cxx11::basic_string<char, std::char_traits<char>, std::allocator<char> > >, std::allocator<std::__cxx11::basic_string<char, std::char_traits<char>, std::allocator<char> > > > >, std::allocator<std::pair<std::__cxx11::basic_string<char, std::char_traits<char>, std::allocator<char> > const, std::unordered_set<std::__cxx11::basic_string<char, std::char_traits<char>, std::allocator<char> >, std::hash<std::__cxx11::basic_string<char, std::char_traits<char>, std::allocator<char> > >, std::equal_to<std::__cxx11::basic_string<char, std::char_traits<char>, std::allocator<char> > >, std::allocator<std::__cxx11::basic_string<char, std::char_traits<char>, std::allocator<char> > > > > >, std::__detail::_Select1st, std::equal_to<std::__cxx11::basic_string<char, std::char_traits<char>, std::allocator<char> > >, std::hash<std::__cxx11::basic_string<char, std::char_traits<char>, std::allocator<char> > >, std::__detail::_Mod_range_hashing, std::__detail::_Default_ranged_hash, std::__detail::_Prime_rehash_policy, std::__detail::_Hashtable_traits<true, false, true> >::_M_insert_unique_node(unsigned long, unsigned long, std::__detail::_Hash_node<std::pair<std::__cxx11::basic_string<char, std::char_traits<char>, std::allocator<char> > const, std::unordered_set<std::__cxx11::basic_string<char, std::char_traits<char>, std::allocator<char> >, std::hash<std::__cxx11::basic_string<char, std::char_traits<char>, std::allocator<char> > >, std::equal_to<std::__cxx11::basic_string<char, std::char_traits<char>, std::allocator<char> > >, std::allocator<std::__cxx11::basic_string<char, std::char_traits<char>, std::allocator<char> > > > >, true>*, unsigned long)
PUBLIC 3d000 0 std::__detail::_Map_base<std::__cxx11::basic_string<char, std::char_traits<char>, std::allocator<char> >, std::pair<std::__cxx11::basic_string<char, std::char_traits<char>, std::allocator<char> > const, std::unordered_set<std::__cxx11::basic_string<char, std::char_traits<char>, std::allocator<char> >, std::hash<std::__cxx11::basic_string<char, std::char_traits<char>, std::allocator<char> > >, std::equal_to<std::__cxx11::basic_string<char, std::char_traits<char>, std::allocator<char> > >, std::allocator<std::__cxx11::basic_string<char, std::char_traits<char>, std::allocator<char> > > > >, std::allocator<std::pair<std::__cxx11::basic_string<char, std::char_traits<char>, std::allocator<char> > const, std::unordered_set<std::__cxx11::basic_string<char, std::char_traits<char>, std::allocator<char> >, std::hash<std::__cxx11::basic_string<char, std::char_traits<char>, std::allocator<char> > >, std::equal_to<std::__cxx11::basic_string<char, std::char_traits<char>, std::allocator<char> > >, std::allocator<std::__cxx11::basic_string<char, std::char_traits<char>, std::allocator<char> > > > > >, std::__detail::_Select1st, std::equal_to<std::__cxx11::basic_string<char, std::char_traits<char>, std::allocator<char> > >, std::hash<std::__cxx11::basic_string<char, std::char_traits<char>, std::allocator<char> > >, std::__detail::_Mod_range_hashing, std::__detail::_Default_ranged_hash, std::__detail::_Prime_rehash_policy, std::__detail::_Hashtable_traits<true, false, true>, true>::operator[](std::__cxx11::basic_string<char, std::char_traits<char>, std::allocator<char> >&&)
PUBLIC 3d180 0 std::_Hashtable<std::pair<xst_s*, long*>, std::pair<std::pair<xst_s*, long*> const, int>, std::allocator<std::pair<std::pair<xst_s*, long*> const, int> >, std::__detail::_Select1st, std::equal_to<std::pair<xst_s*, long*> >, Sage::HashFuncPointersPair<xst_s, long>, std::__detail::_Mod_range_hashing, std::__detail::_Default_ranged_hash, std::__detail::_Prime_rehash_policy, std::__detail::_Hashtable_traits<true, false, true> >::_M_rehash(unsigned long, unsigned long const&)
PUBLIC 3d2b0 0 std::_Hashtable<std::pair<xst_s*, long*>, std::pair<std::pair<xst_s*, long*> const, int>, std::allocator<std::pair<std::pair<xst_s*, long*> const, int> >, std::__detail::_Select1st, std::equal_to<std::pair<xst_s*, long*> >, Sage::HashFuncPointersPair<xst_s, long>, std::__detail::_Mod_range_hashing, std::__detail::_Default_ranged_hash, std::__detail::_Prime_rehash_policy, std::__detail::_Hashtable_traits<true, false, true> >::_M_insert_unique_node(unsigned long, unsigned long, std::__detail::_Hash_node<std::pair<std::pair<xst_s*, long*> const, int>, true>*, unsigned long)
PUBLIC 3d3a0 0 std::pair<std::__detail::_Node_iterator<std::pair<std::pair<xst_s*, long*> const, int>, false, true>, bool> std::_Hashtable<std::pair<xst_s*, long*>, std::pair<std::pair<xst_s*, long*> const, int>, std::allocator<std::pair<std::pair<xst_s*, long*> const, int> >, std::__detail::_Select1st, std::equal_to<std::pair<xst_s*, long*> >, Sage::HashFuncPointersPair<xst_s, long>, std::__detail::_Mod_range_hashing, std::__detail::_Default_ranged_hash, std::__detail::_Prime_rehash_policy, std::__detail::_Hashtable_traits<true, false, true> >::_M_emplace<std::pair<std::pair<xst_s*, long*> const, int> >(std::integral_constant<bool, true>, std::pair<std::pair<xst_s*, long*> const, int>&&)
PUBLIC 3d490 0 std::_Hashtable<std::__cxx11::basic_string<char, std::char_traits<char>, std::allocator<char> >, std::__cxx11::basic_string<char, std::char_traits<char>, std::allocator<char> >, std::allocator<std::__cxx11::basic_string<char, std::char_traits<char>, std::allocator<char> > >, std::__detail::_Identity, std::equal_to<std::__cxx11::basic_string<char, std::char_traits<char>, std::allocator<char> > >, std::hash<std::__cxx11::basic_string<char, std::char_traits<char>, std::allocator<char> > >, std::__detail::_Mod_range_hashing, std::__detail::_Default_ranged_hash, std::__detail::_Prime_rehash_policy, std::__detail::_Hashtable_traits<true, true, true> >::_M_rehash(unsigned long, unsigned long const&)
PUBLIC 3d5c0 0 std::_Hashtable<std::__cxx11::basic_string<char, std::char_traits<char>, std::allocator<char> >, std::__cxx11::basic_string<char, std::char_traits<char>, std::allocator<char> >, std::allocator<std::__cxx11::basic_string<char, std::char_traits<char>, std::allocator<char> > >, std::__detail::_Identity, std::equal_to<std::__cxx11::basic_string<char, std::char_traits<char>, std::allocator<char> > >, std::hash<std::__cxx11::basic_string<char, std::char_traits<char>, std::allocator<char> > >, std::__detail::_Mod_range_hashing, std::__detail::_Default_ranged_hash, std::__detail::_Prime_rehash_policy, std::__detail::_Hashtable_traits<true, true, true> >::_M_insert_unique_node(unsigned long, unsigned long, std::__detail::_Hash_node<std::__cxx11::basic_string<char, std::char_traits<char>, std::allocator<char> >, true>*, unsigned long)
PUBLIC 3d6c0 0 std::pair<std::__detail::_Node_iterator<std::__cxx11::basic_string<char, std::char_traits<char>, std::allocator<char> >, true, true>, bool> std::_Hashtable<std::__cxx11::basic_string<char, std::char_traits<char>, std::allocator<char> >, std::__cxx11::basic_string<char, std::char_traits<char>, std::allocator<char> >, std::allocator<std::__cxx11::basic_string<char, std::char_traits<char>, std::allocator<char> > >, std::__detail::_Identity, std::equal_to<std::__cxx11::basic_string<char, std::char_traits<char>, std::allocator<char> > >, std::hash<std::__cxx11::basic_string<char, std::char_traits<char>, std::allocator<char> > >, std::__detail::_Mod_range_hashing, std::__detail::_Default_ranged_hash, std::__detail::_Prime_rehash_policy, std::__detail::_Hashtable_traits<true, true, true> >::_M_insert<std::__cxx11::basic_string<char, std::char_traits<char>, std::allocator<char> > const&, std::__detail::_AllocNode<std::allocator<std::__detail::_Hash_node<std::__cxx11::basic_string<char, std::char_traits<char>, std::allocator<char> >, true> > > >(std::__cxx11::basic_string<char, std::char_traits<char>, std::allocator<char> > const&, std::__detail::_AllocNode<std::allocator<std::__detail::_Hash_node<std::__cxx11::basic_string<char, std::char_traits<char>, std::allocator<char> >, true> > > const&, std::integral_constant<bool, true>, unsigned long)
PUBLIC 3d800 0 Sage::ProtoAPI::get()
PUBLIC 3d9c0 0 boost::system::system_error::what() const
PUBLIC 3dae0 0 Sage::Logger::~Logger()
PUBLIC 3db30 0 Sage::Logger::Logger(bool)
PUBLIC 3db60 0 Sage::Logger::Logger()
PUBLIC 3e2d0 0 std::__cxx11::basic_string<char, std::char_traits<char>, std::allocator<char> > __gnu_cxx::__to_xstring<std::__cxx11::basic_string<char, std::char_traits<char>, std::allocator<char> >, char>(int (*)(char*, unsigned long, char const*, __va_list_tag*), unsigned long, char const*, ...)
PUBLIC 3e400 0 void (anonymous namespace)::hash_combine<unsigned int>(unsigned int&, unsigned int const&)
PUBLIC 3e460 0 (anonymous namespace)::emptyFilter(std::__cxx11::basic_string<char, std::char_traits<char>, std::allocator<char> > const&)
PUBLIC 3e480 0 std::__cxx11::basic_string<char, std::char_traits<char>, std::allocator<char> >::basic_string(char const*, std::allocator<char> const&) [clone .isra.0]
PUBLIC 3e540 0 (anonymous namespace)::dumpMsgStr(std::__cxx11::basic_string<char, std::char_traits<char>, std::allocator<char> > const&, google::protobuf::Message&)
PUBLIC 3e710 0 (anonymous namespace)::send(google::protobuf::Message const&, bool)
PUBLIC 3ea30 0 (anonymous namespace)::send(google::protobuf::Message const&, bool) [clone .constprop.0]
PUBLIC 3ed40 0 (anonymous namespace)::recordHierDataMsg(hiertreeproto_v2::MessageType_Type)
PUBLIC 3edc0 0 (anonymous namespace)::recordTypeObjDataMsg(typeinfoproto_v2::TypeInfoMessageType_Type)
PUBLIC 3ee40 0 (anonymous namespace)::recordTypeObjDataMsgAndDumpMsg(std::__cxx11::basic_string<char, std::char_traits<char>, std::allocator<char> > const&, typeinfoproto_v2::TypeInfoMessageType_Type)
PUBLIC 3ef00 0 (anonymous namespace)::passThroughFilter(std::__cxx11::basic_string<char, std::char_traits<char>, std::allocator<char> > const&)
PUBLIC 3efc0 0 Sage::checkAllocFailure(void const*, char const*)
PUBLIC 3f000 0 Sage::Proto::recordHegDataMsg(hegproto_v2::Data_Type)
PUBLIC 3f080 0 Sage::Proto::finishType()
PUBLIC 3f100 0 Sage::Proto::finishCompositeClass()
PUBLIC 3f160 0 Sage::Proto::finishCompositeQDA()
PUBLIC 3f1c0 0 Sage::Proto::finishCompositeStaticArray()
PUBLIC 3f220 0 Sage::Proto::finishCompositeMDA()
PUBLIC 3f280 0 Sage::Proto::finishCompositeField()
PUBLIC 3f2e0 0 Sage::Proto::finishCompositeStruct()
PUBLIC 3f340 0 Sage::Proto::finishCompositeUnion()
PUBLIC 3f3a0 0 Sage::Proto::finishCompositeEnum()
PUBLIC 3f400 0 Sage::Proto::addStartValue()
PUBLIC 3f480 0 Sage::Proto::addEndValue()
PUBLIC 3f500 0 Sage::Proto::finishHegTextRef(hegproto_v2::TextRef&)
PUBLIC 3f5b0 0 Sage::Proto::commSignalShutdown()
PUBLIC 3f7b0 0 Sage::Proto::commWaitAndCleanup()
PUBLIC 3f7f0 0 (anonymous namespace)::trimPath(std::__cxx11::basic_string<char, std::char_traits<char>, std::allocator<char> > const&, int)
PUBLIC 3f970 0 (anonymous namespace)::pathTrimFilter(std::__cxx11::basic_string<char, std::char_traits<char>, std::allocator<char> > const&)
PUBLIC 3f990 0 Sage::Proto::getByteStream(unsigned char*, unsigned long)
PUBLIC 3fb10 0 Sage::Proto::recordPathNode(Sage::Util::PathTree::Node const*, bool)
PUBLIC 3fd50 0 std::__detail::_Map_base<std::__cxx11::basic_string<char, std::char_traits<char>, std::allocator<char> >, std::pair<std::__cxx11::basic_string<char, std::char_traits<char>, std::allocator<char> > const, std::__cxx11::basic_string<char, std::char_traits<char>, std::allocator<char> > (*)(std::__cxx11::basic_string<char, std::char_traits<char>, std::allocator<char> > const&)>, std::allocator<std::pair<std::__cxx11::basic_string<char, std::char_traits<char>, std::allocator<char> > const, std::__cxx11::basic_string<char, std::char_traits<char>, std::allocator<char> > (*)(std::__cxx11::basic_string<char, std::char_traits<char>, std::allocator<char> > const&)> >, std::__detail::_Select1st, std::equal_to<std::__cxx11::basic_string<char, std::char_traits<char>, std::allocator<char> > >, std::hash<std::__cxx11::basic_string<char, std::char_traits<char>, std::allocator<char> > >, std::__detail::_Mod_range_hashing, std::__detail::_Default_ranged_hash, std::__detail::_Prime_rehash_policy, std::__detail::_Hashtable_traits<true, false, true>, true>::operator[](std::__cxx11::basic_string<char, std::char_traits<char>, std::allocator<char> >&&) [clone .constprop.0]
PUBLIC 3fe80 0 Sage::Proto::commInit(char const*, bool, bool)
PUBLIC 40e00 0 (anonymous namespace)::dumpRegressionMsg(int, std::__cxx11::basic_string<char, std::char_traits<char>, std::allocator<char> > const&, google::protobuf::Message&, int)
PUBLIC 41000 0 (anonymous namespace)::dumpRegressionMsg(int, std::__cxx11::basic_string<char, std::char_traits<char>, std::allocator<char> > const&, int)
PUBLIC 41320 0 Sage::Proto::startHegMacroArg(int, hegproto_v2::MacroRef&)
PUBLIC 415a0 0 (anonymous namespace)::dumpHegDelayedRefs(int)
PUBLIC 416f0 0 (anonymous namespace)::dumpHegRef(int, int, std::__cxx11::basic_string<char, std::char_traits<char>, std::allocator<char> > const&, unsigned int)
PUBLIC 418e0 0 Sage::Proto::startHegMacroRef(int, int, int, int, int, std::__cxx11::basic_string<char, std::char_traits<char>, std::allocator<char> > const&, bool)
PUBLIC 41b20 0 Sage::Proto::addHegTextRef(int, hegproto_v2::TextRef&)
PUBLIC 41c10 0 Sage::Proto::addHegMacroElem(std::__cxx11::basic_string<char, std::char_traits<char>, std::allocator<char> > const&, hegproto_v2::MacroElement_Type, int, int, hegproto_v2::MacroRef&)
PUBLIC 42020 0 (anonymous namespace)::createSourceLoc(int, Sage::GenSrcLoc const&, bool)
PUBLIC 42170 0 (anonymous namespace)::dumpSrcLoc(int, Sage::GenSrcLoc const&)
PUBLIC 42940 0 Sage::Proto::recordSourceLoc(int, Sage::GenSrcLoc const&, bool)
PUBLIC 42af0 0 (anonymous namespace)::processSourceMappingMsg(int, std::__cxx11::basic_string<char, std::char_traits<char>, std::allocator<char> > const&, int, std::__cxx11::basic_string<char, std::char_traits<char>, std::allocator<char> > const&, bool)
PUBLIC 42e10 0 Sage::Proto::recordSourceMapping(int, std::__cxx11::basic_string<char, std::char_traits<char>, std::allocator<char> > const&, int, std::__cxx11::basic_string<char, std::char_traits<char>, std::allocator<char> > const&)
PUBLIC 42e70 0 (anonymous namespace)::processHierEdgeMsg(int, int, hiertreeproto_v2::Edge_EdgeKind, bool)
PUBLIC 431f0 0 Sage::Proto::recordHierEdge(int, int, hiertreeproto_v2::Edge_EdgeKind)
PUBLIC 43240 0 (anonymous namespace)::processHierNodeMsg(int, int, int, std::__cxx11::basic_string<char, std::char_traits<char>, std::allocator<char> > const&, int, bool)
PUBLIC 436b0 0 Sage::Proto::recordHierNode(int, int, int, std::__cxx11::basic_string<char, std::char_traits<char>, std::allocator<char> > const&, int)
PUBLIC 43710 0 (anonymous namespace)::createModuleItem(int, int, std::__cxx11::basic_string<char, std::char_traits<char>, std::allocator<char> > const&, int, hiertreeproto_v2::NamedBlock_Type, std::__cxx11::basic_string<char, std::char_traits<char>, std::allocator<char> > const&, bool)
PUBLIC 43a60 0 Sage::Proto::recordHierNodeType(int, int, std::__cxx11::basic_string<char, std::char_traits<char>, std::allocator<char> > const&, std::__cxx11::basic_string<char, std::char_traits<char>, std::allocator<char> > const&, int, hiertreeproto_v2::NamedBlock_Type)
PUBLIC 43b90 0 Sage::Proto::recordParam(int, int, std::__cxx11::basic_string<char, std::char_traits<char>, std::allocator<char> > const&, int)
PUBLIC 43e60 0 Sage::Proto::recordSignal(int, int, std::__cxx11::basic_string<char, std::char_traits<char>, std::allocator<char> > const&, int, bool, bool, bool, hiertreeproto_v2::Signal_Visibility)
PUBLIC 441c0 0 Sage::Proto::addPredefinedType(std::__cxx11::basic_string<char, std::char_traits<char>, std::allocator<char> > const&, bool, bool, bool, typeinfoproto_v2::PredefinedType_Type)
PUBLIC 443e0 0 Sage::Proto::addStruct(std::__cxx11::basic_string<char, std::char_traits<char>, std::allocator<char> > const&, bool, bool, bool, bool, std::tuple<bool, bool, long, long>&)
PUBLIC 44560 0 Sage::Proto::addUnion(std::__cxx11::basic_string<char, std::char_traits<char>, std::allocator<char> > const&, bool, bool, bool, bool, std::tuple<bool, bool, long, long>&)
PUBLIC 446e0 0 Sage::Proto::addField(std::__cxx11::basic_string<char, std::char_traits<char>, std::allocator<char> > const&, typeinfoproto_v2::TypeInfoMessageType_Type)
PUBLIC 448b0 0 Sage::Proto::addEnum(std::__cxx11::basic_string<char, std::char_traits<char>, std::allocator<char> > const&, std::vector<std::pair<std::__cxx11::basic_string<char, std::char_traits<char>, std::allocator<char> >, common_v2::ByteStream*>, std::allocator<std::pair<std::__cxx11::basic_string<char, std::char_traits<char>, std::allocator<char> >, common_v2::ByteStream*> > > const&, unsigned long, bool, bool, bool)
PUBLIC 44d30 0 Sage::Proto::finishHegMacroRef(hegproto_v2::MacroRef&)
PUBLIC 44df0 0 Sage::Proto::addHegMacroElem(std::__cxx11::basic_string<char, std::char_traits<char>, std::allocator<char> > const&, hegproto_v2::MacroElement_Type, int, int, hegproto_v2::MacroArg&)
PUBLIC 45240 0 (anonymous namespace)::processDimension(std::tuple<bool, bool, long, long> const&)
PUBLIC 45380 0 Sage::Proto::addArray(std::__cxx11::basic_string<char, std::char_traits<char>, std::allocator<char> > const&, std::vector<std::tuple<bool, bool, long, long>, std::allocator<std::tuple<bool, bool, long, long> > > const&, typeinfoproto_v2::TypeInfoMessageType_Type, bool, bool)
PUBLIC 45690 0 Sage::Proto::addQDA(std::__cxx11::basic_string<char, std::char_traits<char>, std::allocator<char> > const&, typeinfoproto_v2::QDAArray_Type, typeinfoproto_v2::TypeInfoMessageType_Type, typeinfoproto_v2::TypeInfoMessageType_Type)
PUBLIC 45890 0 Sage::Proto::addClassHandle(std::__cxx11::basic_string<char, std::char_traits<char>, std::allocator<char> > const&, int, int, typeinfoproto_v2::ClassHandle_Type, typeinfoproto_v2::TypeInfoMessageType_Type)
PUBLIC 45c10 0 Sage::Proto::addVirtualInterface(std::__cxx11::basic_string<char, std::char_traits<char>, std::allocator<char> > const&, int, int)
PUBLIC 45f60 0 Sage::Proto::markTypeParam()
PUBLIC 46070 0 Sage::Proto::addByteStream(unsigned char*, bool, unsigned long)
PUBLIC 46220 0 Sage::Proto::addStringValue(char*, unsigned long)
PUBLIC 46490 0 (anonymous namespace)::createNamedBlock(int, std::__cxx11::basic_string<char, std::char_traits<char>, std::allocator<char> > const&, int, hiertreeproto_v2::NamedBlock_Type, bool)
PUBLIC 46680 0 Sage::Proto::recordPrimitiveType(int, std::__cxx11::basic_string<char, std::char_traits<char>, std::allocator<char> > const&, int, hiertreeproto_v2::NamedBlock_Type)
PUBLIC 46790 0 (anonymous namespace)::processGenvarMsg(int, int, std::__cxx11::basic_string<char, std::char_traits<char>, std::allocator<char> > const&, int, int, bool)
PUBLIC 46b80 0 Sage::Proto::recordGenvar(int, int, std::__cxx11::basic_string<char, std::char_traits<char>, std::allocator<char> > const&, int, int)
PUBLIC 46be0 0 (anonymous namespace)::processPartitionInfoMsg(int, std::__cxx11::basic_string<char, std::char_traits<char>, std::allocator<char> > const&, std::__cxx11::basic_string<char, std::char_traits<char>, std::allocator<char> > const&, std::__cxx11::basic_string<char, std::char_traits<char>, std::allocator<char> > const&, std::__cxx11::basic_string<char, std::char_traits<char>, std::allocator<char> > const&, std::__cxx11::basic_string<char, std::char_traits<char>, std::allocator<char> > const&, std::__cxx11::basic_string<char, std::char_traits<char>, std::allocator<char> > const&, bool)
PUBLIC 471f0 0 Sage::Proto::recordPartitionInfo(int, std::__cxx11::basic_string<char, std::char_traits<char>, std::allocator<char> > const&, std::__cxx11::basic_string<char, std::char_traits<char>, std::allocator<char> > const&, std::__cxx11::basic_string<char, std::char_traits<char>, std::allocator<char> > const&, std::__cxx11::basic_string<char, std::char_traits<char>, std::allocator<char> > const&, std::__cxx11::basic_string<char, std::char_traits<char>, std::allocator<char> > const&, std::__cxx11::basic_string<char, std::char_traits<char>, std::allocator<char> > const&)
PUBLIC 47270 0 (anonymous namespace)::processModuleItemPartitionMsg(int, std::__cxx11::basic_string<char, std::char_traits<char>, std::allocator<char> > const&, std::__cxx11::basic_string<char, std::char_traits<char>, std::allocator<char> > const&, std::__cxx11::basic_string<char, std::char_traits<char>, std::allocator<char> > const&, std::__cxx11::basic_string<char, std::char_traits<char>, std::allocator<char> > const&, int, bool)
PUBLIC 47790 0 Sage::Proto::recordModuleItemPartition(int, std::__cxx11::basic_string<char, std::char_traits<char>, std::allocator<char> > const&, std::__cxx11::basic_string<char, std::char_traits<char>, std::allocator<char> > const&, std::__cxx11::basic_string<char, std::char_traits<char>, std::allocator<char> > const&, std::__cxx11::basic_string<char, std::char_traits<char>, std::allocator<char> > const&, int)
PUBLIC 47810 0 (anonymous namespace)::processStitchPointMsg(int, std::__cxx11::basic_string<char, std::char_traits<char>, std::allocator<char> > const&, std::__cxx11::basic_string<char, std::char_traits<char>, std::allocator<char> > const&, std::__cxx11::basic_string<char, std::char_traits<char>, std::allocator<char> > const&, int, int, bool)
PUBLIC 47e00 0 Sage::Proto::recordStitchPoint(int, std::__cxx11::basic_string<char, std::char_traits<char>, std::allocator<char> > const&, std::__cxx11::basic_string<char, std::char_traits<char>, std::allocator<char> > const&, std::__cxx11::basic_string<char, std::char_traits<char>, std::allocator<char> > const&, int, int)
PUBLIC 47e80 0 (anonymous namespace)::processTopInstanceMsg(int, bool)
PUBLIC 48110 0 Sage::Proto::recordTopInstance(int)
PUBLIC 48150 0 (anonymous namespace)::processAttributeMsg(std::__cxx11::basic_string<char, std::char_traits<char>, std::allocator<char> > const&, std::__cxx11::basic_string<char, std::char_traits<char>, std::allocator<char> > const&, bool)
PUBLIC 48550 0 Sage::Proto::recordAttribute(std::__cxx11::basic_string<char, std::char_traits<char>, std::allocator<char> > const&, std::__cxx11::basic_string<char, std::char_traits<char>, std::allocator<char> > const&)
PUBLIC 485a0 0 (anonymous namespace)::processOoprExternMsg(int, std::__cxx11::basic_string<char, std::char_traits<char>, std::allocator<char> > const&, std::__cxx11::basic_string<char, std::char_traits<char>, std::allocator<char> > const&, bool, int, bool)
PUBLIC 48b30 0 Sage::Proto::recordOoprExtern(int, std::__cxx11::basic_string<char, std::char_traits<char>, std::allocator<char> > const&, std::__cxx11::basic_string<char, std::char_traits<char>, std::allocator<char> > const&, bool, int)
PUBLIC 48ba0 0 (anonymous namespace)::processOoprTargetMsg(std::__cxx11::basic_string<char, std::char_traits<char>, std::allocator<char> > const&, std::__cxx11::basic_string<char, std::char_traits<char>, std::allocator<char> > const&, int, bool)
PUBLIC 48f40 0 Sage::Proto::recordOoprTarget(std::__cxx11::basic_string<char, std::char_traits<char>, std::allocator<char> > const&, std::__cxx11::basic_string<char, std::char_traits<char>, std::allocator<char> > const&, int)
PUBLIC 48f90 0 Sage::Proto::recordHegVariable(int, std::__cxx11::basic_string<char, std::char_traits<char>, std::allocator<char> > const&, int)
PUBLIC 491a0 0 Sage::Proto::recordHegParameter(int, std::__cxx11::basic_string<char, std::char_traits<char>, std::allocator<char> > const&, int)
PUBLIC 493b0 0 Sage::Proto::startHegModule(int, std::__cxx11::basic_string<char, std::char_traits<char>, std::allocator<char> > const&, int, std::vector<int, std::allocator<int> > const&, bool)
PUBLIC 49700 0 Sage::Proto::recordHegPortDecl(int, std::__cxx11::basic_string<char, std::char_traits<char>, std::allocator<char> > const&, hegproto_v2::PortDecl_Direction, int, int)
PUBLIC 499c0 0 Sage::Proto::recordHegElemRef(int, int, int)
PUBLIC 49c10 0 Sage::Proto::recordHegConstant(int, std::__cxx11::basic_string<char, std::char_traits<char>, std::allocator<char> > const&, int)
PUBLIC 49e20 0 Sage::Proto::recordHegInstance(int, int, std::__cxx11::basic_string<char, std::char_traits<char>, std::allocator<char> > const&, std::vector<int, std::allocator<int> > const&, std::vector<int, std::allocator<int> > const&, int)
PUBLIC 4a540 0 Sage::Proto::recordHegAssignment(int, hegproto_v2::Assign_Type, int, int, int)
PUBLIC 4a850 0 Sage::Proto::recordHegConditional(int, hegproto_v2::ConditionalStmt_Type, int, int, int, int)
PUBLIC 4ac00 0 Sage::Proto::recordHegSeqBlock(int, std::__cxx11::basic_string<char, std::char_traits<char>, std::allocator<char> > const&, std::vector<int, std::allocator<int> > const&, int)
PUBLIC 4af60 0 Sage::Proto::recordHegAlways(int, int, int)
PUBLIC 4b1b0 0 Sage::Proto::recordHegAlwaysEventControl(int, std::vector<int, std::allocator<int> > const&, int, int)
PUBLIC 4b550 0 Sage::Proto::recordHegEventExpression(int, hegproto_v2::EventExpression_Type, int, int)
PUBLIC 4b7d0 0 Sage::Proto::recordHegBinaryOp(int, int, int, hegproto_v2::BinaryOperator_Type, int)
PUBLIC 4bae0 0 Sage::Proto::recordHegUnaryOp(int, int, hegproto_v2::UnaryOperator_Type, int)
PUBLIC 4bd40 0 Sage::Proto::recordHegIncludeRef(std::__cxx11::basic_string<char, std::char_traits<char>, std::allocator<char> > const&, int, int)
PUBLIC 4bfd0 0 Sage::Proto::recordHegSourceChunk(std::__cxx11::basic_string<char, std::char_traits<char>, std::allocator<char> > const&, int, int, int)
PUBLIC 4c180 0 Sage::Proto::recordHegMacroDef(int, std::__cxx11::basic_string<char, std::char_traits<char>, std::allocator<char> > const&, int, std::__cxx11::basic_string<char, std::char_traits<char>, std::allocator<char> > const&)
PUBLIC 4c370 0 Sage::Proto::startHegTextRef()
PUBLIC 4c490 0 Sage::Proto::recordHegUnhandledType(int, int)
PUBLIC 4c630 0 (anonymous namespace)::processCoercedPortMsg(int, std::__cxx11::basic_string<char, std::char_traits<char>, std::allocator<char> > const&, bool)
PUBLIC 4c920 0 Sage::Proto::recordCoercedPort(int, char const*)
PUBLIC 4ca60 0 void google::protobuf::internal::arena_destruct_object<std::__cxx11::basic_string<char, std::char_traits<char>, std::allocator<char> > >(void*)
PUBLIC 4ca80 0 std::unordered_map<std::__cxx11::basic_string<char, std::char_traits<char>, std::allocator<char> >, std::__cxx11::basic_string<char, std::char_traits<char>, std::allocator<char> > (*)(std::__cxx11::basic_string<char, std::char_traits<char>, std::allocator<char> > const&), std::hash<std::__cxx11::basic_string<char, std::char_traits<char>, std::allocator<char> > >, std::equal_to<std::__cxx11::basic_string<char, std::char_traits<char>, std::allocator<char> > >, std::allocator<std::pair<std::__cxx11::basic_string<char, std::char_traits<char>, std::allocator<char> > const, std::__cxx11::basic_string<char, std::char_traits<char>, std::allocator<char> > (*)(std::__cxx11::basic_string<char, std::char_traits<char>, std::allocator<char> > const&)> > >::~unordered_map()
PUBLIC 4cb20 0 std::unordered_map<int, unsigned int, std::hash<int>, std::equal_to<int>, std::allocator<std::pair<int const, unsigned int> > >::~unordered_map()
PUBLIC 4cba0 0 std::unordered_map<int, std::vector<unsigned int, std::allocator<unsigned int> >, std::hash<int>, std::equal_to<int>, std::allocator<std::pair<int const, std::vector<unsigned int, std::allocator<unsigned int> > > > >::~unordered_map()
PUBLIC 4cc30 0 Sage::Logger::stream(int)
PUBLIC 4ccb0 0 void std::vector<unsigned int, std::allocator<unsigned int> >::_M_realloc_insert<unsigned int const&>(__gnu_cxx::__normal_iterator<unsigned int*, std::vector<unsigned int, std::allocator<unsigned int> > >, unsigned int const&)
PUBLIC 4ce20 0 void std::__cxx11::basic_string<char, std::char_traits<char>, std::allocator<char> >::_M_construct<char*>(char*, char*, std::forward_iterator_tag)
PUBLIC 4cec0 0 google::protobuf::internal::ArenaStringPtr::CreateInstance(google::protobuf::Arena*, std::__cxx11::basic_string<char, std::char_traits<char>, std::allocator<char> > const*)
PUBLIC 4d010 0 std::_Hashtable<std::__cxx11::basic_string<char, std::char_traits<char>, std::allocator<char> >, std::pair<std::__cxx11::basic_string<char, std::char_traits<char>, std::allocator<char> > const, std::__cxx11::basic_string<char, std::char_traits<char>, std::allocator<char> > (*)(std::__cxx11::basic_string<char, std::char_traits<char>, std::allocator<char> > const&)>, std::allocator<std::pair<std::__cxx11::basic_string<char, std::char_traits<char>, std::allocator<char> > const, std::__cxx11::basic_string<char, std::char_traits<char>, std::allocator<char> > (*)(std::__cxx11::basic_string<char, std::char_traits<char>, std::allocator<char> > const&)> >, std::__detail::_Select1st, std::equal_to<std::__cxx11::basic_string<char, std::char_traits<char>, std::allocator<char> > >, std::hash<std::__cxx11::basic_string<char, std::char_traits<char>, std::allocator<char> > >, std::__detail::_Mod_range_hashing, std::__detail::_Default_ranged_hash, std::__detail::_Prime_rehash_policy, std::__detail::_Hashtable_traits<true, false, true> >::_M_rehash(unsigned long, unsigned long const&)
PUBLIC 4d140 0 std::_Hashtable<std::__cxx11::basic_string<char, std::char_traits<char>, std::allocator<char> >, std::pair<std::__cxx11::basic_string<char, std::char_traits<char>, std::allocator<char> > const, std::__cxx11::basic_string<char, std::char_traits<char>, std::allocator<char> > (*)(std::__cxx11::basic_string<char, std::char_traits<char>, std::allocator<char> > const&)>, std::allocator<std::pair<std::__cxx11::basic_string<char, std::char_traits<char>, std::allocator<char> > const, std::__cxx11::basic_string<char, std::char_traits<char>, std::allocator<char> > (*)(std::__cxx11::basic_string<char, std::char_traits<char>, std::allocator<char> > const&)> >, std::__detail::_Select1st, std::equal_to<std::__cxx11::basic_string<char, std::char_traits<char>, std::allocator<char> > >, std::hash<std::__cxx11::basic_string<char, std::char_traits<char>, std::allocator<char> > >, std::__detail::_Mod_range_hashing, std::__detail::_Default_ranged_hash, std::__detail::_Prime_rehash_policy, std::__detail::_Hashtable_traits<true, false, true> >::_M_insert_unique_node(unsigned long, unsigned long, std::__detail::_Hash_node<std::pair<std::__cxx11::basic_string<char, std::char_traits<char>, std::allocator<char> > const, std::__cxx11::basic_string<char, std::char_traits<char>, std::allocator<char> > (*)(std::__cxx11::basic_string<char, std::char_traits<char>, std::allocator<char> > const&)>, true>*, unsigned long)
PUBLIC 4d240 0 std::__detail::_Map_base<std::__cxx11::basic_string<char, std::char_traits<char>, std::allocator<char> >, std::pair<std::__cxx11::basic_string<char, std::char_traits<char>, std::allocator<char> > const, std::__cxx11::basic_string<char, std::char_traits<char>, std::allocator<char> > (*)(std::__cxx11::basic_string<char, std::char_traits<char>, std::allocator<char> > const&)>, std::allocator<std::pair<std::__cxx11::basic_string<char, std::char_traits<char>, std::allocator<char> > const, std::__cxx11::basic_string<char, std::char_traits<char>, std::allocator<char> > (*)(std::__cxx11::basic_string<char, std::char_traits<char>, std::allocator<char> > const&)> >, std::__detail::_Select1st, std::equal_to<std::__cxx11::basic_string<char, std::char_traits<char>, std::allocator<char> > >, std::hash<std::__cxx11::basic_string<char, std::char_traits<char>, std::allocator<char> > >, std::__detail::_Mod_range_hashing, std::__detail::_Default_ranged_hash, std::__detail::_Prime_rehash_policy, std::__detail::_Hashtable_traits<true, false, true>, true>::operator[](std::__cxx11::basic_string<char, std::char_traits<char>, std::allocator<char> > const&)
PUBLIC 4d370 0 std::_Hashtable<int, std::pair<int const, unsigned int>, std::allocator<std::pair<int const, unsigned int> >, std::__detail::_Select1st, std::equal_to<int>, std::hash<int>, std::__detail::_Mod_range_hashing, std::__detail::_Default_ranged_hash, std::__detail::_Prime_rehash_policy, std::__detail::_Hashtable_traits<false, false, true> >::_M_rehash(unsigned long, unsigned long const&)
PUBLIC 4d4a0 0 std::_Hashtable<int, std::pair<int const, unsigned int>, std::allocator<std::pair<int const, unsigned int> >, std::__detail::_Select1st, std::equal_to<int>, std::hash<int>, std::__detail::_Mod_range_hashing, std::__detail::_Default_ranged_hash, std::__detail::_Prime_rehash_policy, std::__detail::_Hashtable_traits<false, false, true> >::_M_insert_unique_node(unsigned long, unsigned long, std::__detail::_Hash_node<std::pair<int const, unsigned int>, false>*, unsigned long)
PUBLIC 4d590 0 std::__detail::_Map_base<int, std::pair<int const, unsigned int>, std::allocator<std::pair<int const, unsigned int> >, std::__detail::_Select1st, std::equal_to<int>, std::hash<int>, std::__detail::_Mod_range_hashing, std::__detail::_Default_ranged_hash, std::__detail::_Prime_rehash_policy, std::__detail::_Hashtable_traits<false, false, true>, true>::operator[](int const&)
PUBLIC 4d650 0 std::_Hashtable<int, std::pair<int const, std::vector<unsigned int, std::allocator<unsigned int> > >, std::allocator<std::pair<int const, std::vector<unsigned int, std::allocator<unsigned int> > > >, std::__detail::_Select1st, std::equal_to<int>, std::hash<int>, std::__detail::_Mod_range_hashing, std::__detail::_Default_ranged_hash, std::__detail::_Prime_rehash_policy, std::__detail::_Hashtable_traits<false, false, true> >::_M_rehash(unsigned long, unsigned long const&)
PUBLIC 4d780 0 std::_Hashtable<int, std::pair<int const, std::vector<unsigned int, std::allocator<unsigned int> > >, std::allocator<std::pair<int const, std::vector<unsigned int, std::allocator<unsigned int> > > >, std::__detail::_Select1st, std::equal_to<int>, std::hash<int>, std::__detail::_Mod_range_hashing, std::__detail::_Default_ranged_hash, std::__detail::_Prime_rehash_policy, std::__detail::_Hashtable_traits<false, false, true> >::_M_insert_unique_node(unsigned long, unsigned long, std::__detail::_Hash_node<std::pair<int const, std::vector<unsigned int, std::allocator<unsigned int> > >, false>*, unsigned long)
PUBLIC 4d880 0 std::__detail::_Map_base<int, std::pair<int const, std::vector<unsigned int, std::allocator<unsigned int> > >, std::allocator<std::pair<int const, std::vector<unsigned int, std::allocator<unsigned int> > > >, std::__detail::_Select1st, std::equal_to<int>, std::hash<int>, std::__detail::_Mod_range_hashing, std::__detail::_Default_ranged_hash, std::__detail::_Prime_rehash_policy, std::__detail::_Hashtable_traits<false, false, true>, true>::operator[](int const&)
PUBLIC 4d940 0 Sage::loadLib(char const*)
PUBLIC 4dcd0 0 Sage::loadFunc(void*, char const*)
PUBLIC 4dd70 0 Sage::CompoundValue::~CompoundValue()
PUBLIC 4dd80 0 Sage::CompoundValue::~CompoundValue()
PUBLIC 4dda0 0 Sage::ArrayDimensionStack::insertBack(unsigned long, unsigned long, bool, vst_s*)
PUBLIC 4de00 0 Sage::ArrayDimensionStack::removeLastElements(vst_s*)
PUBLIC 4de40 0 Sage::ArrayDimensionStack::recordInternal(std::_List_const_iterator<Sage::ArrayDimensionNode>, unsigned char*, Sage::CompoundValue&) const [clone .localalias]
PUBLIC 4def0 0 Sage::ArrayDimensionStack::record(unsigned char*, Sage::CompoundValue&) const
PUBLIC 4df10 0 Sage::StringValue::record(unsigned char*, unsigned long)
PUBLIC 4e100 0 Sage::BasicValue::record(unsigned char*, unsigned long)
PUBLIC 4e320 0 Sage::StringValue::~StringValue()
PUBLIC 4e340 0 Sage::StringValue::~StringValue()
PUBLIC 4e370 0 Sage::BasicValue::~BasicValue()
PUBLIC 4e390 0 Sage::BasicValue::~BasicValue()
PUBLIC 4e3c0 0 (anonymous namespace)::doStaticArrayType(std::__cxx11::basic_string<char, std::char_traits<char>, std::allocator<char> > const&, via_external_s, bool, (anonymous namespace)::TypeObj&, Sage::ArrayDimensionStack&, xst_s*, long*, unsigned char*, unsigned long, bool, bool)::{lambda(via_external_s)#1}::_FUN(via_external_s)
PUBLIC 4e3e0 0 (anonymous namespace)::doStaticArrayType(std::__cxx11::basic_string<char, std::char_traits<char>, std::allocator<char> > const&, via_external_s, bool, (anonymous namespace)::TypeObj&, Sage::ArrayDimensionStack&, xst_s*, long*, unsigned char*, unsigned long, bool, bool)::{lambda(via_external_s)#2}::_FUN(via_external_s)
PUBLIC 4e400 0 (anonymous namespace)::doVectorType(std::__cxx11::basic_string<char, std::char_traits<char>, std::allocator<char> > const&, via_external_s, bool, (anonymous namespace)::TypeObj&, Sage::ArrayDimensionStack&, xst_s*, long*, unsigned long, bool, unsigned char*, unsigned long, bool, bool)::{lambda(via_external_s)#1}::_FUN(via_external_s)
PUBLIC 4e420 0 (anonymous namespace)::doVectorType(std::__cxx11::basic_string<char, std::char_traits<char>, std::allocator<char> > const&, via_external_s, bool, (anonymous namespace)::TypeObj&, Sage::ArrayDimensionStack&, xst_s*, long*, unsigned long, bool, unsigned char*, unsigned long, bool, bool)::{lambda(via_external_s)#2}::_FUN(via_external_s)
PUBLIC 4e470 0 (anonymous namespace)::getTypeName(vst_s*, via_external_s, long*)
PUBLIC 4e670 0 (anonymous namespace)::getTypeInfoType(via_external_s)
PUBLIC 4e8e0 0 Sage::Type::getSignalForCoercion(xst_s*, long*)
PUBLIC 4e970 0 Sage::Type::getVisibility(via_external_s)
PUBLIC 4e9b0 0 (anonymous namespace)::doDimensions(via_external_s, bool, bool, vst_s*&, via_external_s&, std::vector<std::tuple<bool, bool, long, long>, std::allocator<std::tuple<bool, bool, long, long> > >&, Sage::ArrayDimensionStack&, bool&, bool (&)(via_external_s), bool (*)(via_external_s), bool) [clone .constprop.0]
PUBLIC 4ecc0 0 Sage::Type::storeSignalForCoercion(xst_s*, long*)
PUBLIC 4eda0 0 Sage::Type::recordDanglingTypeRefs(int, std::__cxx11::basic_string<char, std::char_traits<char>, std::allocator<char> > const&)
PUBLIC 4f1f0 0 (anonymous namespace)::doVIFCType(std::__cxx11::basic_string<char, std::char_traits<char>, std::allocator<char> > const&, via_external_s, (anonymous namespace)::TypeObj&, bool) [clone .constprop.0]
PUBLIC 4f730 0 (anonymous namespace)::doPredefType(std::__cxx11::basic_string<char, std::char_traits<char>, std::allocator<char> > const&, bool, typeinfoproto_v2::PredefinedType_Type, (anonymous namespace)::TypeObj&, Sage::ArrayDimensionStack&, bool, bool, unsigned long, bool, unsigned char*)
PUBLIC 504e0 0 (anonymous namespace)::doObjTypeAndValue(vst_s*, via_external_s, (anonymous namespace)::TypeObj&, Sage::ArrayDimensionStack&, bool, std::__cxx11::basic_string<char, std::char_traits<char>, std::allocator<char> >, unsigned char*, unsigned long, bool)
PUBLIC 52c80 0 (anonymous namespace)::doClassType(std::__cxx11::basic_string<char, std::char_traits<char>, std::allocator<char> > const&, via_external_s, (anonymous namespace)::TypeObj&, Sage::ArrayDimensionStack&, typeinfoproto_v2::ClassHandle_Type, bool)
PUBLIC 53610 0 (anonymous namespace)::doStaticArrayType(std::__cxx11::basic_string<char, std::char_traits<char>, std::allocator<char> > const&, via_external_s, bool, (anonymous namespace)::TypeObj&, Sage::ArrayDimensionStack&, xst_s*, long*, unsigned char*, unsigned long, bool, bool)
PUBLIC 53f50 0 (anonymous namespace)::doWireType(xst_s*, long*, vst_s*, via_external_s, (anonymous namespace)::TypeObj&, Sage::ArrayDimensionStack&)
PUBLIC 54b50 0 (anonymous namespace)::doVectorType(std::__cxx11::basic_string<char, std::char_traits<char>, std::allocator<char> > const&, via_external_s, bool, (anonymous namespace)::TypeObj&, Sage::ArrayDimensionStack&, xst_s*, long*, unsigned long, bool, unsigned char*, unsigned long, bool, bool)
PUBLIC 56030 0 (anonymous namespace)::doStructUnionType(std::__cxx11::basic_string<char, std::char_traits<char>, std::allocator<char> > const&, via_external_s, bool, bool, (anonymous namespace)::TypeObj&, Sage::ArrayDimensionStack&, unsigned long, bool, unsigned char*, unsigned long, bool, bool)
PUBLIC 57e00 0 Sage::Type::recordParameter(xst_s*, long*, int)
PUBLIC 589b0 0 Sage::Type::recordSignal(xst_s*, long*, int, bool, bool)
PUBLIC 595b0 0 std::unordered_map<std::pair<xst_s*, long*>, std::pair<int, bool>, Sage::HashFuncPointersPair<xst_s, long>, std::equal_to<std::pair<xst_s*, long*> >, std::allocator<std::pair<std::pair<xst_s*, long*> const, std::pair<int, bool> > > >::~unordered_map()
PUBLIC 59630 0 std::unordered_map<std::__cxx11::basic_string<char, std::char_traits<char>, std::allocator<char> >, std::vector<int, std::allocator<int> >, std::hash<std::__cxx11::basic_string<char, std::char_traits<char>, std::allocator<char> > >, std::equal_to<std::__cxx11::basic_string<char, std::char_traits<char>, std::allocator<char> > >, std::allocator<std::pair<std::__cxx11::basic_string<char, std::char_traits<char>, std::allocator<char> > const, std::vector<int, std::allocator<int> > > > >::~unordered_map()
PUBLIC 596d0 0 std::_Hashtable<std::__cxx11::basic_string<char, std::char_traits<char>, std::allocator<char> >, std::pair<std::__cxx11::basic_string<char, std::char_traits<char>, std::allocator<char> > const, int>, std::allocator<std::pair<std::__cxx11::basic_string<char, std::char_traits<char>, std::allocator<char> > const, int> >, std::__detail::_Select1st, std::equal_to<std::__cxx11::basic_string<char, std::char_traits<char>, std::allocator<char> > >, std::hash<std::__cxx11::basic_string<char, std::char_traits<char>, std::allocator<char> > >, std::__detail::_Mod_range_hashing, std::__detail::_Default_ranged_hash, std::__detail::_Prime_rehash_policy, std::__detail::_Hashtable_traits<true, false, true> >::find(std::__cxx11::basic_string<char, std::char_traits<char>, std::allocator<char> > const&)
PUBLIC 59770 0 void std::vector<int, std::allocator<int> >::_M_realloc_insert<int const&>(__gnu_cxx::__normal_iterator<int*, std::vector<int, std::allocator<int> > >, int const&)
PUBLIC 598e0 0 void std::vector<std::tuple<bool, bool, long, long>, std::allocator<std::tuple<bool, bool, long, long> > >::_M_realloc_insert<std::tuple<bool, bool, long, long> >(__gnu_cxx::__normal_iterator<std::tuple<bool, bool, long, long>*, std::vector<std::tuple<bool, bool, long, long>, std::allocator<std::tuple<bool, bool, long, long> > > >, std::tuple<bool, bool, long, long>&&)
PUBLIC 59aa0 0 void std::vector<std::pair<std::__cxx11::basic_string<char, std::char_traits<char>, std::allocator<char> >, common_v2::ByteStream*>, std::allocator<std::pair<std::__cxx11::basic_string<char, std::char_traits<char>, std::allocator<char> >, common_v2::ByteStream*> > >::_M_realloc_insert<std::pair<std::__cxx11::basic_string<char, std::char_traits<char>, std::allocator<char> >, common_v2::ByteStream*> >(__gnu_cxx::__normal_iterator<std::pair<std::__cxx11::basic_string<char, std::char_traits<char>, std::allocator<char> >, common_v2::ByteStream*>*, std::vector<std::pair<std::__cxx11::basic_string<char, std::char_traits<char>, std::allocator<char> >, common_v2::ByteStream*>, std::allocator<std::pair<std::__cxx11::basic_string<char, std::char_traits<char>, std::allocator<char> >, common_v2::ByteStream*> > > >, std::pair<std::__cxx11::basic_string<char, std::char_traits<char>, std::allocator<char> >, common_v2::ByteStream*>&&)
PUBLIC 59db0 0 std::_Hashtable<std::__cxx11::basic_string<char, std::char_traits<char>, std::allocator<char> >, std::pair<std::__cxx11::basic_string<char, std::char_traits<char>, std::allocator<char> > const, std::vector<int, std::allocator<int> > >, std::allocator<std::pair<std::__cxx11::basic_string<char, std::char_traits<char>, std::allocator<char> > const, std::vector<int, std::allocator<int> > > >, std::__detail::_Select1st, std::equal_to<std::__cxx11::basic_string<char, std::char_traits<char>, std::allocator<char> > >, std::hash<std::__cxx11::basic_string<char, std::char_traits<char>, std::allocator<char> > >, std::__detail::_Mod_range_hashing, std::__detail::_Default_ranged_hash, std::__detail::_Prime_rehash_policy, std::__detail::_Hashtable_traits<true, false, true> >::_M_rehash(unsigned long, unsigned long const&)
PUBLIC 59ee0 0 std::_Hashtable<std::__cxx11::basic_string<char, std::char_traits<char>, std::allocator<char> >, std::pair<std::__cxx11::basic_string<char, std::char_traits<char>, std::allocator<char> > const, std::vector<int, std::allocator<int> > >, std::allocator<std::pair<std::__cxx11::basic_string<char, std::char_traits<char>, std::allocator<char> > const, std::vector<int, std::allocator<int> > > >, std::__detail::_Select1st, std::equal_to<std::__cxx11::basic_string<char, std::char_traits<char>, std::allocator<char> > >, std::hash<std::__cxx11::basic_string<char, std::char_traits<char>, std::allocator<char> > >, std::__detail::_Mod_range_hashing, std::__detail::_Default_ranged_hash, std::__detail::_Prime_rehash_policy, std::__detail::_Hashtable_traits<true, false, true> >::_M_insert_unique_node(unsigned long, unsigned long, std::__detail::_Hash_node<std::pair<std::__cxx11::basic_string<char, std::char_traits<char>, std::allocator<char> > const, std::vector<int, std::allocator<int> > >, true>*, unsigned long)
PUBLIC 59ff0 0 std::__detail::_Map_base<std::__cxx11::basic_string<char, std::char_traits<char>, std::allocator<char> >, std::pair<std::__cxx11::basic_string<char, std::char_traits<char>, std::allocator<char> > const, std::vector<int, std::allocator<int> > >, std::allocator<std::pair<std::__cxx11::basic_string<char, std::char_traits<char>, std::allocator<char> > const, std::vector<int, std::allocator<int> > > >, std::__detail::_Select1st, std::equal_to<std::__cxx11::basic_string<char, std::char_traits<char>, std::allocator<char> > >, std::hash<std::__cxx11::basic_string<char, std::char_traits<char>, std::allocator<char> > >, std::__detail::_Mod_range_hashing, std::__detail::_Default_ranged_hash, std::__detail::_Prime_rehash_policy, std::__detail::_Hashtable_traits<true, false, true>, true>::operator[](std::__cxx11::basic_string<char, std::char_traits<char>, std::allocator<char> > const&)
PUBLIC 5a1c0 0 std::__detail::_Map_base<std::__cxx11::basic_string<char, std::char_traits<char>, std::allocator<char> >, std::pair<std::__cxx11::basic_string<char, std::char_traits<char>, std::allocator<char> > const, int>, std::allocator<std::pair<std::__cxx11::basic_string<char, std::char_traits<char>, std::allocator<char> > const, int> >, std::__detail::_Select1st, std::equal_to<std::__cxx11::basic_string<char, std::char_traits<char>, std::allocator<char> > >, std::hash<std::__cxx11::basic_string<char, std::char_traits<char>, std::allocator<char> > >, std::__detail::_Mod_range_hashing, std::__detail::_Default_ranged_hash, std::__detail::_Prime_rehash_policy, std::__detail::_Hashtable_traits<true, false, true>, true>::operator[](std::__cxx11::basic_string<char, std::char_traits<char>, std::allocator<char> > const&)
PUBLIC 5a380 0 std::_Hashtable<std::pair<xst_s*, long*>, std::pair<std::pair<xst_s*, long*> const, std::pair<int, bool> >, std::allocator<std::pair<std::pair<xst_s*, long*> const, std::pair<int, bool> > >, std::__detail::_Select1st, std::equal_to<std::pair<xst_s*, long*> >, Sage::HashFuncPointersPair<xst_s, long>, std::__detail::_Mod_range_hashing, std::__detail::_Default_ranged_hash, std::__detail::_Prime_rehash_policy, std::__detail::_Hashtable_traits<true, false, true> >::_M_rehash(unsigned long, unsigned long const&)
PUBLIC 5a4b0 0 std::_Hashtable<std::pair<xst_s*, long*>, std::pair<std::pair<xst_s*, long*> const, std::pair<int, bool> >, std::allocator<std::pair<std::pair<xst_s*, long*> const, std::pair<int, bool> > >, std::__detail::_Select1st, std::equal_to<std::pair<xst_s*, long*> >, Sage::HashFuncPointersPair<xst_s, long>, std::__detail::_Mod_range_hashing, std::__detail::_Default_ranged_hash, std::__detail::_Prime_rehash_policy, std::__detail::_Hashtable_traits<true, false, true> >::_M_insert_unique_node(unsigned long, unsigned long, std::__detail::_Hash_node<std::pair<std::pair<xst_s*, long*> const, std::pair<int, bool> >, true>*, unsigned long)
PUBLIC 5a5a0 0 Sage::HDLGraph::hasHegId(void*)
PUBLIC 5a600 0 Sage::HDLGraph::getHegId(void*, bool*, bool)
PUBLIC 5a9d0 0 Sage::HDLGraph::doUnhandledType(vst_s*, long*, int)
PUBLIC 5adf0 0 (anonymous namespace)::doMembersDeclaration(vst_s*, long*)
PUBLIC 5af50 0 (anonymous namespace)::doElemRef(vst_s*, long*)
PUBLIC 5b4f0 0 (anonymous namespace)::doExpr(vst_s*, long*)
PUBLIC 5ca30 0 (anonymous namespace)::doAssignment(vst_s*, long*, hegproto_v2::Assign_Type)
PUBLIC 5ccc0 0 (anonymous namespace)::doStatement(vst_s*, long*)
PUBLIC 5d6b0 0 (anonymous namespace)::doEventControls(vst_s*, std::vector<int, std::allocator<int> >&, long*)
PUBLIC 5dcd0 0 (anonymous namespace)::doDeclarativeItems(ssl_item_s*) [clone .isra.0]
PUBLIC 5f450 0 Sage::HDLGraph::recordHDLGraph(ssl_item_s*)
PUBLIC 60030 0 std::unordered_map<void*, int, std::hash<void*>, std::equal_to<void*>, std::allocator<std::pair<void* const, int> > >::~unordered_map()
PUBLIC 600b0 0 void std::vector<vst_s*, std::allocator<vst_s*> >::_M_realloc_insert<vst_s* const&>(__gnu_cxx::__normal_iterator<vst_s**, std::vector<vst_s*, std::allocator<vst_s*> > >, vst_s* const&)
PUBLIC 60220 0 void std::vector<int, std::allocator<int> >::_M_realloc_insert<int>(__gnu_cxx::__normal_iterator<int*, std::vector<int, std::allocator<int> > >, int&&)
PUBLIC 60390 0 std::_Hashtable<void*, std::pair<void* const, int>, std::allocator<std::pair<void* const, int> >, std::__detail::_Select1st, std::equal_to<void*>, std::hash<void*>, std::__detail::_Mod_range_hashing, std::__detail::_Default_ranged_hash, std::__detail::_Prime_rehash_policy, std::__detail::_Hashtable_traits<false, false, true> >::_M_rehash(unsigned long, unsigned long const&)
PUBLIC 604c0 0 std::_Hashtable<void*, std::pair<void* const, int>, std::allocator<std::pair<void* const, int> >, std::__detail::_Select1st, std::equal_to<void*>, std::hash<void*>, std::__detail::_Mod_range_hashing, std::__detail::_Default_ranged_hash, std::__detail::_Prime_rehash_policy, std::__detail::_Hashtable_traits<false, false, true> >::_M_insert_unique_node(unsigned long, unsigned long, std::__detail::_Hash_node<std::pair<void* const, int>, false>*, unsigned long)
PUBLIC 605b0 0 (anonymous namespace)::getMember(vst_s*, long*, long**)
PUBLIC 60610 0 (anonymous namespace)::getDatatypeFromTypespec(vst_s*, long*, long**)
PUBLIC 60720 0 (anonymous namespace)::isTaskFuncBuiltin(vst_s*)
PUBLIC 608c0 0 std::_Function_base::_Base_manager<Sage::Text::endSrcInfo()::{lambda(Sage::Util::PathTree::Node const*)#1}>::_M_manager(std::_Any_data&, std::_Function_base::_Base_manager<Sage::Text::endSrcInfo()::{lambda(Sage::Util::PathTree::Node const*)#1}> const&, std::_Manager_operation)
PUBLIC 608f0 0 std::_Function_base::_Base_manager<Sage::Text::endSrcInfo()::{lambda(Sage::Util::PathTree::Node const*)#2}>::_M_manager(std::_Any_data&, std::_Function_base::_Base_manager<Sage::Text::endSrcInfo()::{lambda(Sage::Util::PathTree::Node const*)#2}> const&, std::_Manager_operation)
PUBLIC 60920 0 (anonymous namespace)::getPrefixOrDecl(vst_s*)
PUBLIC 60aa0 0 (anonymous namespace)::needsInternalScopePib(xst_s*, long*) [clone .part.0]
PUBLIC 60b40 0 void std::__cxx11::basic_string<char, std::char_traits<char>, std::allocator<char> >::_M_construct<char*>(char*, char*, std::forward_iterator_tag) [clone .constprop.0]
PUBLIC 60be0 0 (anonymous namespace)::sourceLocation32bitFallback(xst_s*)
PUBLIC 60cd0 0 std::__cxx11::basic_string<char, std::char_traits<char>, std::allocator<char> >::basic_string(char const*, std::allocator<char> const&) [clone .isra.0]
PUBLIC 60d90 0 (anonymous namespace)::getNameFromVst(vst_s*)
PUBLIC 60e80 0 (anonymous namespace)::resolveReference(vst_s*, long*, long**)
PUBLIC 61220 0 (anonymous namespace)::getDeclItem(vst_s*, long*, ssl_item_s*) [clone .isra.0]
PUBLIC 61430 0 (anonymous namespace)::getElementTypespecAndPib(vst_s*, long*, long**)
PUBLIC 61510 0 (anonymous namespace)::getTypespecAndPib(vst_s*, long*, long**)
PUBLIC 61cf0 0 (anonymous namespace)::getDatatypeAndPib(vst_s*, long*, long**)
PUBLIC 61ea0 0 (anonymous namespace)::isTextRefOfInterest(xst_s*, long*, bool, bool) [clone .constprop.0]
PUBLIC 633e0 0 Sage::Text::resolveReference(vst_s*, long*)
PUBLIC 633f0 0 Sage::Text::getAnnotationLength(vst_s*, long*)
PUBLIC 651a0 0 Sage::Text::initSrcInfo()
PUBLIC 651f0 0 Sage::Text::endSrcInfo()
PUBLIC 67f60 0 (anonymous namespace)::getFileNode(std::__cxx11::basic_string<char, std::char_traits<char>, std::allocator<char> > const&, bool*)
PUBLIC 681a0 0 Sage::Text::getSrcLocObject(xst_s*, long*)
PUBLIC 686e0 0 Sage::Text::recordSourceChunks(xst_s*)
PUBLIC 68ce0 0 std::_Function_handler<void (Sage::Util::PathTree::Node const*), Sage::Text::endSrcInfo()::{lambda(Sage::Util::PathTree::Node const*)#2}>::_M_invoke(std::_Any_data const&, Sage::Util::PathTree::Node const*&&)
PUBLIC 68ec0 0 std::_Function_handler<void (Sage::Util::PathTree::Node const*), Sage::Text::endSrcInfo()::{lambda(Sage::Util::PathTree::Node const*)#1}>::_M_invoke(std::_Any_data const&, Sage::Util::PathTree::Node const*&&)
PUBLIC 69090 0 (anonymous namespace)::storeMacroSrcLoc(int, int, int, int, int, std::__cxx11::basic_string<char, std::char_traits<char>, std::allocator<char> > const&, void*, bool)
PUBLIC 69490 0 void (anonymous namespace)::doMacroElem<hegproto_v2::MacroArg>(mac_elem_s*, long*, int, std::__cxx11::basic_string<char, std::char_traits<char>, std::allocator<char> > const&, hegproto_v2::MacroArg&, bool) [clone .constprop.0]
PUBLIC 69af0 0 Sage::Text::recordIncludeRefs(xst_s*)
PUBLIC 6ac00 0 Sage::Text::recordSourceMapping(std::__cxx11::basic_string<char, std::char_traits<char>, std::allocator<char> > const&, std::__cxx11::basic_string<char, std::char_traits<char>, std::allocator<char> > const&)
PUBLIC 6b070 0 Sage::Text::recordTextRefs(ssl_item_s*)
PUBLIC 6b920 0 Sage::Text::getDefaultSrcLocId()
PUBLIC 6bc60 0 Sage::Text::getSrcLoc(xst_s*, long*, bool)
PUBLIC 6bdf0 0 Sage::Text::getSrcLoc(ssl_item_s*, bool)
PUBLIC 6be10 0 Sage::Text::getSrcLoc(vst_s*, long*, bool)
PUBLIC 6be20 0 Sage::Text::recordMacroRefs(ssl_item_s*)
PUBLIC 6e130 0 std::unordered_map<xst_s*, int, Sage::HashFuncPointers<xst_s>, std::equal_to<xst_s*>, std::allocator<std::pair<xst_s* const, int> > >::~unordered_map()
PUBLIC 6e1b0 0 std::unordered_map<void*, int, Sage::HashFuncPointers<void>, std::equal_to<void*>, std::allocator<std::pair<void* const, int> > >::~unordered_map()
PUBLIC 6e230 0 std::unordered_map<xst_s*, std::vector<std::tuple<std::__cxx11::basic_string<char, std::char_traits<char>, std::allocator<char> >, int, int>, std::allocator<std::tuple<std::__cxx11::basic_string<char, std::char_traits<char>, std::allocator<char> >, int, int> > >, std::hash<xst_s*>, std::equal_to<xst_s*>, std::allocator<std::pair<xst_s* const, std::vector<std::tuple<std::__cxx11::basic_string<char, std::char_traits<char>, std::allocator<char> >, int, int>, std::allocator<std::tuple<std::__cxx11::basic_string<char, std::char_traits<char>, std::allocator<char> >, int, int> > > > > >::~unordered_map()
PUBLIC 6e310 0 Sage::Util::PathTree::traverse(std::function<void (Sage::Util::PathTree::Node const*)>)
PUBLIC 6e600 0 std::__cxx11::basic_stringbuf<char, std::char_traits<char>, std::allocator<char> >::~basic_stringbuf()
PUBLIC 6e640 0 std::__cxx11::basic_stringbuf<char, std::char_traits<char>, std::allocator<char> >::~basic_stringbuf()
PUBLIC 6e690 0 std::vector<std::tuple<std::__cxx11::basic_string<char, std::char_traits<char>, std::allocator<char> >, int, int>, std::allocator<std::tuple<std::__cxx11::basic_string<char, std::char_traits<char>, std::allocator<char> >, int, int> > >::~vector()
PUBLIC 6e700 0 void std::vector<Sage::Util::PathTree::Node*, std::allocator<Sage::Util::PathTree::Node*> >::_M_realloc_insert<Sage::Util::PathTree::Node* const&>(__gnu_cxx::__normal_iterator<Sage::Util::PathTree::Node**, std::vector<Sage::Util::PathTree::Node*, std::allocator<Sage::Util::PathTree::Node*> > >, Sage::Util::PathTree::Node* const&)
PUBLIC 6e870 0 void std::vector<std::tuple<std::__cxx11::basic_string<char, std::char_traits<char>, std::allocator<char> >, int, int>, std::allocator<std::tuple<std::__cxx11::basic_string<char, std::char_traits<char>, std::allocator<char> >, int, int> > >::_M_realloc_insert<std::tuple<std::__cxx11::basic_string<char, std::char_traits<char>, std::allocator<char> >, int, int> >(__gnu_cxx::__normal_iterator<std::tuple<std::__cxx11::basic_string<char, std::char_traits<char>, std::allocator<char> >, int, int>*, std::vector<std::tuple<std::__cxx11::basic_string<char, std::char_traits<char>, std::allocator<char> >, int, int>, std::allocator<std::tuple<std::__cxx11::basic_string<char, std::char_traits<char>, std::allocator<char> >, int, int> > > >, std::tuple<std::__cxx11::basic_string<char, std::char_traits<char>, std::allocator<char> >, int, int>&&)
PUBLIC 6eae0 0 __gnu_cxx::__normal_iterator<Sage::Util::PathTree::Node**, std::vector<Sage::Util::PathTree::Node*, std::allocator<Sage::Util::PathTree::Node*> > > std::__find_if<__gnu_cxx::__normal_iterator<Sage::Util::PathTree::Node**, std::vector<Sage::Util::PathTree::Node*, std::allocator<Sage::Util::PathTree::Node*> > >, __gnu_cxx::__ops::_Iter_pred<Sage::Util::PathTree::Node::find(std::__cxx11::basic_string<char, std::char_traits<char>, std::allocator<char> >)::{lambda(Sage::Util::PathTree::Node*)#1}> >(__gnu_cxx::__ops::_Iter_pred<Sage::Util::PathTree::Node::find(std::__cxx11::basic_string<char, std::char_traits<char>, std::allocator<char> >)::{lambda(Sage::Util::PathTree::Node*)#1}>, __gnu_cxx::__ops::_Iter_pred<Sage::Util::PathTree::Node::find(std::__cxx11::basic_string<char, std::char_traits<char>, std::allocator<char> >)::{lambda(Sage::Util::PathTree::Node*)#1}>, __gnu_cxx::__ops::_Iter_pred<Sage::Util::PathTree::Node::find(std::__cxx11::basic_string<char, std::char_traits<char>, std::allocator<char> >)::{lambda(Sage::Util::PathTree::Node*)#1}>, std::random_access_iterator_tag)
PUBLIC 6ecd0 0 Sage::Util::PathTree::insert(boost::filesystem::path)
PUBLIC 6f7d0 0 std::_Rb_tree<unsigned long, std::pair<unsigned long const, unsigned long>, std::_Select1st<std::pair<unsigned long const, unsigned long> >, std::less<unsigned long>, std::allocator<std::pair<unsigned long const, unsigned long> > >::_M_erase(std::_Rb_tree_node<std::pair<unsigned long const, unsigned long> >*)
PUBLIC 6f810 0 std::_Rb_tree_iterator<std::pair<unsigned long const, unsigned long> > std::_Rb_tree<unsigned long, std::pair<unsigned long const, unsigned long>, std::_Select1st<std::pair<unsigned long const, unsigned long> >, std::less<unsigned long>, std::allocator<std::pair<unsigned long const, unsigned long> > >::_M_emplace_hint_unique<std::piecewise_construct_t const&, std::tuple<unsigned long const&>, std::tuple<> >(std::_Rb_tree_const_iterator<std::pair<unsigned long const, unsigned long> >, std::piecewise_construct_t const&, std::tuple<unsigned long const&>&&, std::tuple<>&&)
PUBLIC 6fb00 0 std::_Hashtable<void*, std::pair<void* const, int>, std::allocator<std::pair<void* const, int> >, std::__detail::_Select1st, std::equal_to<void*>, Sage::HashFuncPointers<void>, std::__detail::_Mod_range_hashing, std::__detail::_Default_ranged_hash, std::__detail::_Prime_rehash_policy, std::__detail::_Hashtable_traits<true, false, true> >::_M_rehash(unsigned long, unsigned long const&)
PUBLIC 6fc30 0 std::_Hashtable<void*, std::pair<void* const, int>, std::allocator<std::pair<void* const, int> >, std::__detail::_Select1st, std::equal_to<void*>, Sage::HashFuncPointers<void>, std::__detail::_Mod_range_hashing, std::__detail::_Default_ranged_hash, std::__detail::_Prime_rehash_policy, std::__detail::_Hashtable_traits<true, false, true> >::_M_insert_unique_node(unsigned long, unsigned long, std::__detail::_Hash_node<std::pair<void* const, int>, true>*, unsigned long)
PUBLIC 6fd20 0 std::_Hashtable<xst_s*, std::pair<xst_s* const, int>, std::allocator<std::pair<xst_s* const, int> >, std::__detail::_Select1st, std::equal_to<xst_s*>, Sage::HashFuncPointers<xst_s>, std::__detail::_Mod_range_hashing, std::__detail::_Default_ranged_hash, std::__detail::_Prime_rehash_policy, std::__detail::_Hashtable_traits<true, false, true> >::_M_rehash(unsigned long, unsigned long const&)
PUBLIC 6fe50 0 std::_Hashtable<xst_s*, std::pair<xst_s* const, int>, std::allocator<std::pair<xst_s* const, int> >, std::__detail::_Select1st, std::equal_to<xst_s*>, Sage::HashFuncPointers<xst_s>, std::__detail::_Mod_range_hashing, std::__detail::_Default_ranged_hash, std::__detail::_Prime_rehash_policy, std::__detail::_Hashtable_traits<true, false, true> >::_M_insert_unique_node(unsigned long, unsigned long, std::__detail::_Hash_node<std::pair<xst_s* const, int>, true>*, unsigned long)
PUBLIC 6ff40 0 std::_Hashtable<xst_s*, std::pair<xst_s* const, std::vector<std::tuple<std::__cxx11::basic_string<char, std::char_traits<char>, std::allocator<char> >, int, int>, std::allocator<std::tuple<std::__cxx11::basic_string<char, std::char_traits<char>, std::allocator<char> >, int, int> > > >, std::allocator<std::pair<xst_s* const, std::vector<std::tuple<std::__cxx11::basic_string<char, std::char_traits<char>, std::allocator<char> >, int, int>, std::allocator<std::tuple<std::__cxx11::basic_string<char, std::char_traits<char>, std::allocator<char> >, int, int> > > > >, std::__detail::_Select1st, std::equal_to<xst_s*>, std::hash<xst_s*>, std::__detail::_Mod_range_hashing, std::__detail::_Default_ranged_hash, std::__detail::_Prime_rehash_policy, std::__detail::_Hashtable_traits<false, false, true> >::_M_rehash(unsigned long, unsigned long const&)
PUBLIC 70070 0 std::_Hashtable<xst_s*, std::pair<xst_s* const, std::vector<std::tuple<std::__cxx11::basic_string<char, std::char_traits<char>, std::allocator<char> >, int, int>, std::allocator<std::tuple<std::__cxx11::basic_string<char, std::char_traits<char>, std::allocator<char> >, int, int> > > >, std::allocator<std::pair<xst_s* const, std::vector<std::tuple<std::__cxx11::basic_string<char, std::char_traits<char>, std::allocator<char> >, int, int>, std::allocator<std::tuple<std::__cxx11::basic_string<char, std::char_traits<char>, std::allocator<char> >, int, int> > > > >, std::__detail::_Select1st, std::equal_to<xst_s*>, std::hash<xst_s*>, std::__detail::_Mod_range_hashing, std::__detail::_Default_ranged_hash, std::__detail::_Prime_rehash_policy, std::__detail::_Hashtable_traits<false, false, true> >::_M_insert_unique_node(unsigned long, unsigned long, std::__detail::_Hash_node<std::pair<xst_s* const, std::vector<std::tuple<std::__cxx11::basic_string<char, std::char_traits<char>, std::allocator<char> >, int, int>, std::allocator<std::tuple<std::__cxx11::basic_string<char, std::char_traits<char>, std::allocator<char> >, int, int> > > >, false>*, unsigned long)
PUBLIC 70170 0 std::pair<std::__detail::_Node_iterator<std::pair<xst_s* const, std::vector<std::tuple<std::__cxx11::basic_string<char, std::char_traits<char>, std::allocator<char> >, int, int>, std::allocator<std::tuple<std::__cxx11::basic_string<char, std::char_traits<char>, std::allocator<char> >, int, int> > > >, false, false>, bool> std::_Hashtable<xst_s*, std::pair<xst_s* const, std::vector<std::tuple<std::__cxx11::basic_string<char, std::char_traits<char>, std::allocator<char> >, int, int>, std::allocator<std::tuple<std::__cxx11::basic_string<char, std::char_traits<char>, std::allocator<char> >, int, int> > > >, std::allocator<std::pair<xst_s* const, std::vector<std::tuple<std::__cxx11::basic_string<char, std::char_traits<char>, std::allocator<char> >, int, int>, std::allocator<std::tuple<std::__cxx11::basic_string<char, std::char_traits<char>, std::allocator<char> >, int, int> > > > >, std::__detail::_Select1st, std::equal_to<xst_s*>, std::hash<xst_s*>, std::__detail::_Mod_range_hashing, std::__detail::_Default_ranged_hash, std::__detail::_Prime_rehash_policy, std::__detail::_Hashtable_traits<false, false, true> >::_M_emplace<std::pair<xst_s* const, std::vector<std::tuple<std::__cxx11::basic_string<char, std::char_traits<char>, std::allocator<char> >, int, int>, std::allocator<std::tuple<std::__cxx11::basic_string<char, std::char_traits<char>, std::allocator<char> >, int, int> > > > >(std::integral_constant<bool, true>, std::pair<xst_s* const, std::vector<std::tuple<std::__cxx11::basic_string<char, std::char_traits<char>, std::allocator<char> >, int, int>, std::allocator<std::tuple<std::__cxx11::basic_string<char, std::char_traits<char>, std::allocator<char> >, int, int> > > >&&)
PUBLIC 702a0 0 (anonymous namespace)::launchConsumer(char const*, char const*, char const*, bool, bool, bool, char const*)
PUBLIC 703a0 0 Sage::IO::IpcStream::close()
PUBLIC 703f0 0 Sage::IO::IpcStream::~IpcStream()
PUBLIC 707f0 0 Sage::IO::cleanFifo()
PUBLIC 70860 0 Sage::IO::handleConsumerStatus(bool)
PUBLIC 70970 0 Sage::IO::IpcStream::connect()
PUBLIC 70b20 0 Sage::IO::IpcStream::IpcStream()
PUBLIC 70e00 0 Sage::IO::connectWriter(std::__cxx11::basic_string<char, std::char_traits<char>, std::allocator<char> >, char const*, bool, bool)
PUBLIC 71160 0 Sage::IO::IpcStream::IpcStream(std::__cxx11::basic_string<char, std::char_traits<char>, std::allocator<char> > const&)
PUBLIC 71470 0 (anonymous namespace)::root_directory_start(std::__cxx11::basic_string<char, std::char_traits<char>, std::allocator<char> > const&, unsigned long)
PUBLIC 71520 0 boost::filesystem::path::m_append_separator_if_needed()
PUBLIC 715c0 0 boost::filesystem::path::operator/=(char const*)
PUBLIC 71730 0 boost::filesystem::path::operator/=(boost::filesystem::path const&)
PUBLIC 71870 0 boost::filesystem::path::m_erase_redundant_separator(unsigned long)
PUBLIC 718a0 0 boost::filesystem::path::remove_trailing_separator()
PUBLIC 718d0 0 boost::filesystem::path::root_directory() const
PUBLIC 71a30 0 boost::filesystem::path::m_parent_path_end() const
PUBLIC 71b80 0 boost::filesystem::path::remove_filename()
PUBLIC 71bc0 0 boost::filesystem::path::parent_path() const
PUBLIC 71d20 0 boost::filesystem::detail::dot_path()
PUBLIC 71dc0 0 boost::filesystem::path::filename() const
PUBLIC 72080 0 boost::filesystem::detail::dot_dot_path()
PUBLIC 72120 0 boost::filesystem::path::begin() const
PUBLIC 723c0 0 boost::filesystem::path::root_name() const
PUBLIC 724b0 0 boost::filesystem::path::root_path() const
PUBLIC 72580 0 boost::filesystem::path::end() const
PUBLIC 725b0 0 boost::filesystem::path::m_path_iterator_increment(boost::filesystem::path::iterator&)
PUBLIC 728a0 0 boost::filesystem::path::relative_path() const
PUBLIC 729d0 0 boost::filesystem::detail::lex_compare(boost::filesystem::path::iterator, boost::filesystem::path::iterator, boost::filesystem::path::iterator, boost::filesystem::path::iterator)
PUBLIC 72b90 0 boost::filesystem::path::compare(boost::filesystem::path const&) const
PUBLIC 72c70 0 boost::filesystem::path::extension() const
PUBLIC 72dd0 0 boost::filesystem::path::replace_extension(boost::filesystem::path const&)
PUBLIC 72ed0 0 boost::filesystem::path::stem() const
PUBLIC 731d0 0 boost::filesystem::path::lexically_relative(boost::filesystem::path const&) const
PUBLIC 73a20 0 boost::filesystem::path::m_path_iterator_decrement(boost::filesystem::path::iterator&)
PUBLIC 73d80 0 boost::filesystem::path::lexically_normal() const
PUBLIC 74620 0 boost::filesystem::path::codecvt()
PUBLIC 746b0 0 boost::filesystem::path::imbue(std::locale const&)
PUBLIC 747b0 0 boost::filesystem::path::~path()
PUBLIC 747d0 0 boost::system::(anonymous namespace)::generic_error_category::name() const
PUBLIC 747e0 0 boost::system::(anonymous namespace)::system_error_category::name() const
PUBLIC 747f0 0 boost::system::(anonymous namespace)::system_error_category::~system_error_category()
PUBLIC 74800 0 boost::system::(anonymous namespace)::generic_error_category::~generic_error_category()
PUBLIC 74810 0 boost::system::(anonymous namespace)::system_error_category::~system_error_category()
PUBLIC 74820 0 boost::system::(anonymous namespace)::generic_error_category::~generic_error_category()
PUBLIC 74830 0 boost::system::(anonymous namespace)::generic_error_category::message(int) const
PUBLIC 74a50 0 boost::system::system_category()
PUBLIC 74ad0 0 boost::system::generic_category()
PUBLIC 74b50 0 boost::system::(anonymous namespace)::system_error_category::default_error_condition(int) const
PUBLIC 750e0 0 boost::system::(anonymous namespace)::system_error_category::message(int) const
PUBLIC 75110 0 boost::system::error_category::default_error_condition(int) const
PUBLIC 75120 0 boost::system::error_category::equivalent(int, boost::system::error_condition const&) const
PUBLIC 75140 0 boost::system::error_category::equivalent(boost::system::error_code const&, int) const
PUBLIC 75160 0 common_v2::Id::IsInitialized() const
PUBLIC 75170 0 common_v2::Id::SetCachedSize(int) const
PUBLIC 75180 0 common_v2::ByteStream::SetCachedSize(int) const
PUBLIC 75190 0 common_v2::Id::ByteSizeLong() const
PUBLIC 751e0 0 common_v2::Id::GetMetadata() const
PUBLIC 75200 0 common_v2::ByteStream::GetMetadata() const
PUBLIC 75220 0 common_v2::ByteStream::ByteSizeLong() const
PUBLIC 75290 0 common_v2::ByteStream::_InternalSerialize(unsigned char*, google::protobuf::io::EpsCopyOutputStream*) const
PUBLIC 753e0 0 common_v2::Id::_InternalSerialize(unsigned char*, google::protobuf::io::EpsCopyOutputStream*) const
PUBLIC 754c0 0 common_v2::Id::~Id()
PUBLIC 755c0 0 common_v2::Id::~Id()
PUBLIC 755e0 0 common_v2::ByteStream::~ByteStream()
PUBLIC 75710 0 common_v2::ByteStream::~ByteStream()
PUBLIC 75730 0 common_v2::Id::InitAsDefaultInstance()
PUBLIC 75740 0 common_v2::Id::Id(google::protobuf::Arena*)
PUBLIC 75770 0 InitDefaultsscc_info_Id_common_5fv2_2eproto()
PUBLIC 757b0 0 common_v2::Id::ArenaDtor(void*)
PUBLIC 757c0 0 common_v2::Id::default_instance()
PUBLIC 757f0 0 common_v2::ByteStream::InitAsDefaultInstance()
PUBLIC 75800 0 common_v2::ByteStream::ByteStream(google::protobuf::Arena*)
PUBLIC 75850 0 InitDefaultsscc_info_ByteStream_common_5fv2_2eproto()
PUBLIC 75890 0 common_v2::ByteStream::ArenaDtor(void*)
PUBLIC 758a0 0 common_v2::ByteStream::default_instance()
PUBLIC 758d0 0 common_v2::Id* google::protobuf::Arena::CreateMaybeMessage<common_v2::Id>(google::protobuf::Arena*)
PUBLIC 75950 0 common_v2::ByteStream* google::protobuf::Arena::CreateMaybeMessage<common_v2::ByteStream>(google::protobuf::Arena*)
PUBLIC 759d0 0 common_v2::Id::_InternalParse(char const*, google::protobuf::internal::ParseContext*)
PUBLIC 75bf0 0 common_v2::ByteStream::MergeFrom(common_v2::ByteStream const&)
PUBLIC 75d50 0 common_v2::ByteStream::MergeFrom(google::protobuf::Message const&)
PUBLIC 75e30 0 common_v2::ByteStream::Clear()
PUBLIC 75e80 0 common_v2::ByteStream::CopyFrom(google::protobuf::Message const&)
PUBLIC 75ec0 0 common_v2::ByteStream::CopyFrom(common_v2::ByteStream const&)
PUBLIC 75f00 0 common_v2::ByteStream::InternalSwap(common_v2::ByteStream*)
PUBLIC 76030 0 common_v2::ByteStream::_InternalParse(char const*, google::protobuf::internal::ParseContext*)
PUBLIC 762e0 0 common_v2::Id::InternalSwap(common_v2::Id*)
PUBLIC 76390 0 common_v2::Id::Clear()
PUBLIC 763c0 0 common_v2::Id::Id(common_v2::Id const&)
PUBLIC 76450 0 common_v2::ByteStream::ByteStream(common_v2::ByteStream const&)
PUBLIC 76530 0 common_v2::Id::MergeFrom(common_v2::Id const&)
PUBLIC 76630 0 common_v2::Id::CopyFrom(common_v2::Id const&)
PUBLIC 76670 0 common_v2::Id::MergeFrom(google::protobuf::Message const&)
PUBLIC 76750 0 common_v2::Id::CopyFrom(google::protobuf::Message const&)
PUBLIC 76790 0 google::protobuf::MessageLite::InternalGetTable() const
PUBLIC 767a0 0 common_v2::ByteStream::GetCachedSize() const
PUBLIC 767b0 0 common_v2::Id::GetCachedSize() const
PUBLIC 767c0 0 void google::protobuf::internal::arena_destruct_object<google::protobuf::internal::InternalMetadata::Container<google::protobuf::UnknownFieldSet> >(void*)
PUBLIC 76800 0 common_v2::Id::New(google::protobuf::Arena*) const
PUBLIC 76810 0 common_v2::Id::New() const
PUBLIC 76820 0 common_v2::ByteStream::New(google::protobuf::Arena*) const
PUBLIC 76830 0 common_v2::ByteStream::New() const
PUBLIC 76840 0 google::protobuf::UnknownFieldSet* google::protobuf::internal::InternalMetadata::mutable_unknown_fields_slow<google::protobuf::UnknownFieldSet>()
PUBLIC 768f0 0 sourcelocproto_v2::SourceMapping::IsInitialized() const
PUBLIC 76900 0 sourcelocproto_v2::PathNode::SetCachedSize(int) const
PUBLIC 76910 0 sourcelocproto_v2::SourceLoc::SetCachedSize(int) const
PUBLIC 76920 0 sourcelocproto_v2::SourceMapping::SetCachedSize(int) const
PUBLIC 76930 0 sourcelocproto_v2::PathNode::GetMetadata() const
PUBLIC 76950 0 sourcelocproto_v2::SourceLoc::GetMetadata() const
PUBLIC 76970 0 sourcelocproto_v2::SourceMapping::GetMetadata() const
PUBLIC 76990 0 sourcelocproto_v2::PathNode::InitAsDefaultInstance()
PUBLIC 769b0 0 sourcelocproto_v2::PathNode::_Internal::id(sourcelocproto_v2::PathNode const*)
PUBLIC 769c0 0 sourcelocproto_v2::PathNode::_Internal::parentid(sourcelocproto_v2::PathNode const*)
PUBLIC 769d0 0 sourcelocproto_v2::PathNode::PathNode(google::protobuf::Arena*)
PUBLIC 76a20 0 InitDefaultsscc_info_PathNode_sourcelocdb_5fv2_2eproto()
PUBLIC 76a60 0 sourcelocproto_v2::PathNode::ArenaDtor(void*)
PUBLIC 76a70 0 sourcelocproto_v2::PathNode::default_instance()
PUBLIC 76aa0 0 sourcelocproto_v2::SourceLoc::InitAsDefaultInstance()
PUBLIC 76ac0 0 sourcelocproto_v2::SourceLoc::_Internal::id(sourcelocproto_v2::SourceLoc const*)
PUBLIC 76ad0 0 sourcelocproto_v2::SourceLoc::_Internal::filenodeid(sourcelocproto_v2::SourceLoc const*)
PUBLIC 76ae0 0 sourcelocproto_v2::SourceLoc::SourceLoc(google::protobuf::Arena*)
PUBLIC 76b30 0 InitDefaultsscc_info_SourceLoc_sourcelocdb_5fv2_2eproto()
PUBLIC 76b70 0 sourcelocproto_v2::SourceLoc::ArenaDtor(void*)
PUBLIC 76b80 0 sourcelocproto_v2::SourceLoc::default_instance()
PUBLIC 76bb0 0 sourcelocproto_v2::SourceMapping::InitAsDefaultInstance()
PUBLIC 76bd0 0 sourcelocproto_v2::SourceMapping::_Internal::fromfilenodeid(sourcelocproto_v2::SourceMapping const*)
PUBLIC 76be0 0 sourcelocproto_v2::SourceMapping::_Internal::tofilenodeid(sourcelocproto_v2::SourceMapping const*)
PUBLIC 76bf0 0 sourcelocproto_v2::SourceMapping::SourceMapping(google::protobuf::Arena*)
PUBLIC 76c40 0 InitDefaultsscc_info_SourceMapping_sourcelocdb_5fv2_2eproto()
PUBLIC 76c80 0 sourcelocproto_v2::SourceMapping::ArenaDtor(void*)
PUBLIC 76c90 0 sourcelocproto_v2::SourceMapping::default_instance()
PUBLIC 76cc0 0 sourcelocproto_v2::PathNode* google::protobuf::Arena::CreateMaybeMessage<sourcelocproto_v2::PathNode>(google::protobuf::Arena*)
PUBLIC 76d40 0 sourcelocproto_v2::SourceLoc* google::protobuf::Arena::CreateMaybeMessage<sourcelocproto_v2::SourceLoc>(google::protobuf::Arena*)
PUBLIC 76dc0 0 sourcelocproto_v2::SourceMapping* google::protobuf::Arena::CreateMaybeMessage<sourcelocproto_v2::SourceMapping>(google::protobuf::Arena*)
PUBLIC 76e40 0 sourcelocproto_v2::SourceLoc::MergeFrom(sourcelocproto_v2::SourceLoc const&)
PUBLIC 77020 0 sourcelocproto_v2::SourceLoc::MergeFrom(google::protobuf::Message const&)
PUBLIC 77100 0 sourcelocproto_v2::PathNode::InternalSwap(sourcelocproto_v2::PathNode*)
PUBLIC 77240 0 sourcelocproto_v2::SourceMapping::InternalSwap(sourcelocproto_v2::SourceMapping*)
PUBLIC 772f0 0 sourcelocproto_v2::SourceLoc::InternalSwap(sourcelocproto_v2::SourceLoc*)
PUBLIC 773e0 0 sourcelocproto_v2::SourceMapping::SourceMapping(sourcelocproto_v2::SourceMapping const&)
PUBLIC 77510 0 sourcelocproto_v2::SourceLoc::SourceLoc(sourcelocproto_v2::SourceLoc const&)
PUBLIC 77650 0 sourcelocproto_v2::SourceMapping::MergeFrom(sourcelocproto_v2::SourceMapping const&)
PUBLIC 777f0 0 sourcelocproto_v2::SourceMapping::MergeFrom(google::protobuf::Message const&)
PUBLIC 778d0 0 sourcelocproto_v2::PathNode::PathNode(sourcelocproto_v2::PathNode const&)
PUBLIC 77a50 0 sourcelocproto_v2::PathNode::MergeFrom(sourcelocproto_v2::PathNode const&)
PUBLIC 77c60 0 sourcelocproto_v2::PathNode::MergeFrom(google::protobuf::Message const&)
PUBLIC 77d40 0 sourcelocproto_v2::PathNode::clear_id()
PUBLIC 77d90 0 sourcelocproto_v2::PathNode::clear_parentid()
PUBLIC 77de0 0 sourcelocproto_v2::PathNode::~PathNode()
PUBLIC 77f30 0 sourcelocproto_v2::PathNode::~PathNode()
PUBLIC 77f50 0 sourcelocproto_v2::PathNode::Clear()
PUBLIC 78040 0 sourcelocproto_v2::PathNode::CopyFrom(google::protobuf::Message const&)
PUBLIC 78080 0 sourcelocproto_v2::PathNode::CopyFrom(sourcelocproto_v2::PathNode const&)
PUBLIC 780c0 0 sourcelocproto_v2::SourceLoc::clear_id()
PUBLIC 78110 0 sourcelocproto_v2::SourceLoc::clear_filenodeid()
PUBLIC 78160 0 sourcelocproto_v2::SourceLoc::~SourceLoc()
PUBLIC 78280 0 sourcelocproto_v2::SourceLoc::~SourceLoc()
PUBLIC 782a0 0 sourcelocproto_v2::SourceLoc::Clear()
PUBLIC 78380 0 sourcelocproto_v2::SourceLoc::CopyFrom(google::protobuf::Message const&)
PUBLIC 783c0 0 sourcelocproto_v2::SourceLoc::CopyFrom(sourcelocproto_v2::SourceLoc const&)
PUBLIC 78400 0 sourcelocproto_v2::SourceMapping::clear_fromfilenodeid()
PUBLIC 78450 0 sourcelocproto_v2::SourceMapping::clear_tofilenodeid()
PUBLIC 784a0 0 sourcelocproto_v2::SourceMapping::~SourceMapping()
PUBLIC 785c0 0 sourcelocproto_v2::SourceMapping::~SourceMapping()
PUBLIC 785e0 0 sourcelocproto_v2::SourceMapping::Clear()
PUBLIC 786b0 0 sourcelocproto_v2::SourceMapping::CopyFrom(google::protobuf::Message const&)
PUBLIC 786f0 0 sourcelocproto_v2::SourceMapping::CopyFrom(sourcelocproto_v2::SourceMapping const&)
PUBLIC 78730 0 sourcelocproto_v2::PathNode::_InternalParse(char const*, google::protobuf::internal::ParseContext*)
PUBLIC 78a60 0 sourcelocproto_v2::SourceLoc::_InternalParse(char const*, google::protobuf::internal::ParseContext*)
PUBLIC 78ee0 0 sourcelocproto_v2::SourceMapping::_InternalParse(char const*, google::protobuf::internal::ParseContext*)
PUBLIC 79180 0 sourcelocproto_v2::PathNode::_InternalSerialize(unsigned char*, google::protobuf::io::EpsCopyOutputStream*) const
PUBLIC 793f0 0 sourcelocproto_v2::SourceLoc::_InternalSerialize(unsigned char*, google::protobuf::io::EpsCopyOutputStream*) const
PUBLIC 798b0 0 sourcelocproto_v2::SourceMapping::_InternalSerialize(unsigned char*, google::protobuf::io::EpsCopyOutputStream*) const
PUBLIC 79a80 0 sourcelocproto_v2::PathNode::ByteSizeLong() const
PUBLIC 79b40 0 sourcelocproto_v2::SourceLoc::ByteSizeLong() const
PUBLIC 79c50 0 sourcelocproto_v2::SourceMapping::ByteSizeLong() const
PUBLIC 79cf0 0 sourcelocproto_v2::SourceMapping::GetCachedSize() const
PUBLIC 79d00 0 sourcelocproto_v2::SourceLoc::GetCachedSize() const
PUBLIC 79d10 0 sourcelocproto_v2::PathNode::GetCachedSize() const
PUBLIC 79d20 0 sourcelocproto_v2::PathNode::New(google::protobuf::Arena*) const
PUBLIC 79d30 0 sourcelocproto_v2::PathNode::New() const
PUBLIC 79d40 0 sourcelocproto_v2::SourceLoc::New(google::protobuf::Arena*) const
PUBLIC 79d50 0 sourcelocproto_v2::SourceLoc::New() const
PUBLIC 79d60 0 sourcelocproto_v2::SourceMapping::New(google::protobuf::Arena*) const
PUBLIC 79d70 0 sourcelocproto_v2::SourceMapping::New() const
PUBLIC 79d80 0 char const* google::protobuf::internal::ParseContext::ParseMessage<common_v2::Id>(common_v2::Id*, char const*)
PUBLIC 79ed0 0 msieproto_v2::OoprExtern::IsInitialized() const
PUBLIC 79ee0 0 msieproto_v2::Partition::SetCachedSize(int) const
PUBLIC 79ef0 0 msieproto_v2::ModuleItemPartition::SetCachedSize(int) const
PUBLIC 79f00 0 msieproto_v2::StitchPoint::SetCachedSize(int) const
PUBLIC 79f10 0 msieproto_v2::TopInstance::SetCachedSize(int) const
PUBLIC 79f20 0 msieproto_v2::OoprExtern::SetCachedSize(int) const
PUBLIC 79f30 0 msieproto_v2::OoprTarget::SetCachedSize(int) const
PUBLIC 79f40 0 msieproto_v2::Partition::GetMetadata() const
PUBLIC 79f60 0 msieproto_v2::ModuleItemPartition::GetMetadata() const
PUBLIC 79f80 0 msieproto_v2::StitchPoint::GetMetadata() const
PUBLIC 79fa0 0 msieproto_v2::TopInstance::GetMetadata() const
PUBLIC 79fc0 0 msieproto_v2::OoprExtern::GetMetadata() const
PUBLIC 79fe0 0 msieproto_v2::OoprTarget::GetMetadata() const
PUBLIC 7a000 0 msieproto_v2::Partition::InitAsDefaultInstance()
PUBLIC 7a020 0 msieproto_v2::Partition::_Internal::id(msieproto_v2::Partition const*)
PUBLIC 7a030 0 msieproto_v2::Partition::Partition(google::protobuf::Arena*)
PUBLIC 7a090 0 InitDefaultsscc_info_Partition_msiedb_5fv2_2eproto()
PUBLIC 7a0d0 0 msieproto_v2::Partition::ArenaDtor(void*)
PUBLIC 7a0e0 0 msieproto_v2::Partition::default_instance()
PUBLIC 7a110 0 msieproto_v2::ModuleItemPartition::InitAsDefaultInstance()
PUBLIC 7a130 0 msieproto_v2::ModuleItemPartition::_Internal::id(msieproto_v2::ModuleItemPartition const*)
PUBLIC 7a140 0 msieproto_v2::ModuleItemPartition::_Internal::partitionid(msieproto_v2::ModuleItemPartition const*)
PUBLIC 7a150 0 msieproto_v2::ModuleItemPartition::ModuleItemPartition(google::protobuf::Arena*)
PUBLIC 7a1b0 0 InitDefaultsscc_info_ModuleItemPartition_msiedb_5fv2_2eproto()
PUBLIC 7a1f0 0 msieproto_v2::ModuleItemPartition::ArenaDtor(void*)
PUBLIC 7a200 0 msieproto_v2::ModuleItemPartition::default_instance()
PUBLIC 7a230 0 msieproto_v2::StitchPoint::InitAsDefaultInstance()
PUBLIC 7a260 0 msieproto_v2::StitchPoint::_Internal::parentmoduleitempartitionid(msieproto_v2::StitchPoint const*)
PUBLIC 7a270 0 msieproto_v2::StitchPoint::_Internal::childmoduleitempartitionid(msieproto_v2::StitchPoint const*)
PUBLIC 7a280 0 msieproto_v2::StitchPoint::_Internal::instancesrclocid(msieproto_v2::StitchPoint const*)
PUBLIC 7a290 0 msieproto_v2::StitchPoint::StitchPoint(google::protobuf::Arena*)
PUBLIC 7a300 0 InitDefaultsscc_info_StitchPoint_msiedb_5fv2_2eproto()
PUBLIC 7a340 0 msieproto_v2::StitchPoint::ArenaDtor(void*)
PUBLIC 7a350 0 msieproto_v2::StitchPoint::default_instance()
PUBLIC 7a380 0 msieproto_v2::TopInstance::InitAsDefaultInstance()
PUBLIC 7a3a0 0 msieproto_v2::TopInstance::_Internal::moduleitempartitionid(msieproto_v2::TopInstance const*)
PUBLIC 7a3b0 0 msieproto_v2::TopInstance::TopInstance(google::protobuf::Arena*)
PUBLIC 7a400 0 InitDefaultsscc_info_TopInstance_msiedb_5fv2_2eproto()
PUBLIC 7a440 0 msieproto_v2::TopInstance::ArenaDtor(void*)
PUBLIC 7a450 0 msieproto_v2::TopInstance::default_instance()
PUBLIC 7a480 0 msieproto_v2::OoprExtern::InitAsDefaultInstance()
PUBLIC 7a4a0 0 msieproto_v2::OoprExtern::_Internal::id(msieproto_v2::OoprExtern const*)
PUBLIC 7a4b0 0 msieproto_v2::OoprExtern::_Internal::partitionid(msieproto_v2::OoprExtern const*)
PUBLIC 7a4c0 0 msieproto_v2::OoprExtern::OoprExtern(google::protobuf::Arena*)
PUBLIC 7a520 0 InitDefaultsscc_info_OoprExtern_msiedb_5fv2_2eproto()
PUBLIC 7a560 0 msieproto_v2::OoprExtern::ArenaDtor(void*)
PUBLIC 7a570 0 msieproto_v2::OoprExtern::default_instance()
PUBLIC 7a5a0 0 msieproto_v2::OoprTarget::InitAsDefaultInstance()
PUBLIC 7a5c0 0 msieproto_v2::OoprTarget::_Internal::externid(msieproto_v2::OoprTarget const*)
PUBLIC 7a5d0 0 msieproto_v2::OoprTarget::OoprTarget(google::protobuf::Arena*)
PUBLIC 7a620 0 InitDefaultsscc_info_OoprTarget_msiedb_5fv2_2eproto()
PUBLIC 7a660 0 msieproto_v2::OoprTarget::ArenaDtor(void*)
PUBLIC 7a670 0 msieproto_v2::OoprTarget::default_instance()
PUBLIC 7a6a0 0 msieproto_v2::Partition* google::protobuf::Arena::CreateMaybeMessage<msieproto_v2::Partition>(google::protobuf::Arena*)
PUBLIC 7a720 0 msieproto_v2::ModuleItemPartition* google::protobuf::Arena::CreateMaybeMessage<msieproto_v2::ModuleItemPartition>(google::protobuf::Arena*)
PUBLIC 7a7a0 0 msieproto_v2::StitchPoint* google::protobuf::Arena::CreateMaybeMessage<msieproto_v2::StitchPoint>(google::protobuf::Arena*)
PUBLIC 7a820 0 msieproto_v2::TopInstance* google::protobuf::Arena::CreateMaybeMessage<msieproto_v2::TopInstance>(google::protobuf::Arena*)
PUBLIC 7a8a0 0 msieproto_v2::OoprExtern* google::protobuf::Arena::CreateMaybeMessage<msieproto_v2::OoprExtern>(google::protobuf::Arena*)
PUBLIC 7a920 0 msieproto_v2::OoprTarget* google::protobuf::Arena::CreateMaybeMessage<msieproto_v2::OoprTarget>(google::protobuf::Arena*)
PUBLIC 7a9a0 0 msieproto_v2::Partition::Partition(msieproto_v2::Partition const&)
PUBLIC 7ac40 0 msieproto_v2::Partition::InternalSwap(msieproto_v2::Partition*)
PUBLIC 7b030 0 msieproto_v2::TopInstance::InternalSwap(msieproto_v2::TopInstance*)
PUBLIC 7b0e0 0 msieproto_v2::OoprTarget::InternalSwap(msieproto_v2::OoprTarget*)
PUBLIC 7b2a0 0 msieproto_v2::OoprExtern::InternalSwap(msieproto_v2::OoprExtern*)
PUBLIC 7b460 0 msieproto_v2::StitchPoint::InternalSwap(msieproto_v2::StitchPoint*)
PUBLIC 7b6c0 0 msieproto_v2::ModuleItemPartition::InternalSwap(msieproto_v2::ModuleItemPartition*)
PUBLIC 7b9a0 0 msieproto_v2::TopInstance::TopInstance(msieproto_v2::TopInstance const&)
PUBLIC 7ba70 0 msieproto_v2::TopInstance::MergeFrom(msieproto_v2::TopInstance const&)
PUBLIC 7bbb0 0 msieproto_v2::TopInstance::MergeFrom(google::protobuf::Message const&)
PUBLIC 7bc90 0 msieproto_v2::OoprTarget::OoprTarget(msieproto_v2::OoprTarget const&)
PUBLIC 7bdf0 0 msieproto_v2::OoprTarget::MergeFrom(msieproto_v2::OoprTarget const&)
PUBLIC 7c000 0 msieproto_v2::OoprTarget::MergeFrom(google::protobuf::Message const&)
PUBLIC 7c0e0 0 msieproto_v2::OoprExtern::MergeFrom(msieproto_v2::OoprExtern const&)
PUBLIC 7c360 0 msieproto_v2::OoprExtern::MergeFrom(google::protobuf::Message const&)
PUBLIC 7c440 0 msieproto_v2::OoprExtern::OoprExtern(msieproto_v2::OoprExtern const&)
PUBLIC 7c620 0 msieproto_v2::Partition::MergeFrom(msieproto_v2::Partition const&)
PUBLIC 7ca00 0 msieproto_v2::Partition::MergeFrom(google::protobuf::Message const&)
PUBLIC 7cae0 0 msieproto_v2::ModuleItemPartition::MergeFrom(msieproto_v2::ModuleItemPartition const&)
PUBLIC 7ce30 0 msieproto_v2::ModuleItemPartition::MergeFrom(google::protobuf::Message const&)
PUBLIC 7cf10 0 msieproto_v2::StitchPoint::MergeFrom(msieproto_v2::StitchPoint const&)
PUBLIC 7d260 0 msieproto_v2::StitchPoint::MergeFrom(google::protobuf::Message const&)
PUBLIC 7d340 0 msieproto_v2::ModuleItemPartition::ModuleItemPartition(msieproto_v2::ModuleItemPartition const&)
PUBLIC 7d5b0 0 msieproto_v2::StitchPoint::StitchPoint(msieproto_v2::StitchPoint const&)
PUBLIC 7d7f0 0 msieproto_v2::Partition::clear_id()
PUBLIC 7d840 0 msieproto_v2::Partition::~Partition()
PUBLIC 7da70 0 msieproto_v2::Partition::~Partition()
PUBLIC 7da90 0 msieproto_v2::Partition::Clear()
PUBLIC 7dba0 0 msieproto_v2::Partition::CopyFrom(google::protobuf::Message const&)
PUBLIC 7dbe0 0 msieproto_v2::Partition::CopyFrom(msieproto_v2::Partition const&)
PUBLIC 7dc20 0 msieproto_v2::ModuleItemPartition::clear_id()
PUBLIC 7dc70 0 msieproto_v2::ModuleItemPartition::clear_partitionid()
PUBLIC 7dcc0 0 msieproto_v2::ModuleItemPartition::~ModuleItemPartition()
PUBLIC 7dea0 0 msieproto_v2::ModuleItemPartition::~ModuleItemPartition()
PUBLIC 7dec0 0 msieproto_v2::ModuleItemPartition::Clear()
PUBLIC 7dff0 0 msieproto_v2::ModuleItemPartition::CopyFrom(google::protobuf::Message const&)
PUBLIC 7e030 0 msieproto_v2::ModuleItemPartition::CopyFrom(msieproto_v2::ModuleItemPartition const&)
PUBLIC 7e070 0 msieproto_v2::StitchPoint::clear_parentmoduleitempartitionid()
PUBLIC 7e0c0 0 msieproto_v2::StitchPoint::clear_childmoduleitempartitionid()
PUBLIC 7e110 0 msieproto_v2::StitchPoint::clear_instancesrclocid()
PUBLIC 7e160 0 msieproto_v2::StitchPoint::~StitchPoint()
PUBLIC 7e320 0 msieproto_v2::StitchPoint::~StitchPoint()
PUBLIC 7e340 0 msieproto_v2::StitchPoint::Clear()
PUBLIC 7e4d0 0 msieproto_v2::StitchPoint::CopyFrom(google::protobuf::Message const&)
PUBLIC 7e510 0 msieproto_v2::StitchPoint::CopyFrom(msieproto_v2::StitchPoint const&)
PUBLIC 7e550 0 msieproto_v2::TopInstance::clear_moduleitempartitionid()
PUBLIC 7e5a0 0 msieproto_v2::TopInstance::~TopInstance()
PUBLIC 7e6b0 0 msieproto_v2::TopInstance::~TopInstance()
PUBLIC 7e6d0 0 msieproto_v2::TopInstance::Clear()
PUBLIC 7e750 0 msieproto_v2::TopInstance::CopyFrom(google::protobuf::Message const&)
PUBLIC 7e790 0 msieproto_v2::TopInstance::CopyFrom(msieproto_v2::TopInstance const&)
PUBLIC 7e7d0 0 msieproto_v2::OoprExtern::clear_id()
PUBLIC 7e820 0 msieproto_v2::OoprExtern::clear_partitionid()
PUBLIC 7e870 0 msieproto_v2::OoprExtern::~OoprExtern()
PUBLIC 7e9f0 0 msieproto_v2::OoprExtern::~OoprExtern()
PUBLIC 7ea10 0 msieproto_v2::OoprExtern::Clear()
PUBLIC 7eb20 0 msieproto_v2::OoprExtern::CopyFrom(google::protobuf::Message const&)
PUBLIC 7eb60 0 msieproto_v2::OoprExtern::CopyFrom(msieproto_v2::OoprExtern const&)
PUBLIC 7eba0 0 msieproto_v2::OoprTarget::clear_externid()
PUBLIC 7ebf0 0 msieproto_v2::OoprTarget::~OoprTarget()
PUBLIC 7ed60 0 msieproto_v2::OoprTarget::~OoprTarget()
PUBLIC 7ed80 0 msieproto_v2::OoprTarget::Clear()
PUBLIC 7ee30 0 msieproto_v2::OoprTarget::CopyFrom(google::protobuf::Message const&)
PUBLIC 7ee70 0 msieproto_v2::OoprTarget::CopyFrom(msieproto_v2::OoprTarget const&)
PUBLIC 7eeb0 0 msieproto_v2::Partition::_InternalParse(char const*, google::protobuf::internal::ParseContext*)
PUBLIC 7f4c0 0 msieproto_v2::ModuleItemPartition::_InternalParse(char const*, google::protobuf::internal::ParseContext*)
PUBLIC 7f9f0 0 msieproto_v2::StitchPoint::_InternalParse(char const*, google::protobuf::internal::ParseContext*)
PUBLIC 7fec0 0 msieproto_v2::TopInstance::_InternalParse(char const*, google::protobuf::internal::ParseContext*)
PUBLIC 800f0 0 msieproto_v2::OoprExtern::_InternalParse(char const*, google::protobuf::internal::ParseContext*)
PUBLIC 80530 0 msieproto_v2::OoprTarget::_InternalParse(char const*, google::protobuf::internal::ParseContext*)
PUBLIC 808c0 0 msieproto_v2::Partition::_InternalSerialize(unsigned char*, google::protobuf::io::EpsCopyOutputStream*) const
PUBLIC 80d40 0 msieproto_v2::ModuleItemPartition::_InternalSerialize(unsigned char*, google::protobuf::io::EpsCopyOutputStream*) const
PUBLIC 81160 0 msieproto_v2::StitchPoint::_InternalSerialize(unsigned char*, google::protobuf::io::EpsCopyOutputStream*) const
PUBLIC 815d0 0 msieproto_v2::TopInstance::_InternalSerialize(unsigned char*, google::protobuf::io::EpsCopyOutputStream*) const
PUBLIC 816c0 0 msieproto_v2::OoprExtern::_InternalSerialize(unsigned char*, google::protobuf::io::EpsCopyOutputStream*) const
PUBLIC 81a60 0 msieproto_v2::OoprTarget::_InternalSerialize(unsigned char*, google::protobuf::io::EpsCopyOutputStream*) const
PUBLIC 81c90 0 msieproto_v2::Partition::ByteSizeLong() const
PUBLIC 81df0 0 msieproto_v2::ModuleItemPartition::ByteSizeLong() const
PUBLIC 81f20 0 msieproto_v2::StitchPoint::ByteSizeLong() const
PUBLIC 82050 0 msieproto_v2::TopInstance::ByteSizeLong() const
PUBLIC 820c0 0 msieproto_v2::OoprExtern::ByteSizeLong() const
PUBLIC 821c0 0 msieproto_v2::OoprTarget::ByteSizeLong() const
PUBLIC 82280 0 msieproto_v2::OoprTarget::GetCachedSize() const
PUBLIC 82290 0 msieproto_v2::OoprExtern::GetCachedSize() const
PUBLIC 822a0 0 msieproto_v2::TopInstance::GetCachedSize() const
PUBLIC 822b0 0 msieproto_v2::StitchPoint::GetCachedSize() const
PUBLIC 822c0 0 msieproto_v2::ModuleItemPartition::GetCachedSize() const
PUBLIC 822d0 0 msieproto_v2::Partition::GetCachedSize() const
PUBLIC 822e0 0 msieproto_v2::Partition::New(google::protobuf::Arena*) const
PUBLIC 822f0 0 msieproto_v2::Partition::New() const
PUBLIC 82300 0 msieproto_v2::ModuleItemPartition::New(google::protobuf::Arena*) const
PUBLIC 82310 0 msieproto_v2::ModuleItemPartition::New() const
PUBLIC 82320 0 msieproto_v2::StitchPoint::New(google::protobuf::Arena*) const
PUBLIC 82330 0 msieproto_v2::StitchPoint::New() const
PUBLIC 82340 0 msieproto_v2::TopInstance::New(google::protobuf::Arena*) const
PUBLIC 82350 0 msieproto_v2::TopInstance::New() const
PUBLIC 82360 0 msieproto_v2::OoprExtern::New(google::protobuf::Arena*) const
PUBLIC 82370 0 msieproto_v2::OoprExtern::New() const
PUBLIC 82380 0 msieproto_v2::OoprTarget::New(google::protobuf::Arena*) const
PUBLIC 82390 0 msieproto_v2::OoprTarget::New() const
PUBLIC 823a0 0 typeinfoproto_v2::StaticArray::IsInitialized() const
PUBLIC 823b0 0 typeinfoproto_v2::TypeInfoMessageType::GetMetadata() const
PUBLIC 823d0 0 typeinfoproto_v2::Enum::GetMetadata() const
PUBLIC 823f0 0 typeinfoproto_v2::EnumFieldInfo::GetMetadata() const
PUBLIC 82410 0 typeinfoproto_v2::DimensionInfo::GetMetadata() const
PUBLIC 82430 0 typeinfoproto_v2::PredefinedType::GetMetadata() const
PUBLIC 82450 0 typeinfoproto_v2::QDAArray::GetMetadata() const
PUBLIC 82470 0 typeinfoproto_v2::ClassHandle::GetMetadata() const
PUBLIC 82490 0 typeinfoproto_v2::VirtualInterface::GetMetadata() const
PUBLIC 824b0 0 typeinfoproto_v2::StaticArray::GetMetadata() const
PUBLIC 824e0 0 typeinfoproto_v2::Struct::GetMetadata() const
PUBLIC 82510 0 typeinfoproto_v2::Field::GetMetadata() const
PUBLIC 82540 0 typeinfoproto_v2::Union::GetMetadata() const
PUBLIC 82570 0 typeinfoproto_v2::MultiDimensionArray::GetMetadata() const
PUBLIC 825a0 0 typeinfoproto_v2::TypeInfoMessageType::SetCachedSize(int) const
PUBLIC 825b0 0 typeinfoproto_v2::Enum::SetCachedSize(int) const
PUBLIC 825c0 0 typeinfoproto_v2::EnumFieldInfo::SetCachedSize(int) const
PUBLIC 825d0 0 typeinfoproto_v2::DimensionInfo::SetCachedSize(int) const
PUBLIC 825e0 0 typeinfoproto_v2::PredefinedType::SetCachedSize(int) const
PUBLIC 825f0 0 typeinfoproto_v2::QDAArray::SetCachedSize(int) const
PUBLIC 82600 0 typeinfoproto_v2::ClassHandle::SetCachedSize(int) const
PUBLIC 82610 0 typeinfoproto_v2::VirtualInterface::SetCachedSize(int) const
PUBLIC 82620 0 typeinfoproto_v2::StaticArray::SetCachedSize(int) const
PUBLIC 82630 0 typeinfoproto_v2::Struct::SetCachedSize(int) const
PUBLIC 82640 0 typeinfoproto_v2::Field::SetCachedSize(int) const
PUBLIC 82650 0 typeinfoproto_v2::Union::SetCachedSize(int) const
PUBLIC 82660 0 typeinfoproto_v2::MultiDimensionArray::SetCachedSize(int) const
PUBLIC 82670 0 typeinfoproto_v2::TypeInfoMessageType::ByteSizeLong() const
PUBLIC 826d0 0 typeinfoproto_v2::Enum::ByteSizeLong() const
PUBLIC 82750 0 typeinfoproto_v2::DimensionInfo::ByteSizeLong() const
PUBLIC 827f0 0 typeinfoproto_v2::PredefinedType::ByteSizeLong() const
PUBLIC 82890 0 typeinfoproto_v2::QDAArray::ByteSizeLong() const
PUBLIC 82970 0 typeinfoproto_v2::StaticArray::ByteSizeLong() const
PUBLIC 82a10 0 typeinfoproto_v2::Struct::ByteSizeLong() const
PUBLIC 82a90 0 typeinfoproto_v2::Field::ByteSizeLong() const
PUBLIC 82b10 0 typeinfoproto_v2::Union::ByteSizeLong() const
PUBLIC 82b90 0 typeinfoproto_v2::MultiDimensionArray::ByteSizeLong() const
PUBLIC 82c30 0 typeinfoproto_v2::TypeInfoMessageType::_InternalSerialize(unsigned char*, google::protobuf::io::EpsCopyOutputStream*) const
PUBLIC 82d10 0 typeinfoproto_v2::StaticArray::~StaticArray()
PUBLIC 82e40 0 typeinfoproto_v2::StaticArray::~StaticArray()
PUBLIC 82e60 0 typeinfoproto_v2::Union::~Union()
PUBLIC 82f90 0 typeinfoproto_v2::Union::~Union()
PUBLIC 82fb0 0 typeinfoproto_v2::PredefinedType::~PredefinedType()
PUBLIC 830e0 0 typeinfoproto_v2::PredefinedType::~PredefinedType()
PUBLIC 83100 0 typeinfoproto_v2::MultiDimensionArray::~MultiDimensionArray()
PUBLIC 83230 0 typeinfoproto_v2::MultiDimensionArray::~MultiDimensionArray()
PUBLIC 83250 0 typeinfoproto_v2::DimensionInfo::~DimensionInfo()
PUBLIC 83350 0 typeinfoproto_v2::DimensionInfo::~DimensionInfo()
PUBLIC 83370 0 typeinfoproto_v2::Enum::~Enum()
PUBLIC 834a0 0 typeinfoproto_v2::Enum::~Enum()
PUBLIC 834c0 0 typeinfoproto_v2::Struct::~Struct()
PUBLIC 835f0 0 typeinfoproto_v2::Struct::~Struct()
PUBLIC 83610 0 typeinfoproto_v2::TypeInfoMessageType::~TypeInfoMessageType()
PUBLIC 83710 0 typeinfoproto_v2::TypeInfoMessageType::~TypeInfoMessageType()
PUBLIC 83730 0 typeinfoproto_v2::QDAArray::~QDAArray()
PUBLIC 83860 0 typeinfoproto_v2::QDAArray::~QDAArray()
PUBLIC 83880 0 typeinfoproto_v2::Field::~Field()
PUBLIC 839b0 0 typeinfoproto_v2::Field::~Field()
PUBLIC 839d0 0 typeinfoproto_v2::DimensionInfo::_InternalSerialize(unsigned char*, google::protobuf::io::EpsCopyOutputStream*) const
PUBLIC 83bd0 0 typeinfoproto_v2::PredefinedType::_InternalSerialize(unsigned char*, google::protobuf::io::EpsCopyOutputStream*) const
PUBLIC 83e30 0 typeinfoproto_v2::Field::_InternalSerialize(unsigned char*, google::protobuf::io::EpsCopyOutputStream*) const
PUBLIC 83fe0 0 typeinfoproto_v2::Enum::_InternalSerialize(unsigned char*, google::protobuf::io::EpsCopyOutputStream*) const
PUBLIC 84180 0 typeinfoproto_v2::MultiDimensionArray::_InternalSerialize(unsigned char*, google::protobuf::io::EpsCopyOutputStream*) const
PUBLIC 843a0 0 typeinfoproto_v2::StaticArray::_InternalSerialize(unsigned char*, google::protobuf::io::EpsCopyOutputStream*) const
PUBLIC 845c0 0 typeinfoproto_v2::QDAArray::_InternalSerialize(unsigned char*, google::protobuf::io::EpsCopyOutputStream*) const
PUBLIC 848d0 0 typeinfoproto_v2::Union::_InternalSerialize(unsigned char*, google::protobuf::io::EpsCopyOutputStream*) const
PUBLIC 84ab0 0 typeinfoproto_v2::Struct::_InternalSerialize(unsigned char*, google::protobuf::io::EpsCopyOutputStream*) const
PUBLIC 84c90 0 typeinfoproto_v2::TypeInfoMessageType_Type_descriptor()
PUBLIC 84cb0 0 typeinfoproto_v2::TypeInfoMessageType_Type_IsValid(int)
PUBLIC 84cc0 0 typeinfoproto_v2::PredefinedType_Type_descriptor()
PUBLIC 84ce0 0 typeinfoproto_v2::PredefinedType_Type_IsValid(int)
PUBLIC 84cf0 0 typeinfoproto_v2::QDAArray_Type_descriptor()
PUBLIC 84d10 0 typeinfoproto_v2::QDAArray_Type_IsValid(int)
PUBLIC 84d20 0 typeinfoproto_v2::ClassHandle_Type_descriptor()
PUBLIC 84d40 0 typeinfoproto_v2::ClassHandle_Type_IsValid(int)
PUBLIC 84d50 0 typeinfoproto_v2::TypeInfoMessageType::InitAsDefaultInstance()
PUBLIC 84d60 0 typeinfoproto_v2::TypeInfoMessageType::TypeInfoMessageType(google::protobuf::Arena*)
PUBLIC 84d80 0 InitDefaultsscc_info_TypeInfoMessageType_typeinfo_5fv2_2eproto()
PUBLIC 84dc0 0 typeinfoproto_v2::TypeInfoMessageType::ArenaDtor(void*)
PUBLIC 84dd0 0 typeinfoproto_v2::TypeInfoMessageType::default_instance()
PUBLIC 84e00 0 typeinfoproto_v2::Enum::InitAsDefaultInstance()
PUBLIC 84e10 0 typeinfoproto_v2::Enum::Enum(google::protobuf::Arena*)
PUBLIC 84e60 0 InitDefaultsscc_info_Enum_typeinfo_5fv2_2eproto()
PUBLIC 84ea0 0 typeinfoproto_v2::Enum::ArenaDtor(void*)
PUBLIC 84eb0 0 typeinfoproto_v2::Enum::default_instance()
PUBLIC 84ee0 0 typeinfoproto_v2::EnumFieldInfo::InitAsDefaultInstance()
PUBLIC 84f00 0 typeinfoproto_v2::EnumFieldInfo::_Internal::value(typeinfoproto_v2::EnumFieldInfo const*)
PUBLIC 84f10 0 typeinfoproto_v2::EnumFieldInfo::EnumFieldInfo(google::protobuf::Arena*)
PUBLIC 84f60 0 InitDefaultsscc_info_EnumFieldInfo_typeinfo_5fv2_2eproto()
PUBLIC 84fa0 0 typeinfoproto_v2::EnumFieldInfo::ArenaDtor(void*)
PUBLIC 84fb0 0 typeinfoproto_v2::EnumFieldInfo::default_instance()
PUBLIC 84fe0 0 typeinfoproto_v2::DimensionInfo::InitAsDefaultInstance()
PUBLIC 84ff0 0 typeinfoproto_v2::DimensionInfo::DimensionInfo(google::protobuf::Arena*)
PUBLIC 85020 0 InitDefaultsscc_info_DimensionInfo_typeinfo_5fv2_2eproto()
PUBLIC 85060 0 typeinfoproto_v2::DimensionInfo::ArenaDtor(void*)
PUBLIC 85070 0 typeinfoproto_v2::DimensionInfo::default_instance()
PUBLIC 850a0 0 typeinfoproto_v2::PredefinedType::InitAsDefaultInstance()
PUBLIC 850b0 0 typeinfoproto_v2::PredefinedType::PredefinedType(google::protobuf::Arena*)
PUBLIC 85110 0 InitDefaultsscc_info_PredefinedType_typeinfo_5fv2_2eproto()
PUBLIC 85150 0 typeinfoproto_v2::PredefinedType::ArenaDtor(void*)
PUBLIC 85160 0 typeinfoproto_v2::PredefinedType::default_instance()
PUBLIC 85190 0 typeinfoproto_v2::QDAArray::InitAsDefaultInstance()
PUBLIC 851a0 0 typeinfoproto_v2::QDAArray::QDAArray(google::protobuf::Arena*)
PUBLIC 85200 0 InitDefaultsscc_info_QDAArray_typeinfo_5fv2_2eproto()
PUBLIC 85240 0 typeinfoproto_v2::QDAArray::ArenaDtor(void*)
PUBLIC 85250 0 typeinfoproto_v2::QDAArray::default_instance()
PUBLIC 85280 0 typeinfoproto_v2::ClassHandle::InitAsDefaultInstance()
PUBLIC 852a0 0 typeinfoproto_v2::ClassHandle::_Internal::namedblockid(typeinfoproto_v2::ClassHandle const*)
PUBLIC 852b0 0 typeinfoproto_v2::ClassHandle::_Internal::classhandleid(typeinfoproto_v2::ClassHandle const*)
PUBLIC 852c0 0 typeinfoproto_v2::ClassHandle::ClassHandle(google::protobuf::Arena*)
PUBLIC 85320 0 InitDefaultsscc_info_ClassHandle_typeinfo_5fv2_2eproto()
PUBLIC 85360 0 typeinfoproto_v2::ClassHandle::ArenaDtor(void*)
PUBLIC 85370 0 typeinfoproto_v2::ClassHandle::default_instance()
PUBLIC 853a0 0 typeinfoproto_v2::VirtualInterface::InitAsDefaultInstance()
PUBLIC 853c0 0 typeinfoproto_v2::VirtualInterface::_Internal::namedblockid(typeinfoproto_v2::VirtualInterface const*)
PUBLIC 853d0 0 typeinfoproto_v2::VirtualInterface::_Internal::virtualinterfaceid(typeinfoproto_v2::VirtualInterface const*)
PUBLIC 853e0 0 typeinfoproto_v2::VirtualInterface::VirtualInterface(google::protobuf::Arena*)
PUBLIC 85430 0 InitDefaultsscc_info_VirtualInterface_typeinfo_5fv2_2eproto()
PUBLIC 85470 0 typeinfoproto_v2::VirtualInterface::ArenaDtor(void*)
PUBLIC 85480 0 typeinfoproto_v2::VirtualInterface::default_instance()
PUBLIC 854b0 0 typeinfoproto_v2::StaticArray::InitAsDefaultInstance()
PUBLIC 854c0 0 typeinfoproto_v2::StaticArray::StaticArray(google::protobuf::Arena*)
PUBLIC 85510 0 InitDefaultsscc_info_StaticArray_typeinfo_5fv2_2eproto()
PUBLIC 85550 0 typeinfoproto_v2::StaticArray::ArenaDtor(void*)
PUBLIC 85560 0 typeinfoproto_v2::StaticArray::default_instance()
PUBLIC 85590 0 typeinfoproto_v2::Struct::InitAsDefaultInstance()
PUBLIC 855a0 0 typeinfoproto_v2::Struct::Struct(google::protobuf::Arena*)
PUBLIC 855f0 0 InitDefaultsscc_info_Struct_typeinfo_5fv2_2eproto()
PUBLIC 85630 0 typeinfoproto_v2::Struct::ArenaDtor(void*)
PUBLIC 85640 0 typeinfoproto_v2::Struct::default_instance()
PUBLIC 85670 0 typeinfoproto_v2::Field::InitAsDefaultInstance()
PUBLIC 85680 0 typeinfoproto_v2::Field::Field(google::protobuf::Arena*)
PUBLIC 856d0 0 InitDefaultsscc_info_Field_typeinfo_5fv2_2eproto()
PUBLIC 85710 0 typeinfoproto_v2::Field::ArenaDtor(void*)
PUBLIC 85720 0 typeinfoproto_v2::Field::default_instance()
PUBLIC 85750 0 typeinfoproto_v2::Union::InitAsDefaultInstance()
PUBLIC 85760 0 typeinfoproto_v2::Union::Union(google::protobuf::Arena*)
PUBLIC 857b0 0 InitDefaultsscc_info_Union_typeinfo_5fv2_2eproto()
PUBLIC 857f0 0 typeinfoproto_v2::Union::ArenaDtor(void*)
PUBLIC 85800 0 typeinfoproto_v2::Union::default_instance()
PUBLIC 85830 0 typeinfoproto_v2::MultiDimensionArray::InitAsDefaultInstance()
PUBLIC 85840 0 typeinfoproto_v2::MultiDimensionArray::MultiDimensionArray(google::protobuf::Arena*)
PUBLIC 85890 0 InitDefaultsscc_info_MultiDimensionArray_typeinfo_5fv2_2eproto()
PUBLIC 858d0 0 typeinfoproto_v2::MultiDimensionArray::ArenaDtor(void*)
PUBLIC 858e0 0 typeinfoproto_v2::MultiDimensionArray::default_instance()
PUBLIC 85910 0 typeinfoproto_v2::TypeInfoMessageType* google::protobuf::Arena::CreateMaybeMessage<typeinfoproto_v2::TypeInfoMessageType>(google::protobuf::Arena*)
PUBLIC 85990 0 typeinfoproto_v2::Enum* google::protobuf::Arena::CreateMaybeMessage<typeinfoproto_v2::Enum>(google::protobuf::Arena*)
PUBLIC 85a10 0 typeinfoproto_v2::EnumFieldInfo* google::protobuf::Arena::CreateMaybeMessage<typeinfoproto_v2::EnumFieldInfo>(google::protobuf::Arena*)
PUBLIC 85a90 0 typeinfoproto_v2::DimensionInfo* google::protobuf::Arena::CreateMaybeMessage<typeinfoproto_v2::DimensionInfo>(google::protobuf::Arena*)
PUBLIC 85b10 0 typeinfoproto_v2::PredefinedType* google::protobuf::Arena::CreateMaybeMessage<typeinfoproto_v2::PredefinedType>(google::protobuf::Arena*)
PUBLIC 85b90 0 typeinfoproto_v2::QDAArray* google::protobuf::Arena::CreateMaybeMessage<typeinfoproto_v2::QDAArray>(google::protobuf::Arena*)
PUBLIC 85c10 0 typeinfoproto_v2::ClassHandle* google::protobuf::Arena::CreateMaybeMessage<typeinfoproto_v2::ClassHandle>(google::protobuf::Arena*)
PUBLIC 85c90 0 typeinfoproto_v2::VirtualInterface* google::protobuf::Arena::CreateMaybeMessage<typeinfoproto_v2::VirtualInterface>(google::protobuf::Arena*)
PUBLIC 85d10 0 typeinfoproto_v2::StaticArray* google::protobuf::Arena::CreateMaybeMessage<typeinfoproto_v2::StaticArray>(google::protobuf::Arena*)
PUBLIC 85d90 0 typeinfoproto_v2::Struct* google::protobuf::Arena::CreateMaybeMessage<typeinfoproto_v2::Struct>(google::protobuf::Arena*)
PUBLIC 85e10 0 typeinfoproto_v2::Field* google::protobuf::Arena::CreateMaybeMessage<typeinfoproto_v2::Field>(google::protobuf::Arena*)
PUBLIC 85e90 0 typeinfoproto_v2::Union* google::protobuf::Arena::CreateMaybeMessage<typeinfoproto_v2::Union>(google::protobuf::Arena*)
PUBLIC 85f10 0 typeinfoproto_v2::MultiDimensionArray* google::protobuf::Arena::CreateMaybeMessage<typeinfoproto_v2::MultiDimensionArray>(google::protobuf::Arena*)
PUBLIC 85f90 0 typeinfoproto_v2::TypeInfoMessageType::_InternalParse(char const*, google::protobuf::internal::ParseContext*)
PUBLIC 861c0 0 typeinfoproto_v2::DimensionInfo::_InternalParse(char const*, google::protobuf::internal::ParseContext*)
PUBLIC 86540 0 typeinfoproto_v2::ClassHandle::MergeFrom(typeinfoproto_v2::ClassHandle const&)
PUBLIC 86760 0 typeinfoproto_v2::ClassHandle::MergeFrom(google::protobuf::Message const&)
PUBLIC 86840 0 typeinfoproto_v2::PredefinedType::InternalSwap(typeinfoproto_v2::PredefinedType*)
PUBLIC 86980 0 typeinfoproto_v2::Enum::_InternalParse(char const*, google::protobuf::internal::ParseContext*)
PUBLIC 86d70 0 typeinfoproto_v2::PredefinedType::_InternalParse(char const*, google::protobuf::internal::ParseContext*)
PUBLIC 871c0 0 typeinfoproto_v2::QDAArray::_InternalParse(char const*, google::protobuf::internal::ParseContext*)
PUBLIC 875a0 0 typeinfoproto_v2::StaticArray::_InternalParse(char const*, google::protobuf::internal::ParseContext*)
PUBLIC 87990 0 typeinfoproto_v2::Struct::_InternalParse(char const*, google::protobuf::internal::ParseContext*)
PUBLIC 87df0 0 typeinfoproto_v2::Field::_InternalParse(char const*, google::protobuf::internal::ParseContext*)
PUBLIC 880e0 0 typeinfoproto_v2::Union::_InternalParse(char const*, google::protobuf::internal::ParseContext*)
PUBLIC 88540 0 typeinfoproto_v2::MultiDimensionArray::_InternalParse(char const*, google::protobuf::internal::ParseContext*)
PUBLIC 88930 0 typeinfoproto_v2::TypeInfoMessageType::Clear()
PUBLIC 88960 0 typeinfoproto_v2::TypeInfoMessageType::InternalSwap(typeinfoproto_v2::TypeInfoMessageType*)
PUBLIC 88a10 0 typeinfoproto_v2::DimensionInfo::InternalSwap(typeinfoproto_v2::DimensionInfo*)
PUBLIC 88ad0 0 typeinfoproto_v2::DimensionInfo::Clear()
PUBLIC 88b10 0 typeinfoproto_v2::Field::Clear()
PUBLIC 88b60 0 typeinfoproto_v2::Union::InternalSwap(typeinfoproto_v2::Union*)
PUBLIC 88c90 0 typeinfoproto_v2::Struct::InternalSwap(typeinfoproto_v2::Struct*)
PUBLIC 88dc0 0 typeinfoproto_v2::PredefinedType::Clear()
PUBLIC 88e20 0 typeinfoproto_v2::MultiDimensionArray::Clear()
PUBLIC 88e70 0 typeinfoproto_v2::QDAArray::Clear()
PUBLIC 88ec0 0 typeinfoproto_v2::StaticArray::Clear()
PUBLIC 88f10 0 typeinfoproto_v2::Union::Clear()
PUBLIC 88f60 0 typeinfoproto_v2::Struct::Clear()
PUBLIC 88fb0 0 typeinfoproto_v2::Enum::Clear()
PUBLIC 89000 0 typeinfoproto_v2::Field::InternalSwap(typeinfoproto_v2::Field*)
PUBLIC 89130 0 typeinfoproto_v2::VirtualInterface::InternalSwap(typeinfoproto_v2::VirtualInterface*)
PUBLIC 89270 0 typeinfoproto_v2::EnumFieldInfo::InternalSwap(typeinfoproto_v2::EnumFieldInfo*)
PUBLIC 893a0 0 typeinfoproto_v2::ClassHandle::InternalSwap(typeinfoproto_v2::ClassHandle*)
PUBLIC 894e0 0 typeinfoproto_v2::Enum::InternalSwap(typeinfoproto_v2::Enum*)
PUBLIC 89610 0 typeinfoproto_v2::MultiDimensionArray::InternalSwap(typeinfoproto_v2::MultiDimensionArray*)
PUBLIC 89740 0 typeinfoproto_v2::StaticArray::InternalSwap(typeinfoproto_v2::StaticArray*)
PUBLIC 89870 0 typeinfoproto_v2::QDAArray::InternalSwap(typeinfoproto_v2::QDAArray*)
PUBLIC 899a0 0 typeinfoproto_v2::TypeInfoMessageType::TypeInfoMessageType(typeinfoproto_v2::TypeInfoMessageType const&)
PUBLIC 89a30 0 typeinfoproto_v2::DimensionInfo::DimensionInfo(typeinfoproto_v2::DimensionInfo const&)
PUBLIC 89ac0 0 typeinfoproto_v2::Union::Union(typeinfoproto_v2::Union const&)
PUBLIC 89ba0 0 typeinfoproto_v2::Struct::Struct(typeinfoproto_v2::Struct const&)
PUBLIC 89c80 0 typeinfoproto_v2::Field::Field(typeinfoproto_v2::Field const&)
PUBLIC 89d60 0 typeinfoproto_v2::MultiDimensionArray::MultiDimensionArray(typeinfoproto_v2::MultiDimensionArray const&)
PUBLIC 89e40 0 typeinfoproto_v2::QDAArray::QDAArray(typeinfoproto_v2::QDAArray const&)
PUBLIC 89f20 0 typeinfoproto_v2::PredefinedType::PredefinedType(typeinfoproto_v2::PredefinedType const&)
PUBLIC 8a000 0 typeinfoproto_v2::StaticArray::StaticArray(typeinfoproto_v2::StaticArray const&)
PUBLIC 8a0e0 0 typeinfoproto_v2::Enum::Enum(typeinfoproto_v2::Enum const&)
PUBLIC 8a1c0 0 typeinfoproto_v2::TypeInfoMessageType::MergeFrom(typeinfoproto_v2::TypeInfoMessageType const&)
PUBLIC 8a2b0 0 typeinfoproto_v2::TypeInfoMessageType::CopyFrom(typeinfoproto_v2::TypeInfoMessageType const&)
PUBLIC 8a2f0 0 typeinfoproto_v2::TypeInfoMessageType::MergeFrom(google::protobuf::Message const&)
PUBLIC 8a3d0 0 typeinfoproto_v2::TypeInfoMessageType::CopyFrom(google::protobuf::Message const&)
PUBLIC 8a410 0 typeinfoproto_v2::Field::MergeFrom(typeinfoproto_v2::Field const&)
PUBLIC 8a570 0 typeinfoproto_v2::Field::MergeFrom(google::protobuf::Message const&)
PUBLIC 8a650 0 typeinfoproto_v2::Field::CopyFrom(google::protobuf::Message const&)
PUBLIC 8a690 0 typeinfoproto_v2::Field::CopyFrom(typeinfoproto_v2::Field const&)
PUBLIC 8a6d0 0 typeinfoproto_v2::EnumFieldInfo::EnumFieldInfo(typeinfoproto_v2::EnumFieldInfo const&)
PUBLIC 8a7f0 0 typeinfoproto_v2::QDAArray::MergeFrom(typeinfoproto_v2::QDAArray const&)
PUBLIC 8a960 0 typeinfoproto_v2::QDAArray::MergeFrom(google::protobuf::Message const&)
PUBLIC 8aa40 0 typeinfoproto_v2::QDAArray::CopyFrom(google::protobuf::Message const&)
PUBLIC 8aa80 0 typeinfoproto_v2::QDAArray::CopyFrom(typeinfoproto_v2::QDAArray const&)
PUBLIC 8aac0 0 typeinfoproto_v2::MultiDimensionArray::MergeFrom(typeinfoproto_v2::MultiDimensionArray const&)
PUBLIC 8ac30 0 typeinfoproto_v2::MultiDimensionArray::MergeFrom(google::protobuf::Message const&)
PUBLIC 8ad10 0 typeinfoproto_v2::MultiDimensionArray::CopyFrom(google::protobuf::Message const&)
PUBLIC 8ad50 0 typeinfoproto_v2::MultiDimensionArray::CopyFrom(typeinfoproto_v2::MultiDimensionArray const&)
PUBLIC 8ad90 0 typeinfoproto_v2::StaticArray::MergeFrom(typeinfoproto_v2::StaticArray const&)
PUBLIC 8af00 0 typeinfoproto_v2::StaticArray::MergeFrom(google::protobuf::Message const&)
PUBLIC 8afe0 0 typeinfoproto_v2::StaticArray::CopyFrom(google::protobuf::Message const&)
PUBLIC 8b020 0 typeinfoproto_v2::StaticArray::CopyFrom(typeinfoproto_v2::StaticArray const&)
PUBLIC 8b060 0 typeinfoproto_v2::Enum::MergeFrom(typeinfoproto_v2::Enum const&)
PUBLIC 8b1d0 0 typeinfoproto_v2::Enum::MergeFrom(google::protobuf::Message const&)
PUBLIC 8b2b0 0 typeinfoproto_v2::Enum::CopyFrom(google::protobuf::Message const&)
PUBLIC 8b2f0 0 typeinfoproto_v2::Enum::CopyFrom(typeinfoproto_v2::Enum const&)
PUBLIC 8b330 0 typeinfoproto_v2::DimensionInfo::MergeFrom(typeinfoproto_v2::DimensionInfo const&)
PUBLIC 8b450 0 typeinfoproto_v2::DimensionInfo::CopyFrom(typeinfoproto_v2::DimensionInfo const&)
PUBLIC 8b490 0 typeinfoproto_v2::DimensionInfo::MergeFrom(google::protobuf::Message const&)
PUBLIC 8b570 0 typeinfoproto_v2::DimensionInfo::CopyFrom(google::protobuf::Message const&)
PUBLIC 8b5b0 0 typeinfoproto_v2::EnumFieldInfo::MergeFrom(typeinfoproto_v2::EnumFieldInfo const&)
PUBLIC 8b760 0 typeinfoproto_v2::EnumFieldInfo::MergeFrom(google::protobuf::Message const&)
PUBLIC 8b840 0 typeinfoproto_v2::PredefinedType::MergeFrom(typeinfoproto_v2::PredefinedType const&)
PUBLIC 8b9c0 0 typeinfoproto_v2::PredefinedType::MergeFrom(google::protobuf::Message const&)
PUBLIC 8baa0 0 typeinfoproto_v2::PredefinedType::CopyFrom(google::protobuf::Message const&)
PUBLIC 8bae0 0 typeinfoproto_v2::PredefinedType::CopyFrom(typeinfoproto_v2::PredefinedType const&)
PUBLIC 8bb20 0 typeinfoproto_v2::Struct::MergeFrom(typeinfoproto_v2::Struct const&)
PUBLIC 8bca0 0 typeinfoproto_v2::Struct::MergeFrom(google::protobuf::Message const&)
PUBLIC 8bd80 0 typeinfoproto_v2::Struct::CopyFrom(google::protobuf::Message const&)
PUBLIC 8bdc0 0 typeinfoproto_v2::Struct::CopyFrom(typeinfoproto_v2::Struct const&)
PUBLIC 8be00 0 typeinfoproto_v2::Union::MergeFrom(typeinfoproto_v2::Union const&)
PUBLIC 8bf80 0 typeinfoproto_v2::Union::MergeFrom(google::protobuf::Message const&)
PUBLIC 8c060 0 typeinfoproto_v2::Union::CopyFrom(google::protobuf::Message const&)
PUBLIC 8c0a0 0 typeinfoproto_v2::Union::CopyFrom(typeinfoproto_v2::Union const&)
PUBLIC 8c0e0 0 typeinfoproto_v2::VirtualInterface::VirtualInterface(typeinfoproto_v2::VirtualInterface const&)
PUBLIC 8c260 0 typeinfoproto_v2::ClassHandle::ClassHandle(typeinfoproto_v2::ClassHandle const&)
PUBLIC 8c3e0 0 typeinfoproto_v2::VirtualInterface::MergeFrom(typeinfoproto_v2::VirtualInterface const&)
PUBLIC 8c5f0 0 typeinfoproto_v2::VirtualInterface::MergeFrom(google::protobuf::Message const&)
PUBLIC 8c6d0 0 typeinfoproto_v2::EnumFieldInfo::clear_value()
PUBLIC 8c720 0 typeinfoproto_v2::EnumFieldInfo::~EnumFieldInfo()
PUBLIC 8c860 0 typeinfoproto_v2::EnumFieldInfo::~EnumFieldInfo()
PUBLIC 8c880 0 typeinfoproto_v2::EnumFieldInfo::Clear()
PUBLIC 8c910 0 typeinfoproto_v2::EnumFieldInfo::CopyFrom(google::protobuf::Message const&)
PUBLIC 8c950 0 typeinfoproto_v2::EnumFieldInfo::CopyFrom(typeinfoproto_v2::EnumFieldInfo const&)
PUBLIC 8c990 0 typeinfoproto_v2::EnumFieldInfo::_InternalParse(char const*, google::protobuf::internal::ParseContext*)
PUBLIC 8cd70 0 typeinfoproto_v2::EnumFieldInfo::_InternalSerialize(unsigned char*, google::protobuf::io::EpsCopyOutputStream*) const
PUBLIC 8cf10 0 typeinfoproto_v2::EnumFieldInfo::ByteSizeLong() const
PUBLIC 8cfb0 0 typeinfoproto_v2::ClassHandle::clear_namedblockid()
PUBLIC 8d000 0 typeinfoproto_v2::ClassHandle::clear_classhandleid()
PUBLIC 8d050 0 typeinfoproto_v2::ClassHandle::~ClassHandle()
PUBLIC 8d1a0 0 typeinfoproto_v2::ClassHandle::~ClassHandle()
PUBLIC 8d1c0 0 typeinfoproto_v2::ClassHandle::Clear()
PUBLIC 8d2b0 0 typeinfoproto_v2::ClassHandle::CopyFrom(google::protobuf::Message const&)
PUBLIC 8d2f0 0 typeinfoproto_v2::ClassHandle::CopyFrom(typeinfoproto_v2::ClassHandle const&)
PUBLIC 8d330 0 typeinfoproto_v2::VirtualInterface::clear_namedblockid()
PUBLIC 8d380 0 typeinfoproto_v2::VirtualInterface::clear_virtualinterfaceid()
PUBLIC 8d3d0 0 typeinfoproto_v2::VirtualInterface::~VirtualInterface()
PUBLIC 8d520 0 typeinfoproto_v2::VirtualInterface::~VirtualInterface()
PUBLIC 8d540 0 typeinfoproto_v2::VirtualInterface::Clear()
PUBLIC 8d630 0 typeinfoproto_v2::VirtualInterface::CopyFrom(google::protobuf::Message const&)
PUBLIC 8d670 0 typeinfoproto_v2::VirtualInterface::CopyFrom(typeinfoproto_v2::VirtualInterface const&)
PUBLIC 8d6b0 0 typeinfoproto_v2::ClassHandle::_InternalParse(char const*, google::protobuf::internal::ParseContext*)
PUBLIC 8daa0 0 typeinfoproto_v2::VirtualInterface::_InternalParse(char const*, google::protobuf::internal::ParseContext*)
PUBLIC 8dde0 0 typeinfoproto_v2::ClassHandle::_InternalSerialize(unsigned char*, google::protobuf::io::EpsCopyOutputStream*) const
PUBLIC 8e1c0 0 typeinfoproto_v2::VirtualInterface::_InternalSerialize(unsigned char*, google::protobuf::io::EpsCopyOutputStream*) const
PUBLIC 8e430 0 typeinfoproto_v2::ClassHandle::ByteSizeLong() const
PUBLIC 8e550 0 typeinfoproto_v2::VirtualInterface::ByteSizeLong() const
PUBLIC 8e610 0 typeinfoproto_v2::MultiDimensionArray::GetCachedSize() const
PUBLIC 8e620 0 typeinfoproto_v2::Union::GetCachedSize() const
PUBLIC 8e630 0 typeinfoproto_v2::Field::GetCachedSize() const
PUBLIC 8e640 0 typeinfoproto_v2::Struct::GetCachedSize() const
PUBLIC 8e650 0 typeinfoproto_v2::StaticArray::GetCachedSize() const
PUBLIC 8e660 0 typeinfoproto_v2::VirtualInterface::GetCachedSize() const
PUBLIC 8e670 0 typeinfoproto_v2::ClassHandle::GetCachedSize() const
PUBLIC 8e680 0 typeinfoproto_v2::QDAArray::GetCachedSize() const
PUBLIC 8e690 0 typeinfoproto_v2::PredefinedType::GetCachedSize() const
PUBLIC 8e6a0 0 typeinfoproto_v2::DimensionInfo::GetCachedSize() const
PUBLIC 8e6b0 0 typeinfoproto_v2::EnumFieldInfo::GetCachedSize() const
PUBLIC 8e6c0 0 typeinfoproto_v2::Enum::GetCachedSize() const
PUBLIC 8e6d0 0 typeinfoproto_v2::TypeInfoMessageType::GetCachedSize() const
PUBLIC 8e6e0 0 typeinfoproto_v2::TypeInfoMessageType::New(google::protobuf::Arena*) const
PUBLIC 8e6f0 0 typeinfoproto_v2::TypeInfoMessageType::New() const
PUBLIC 8e700 0 typeinfoproto_v2::Enum::New(google::protobuf::Arena*) const
PUBLIC 8e710 0 typeinfoproto_v2::Enum::New() const
PUBLIC 8e720 0 typeinfoproto_v2::EnumFieldInfo::New(google::protobuf::Arena*) const
PUBLIC 8e730 0 typeinfoproto_v2::EnumFieldInfo::New() const
PUBLIC 8e740 0 typeinfoproto_v2::DimensionInfo::New(google::protobuf::Arena*) const
PUBLIC 8e750 0 typeinfoproto_v2::DimensionInfo::New() const
PUBLIC 8e760 0 typeinfoproto_v2::PredefinedType::New(google::protobuf::Arena*) const
PUBLIC 8e770 0 typeinfoproto_v2::PredefinedType::New() const
PUBLIC 8e780 0 typeinfoproto_v2::QDAArray::New(google::protobuf::Arena*) const
PUBLIC 8e790 0 typeinfoproto_v2::QDAArray::New() const
PUBLIC 8e7a0 0 typeinfoproto_v2::ClassHandle::New(google::protobuf::Arena*) const
PUBLIC 8e7b0 0 typeinfoproto_v2::ClassHandle::New() const
PUBLIC 8e7c0 0 typeinfoproto_v2::VirtualInterface::New(google::protobuf::Arena*) const
PUBLIC 8e7d0 0 typeinfoproto_v2::VirtualInterface::New() const
PUBLIC 8e7e0 0 typeinfoproto_v2::StaticArray::New(google::protobuf::Arena*) const
PUBLIC 8e7f0 0 typeinfoproto_v2::StaticArray::New() const
PUBLIC 8e800 0 typeinfoproto_v2::Struct::New(google::protobuf::Arena*) const
PUBLIC 8e810 0 typeinfoproto_v2::Struct::New() const
PUBLIC 8e820 0 typeinfoproto_v2::Field::New(google::protobuf::Arena*) const
PUBLIC 8e830 0 typeinfoproto_v2::Field::New() const
PUBLIC 8e840 0 typeinfoproto_v2::Union::New(google::protobuf::Arena*) const
PUBLIC 8e850 0 typeinfoproto_v2::Union::New() const
PUBLIC 8e860 0 typeinfoproto_v2::MultiDimensionArray::New(google::protobuf::Arena*) const
PUBLIC 8e870 0 typeinfoproto_v2::MultiDimensionArray::New() const
PUBLIC 8e880 0 hegproto_v2::IndexedExpression::IsInitialized() const
PUBLIC 8e890 0 hegproto_v2::Variable::GetMetadata() const
PUBLIC 8e8b0 0 hegproto_v2::Constant::GetMetadata() const
PUBLIC 8e8d0 0 hegproto_v2::Parameter::GetMetadata() const
PUBLIC 8e8f0 0 hegproto_v2::UnhandledType::GetMetadata() const
PUBLIC 8e910 0 hegproto_v2::ElemRef::GetMetadata() const
PUBLIC 8e930 0 hegproto_v2::Block::GetMetadata() const
PUBLIC 8e950 0 hegproto_v2::EventCtrlStmt::GetMetadata() const
PUBLIC 8e970 0 hegproto_v2::EventExpression::GetMetadata() const
PUBLIC 8e990 0 hegproto_v2::AlwaysConstruct::GetMetadata() const
PUBLIC 8e9c0 0 hegproto_v2::Assign::GetMetadata() const
PUBLIC 8e9f0 0 hegproto_v2::ConditionalStmt::GetMetadata() const
PUBLIC 8ea20 0 hegproto_v2::BinaryOperator::GetMetadata() const
PUBLIC 8ea50 0 hegproto_v2::UnaryOperator::GetMetadata() const
PUBLIC 8ea80 0 hegproto_v2::ModuleInstantiation::GetMetadata() const
PUBLIC 8eab0 0 hegproto_v2::InstantiationInfo::GetMetadata() const
PUBLIC 8eae0 0 hegproto_v2::PortDecl::GetMetadata() const
PUBLIC 8eb10 0 hegproto_v2::IndexedExpression::GetMetadata() const
PUBLIC 8eb40 0 hegproto_v2::DimensionInfo::GetMetadata() const
PUBLIC 8eb70 0 hegproto_v2::NamePrefix::GetMetadata() const
PUBLIC 8eba0 0 hegproto_v2::Module::GetMetadata() const
PUBLIC 8ebd0 0 hegproto_v2::UnhandledConstruct::GetMetadata() const
PUBLIC 8ec00 0 hegproto_v2::Data::GetMetadata() const
PUBLIC 8ec30 0 hegproto_v2::SourceChunk::GetMetadata() const
PUBLIC 8ec60 0 hegproto_v2::IncludeRef::GetMetadata() const
PUBLIC 8ec90 0 hegproto_v2::MacroElement::GetMetadata() const
PUBLIC 8ecc0 0 hegproto_v2::MacroArg::GetMetadata() const
PUBLIC 8ecf0 0 hegproto_v2::MacroRef::GetMetadata() const
PUBLIC 8ed20 0 hegproto_v2::MacroDefinition::GetMetadata() const
PUBLIC 8ed50 0 hegproto_v2::TextRef::GetMetadata() const
PUBLIC 8ed80 0 hegproto_v2::Variable::SetCachedSize(int) const
PUBLIC 8ed90 0 hegproto_v2::Constant::SetCachedSize(int) const
PUBLIC 8eda0 0 hegproto_v2::Parameter::SetCachedSize(int) const
PUBLIC 8edb0 0 hegproto_v2::UnhandledType::SetCachedSize(int) const
PUBLIC 8edc0 0 hegproto_v2::ElemRef::SetCachedSize(int) const
PUBLIC 8edd0 0 hegproto_v2::Block::SetCachedSize(int) const
PUBLIC 8ede0 0 hegproto_v2::EventCtrlStmt::SetCachedSize(int) const
PUBLIC 8edf0 0 hegproto_v2::EventExpression::SetCachedSize(int) const
PUBLIC 8ee00 0 hegproto_v2::AlwaysConstruct::SetCachedSize(int) const
PUBLIC 8ee10 0 hegproto_v2::Assign::SetCachedSize(int) const
PUBLIC 8ee20 0 hegproto_v2::ConditionalStmt::SetCachedSize(int) const
PUBLIC 8ee30 0 hegproto_v2::BinaryOperator::SetCachedSize(int) const
PUBLIC 8ee40 0 hegproto_v2::UnaryOperator::SetCachedSize(int) const
PUBLIC 8ee50 0 hegproto_v2::ModuleInstantiation::SetCachedSize(int) const
PUBLIC 8ee60 0 hegproto_v2::InstantiationInfo::SetCachedSize(int) const
PUBLIC 8ee70 0 hegproto_v2::PortDecl::SetCachedSize(int) const
PUBLIC 8ee80 0 hegproto_v2::IndexedExpression::SetCachedSize(int) const
PUBLIC 8ee90 0 hegproto_v2::DimensionInfo::SetCachedSize(int) const
PUBLIC 8eea0 0 hegproto_v2::NamePrefix::SetCachedSize(int) const
PUBLIC 8eeb0 0 hegproto_v2::Module::SetCachedSize(int) const
PUBLIC 8eec0 0 hegproto_v2::UnhandledConstruct::SetCachedSize(int) const
PUBLIC 8eed0 0 hegproto_v2::Data::SetCachedSize(int) const
PUBLIC 8eee0 0 hegproto_v2::SourceChunk::SetCachedSize(int) const
PUBLIC 8eef0 0 hegproto_v2::IncludeRef::SetCachedSize(int) const
PUBLIC 8ef00 0 hegproto_v2::MacroElement::SetCachedSize(int) const
PUBLIC 8ef10 0 hegproto_v2::MacroArg::SetCachedSize(int) const
PUBLIC 8ef20 0 hegproto_v2::MacroRef::SetCachedSize(int) const
PUBLIC 8ef30 0 hegproto_v2::MacroDefinition::SetCachedSize(int) const
PUBLIC 8ef40 0 hegproto_v2::TextRef::SetCachedSize(int) const
PUBLIC 8ef50 0 hegproto_v2::Data::ByteSizeLong() const
PUBLIC 8efb0 0 hegproto_v2::Data::_InternalSerialize(unsigned char*, google::protobuf::io::EpsCopyOutputStream*) const
PUBLIC 8f090 0 hegproto_v2::Data::~Data()
PUBLIC 8f190 0 hegproto_v2::Data::~Data()
PUBLIC 8f1b0 0 hegproto_v2::EventExpression_Type_descriptor()
PUBLIC 8f1d0 0 hegproto_v2::EventExpression_Type_IsValid(int)
PUBLIC 8f1e0 0 hegproto_v2::Assign_Type_descriptor()
PUBLIC 8f200 0 hegproto_v2::Assign_Type_IsValid(int)
PUBLIC 8f210 0 hegproto_v2::ConditionalStmt_Type_descriptor()
PUBLIC 8f230 0 hegproto_v2::ConditionalStmt_Type_IsValid(int)
PUBLIC 8f240 0 hegproto_v2::BinaryOperator_Type_descriptor()
PUBLIC 8f260 0 hegproto_v2::BinaryOperator_Type_IsValid(int)
PUBLIC 8f270 0 hegproto_v2::UnaryOperator_Type_descriptor()
PUBLIC 8f290 0 hegproto_v2::UnaryOperator_Type_IsValid(int)
PUBLIC 8f2a0 0 hegproto_v2::PortDecl_Direction_descriptor()
PUBLIC 8f2c0 0 hegproto_v2::PortDecl_Direction_IsValid(int)
PUBLIC 8f2d0 0 hegproto_v2::Data_Type_descriptor()
PUBLIC 8f2f0 0 hegproto_v2::Data_Type_IsValid(int)
PUBLIC 8f300 0 hegproto_v2::MacroElement_Type_descriptor()
PUBLIC 8f320 0 hegproto_v2::MacroElement_Type_IsValid(int)
PUBLIC 8f330 0 hegproto_v2::Variable::InitAsDefaultInstance()
PUBLIC 8f350 0 hegproto_v2::Variable::_Internal::id(hegproto_v2::Variable const*)
PUBLIC 8f360 0 hegproto_v2::Variable::_Internal::srclocid(hegproto_v2::Variable const*)
PUBLIC 8f370 0 hegproto_v2::Variable::Variable(google::protobuf::Arena*)
PUBLIC 8f3c0 0 InitDefaultsscc_info_Variable_hegdb_5fv2_2eproto()
PUBLIC 8f400 0 hegproto_v2::Variable::ArenaDtor(void*)
PUBLIC 8f410 0 hegproto_v2::Variable::default_instance()
PUBLIC 8f440 0 hegproto_v2::Constant::InitAsDefaultInstance()
PUBLIC 8f460 0 hegproto_v2::Constant::_Internal::id(hegproto_v2::Constant const*)
PUBLIC 8f470 0 hegproto_v2::Constant::_Internal::srclocid(hegproto_v2::Constant const*)
PUBLIC 8f480 0 hegproto_v2::Constant::Constant(google::protobuf::Arena*)
PUBLIC 8f4d0 0 InitDefaultsscc_info_Constant_hegdb_5fv2_2eproto()
PUBLIC 8f510 0 hegproto_v2::Constant::ArenaDtor(void*)
PUBLIC 8f520 0 hegproto_v2::Constant::default_instance()
PUBLIC 8f550 0 hegproto_v2::Parameter::InitAsDefaultInstance()
PUBLIC 8f570 0 hegproto_v2::Parameter::_Internal::id(hegproto_v2::Parameter const*)
PUBLIC 8f580 0 hegproto_v2::Parameter::_Internal::srclocid(hegproto_v2::Parameter const*)
PUBLIC 8f590 0 hegproto_v2::Parameter::Parameter(google::protobuf::Arena*)
PUBLIC 8f5e0 0 InitDefaultsscc_info_Parameter_hegdb_5fv2_2eproto()
PUBLIC 8f620 0 hegproto_v2::Parameter::ArenaDtor(void*)
PUBLIC 8f630 0 hegproto_v2::Parameter::default_instance()
PUBLIC 8f660 0 hegproto_v2::UnhandledType::InitAsDefaultInstance()
PUBLIC 8f680 0 hegproto_v2::UnhandledType::_Internal::id(hegproto_v2::UnhandledType const*)
PUBLIC 8f690 0 hegproto_v2::UnhandledType::_Internal::srclocid(hegproto_v2::UnhandledType const*)
PUBLIC 8f6a0 0 hegproto_v2::UnhandledType::UnhandledType(google::protobuf::Arena*)
PUBLIC 8f6f0 0 InitDefaultsscc_info_UnhandledType_hegdb_5fv2_2eproto()
PUBLIC 8f730 0 hegproto_v2::UnhandledType::ArenaDtor(void*)
PUBLIC 8f740 0 hegproto_v2::UnhandledType::default_instance()
PUBLIC 8f770 0 hegproto_v2::ElemRef::InitAsDefaultInstance()
PUBLIC 8f7a0 0 hegproto_v2::ElemRef::_Internal::id(hegproto_v2::ElemRef const*)
PUBLIC 8f7b0 0 hegproto_v2::ElemRef::_Internal::elemid(hegproto_v2::ElemRef const*)
PUBLIC 8f7c0 0 hegproto_v2::ElemRef::_Internal::srclocid(hegproto_v2::ElemRef const*)
PUBLIC 8f7d0 0 hegproto_v2::ElemRef::ElemRef(google::protobuf::Arena*)
PUBLIC 8f820 0 InitDefaultsscc_info_ElemRef_hegdb_5fv2_2eproto()
PUBLIC 8f860 0 hegproto_v2::ElemRef::ArenaDtor(void*)
PUBLIC 8f870 0 hegproto_v2::ElemRef::default_instance()
PUBLIC 8f8a0 0 hegproto_v2::Block::InitAsDefaultInstance()
PUBLIC 8f8c0 0 hegproto_v2::Block::_Internal::id(hegproto_v2::Block const*)
PUBLIC 8f8d0 0 hegproto_v2::Block::_Internal::srclocid(hegproto_v2::Block const*)
PUBLIC 8f8e0 0 hegproto_v2::Block::ArenaDtor(void*)
PUBLIC 8f8f0 0 hegproto_v2::Block::default_instance()
PUBLIC 8f920 0 hegproto_v2::EventCtrlStmt::InitAsDefaultInstance()
PUBLIC 8f950 0 hegproto_v2::EventCtrlStmt::_Internal::id(hegproto_v2::EventCtrlStmt const*)
PUBLIC 8f960 0 hegproto_v2::EventCtrlStmt::_Internal::stmtrefid(hegproto_v2::EventCtrlStmt const*)
PUBLIC 8f970 0 hegproto_v2::EventCtrlStmt::_Internal::srclocid(hegproto_v2::EventCtrlStmt const*)
PUBLIC 8f980 0 hegproto_v2::EventCtrlStmt::ArenaDtor(void*)
PUBLIC 8f990 0 hegproto_v2::EventCtrlStmt::default_instance()
PUBLIC 8f9c0 0 hegproto_v2::EventExpression::InitAsDefaultInstance()
PUBLIC 8f9e0 0 hegproto_v2::EventExpression::_Internal::id(hegproto_v2::EventExpression const*)
PUBLIC 8f9f0 0 hegproto_v2::EventExpression::_Internal::srclocid(hegproto_v2::EventExpression const*)
PUBLIC 8fa00 0 hegproto_v2::EventExpression::ArenaDtor(void*)
PUBLIC 8fa10 0 hegproto_v2::EventExpression::default_instance()
PUBLIC 8fa40 0 hegproto_v2::AlwaysConstruct::InitAsDefaultInstance()
PUBLIC 8fa70 0 hegproto_v2::AlwaysConstruct::_Internal::id(hegproto_v2::AlwaysConstruct const*)
PUBLIC 8fa80 0 hegproto_v2::AlwaysConstruct::_Internal::eventctrlstmtrefid(hegproto_v2::AlwaysConstruct const*)
PUBLIC 8fa90 0 hegproto_v2::AlwaysConstruct::_Internal::srclocid(hegproto_v2::AlwaysConstruct const*)
PUBLIC 8faa0 0 hegproto_v2::AlwaysConstruct::AlwaysConstruct(google::protobuf::Arena*)
PUBLIC 8faf0 0 InitDefaultsscc_info_AlwaysConstruct_hegdb_5fv2_2eproto()
PUBLIC 8fb30 0 hegproto_v2::AlwaysConstruct::ArenaDtor(void*)
PUBLIC 8fb40 0 hegproto_v2::AlwaysConstruct::default_instance()
PUBLIC 8fb70 0 hegproto_v2::Assign::InitAsDefaultInstance()
PUBLIC 8fb90 0 hegproto_v2::Assign::_Internal::id(hegproto_v2::Assign const*)
PUBLIC 8fba0 0 hegproto_v2::Assign::_Internal::lhselemrefid(hegproto_v2::Assign const*)
PUBLIC 8fbb0 0 hegproto_v2::Assign::_Internal::rhselemrefid(hegproto_v2::Assign const*)
PUBLIC 8fbc0 0 hegproto_v2::Assign::_Internal::srclocid(hegproto_v2::Assign const*)
PUBLIC 8fbd0 0 hegproto_v2::Assign::Assign(google::protobuf::Arena*)
PUBLIC 8fc20 0 InitDefaultsscc_info_Assign_hegdb_5fv2_2eproto()
PUBLIC 8fc60 0 hegproto_v2::Assign::ArenaDtor(void*)
PUBLIC 8fc70 0 hegproto_v2::Assign::default_instance()
PUBLIC 8fca0 0 hegproto_v2::ConditionalStmt::InitAsDefaultInstance()
PUBLIC 8fcd0 0 hegproto_v2::ConditionalStmt::_Internal::id(hegproto_v2::ConditionalStmt const*)
PUBLIC 8fce0 0 hegproto_v2::ConditionalStmt::_Internal::ifelemrefid(hegproto_v2::ConditionalStmt const*)
PUBLIC 8fcf0 0 hegproto_v2::ConditionalStmt::_Internal::thenelemrefid(hegproto_v2::ConditionalStmt const*)
PUBLIC 8fd00 0 hegproto_v2::ConditionalStmt::_Internal::elseelemrefid(hegproto_v2::ConditionalStmt const*)
PUBLIC 8fd10 0 hegproto_v2::ConditionalStmt::_Internal::srclocid(hegproto_v2::ConditionalStmt const*)
PUBLIC 8fd20 0 hegproto_v2::ConditionalStmt::ConditionalStmt(google::protobuf::Arena*)
PUBLIC 8fd80 0 InitDefaultsscc_info_ConditionalStmt_hegdb_5fv2_2eproto()
PUBLIC 8fdc0 0 hegproto_v2::ConditionalStmt::ArenaDtor(void*)
PUBLIC 8fdd0 0 hegproto_v2::ConditionalStmt::default_instance()
PUBLIC 8fe00 0 hegproto_v2::BinaryOperator::InitAsDefaultInstance()
PUBLIC 8fe20 0 hegproto_v2::BinaryOperator::_Internal::id(hegproto_v2::BinaryOperator const*)
PUBLIC 8fe30 0 hegproto_v2::BinaryOperator::_Internal::leftelemrefid(hegproto_v2::BinaryOperator const*)
PUBLIC 8fe40 0 hegproto_v2::BinaryOperator::_Internal::rightelemrefid(hegproto_v2::BinaryOperator const*)
PUBLIC 8fe50 0 hegproto_v2::BinaryOperator::_Internal::srclocid(hegproto_v2::BinaryOperator const*)
PUBLIC 8fe60 0 hegproto_v2::BinaryOperator::BinaryOperator(google::protobuf::Arena*)
PUBLIC 8feb0 0 InitDefaultsscc_info_BinaryOperator_hegdb_5fv2_2eproto()
PUBLIC 8fef0 0 hegproto_v2::BinaryOperator::ArenaDtor(void*)
PUBLIC 8ff00 0 hegproto_v2::BinaryOperator::default_instance()
PUBLIC 8ff30 0 hegproto_v2::UnaryOperator::InitAsDefaultInstance()
PUBLIC 8ff60 0 hegproto_v2::UnaryOperator::_Internal::id(hegproto_v2::UnaryOperator const*)
PUBLIC 8ff70 0 hegproto_v2::UnaryOperator::_Internal::operandelemrefid(hegproto_v2::UnaryOperator const*)
PUBLIC 8ff80 0 hegproto_v2::UnaryOperator::_Internal::srclocid(hegproto_v2::UnaryOperator const*)
PUBLIC 8ff90 0 hegproto_v2::UnaryOperator::UnaryOperator(google::protobuf::Arena*)
PUBLIC 8ffe0 0 InitDefaultsscc_info_UnaryOperator_hegdb_5fv2_2eproto()
PUBLIC 90020 0 hegproto_v2::UnaryOperator::ArenaDtor(void*)
PUBLIC 90030 0 hegproto_v2::UnaryOperator::default_instance()
PUBLIC 90060 0 hegproto_v2::ModuleInstantiation::InitAsDefaultInstance()
PUBLIC 90080 0 hegproto_v2::ModuleInstantiation::_Internal::id(hegproto_v2::ModuleInstantiation const*)
PUBLIC 90090 0 hegproto_v2::ModuleInstantiation::_Internal::srclocid(hegproto_v2::ModuleInstantiation const*)
PUBLIC 900a0 0 hegproto_v2::ModuleInstantiation::ArenaDtor(void*)
PUBLIC 900b0 0 hegproto_v2::ModuleInstantiation::default_instance()
PUBLIC 900e0 0 hegproto_v2::InstantiationInfo::InitAsDefaultInstance()
PUBLIC 90100 0 hegproto_v2::InstantiationInfo::_Internal::id(hegproto_v2::InstantiationInfo const*)
PUBLIC 90110 0 hegproto_v2::InstantiationInfo::_Internal::srclocid(hegproto_v2::InstantiationInfo const*)
PUBLIC 90120 0 hegproto_v2::InstantiationInfo::ArenaDtor(void*)
PUBLIC 90130 0 hegproto_v2::InstantiationInfo::default_instance()
PUBLIC 90160 0 hegproto_v2::PortDecl::InitAsDefaultInstance()
PUBLIC 90190 0 hegproto_v2::PortDecl::_Internal::id(hegproto_v2::PortDecl const*)
PUBLIC 901a0 0 hegproto_v2::PortDecl::_Internal::elemrefid(hegproto_v2::PortDecl const*)
PUBLIC 901b0 0 hegproto_v2::PortDecl::_Internal::srclocid(hegproto_v2::PortDecl const*)
PUBLIC 901c0 0 hegproto_v2::PortDecl::PortDecl(google::protobuf::Arena*)
PUBLIC 90220 0 InitDefaultsscc_info_PortDecl_hegdb_5fv2_2eproto()
PUBLIC 90260 0 hegproto_v2::PortDecl::ArenaDtor(void*)
PUBLIC 90270 0 hegproto_v2::PortDecl::default_instance()
PUBLIC 902a0 0 hegproto_v2::IndexedExpression::InitAsDefaultInstance()
PUBLIC 902d0 0 hegproto_v2::IndexedExpression::_Internal::id(hegproto_v2::IndexedExpression const*)
PUBLIC 902e0 0 hegproto_v2::IndexedExpression::_Internal::nameprefixidref(hegproto_v2::IndexedExpression const*)
PUBLIC 902f0 0 hegproto_v2::IndexedExpression::_Internal::srclocid(hegproto_v2::IndexedExpression const*)
PUBLIC 90300 0 hegproto_v2::IndexedExpression::ArenaDtor(void*)
PUBLIC 90310 0 hegproto_v2::IndexedExpression::default_instance()
PUBLIC 90340 0 hegproto_v2::DimensionInfo::InitAsDefaultInstance()
PUBLIC 90360 0 hegproto_v2::DimensionInfo::_Internal::id(hegproto_v2::DimensionInfo const*)
PUBLIC 90370 0 hegproto_v2::DimensionInfo::_Internal::srclocid(hegproto_v2::DimensionInfo const*)
PUBLIC 90380 0 hegproto_v2::DimensionInfo::DimensionInfo(google::protobuf::Arena*)
PUBLIC 903d0 0 InitDefaultsscc_info_DimensionInfo_hegdb_5fv2_2eproto()
PUBLIC 90410 0 hegproto_v2::DimensionInfo::ArenaDtor(void*)
PUBLIC 90420 0 hegproto_v2::DimensionInfo::default_instance()
PUBLIC 90450 0 hegproto_v2::NamePrefix::InitAsDefaultInstance()
PUBLIC 90470 0 hegproto_v2::NamePrefix::_Internal::id(hegproto_v2::NamePrefix const*)
PUBLIC 90480 0 hegproto_v2::NamePrefix::_Internal::nameprefixidref(hegproto_v2::NamePrefix const*)
PUBLIC 90490 0 hegproto_v2::NamePrefix::_Internal::elemrefid(hegproto_v2::NamePrefix const*)
PUBLIC 904a0 0 hegproto_v2::NamePrefix::_Internal::srclocid(hegproto_v2::NamePrefix const*)
PUBLIC 904b0 0 hegproto_v2::NamePrefix::NamePrefix(google::protobuf::Arena*)
PUBLIC 90510 0 InitDefaultsscc_info_NamePrefix_hegdb_5fv2_2eproto()
PUBLIC 90550 0 hegproto_v2::NamePrefix::ArenaDtor(void*)
PUBLIC 90560 0 hegproto_v2::NamePrefix::default_instance()
PUBLIC 90590 0 hegproto_v2::Module::InitAsDefaultInstance()
PUBLIC 905b0 0 hegproto_v2::Module::_Internal::id(hegproto_v2::Module const*)
PUBLIC 905c0 0 hegproto_v2::Module::_Internal::srclocid(hegproto_v2::Module const*)
PUBLIC 905d0 0 hegproto_v2::Module::ArenaDtor(void*)
PUBLIC 905e0 0 hegproto_v2::Module::default_instance()
PUBLIC 90610 0 hegproto_v2::UnhandledConstruct::InitAsDefaultInstance()
PUBLIC 90630 0 hegproto_v2::UnhandledConstruct::_Internal::id(hegproto_v2::UnhandledConstruct const*)
PUBLIC 90640 0 hegproto_v2::UnhandledConstruct::ArenaDtor(void*)
PUBLIC 90650 0 hegproto_v2::UnhandledConstruct::default_instance()
PUBLIC 90680 0 hegproto_v2::Data::InitAsDefaultInstance()
PUBLIC 90690 0 hegproto_v2::Data::Data(google::protobuf::Arena*)
PUBLIC 906b0 0 InitDefaultsscc_info_Data_hegdb_5fv2_2eproto()
PUBLIC 906f0 0 hegproto_v2::Data::ArenaDtor(void*)
PUBLIC 90700 0 hegproto_v2::Data::default_instance()
PUBLIC 90730 0 hegproto_v2::SourceChunk::InitAsDefaultInstance()
PUBLIC 90750 0 hegproto_v2::SourceChunk::_Internal::filenodeid(hegproto_v2::SourceChunk const*)
PUBLIC 90760 0 hegproto_v2::SourceChunk::SourceChunk(google::protobuf::Arena*)
PUBLIC 907b0 0 InitDefaultsscc_info_SourceChunk_hegdb_5fv2_2eproto()
PUBLIC 907f0 0 hegproto_v2::SourceChunk::ArenaDtor(void*)
PUBLIC 90800 0 hegproto_v2::SourceChunk::default_instance()
PUBLIC 90830 0 hegproto_v2::IncludeRef::InitAsDefaultInstance()
PUBLIC 90850 0 hegproto_v2::IncludeRef::_Internal::filenodeid(hegproto_v2::IncludeRef const*)
PUBLIC 90860 0 hegproto_v2::IncludeRef::_Internal::locid(hegproto_v2::IncludeRef const*)
PUBLIC 90870 0 hegproto_v2::IncludeRef::IncludeRef(google::protobuf::Arena*)
PUBLIC 908c0 0 InitDefaultsscc_info_IncludeRef_hegdb_5fv2_2eproto()
PUBLIC 90900 0 hegproto_v2::IncludeRef::ArenaDtor(void*)
PUBLIC 90910 0 hegproto_v2::IncludeRef::default_instance()
PUBLIC 90940 0 hegproto_v2::MacroElement::InitAsDefaultInstance()
PUBLIC 90960 0 hegproto_v2::MacroElement::_Internal::locid(hegproto_v2::MacroElement const*)
PUBLIC 90970 0 hegproto_v2::MacroElement::_Internal::refid(hegproto_v2::MacroElement const*)
PUBLIC 90980 0 hegproto_v2::MacroElement::MacroElement(google::protobuf::Arena*)
PUBLIC 909e0 0 InitDefaultsscc_info_MacroElement_hegdb_5fv2_2eproto()
PUBLIC 90a20 0 hegproto_v2::MacroElement::ArenaDtor(void*)
PUBLIC 90a30 0 hegproto_v2::MacroElement::default_instance()
PUBLIC 90a60 0 hegproto_v2::MacroArg::InitAsDefaultInstance()
PUBLIC 90a80 0 hegproto_v2::MacroArg::_Internal::locid(hegproto_v2::MacroArg const*)
PUBLIC 90a90 0 hegproto_v2::MacroArg::_Internal::element(hegproto_v2::MacroArg const*)
PUBLIC 90aa0 0 hegproto_v2::MacroArg::MacroArg(google::protobuf::Arena*)
PUBLIC 90af0 0 InitDefaultsscc_info_MacroArg_hegdb_5fv2_2eproto()
PUBLIC 90b30 0 hegproto_v2::MacroArg::ArenaDtor(void*)
PUBLIC 90b40 0 hegproto_v2::MacroArg::default_instance()
PUBLIC 90b70 0 hegproto_v2::MacroRef::InitAsDefaultInstance()
PUBLIC 90ba0 0 hegproto_v2::MacroRef::_Internal::id(hegproto_v2::MacroRef const*)
PUBLIC 90bb0 0 hegproto_v2::MacroRef::_Internal::locid(hegproto_v2::MacroRef const*)
PUBLIC 90bc0 0 hegproto_v2::MacroRef::_Internal::defid(hegproto_v2::MacroRef const*)
PUBLIC 90bd0 0 hegproto_v2::MacroRef::ArenaDtor(void*)
PUBLIC 90be0 0 hegproto_v2::MacroRef::default_instance()
PUBLIC 90c10 0 hegproto_v2::MacroDefinition::InitAsDefaultInstance()
PUBLIC 90c30 0 hegproto_v2::MacroDefinition::_Internal::id(hegproto_v2::MacroDefinition const*)
PUBLIC 90c40 0 hegproto_v2::MacroDefinition::_Internal::locid(hegproto_v2::MacroDefinition const*)
PUBLIC 90c50 0 hegproto_v2::MacroDefinition::MacroDefinition(google::protobuf::Arena*)
PUBLIC 90ca0 0 InitDefaultsscc_info_MacroDefinition_hegdb_5fv2_2eproto()
PUBLIC 90ce0 0 hegproto_v2::MacroDefinition::ArenaDtor(void*)
PUBLIC 90cf0 0 hegproto_v2::MacroDefinition::default_instance()
PUBLIC 90d20 0 hegproto_v2::TextRef::InitAsDefaultInstance()
PUBLIC 90d30 0 hegproto_v2::TextRef::ArenaDtor(void*)
PUBLIC 90d40 0 hegproto_v2::TextRef::default_instance()
PUBLIC 90d70 0 hegproto_v2::Variable* google::protobuf::Arena::CreateMaybeMessage<hegproto_v2::Variable>(google::protobuf::Arena*)
PUBLIC 90df0 0 hegproto_v2::Constant* google::protobuf::Arena::CreateMaybeMessage<hegproto_v2::Constant>(google::protobuf::Arena*)
PUBLIC 90e70 0 hegproto_v2::Parameter* google::protobuf::Arena::CreateMaybeMessage<hegproto_v2::Parameter>(google::protobuf::Arena*)
PUBLIC 90ef0 0 hegproto_v2::UnhandledType* google::protobuf::Arena::CreateMaybeMessage<hegproto_v2::UnhandledType>(google::protobuf::Arena*)
PUBLIC 90f70 0 hegproto_v2::ElemRef* google::protobuf::Arena::CreateMaybeMessage<hegproto_v2::ElemRef>(google::protobuf::Arena*)
PUBLIC 90ff0 0 hegproto_v2::AlwaysConstruct* google::protobuf::Arena::CreateMaybeMessage<hegproto_v2::AlwaysConstruct>(google::protobuf::Arena*)
PUBLIC 91070 0 hegproto_v2::Assign* google::protobuf::Arena::CreateMaybeMessage<hegproto_v2::Assign>(google::protobuf::Arena*)
PUBLIC 910f0 0 hegproto_v2::ConditionalStmt* google::protobuf::Arena::CreateMaybeMessage<hegproto_v2::ConditionalStmt>(google::protobuf::Arena*)
PUBLIC 91170 0 hegproto_v2::BinaryOperator* google::protobuf::Arena::CreateMaybeMessage<hegproto_v2::BinaryOperator>(google::protobuf::Arena*)
PUBLIC 911f0 0 hegproto_v2::UnaryOperator* google::protobuf::Arena::CreateMaybeMessage<hegproto_v2::UnaryOperator>(google::protobuf::Arena*)
PUBLIC 91270 0 hegproto_v2::PortDecl* google::protobuf::Arena::CreateMaybeMessage<hegproto_v2::PortDecl>(google::protobuf::Arena*)
PUBLIC 912f0 0 hegproto_v2::DimensionInfo* google::protobuf::Arena::CreateMaybeMessage<hegproto_v2::DimensionInfo>(google::protobuf::Arena*)
PUBLIC 91370 0 hegproto_v2::NamePrefix* google::protobuf::Arena::CreateMaybeMessage<hegproto_v2::NamePrefix>(google::protobuf::Arena*)
PUBLIC 913f0 0 hegproto_v2::Data* google::protobuf::Arena::CreateMaybeMessage<hegproto_v2::Data>(google::protobuf::Arena*)
PUBLIC 91470 0 hegproto_v2::SourceChunk* google::protobuf::Arena::CreateMaybeMessage<hegproto_v2::SourceChunk>(google::protobuf::Arena*)
PUBLIC 914f0 0 hegproto_v2::IncludeRef* google::protobuf::Arena::CreateMaybeMessage<hegproto_v2::IncludeRef>(google::protobuf::Arena*)
PUBLIC 91570 0 hegproto_v2::MacroElement* google::protobuf::Arena::CreateMaybeMessage<hegproto_v2::MacroElement>(google::protobuf::Arena*)
PUBLIC 915f0 0 hegproto_v2::MacroArg* google::protobuf::Arena::CreateMaybeMessage<hegproto_v2::MacroArg>(google::protobuf::Arena*)
PUBLIC 91670 0 hegproto_v2::MacroDefinition* google::protobuf::Arena::CreateMaybeMessage<hegproto_v2::MacroDefinition>(google::protobuf::Arena*)
PUBLIC 916f0 0 hegproto_v2::Data::_InternalParse(char const*, google::protobuf::internal::ParseContext*)
PUBLIC 91920 0 hegproto_v2::ConditionalStmt::ConditionalStmt(hegproto_v2::ConditionalStmt const&)
PUBLIC 91b40 0 hegproto_v2::MacroDefinition::InternalSwap(hegproto_v2::MacroDefinition*)
PUBLIC 91d00 0 hegproto_v2::Data::Data(hegproto_v2::Data const&)
PUBLIC 91d90 0 hegproto_v2::TextRef::InternalSwap(hegproto_v2::TextRef*)
PUBLIC 91f30 0 hegproto_v2::UnhandledType::InternalSwap(hegproto_v2::UnhandledType*)
PUBLIC 91fe0 0 hegproto_v2::SourceChunk::InternalSwap(hegproto_v2::SourceChunk*)
PUBLIC 92090 0 hegproto_v2::IncludeRef::InternalSwap(hegproto_v2::IncludeRef*)
PUBLIC 92140 0 hegproto_v2::MacroArg::InternalSwap(hegproto_v2::MacroArg*)
PUBLIC 921f0 0 hegproto_v2::Data::InternalSwap(hegproto_v2::Data*)
PUBLIC 922a0 0 hegproto_v2::ElemRef::InternalSwap(hegproto_v2::ElemRef*)
PUBLIC 92360 0 hegproto_v2::AlwaysConstruct::InternalSwap(hegproto_v2::AlwaysConstruct*)
PUBLIC 92420 0 hegproto_v2::UnhandledConstruct::InternalSwap(hegproto_v2::UnhandledConstruct*)
PUBLIC 925d0 0 hegproto_v2::IndexedExpression::InternalSwap(hegproto_v2::IndexedExpression*)
PUBLIC 927a0 0 hegproto_v2::EventExpression::InternalSwap(hegproto_v2::EventExpression*)
PUBLIC 92960 0 hegproto_v2::EventCtrlStmt::InternalSwap(hegproto_v2::EventCtrlStmt*)
PUBLIC 92b30 0 hegproto_v2::DimensionInfo::InternalSwap(hegproto_v2::DimensionInfo*)
PUBLIC 92c20 0 hegproto_v2::BinaryOperator::InternalSwap(hegproto_v2::BinaryOperator*)
PUBLIC 92d10 0 hegproto_v2::Assign::InternalSwap(hegproto_v2::Assign*)
PUBLIC 92e00 0 hegproto_v2::UnaryOperator::InternalSwap(hegproto_v2::UnaryOperator*)
PUBLIC 92ef0 0 hegproto_v2::ModuleInstantiation::InternalSwap(hegproto_v2::ModuleInstantiation*)
PUBLIC 93190 0 hegproto_v2::ConditionalStmt::InternalSwap(hegproto_v2::ConditionalStmt*)
PUBLIC 93290 0 hegproto_v2::SourceChunk::SourceChunk(hegproto_v2::SourceChunk const&)
PUBLIC 93370 0 hegproto_v2::Data::Clear()
PUBLIC 933a0 0 hegproto_v2::Data::MergeFrom(hegproto_v2::Data const&)
PUBLIC 93490 0 hegproto_v2::Data::CopyFrom(hegproto_v2::Data const&)
PUBLIC 934d0 0 hegproto_v2::Data::MergeFrom(google::protobuf::Message const&)
PUBLIC 935b0 0 hegproto_v2::Data::CopyFrom(google::protobuf::Message const&)
PUBLIC 935f0 0 hegproto_v2::Constant::InternalSwap(hegproto_v2::Constant*)
PUBLIC 93730 0 hegproto_v2::Parameter::InternalSwap(hegproto_v2::Parameter*)
PUBLIC 93870 0 hegproto_v2::Variable::InternalSwap(hegproto_v2::Variable*)
PUBLIC 939b0 0 hegproto_v2::MacroElement::InternalSwap(hegproto_v2::MacroElement*)
PUBLIC 93ae0 0 hegproto_v2::Block::InternalSwap(hegproto_v2::Block*)
PUBLIC 93d20 0 hegproto_v2::InstantiationInfo::InternalSwap(hegproto_v2::InstantiationInfo*)
PUBLIC 93f60 0 hegproto_v2::Module::InternalSwap(hegproto_v2::Module*)
PUBLIC 941b0 0 hegproto_v2::PortDecl::InternalSwap(hegproto_v2::PortDecl*)
PUBLIC 94300 0 hegproto_v2::IncludeRef::IncludeRef(hegproto_v2::IncludeRef const&)
PUBLIC 94430 0 hegproto_v2::UnhandledType::UnhandledType(hegproto_v2::UnhandledType const&)
PUBLIC 94560 0 hegproto_v2::SourceChunk::MergeFrom(hegproto_v2::SourceChunk const&)
PUBLIC 946c0 0 hegproto_v2::SourceChunk::MergeFrom(google::protobuf::Message const&)
PUBLIC 947a0 0 hegproto_v2::NamePrefix::InternalSwap(hegproto_v2::NamePrefix*)
PUBLIC 948f0 0 hegproto_v2::DimensionInfo::DimensionInfo(hegproto_v2::DimensionInfo const&)
PUBLIC 94a30 0 hegproto_v2::MacroRef::InternalSwap(hegproto_v2::MacroRef*)
PUBLIC 94d80 0 hegproto_v2::UnhandledType::MergeFrom(hegproto_v2::UnhandledType const&)
PUBLIC 94f20 0 hegproto_v2::UnhandledType::MergeFrom(google::protobuf::Message const&)
PUBLIC 95000 0 hegproto_v2::IncludeRef::MergeFrom(hegproto_v2::IncludeRef const&)
PUBLIC 951a0 0 hegproto_v2::IncludeRef::MergeFrom(google::protobuf::Message const&)
PUBLIC 95280 0 hegproto_v2::Variable::Variable(hegproto_v2::Variable const&)
PUBLIC 95400 0 hegproto_v2::Parameter::Parameter(hegproto_v2::Parameter const&)
PUBLIC 95580 0 hegproto_v2::Constant::Constant(hegproto_v2::Constant const&)
PUBLIC 95700 0 hegproto_v2::MacroElement::MacroElement(hegproto_v2::MacroElement const&)
PUBLIC 95890 0 hegproto_v2::MacroArg::MacroArg(hegproto_v2::MacroArg const&)
PUBLIC 959c0 0 hegproto_v2::Variable::MergeFrom(hegproto_v2::Variable const&)
PUBLIC 95bd0 0 hegproto_v2::Variable::MergeFrom(google::protobuf::Message const&)
PUBLIC 95cb0 0 hegproto_v2::Constant::MergeFrom(hegproto_v2::Constant const&)
PUBLIC 95ec0 0 hegproto_v2::Constant::MergeFrom(google::protobuf::Message const&)
PUBLIC 95fa0 0 hegproto_v2::Parameter::MergeFrom(hegproto_v2::Parameter const&)
PUBLIC 961b0 0 hegproto_v2::Parameter::MergeFrom(google::protobuf::Message const&)
PUBLIC 96290 0 hegproto_v2::MacroElement::MergeFrom(hegproto_v2::MacroElement const&)
PUBLIC 964b0 0 hegproto_v2::MacroElement::MergeFrom(google::protobuf::Message const&)
PUBLIC 96590 0 hegproto_v2::MacroArg::MergeFrom(hegproto_v2::MacroArg const&)
PUBLIC 96730 0 hegproto_v2::MacroArg::MergeFrom(google::protobuf::Message const&)
PUBLIC 96810 0 hegproto_v2::ElemRef::ElemRef(hegproto_v2::ElemRef const&)
PUBLIC 96990 0 hegproto_v2::AlwaysConstruct::AlwaysConstruct(hegproto_v2::AlwaysConstruct const&)
PUBLIC 96b10 0 hegproto_v2::MacroDefinition::MergeFrom(hegproto_v2::MacroDefinition const&)
PUBLIC 96d80 0 hegproto_v2::MacroDefinition::MergeFrom(google::protobuf::Message const&)
PUBLIC 96e60 0 hegproto_v2::UnaryOperator::UnaryOperator(hegproto_v2::UnaryOperator const&)
PUBLIC 96fe0 0 hegproto_v2::AlwaysConstruct::MergeFrom(hegproto_v2::AlwaysConstruct const&)
PUBLIC 971f0 0 hegproto_v2::AlwaysConstruct::MergeFrom(google::protobuf::Message const&)
PUBLIC 972d0 0 hegproto_v2::ElemRef::MergeFrom(hegproto_v2::ElemRef const&)
PUBLIC 974e0 0 hegproto_v2::ElemRef::MergeFrom(google::protobuf::Message const&)
PUBLIC 975c0 0 hegproto_v2::DimensionInfo::MergeFrom(hegproto_v2::DimensionInfo const&)
PUBLIC 97790 0 hegproto_v2::DimensionInfo::MergeFrom(google::protobuf::Message const&)
PUBLIC 97870 0 hegproto_v2::MacroDefinition::MacroDefinition(hegproto_v2::MacroDefinition const&)
PUBLIC 97a40 0 hegproto_v2::UnaryOperator::MergeFrom(hegproto_v2::UnaryOperator const&)
PUBLIC 97c60 0 hegproto_v2::UnaryOperator::MergeFrom(google::protobuf::Message const&)
PUBLIC 97d40 0 hegproto_v2::PortDecl::MergeFrom(hegproto_v2::PortDecl const&)
PUBLIC 97fb0 0 hegproto_v2::PortDecl::MergeFrom(google::protobuf::Message const&)
PUBLIC 98090 0 hegproto_v2::PortDecl::PortDecl(hegproto_v2::PortDecl const&)
PUBLIC 98260 0 hegproto_v2::BinaryOperator::BinaryOperator(hegproto_v2::BinaryOperator const&)
PUBLIC 98430 0 hegproto_v2::Assign::Assign(hegproto_v2::Assign const&)
PUBLIC 98600 0 hegproto_v2::BinaryOperator::MergeFrom(hegproto_v2::BinaryOperator const&)
PUBLIC 98880 0 hegproto_v2::BinaryOperator::MergeFrom(google::protobuf::Message const&)
PUBLIC 98960 0 hegproto_v2::Assign::MergeFrom(hegproto_v2::Assign const&)
PUBLIC 98be0 0 hegproto_v2::Assign::MergeFrom(google::protobuf::Message const&)
PUBLIC 98cc0 0 hegproto_v2::ConditionalStmt::MergeFrom(hegproto_v2::ConditionalStmt const&)
PUBLIC 98fa0 0 hegproto_v2::ConditionalStmt::MergeFrom(google::protobuf::Message const&)
PUBLIC 99080 0 hegproto_v2::TextRef::MergeFrom(hegproto_v2::TextRef const&)
PUBLIC 992d0 0 hegproto_v2::TextRef::MergeFrom(google::protobuf::Message const&)
PUBLIC 993b0 0 hegproto_v2::UnhandledConstruct::MergeFrom(hegproto_v2::UnhandledConstruct const&)
PUBLIC 99660 0 hegproto_v2::UnhandledConstruct::MergeFrom(google::protobuf::Message const&)
PUBLIC 99740 0 hegproto_v2::ModuleInstantiation::MergeFrom(hegproto_v2::ModuleInstantiation const&)
PUBLIC 99bb0 0 hegproto_v2::ModuleInstantiation::MergeFrom(google::protobuf::Message const&)
PUBLIC 99c90 0 hegproto_v2::EventExpression::MergeFrom(hegproto_v2::EventExpression const&)
PUBLIC 99fb0 0 hegproto_v2::EventExpression::MergeFrom(google::protobuf::Message const&)
PUBLIC 9a090 0 hegproto_v2::Block::MergeFrom(hegproto_v2::Block const&)
PUBLIC 9a400 0 hegproto_v2::Block::MergeFrom(google::protobuf::Message const&)
PUBLIC 9a4e0 0 hegproto_v2::InstantiationInfo::MergeFrom(hegproto_v2::InstantiationInfo const&)
PUBLIC 9a850 0 hegproto_v2::InstantiationInfo::MergeFrom(google::protobuf::Message const&)
PUBLIC 9a930 0 hegproto_v2::Module::MergeFrom(hegproto_v2::Module const&)
PUBLIC 9acb0 0 hegproto_v2::Module::MergeFrom(google::protobuf::Message const&)
PUBLIC 9ad90 0 hegproto_v2::EventCtrlStmt::MergeFrom(hegproto_v2::EventCtrlStmt const&)
PUBLIC 9b110 0 hegproto_v2::EventCtrlStmt::MergeFrom(google::protobuf::Message const&)
PUBLIC 9b1f0 0 hegproto_v2::IndexedExpression::MergeFrom(hegproto_v2::IndexedExpression const&)
PUBLIC 9b570 0 hegproto_v2::IndexedExpression::MergeFrom(google::protobuf::Message const&)
PUBLIC 9b650 0 hegproto_v2::MacroRef::MergeFrom(hegproto_v2::MacroRef const&)
PUBLIC 9bbb0 0 hegproto_v2::MacroRef::MergeFrom(google::protobuf::Message const&)
PUBLIC 9bc90 0 hegproto_v2::Variable::clear_id()
PUBLIC 9bce0 0 hegproto_v2::Variable::clear_srclocid()
PUBLIC 9bd30 0 hegproto_v2::Variable::~Variable()
PUBLIC 9be80 0 hegproto_v2::Variable::~Variable()
PUBLIC 9bea0 0 hegproto_v2::Variable::Clear()
PUBLIC 9bf90 0 hegproto_v2::Variable::CopyFrom(google::protobuf::Message const&)
PUBLIC 9bfd0 0 hegproto_v2::Variable::CopyFrom(hegproto_v2::Variable const&)
PUBLIC 9c010 0 hegproto_v2::Constant::clear_id()
PUBLIC 9c060 0 hegproto_v2::Constant::clear_srclocid()
PUBLIC 9c0b0 0 hegproto_v2::Constant::~Constant()
PUBLIC 9c200 0 hegproto_v2::Constant::~Constant()
PUBLIC 9c220 0 hegproto_v2::Constant::Clear()
PUBLIC 9c310 0 hegproto_v2::Constant::CopyFrom(google::protobuf::Message const&)
PUBLIC 9c350 0 hegproto_v2::Constant::CopyFrom(hegproto_v2::Constant const&)
PUBLIC 9c390 0 hegproto_v2::Parameter::clear_id()
PUBLIC 9c3e0 0 hegproto_v2::Parameter::clear_srclocid()
PUBLIC 9c430 0 hegproto_v2::Parameter::~Parameter()
PUBLIC 9c580 0 hegproto_v2::Parameter::~Parameter()
PUBLIC 9c5a0 0 hegproto_v2::Parameter::Clear()
PUBLIC 9c690 0 hegproto_v2::Parameter::CopyFrom(google::protobuf::Message const&)
PUBLIC 9c6d0 0 hegproto_v2::Parameter::CopyFrom(hegproto_v2::Parameter const&)
PUBLIC 9c710 0 hegproto_v2::UnhandledType::clear_id()
PUBLIC 9c760 0 hegproto_v2::UnhandledType::clear_srclocid()
PUBLIC 9c7b0 0 hegproto_v2::UnhandledType::~UnhandledType()
PUBLIC 9c8d0 0 hegproto_v2::UnhandledType::~UnhandledType()
PUBLIC 9c8f0 0 hegproto_v2::UnhandledType::Clear()
PUBLIC 9c9c0 0 hegproto_v2::UnhandledType::CopyFrom(google::protobuf::Message const&)
PUBLIC 9ca00 0 hegproto_v2::UnhandledType::CopyFrom(hegproto_v2::UnhandledType const&)
PUBLIC 9ca40 0 hegproto_v2::ElemRef::clear_id()
PUBLIC 9ca90 0 hegproto_v2::ElemRef::clear_elemid()
PUBLIC 9cae0 0 hegproto_v2::ElemRef::clear_srclocid()
PUBLIC 9cb30 0 hegproto_v2::ElemRef::~ElemRef()
PUBLIC 9cc60 0 hegproto_v2::ElemRef::~ElemRef()
PUBLIC 9cc80 0 hegproto_v2::ElemRef::Clear()
PUBLIC 9cdd0 0 hegproto_v2::ElemRef::CopyFrom(google::protobuf::Message const&)
PUBLIC 9ce10 0 hegproto_v2::ElemRef::CopyFrom(hegproto_v2::ElemRef const&)
PUBLIC 9ce50 0 hegproto_v2::Block::clear_id()
PUBLIC 9cea0 0 hegproto_v2::Block::clear_srclocid()
PUBLIC 9cef0 0 hegproto_v2::Block::Block(google::protobuf::Arena*)
PUBLIC 9cf60 0 InitDefaultsscc_info_Block_hegdb_5fv2_2eproto()
PUBLIC 9cfa0 0 hegproto_v2::Block* google::protobuf::Arena::CreateMaybeMessage<hegproto_v2::Block>(google::protobuf::Arena*)
PUBLIC 9d020 0 hegproto_v2::Block::Block(hegproto_v2::Block const&)
PUBLIC 9d360 0 hegproto_v2::EventCtrlStmt::EventCtrlStmt(google::protobuf::Arena*)
PUBLIC 9d3d0 0 InitDefaultsscc_info_EventCtrlStmt_hegdb_5fv2_2eproto()
PUBLIC 9d410 0 hegproto_v2::EventCtrlStmt* google::protobuf::Arena::CreateMaybeMessage<hegproto_v2::EventCtrlStmt>(google::protobuf::Arena*)
PUBLIC 9d490 0 hegproto_v2::EventCtrlStmt::EventCtrlStmt(hegproto_v2::EventCtrlStmt const&)
PUBLIC 9d7a0 0 hegproto_v2::EventExpression::EventExpression(google::protobuf::Arena*)
PUBLIC 9d810 0 InitDefaultsscc_info_EventExpression_hegdb_5fv2_2eproto()
PUBLIC 9d850 0 hegproto_v2::EventExpression* google::protobuf::Arena::CreateMaybeMessage<hegproto_v2::EventExpression>(google::protobuf::Arena*)
PUBLIC 9d8d0 0 hegproto_v2::EventExpression::EventExpression(hegproto_v2::EventExpression const&)
PUBLIC 9dba0 0 hegproto_v2::ModuleInstantiation::ModuleInstantiation(google::protobuf::Arena*)
PUBLIC 9dc30 0 InitDefaultsscc_info_ModuleInstantiation_hegdb_5fv2_2eproto()
PUBLIC 9dc70 0 hegproto_v2::ModuleInstantiation* google::protobuf::Arena::CreateMaybeMessage<hegproto_v2::ModuleInstantiation>(google::protobuf::Arena*)
PUBLIC 9dcf0 0 hegproto_v2::ModuleInstantiation::ModuleInstantiation(hegproto_v2::ModuleInstantiation const&)
PUBLIC 9e140 0 hegproto_v2::InstantiationInfo::InstantiationInfo(google::protobuf::Arena*)
PUBLIC 9e1b0 0 InitDefaultsscc_info_InstantiationInfo_hegdb_5fv2_2eproto()
PUBLIC 9e1f0 0 hegproto_v2::InstantiationInfo* google::protobuf::Arena::CreateMaybeMessage<hegproto_v2::InstantiationInfo>(google::protobuf::Arena*)
PUBLIC 9e270 0 hegproto_v2::InstantiationInfo::InstantiationInfo(hegproto_v2::InstantiationInfo const&)
PUBLIC 9e5b0 0 hegproto_v2::IndexedExpression::IndexedExpression(google::protobuf::Arena*)
PUBLIC 9e620 0 InitDefaultsscc_info_IndexedExpression_hegdb_5fv2_2eproto()
PUBLIC 9e660 0 hegproto_v2::IndexedExpression* google::protobuf::Arena::CreateMaybeMessage<hegproto_v2::IndexedExpression>(google::protobuf::Arena*)
PUBLIC 9e6e0 0 hegproto_v2::IndexedExpression::IndexedExpression(hegproto_v2::IndexedExpression const&)
PUBLIC 9e9f0 0 hegproto_v2::Module::Module(google::protobuf::Arena*)
PUBLIC 9ea70 0 InitDefaultsscc_info_Module_hegdb_5fv2_2eproto()
PUBLIC 9eab0 0 hegproto_v2::Module* google::protobuf::Arena::CreateMaybeMessage<hegproto_v2::Module>(google::protobuf::Arena*)
PUBLIC 9eb30 0 hegproto_v2::Module::Module(hegproto_v2::Module const&)
PUBLIC 9ee60 0 hegproto_v2::UnhandledConstruct::UnhandledConstruct(google::protobuf::Arena*)
PUBLIC 9eee0 0 InitDefaultsscc_info_UnhandledConstruct_hegdb_5fv2_2eproto()
PUBLIC 9ef20 0 hegproto_v2::UnhandledConstruct* google::protobuf::Arena::CreateMaybeMessage<hegproto_v2::UnhandledConstruct>(google::protobuf::Arena*)
PUBLIC 9efa0 0 hegproto_v2::UnhandledConstruct::UnhandledConstruct(hegproto_v2::UnhandledConstruct const&)
PUBLIC 9f220 0 hegproto_v2::TextRef::TextRef(google::protobuf::Arena*)
PUBLIC 9f290 0 InitDefaultsscc_info_TextRef_hegdb_5fv2_2eproto()
PUBLIC 9f2d0 0 hegproto_v2::TextRef* google::protobuf::Arena::CreateMaybeMessage<hegproto_v2::TextRef>(google::protobuf::Arena*)
PUBLIC 9f350 0 hegproto_v2::TextRef::TextRef(hegproto_v2::TextRef const&)
PUBLIC 9f570 0 hegproto_v2::EventCtrlStmt::clear_id()
PUBLIC 9f5c0 0 hegproto_v2::EventCtrlStmt::clear_stmtrefid()
PUBLIC 9f610 0 hegproto_v2::EventCtrlStmt::clear_srclocid()
PUBLIC 9f660 0 hegproto_v2::EventExpression::clear_id()
PUBLIC 9f6b0 0 hegproto_v2::EventExpression::clear_srclocid()
PUBLIC 9f700 0 hegproto_v2::AlwaysConstruct::clear_id()
PUBLIC 9f750 0 hegproto_v2::AlwaysConstruct::clear_eventctrlstmtrefid()
PUBLIC 9f7a0 0 hegproto_v2::AlwaysConstruct::clear_srclocid()
PUBLIC 9f7f0 0 hegproto_v2::AlwaysConstruct::~AlwaysConstruct()
PUBLIC 9f920 0 hegproto_v2::AlwaysConstruct::~AlwaysConstruct()
PUBLIC 9f940 0 hegproto_v2::AlwaysConstruct::Clear()
PUBLIC 9fa90 0 hegproto_v2::AlwaysConstruct::CopyFrom(google::protobuf::Message const&)
PUBLIC 9fad0 0 hegproto_v2::AlwaysConstruct::CopyFrom(hegproto_v2::AlwaysConstruct const&)
PUBLIC 9fb10 0 hegproto_v2::Assign::clear_id()
PUBLIC 9fb60 0 hegproto_v2::Assign::clear_lhselemrefid()
PUBLIC 9fbb0 0 hegproto_v2::Assign::clear_rhselemrefid()
PUBLIC 9fc00 0 hegproto_v2::Assign::clear_srclocid()
PUBLIC 9fc50 0 hegproto_v2::Assign::~Assign()
PUBLIC 9fd90 0 hegproto_v2::Assign::~Assign()
PUBLIC 9fdb0 0 hegproto_v2::Assign::Clear()
PUBLIC 9ff60 0 hegproto_v2::Assign::CopyFrom(google::protobuf::Message const&)
PUBLIC 9ffa0 0 hegproto_v2::Assign::CopyFrom(hegproto_v2::Assign const&)
PUBLIC 9ffe0 0 hegproto_v2::ConditionalStmt::clear_id()
PUBLIC a0030 0 hegproto_v2::ConditionalStmt::clear_ifelemrefid()
PUBLIC a0080 0 hegproto_v2::ConditionalStmt::clear_thenelemrefid()
PUBLIC a00d0 0 hegproto_v2::ConditionalStmt::clear_elseelemrefid()
PUBLIC a0120 0 hegproto_v2::ConditionalStmt::clear_srclocid()
PUBLIC a0170 0 hegproto_v2::ConditionalStmt::~ConditionalStmt()
PUBLIC a02c0 0 hegproto_v2::ConditionalStmt::~ConditionalStmt()
PUBLIC a02e0 0 hegproto_v2::ConditionalStmt::Clear()
PUBLIC a0510 0 hegproto_v2::ConditionalStmt::CopyFrom(google::protobuf::Message const&)
PUBLIC a0550 0 hegproto_v2::ConditionalStmt::CopyFrom(hegproto_v2::ConditionalStmt const&)
PUBLIC a0590 0 hegproto_v2::BinaryOperator::clear_id()
PUBLIC a05e0 0 hegproto_v2::BinaryOperator::clear_leftelemrefid()
PUBLIC a0630 0 hegproto_v2::BinaryOperator::clear_rightelemrefid()
PUBLIC a0680 0 hegproto_v2::BinaryOperator::clear_srclocid()
PUBLIC a06d0 0 hegproto_v2::BinaryOperator::~BinaryOperator()
PUBLIC a0810 0 hegproto_v2::BinaryOperator::~BinaryOperator()
PUBLIC a0830 0 hegproto_v2::BinaryOperator::Clear()
PUBLIC a09e0 0 hegproto_v2::BinaryOperator::CopyFrom(google::protobuf::Message const&)
PUBLIC a0a20 0 hegproto_v2::BinaryOperator::CopyFrom(hegproto_v2::BinaryOperator const&)
PUBLIC a0a60 0 hegproto_v2::UnaryOperator::clear_id()
PUBLIC a0ab0 0 hegproto_v2::UnaryOperator::clear_operandelemrefid()
PUBLIC a0b00 0 hegproto_v2::UnaryOperator::clear_srclocid()
PUBLIC a0b50 0 hegproto_v2::UnaryOperator::~UnaryOperator()
PUBLIC a0c80 0 hegproto_v2::UnaryOperator::~UnaryOperator()
PUBLIC a0ca0 0 hegproto_v2::UnaryOperator::Clear()
PUBLIC a0df0 0 hegproto_v2::UnaryOperator::CopyFrom(google::protobuf::Message const&)
PUBLIC a0e30 0 hegproto_v2::UnaryOperator::CopyFrom(hegproto_v2::UnaryOperator const&)
PUBLIC a0e70 0 hegproto_v2::ModuleInstantiation::clear_id()
PUBLIC a0ec0 0 hegproto_v2::ModuleInstantiation::clear_srclocid()
PUBLIC a0f10 0 hegproto_v2::InstantiationInfo::clear_id()
PUBLIC a0f60 0 hegproto_v2::InstantiationInfo::clear_srclocid()
PUBLIC a0fb0 0 hegproto_v2::PortDecl::clear_id()
PUBLIC a1000 0 hegproto_v2::PortDecl::clear_elemrefid()
PUBLIC a1050 0 hegproto_v2::PortDecl::clear_srclocid()
PUBLIC a10a0 0 hegproto_v2::PortDecl::~PortDecl()
PUBLIC a1200 0 hegproto_v2::PortDecl::~PortDecl()
PUBLIC a1220 0 hegproto_v2::PortDecl::Clear()
PUBLIC a1390 0 hegproto_v2::PortDecl::CopyFrom(google::protobuf::Message const&)
PUBLIC a13d0 0 hegproto_v2::PortDecl::CopyFrom(hegproto_v2::PortDecl const&)
PUBLIC a1410 0 hegproto_v2::IndexedExpression::clear_id()
PUBLIC a1460 0 hegproto_v2::IndexedExpression::clear_nameprefixidref()
PUBLIC a14b0 0 hegproto_v2::IndexedExpression::clear_srclocid()
PUBLIC a1500 0 hegproto_v2::DimensionInfo::clear_id()
PUBLIC a1550 0 hegproto_v2::DimensionInfo::clear_srclocid()
PUBLIC a15a0 0 hegproto_v2::DimensionInfo::~DimensionInfo()
PUBLIC a16c0 0 hegproto_v2::DimensionInfo::~DimensionInfo()
PUBLIC a16e0 0 hegproto_v2::DimensionInfo::Clear()
PUBLIC a17c0 0 hegproto_v2::DimensionInfo::CopyFrom(google::protobuf::Message const&)
PUBLIC a1800 0 hegproto_v2::DimensionInfo::CopyFrom(hegproto_v2::DimensionInfo const&)
PUBLIC a1840 0 hegproto_v2::NamePrefix::clear_id()
PUBLIC a1890 0 hegproto_v2::NamePrefix::clear_nameprefixidref()
PUBLIC a18f0 0 hegproto_v2::NamePrefix::clear_elemrefid()
PUBLIC a1950 0 hegproto_v2::NamePrefix::clear_srclocid()
PUBLIC a19a0 0 hegproto_v2::NamePrefix::clear_refTo()
PUBLIC a1a00 0 hegproto_v2::NamePrefix::set_allocated_nameprefixidref(common_v2::Id*)
PUBLIC a1a70 0 hegproto_v2::NamePrefix::set_allocated_elemrefid(common_v2::Id*)
PUBLIC a1ae0 0 hegproto_v2::NamePrefix::MergeFrom(hegproto_v2::NamePrefix const&)
PUBLIC a1dd0 0 hegproto_v2::NamePrefix::MergeFrom(google::protobuf::Message const&)
PUBLIC a1eb0 0 hegproto_v2::NamePrefix::NamePrefix(hegproto_v2::NamePrefix const&)
PUBLIC a2110 0 hegproto_v2::NamePrefix::~NamePrefix()
PUBLIC a2270 0 hegproto_v2::NamePrefix::~NamePrefix()
PUBLIC a2290 0 hegproto_v2::NamePrefix::Clear()
PUBLIC a2380 0 hegproto_v2::NamePrefix::CopyFrom(google::protobuf::Message const&)
PUBLIC a23c0 0 hegproto_v2::NamePrefix::CopyFrom(hegproto_v2::NamePrefix const&)
PUBLIC a2400 0 hegproto_v2::Module::clear_id()
PUBLIC a2450 0 hegproto_v2::Module::clear_srclocid()
PUBLIC a24a0 0 hegproto_v2::UnhandledConstruct::clear_id()
PUBLIC a24f0 0 hegproto_v2::SourceChunk::clear_filenodeid()
PUBLIC a2540 0 hegproto_v2::SourceChunk::~SourceChunk()
PUBLIC a2650 0 hegproto_v2::SourceChunk::~SourceChunk()
PUBLIC a2670 0 hegproto_v2::SourceChunk::Clear()
PUBLIC a26f0 0 hegproto_v2::SourceChunk::CopyFrom(google::protobuf::Message const&)
PUBLIC a2730 0 hegproto_v2::SourceChunk::CopyFrom(hegproto_v2::SourceChunk const&)
PUBLIC a2770 0 hegproto_v2::IncludeRef::clear_filenodeid()
PUBLIC a27c0 0 hegproto_v2::IncludeRef::clear_locid()
PUBLIC a2810 0 hegproto_v2::IncludeRef::~IncludeRef()
PUBLIC a2930 0 hegproto_v2::IncludeRef::~IncludeRef()
PUBLIC a2950 0 hegproto_v2::IncludeRef::Clear()
PUBLIC a2a20 0 hegproto_v2::IncludeRef::CopyFrom(google::protobuf::Message const&)
PUBLIC a2a60 0 hegproto_v2::IncludeRef::CopyFrom(hegproto_v2::IncludeRef const&)
PUBLIC a2aa0 0 hegproto_v2::MacroElement::clear_locid()
PUBLIC a2af0 0 hegproto_v2::MacroElement::clear_refid()
PUBLIC a2b40 0 hegproto_v2::MacroElement::~MacroElement()
PUBLIC a2c90 0 hegproto_v2::MacroElement::~MacroElement()
PUBLIC a2cb0 0 hegproto_v2::MacroElement::Clear()
PUBLIC a2da0 0 hegproto_v2::MacroElement::CopyFrom(google::protobuf::Message const&)
PUBLIC a2de0 0 hegproto_v2::MacroElement::CopyFrom(hegproto_v2::MacroElement const&)
PUBLIC a2e20 0 hegproto_v2::MacroArg::clear_locid()
PUBLIC a2e70 0 hegproto_v2::MacroArg::~MacroArg()
PUBLIC a2f90 0 hegproto_v2::MacroArg::~MacroArg()
PUBLIC a2fb0 0 hegproto_v2::MacroRef::MacroRef(google::protobuf::Arena*)
PUBLIC a3040 0 InitDefaultsscc_info_MacroRef_hegdb_5fv2_2eproto()
PUBLIC a3080 0 hegproto_v2::MacroRef* google::protobuf::Arena::CreateMaybeMessage<hegproto_v2::MacroRef>(google::protobuf::Arena*)
PUBLIC a3100 0 hegproto_v2::MacroRef::MacroRef(hegproto_v2::MacroRef const&)
PUBLIC a35f0 0 hegproto_v2::MacroArg::Clear()
PUBLIC a36c0 0 hegproto_v2::MacroArg::CopyFrom(google::protobuf::Message const&)
PUBLIC a3700 0 hegproto_v2::MacroArg::CopyFrom(hegproto_v2::MacroArg const&)
PUBLIC a3740 0 hegproto_v2::MacroRef::clear_id()
PUBLIC a3790 0 hegproto_v2::MacroRef::clear_locid()
PUBLIC a37e0 0 hegproto_v2::MacroRef::clear_defid()
PUBLIC a3830 0 hegproto_v2::MacroRef::~MacroRef()
PUBLIC a3ae0 0 hegproto_v2::MacroRef::~MacroRef()
PUBLIC a3b00 0 hegproto_v2::MacroRef::Clear()
PUBLIC a3c70 0 hegproto_v2::MacroRef::CopyFrom(google::protobuf::Message const&)
PUBLIC a3cb0 0 hegproto_v2::MacroRef::CopyFrom(hegproto_v2::MacroRef const&)
PUBLIC a3cf0 0 hegproto_v2::MacroDefinition::clear_id()
PUBLIC a3d40 0 hegproto_v2::MacroDefinition::clear_locid()
PUBLIC a3d90 0 hegproto_v2::MacroDefinition::~MacroDefinition()
PUBLIC a3f10 0 hegproto_v2::MacroDefinition::~MacroDefinition()
PUBLIC a3f30 0 hegproto_v2::MacroDefinition::Clear()
PUBLIC a4030 0 hegproto_v2::MacroDefinition::CopyFrom(google::protobuf::Message const&)
PUBLIC a4070 0 hegproto_v2::MacroDefinition::CopyFrom(hegproto_v2::MacroDefinition const&)
PUBLIC a40b0 0 hegproto_v2::Block::~Block()
PUBLIC a42a0 0 hegproto_v2::Block::~Block()
PUBLIC a42c0 0 hegproto_v2::TextRef::~TextRef()
PUBLIC a4460 0 hegproto_v2::TextRef::~TextRef()
PUBLIC a4480 0 hegproto_v2::EventExpression::~EventExpression()
PUBLIC a4640 0 hegproto_v2::EventExpression::~EventExpression()
PUBLIC a4660 0 hegproto_v2::InstantiationInfo::~InstantiationInfo()
PUBLIC a4850 0 hegproto_v2::InstantiationInfo::~InstantiationInfo()
PUBLIC a4870 0 hegproto_v2::Module::~Module()
PUBLIC a4a60 0 hegproto_v2::Module::~Module()
PUBLIC a4a80 0 hegproto_v2::IndexedExpression::~IndexedExpression()
PUBLIC a4c50 0 hegproto_v2::IndexedExpression::~IndexedExpression()
PUBLIC a4c70 0 hegproto_v2::EventCtrlStmt::~EventCtrlStmt()
PUBLIC a4e40 0 hegproto_v2::EventCtrlStmt::~EventCtrlStmt()
PUBLIC a4e60 0 hegproto_v2::UnhandledConstruct::~UnhandledConstruct()
PUBLIC a5010 0 hegproto_v2::UnhandledConstruct::~UnhandledConstruct()
PUBLIC a5030 0 hegproto_v2::ModuleInstantiation::~ModuleInstantiation()
PUBLIC a52a0 0 hegproto_v2::ModuleInstantiation::~ModuleInstantiation()
PUBLIC a52c0 0 hegproto_v2::Variable::_InternalParse(char const*, google::protobuf::internal::ParseContext*)
PUBLIC a55e0 0 hegproto_v2::Constant::_InternalParse(char const*, google::protobuf::internal::ParseContext*)
PUBLIC a5900 0 hegproto_v2::Parameter::_InternalParse(char const*, google::protobuf::internal::ParseContext*)
PUBLIC a5c20 0 hegproto_v2::UnhandledType::_InternalParse(char const*, google::protobuf::internal::ParseContext*)
PUBLIC a5ec0 0 hegproto_v2::ElemRef::_InternalParse(char const*, google::protobuf::internal::ParseContext*)
PUBLIC a6180 0 hegproto_v2::Block::_InternalParse(char const*, google::protobuf::internal::ParseContext*)
PUBLIC a6590 0 hegproto_v2::EventCtrlStmt::_InternalParse(char const*, google::protobuf::internal::ParseContext*)
PUBLIC a6950 0 hegproto_v2::EventExpression::_InternalParse(char const*, google::protobuf::internal::ParseContext*)
PUBLIC a6d30 0 hegproto_v2::AlwaysConstruct::_InternalParse(char const*, google::protobuf::internal::ParseContext*)
PUBLIC a6ff0 0 hegproto_v2::Assign::_InternalParse(char const*, google::protobuf::internal::ParseContext*)
PUBLIC a7350 0 hegproto_v2::ConditionalStmt::_InternalParse(char const*, google::protobuf::internal::ParseContext*)
PUBLIC a7710 0 hegproto_v2::BinaryOperator::_InternalParse(char const*, google::protobuf::internal::ParseContext*)
PUBLIC a7a70 0 hegproto_v2::UnaryOperator::_InternalParse(char const*, google::protobuf::internal::ParseContext*)
PUBLIC a7d80 0 hegproto_v2::ModuleInstantiation::_InternalParse(char const*, google::protobuf::internal::ParseContext*)
PUBLIC a81d0 0 hegproto_v2::InstantiationInfo::_InternalParse(char const*, google::protobuf::internal::ParseContext*)
PUBLIC a85e0 0 hegproto_v2::PortDecl::_InternalParse(char const*, google::protobuf::internal::ParseContext*)
PUBLIC a89b0 0 hegproto_v2::IndexedExpression::_InternalParse(char const*, google::protobuf::internal::ParseContext*)
PUBLIC a8d70 0 hegproto_v2::DimensionInfo::_InternalParse(char const*, google::protobuf::internal::ParseContext*)
PUBLIC a91b0 0 hegproto_v2::NamePrefix::_InternalParse(char const*, google::protobuf::internal::ParseContext*)
PUBLIC a9580 0 hegproto_v2::Module::_InternalParse(char const*, google::protobuf::internal::ParseContext*)
PUBLIC a99f0 0 hegproto_v2::UnhandledConstruct::_InternalParse(char const*, google::protobuf::internal::ParseContext*)
PUBLIC a9d10 0 hegproto_v2::SourceChunk::_InternalParse(char const*, google::protobuf::internal::ParseContext*)
PUBLIC aa020 0 hegproto_v2::IncludeRef::_InternalParse(char const*, google::protobuf::internal::ParseContext*)
PUBLIC aa2c0 0 hegproto_v2::MacroElement::_InternalParse(char const*, google::protobuf::internal::ParseContext*)
PUBLIC aa640 0 hegproto_v2::MacroArg::_InternalParse(char const*, google::protobuf::internal::ParseContext*)
PUBLIC aa8f0 0 hegproto_v2::MacroRef::_InternalParse(char const*, google::protobuf::internal::ParseContext*)
PUBLIC ab030 0 hegproto_v2::MacroDefinition::_InternalParse(char const*, google::protobuf::internal::ParseContext*)
PUBLIC ab410 0 hegproto_v2::TextRef::_InternalParse(char const*, google::protobuf::internal::ParseContext*)
PUBLIC ab690 0 hegproto_v2::Variable::_InternalSerialize(unsigned char*, google::protobuf::io::EpsCopyOutputStream*) const
PUBLIC ab920 0 hegproto_v2::Constant::_InternalSerialize(unsigned char*, google::protobuf::io::EpsCopyOutputStream*) const
PUBLIC abbb0 0 hegproto_v2::Parameter::_InternalSerialize(unsigned char*, google::protobuf::io::EpsCopyOutputStream*) const
PUBLIC abe40 0 hegproto_v2::UnhandledType::_InternalSerialize(unsigned char*, google::protobuf::io::EpsCopyOutputStream*) const
PUBLIC ac010 0 hegproto_v2::ElemRef::_InternalSerialize(unsigned char*, google::protobuf::io::EpsCopyOutputStream*) const
PUBLIC ac290 0 hegproto_v2::AlwaysConstruct::_InternalSerialize(unsigned char*, google::protobuf::io::EpsCopyOutputStream*) const
PUBLIC ac510 0 hegproto_v2::Assign::_InternalSerialize(unsigned char*, google::protobuf::io::EpsCopyOutputStream*) const
PUBLIC ac930 0 hegproto_v2::ConditionalStmt::_InternalSerialize(unsigned char*, google::protobuf::io::EpsCopyOutputStream*) const
PUBLIC ace00 0 hegproto_v2::BinaryOperator::_InternalSerialize(unsigned char*, google::protobuf::io::EpsCopyOutputStream*) const
PUBLIC ad220 0 hegproto_v2::UnaryOperator::_InternalSerialize(unsigned char*, google::protobuf::io::EpsCopyOutputStream*) const
PUBLIC ad570 0 hegproto_v2::PortDecl::_InternalSerialize(unsigned char*, google::protobuf::io::EpsCopyOutputStream*) const
PUBLIC ad940 0 hegproto_v2::DimensionInfo::_InternalSerialize(unsigned char*, google::protobuf::io::EpsCopyOutputStream*) const
PUBLIC add00 0 hegproto_v2::NamePrefix::_InternalSerialize(unsigned char*, google::protobuf::io::EpsCopyOutputStream*) const
PUBLIC ae0f0 0 hegproto_v2::SourceChunk::_InternalSerialize(unsigned char*, google::protobuf::io::EpsCopyOutputStream*) const
PUBLIC ae350 0 hegproto_v2::IncludeRef::_InternalSerialize(unsigned char*, google::protobuf::io::EpsCopyOutputStream*) const
PUBLIC ae520 0 hegproto_v2::MacroElement::_InternalSerialize(unsigned char*, google::protobuf::io::EpsCopyOutputStream*) const
PUBLIC ae860 0 hegproto_v2::MacroDefinition::_InternalSerialize(unsigned char*, google::protobuf::io::EpsCopyOutputStream*) const
PUBLIC aeb50 0 hegproto_v2::MacroArg::_InternalSerialize(unsigned char*, google::protobuf::io::EpsCopyOutputStream*) const
PUBLIC aed20 0 hegproto_v2::Block::_InternalSerialize(unsigned char*, google::protobuf::io::EpsCopyOutputStream*) const
PUBLIC af110 0 hegproto_v2::EventCtrlStmt::_InternalSerialize(unsigned char*, google::protobuf::io::EpsCopyOutputStream*) const
PUBLIC af560 0 hegproto_v2::EventExpression::_InternalSerialize(unsigned char*, google::protobuf::io::EpsCopyOutputStream*) const
PUBLIC af950 0 hegproto_v2::ModuleInstantiation::_InternalSerialize(unsigned char*, google::protobuf::io::EpsCopyOutputStream*) const
PUBLIC afe40 0 hegproto_v2::InstantiationInfo::_InternalSerialize(unsigned char*, google::protobuf::io::EpsCopyOutputStream*) const
PUBLIC b0230 0 hegproto_v2::IndexedExpression::_InternalSerialize(unsigned char*, google::protobuf::io::EpsCopyOutputStream*) const
PUBLIC b0670 0 hegproto_v2::Module::_InternalSerialize(unsigned char*, google::protobuf::io::EpsCopyOutputStream*) const
PUBLIC b0a90 0 hegproto_v2::UnhandledConstruct::_InternalSerialize(unsigned char*, google::protobuf::io::EpsCopyOutputStream*) const
PUBLIC b0d30 0 hegproto_v2::TextRef::_InternalSerialize(unsigned char*, google::protobuf::io::EpsCopyOutputStream*) const
PUBLIC b0f20 0 hegproto_v2::MacroRef::_InternalSerialize(unsigned char*, google::protobuf::io::EpsCopyOutputStream*) const
PUBLIC b16b0 0 hegproto_v2::Variable::ByteSizeLong() const
PUBLIC b1770 0 hegproto_v2::Constant::ByteSizeLong() const
PUBLIC b1830 0 hegproto_v2::Parameter::ByteSizeLong() const
PUBLIC b18f0 0 hegproto_v2::UnhandledType::ByteSizeLong() const
PUBLIC b1990 0 hegproto_v2::ElemRef::ByteSizeLong() const
PUBLIC b1a50 0 hegproto_v2::Block::ByteSizeLong() const
PUBLIC b1b70 0 hegproto_v2::EventCtrlStmt::ByteSizeLong() const
PUBLIC b1c90 0 hegproto_v2::EventExpression::ByteSizeLong() const
PUBLIC b1db0 0 hegproto_v2::AlwaysConstruct::ByteSizeLong() const
PUBLIC b1e70 0 hegproto_v2::Assign::ByteSizeLong() const
PUBLIC b1f90 0 hegproto_v2::ConditionalStmt::ByteSizeLong() const
PUBLIC b20d0 0 hegproto_v2::BinaryOperator::ByteSizeLong() const
PUBLIC b21f0 0 hegproto_v2::UnaryOperator::ByteSizeLong() const
PUBLIC b22e0 0 hegproto_v2::ModuleInstantiation::ByteSizeLong() const
PUBLIC b2420 0 hegproto_v2::InstantiationInfo::ByteSizeLong() const
PUBLIC b2540 0 hegproto_v2::PortDecl::ByteSizeLong() const
PUBLIC b2650 0 hegproto_v2::IndexedExpression::ByteSizeLong() const
PUBLIC b2770 0 hegproto_v2::DimensionInfo::ByteSizeLong() const
PUBLIC b2880 0 hegproto_v2::NamePrefix::ByteSizeLong() const
PUBLIC b2970 0 hegproto_v2::Module::ByteSizeLong() const
PUBLIC b2a90 0 hegproto_v2::UnhandledConstruct::ByteSizeLong() const
PUBLIC b2b60 0 hegproto_v2::SourceChunk::ByteSizeLong() const
PUBLIC b2c10 0 hegproto_v2::IncludeRef::ByteSizeLong() const
PUBLIC b2cb0 0 hegproto_v2::MacroElement::ByteSizeLong() const
PUBLIC b2da0 0 hegproto_v2::MacroArg::ByteSizeLong() const
PUBLIC b2e40 0 hegproto_v2::MacroRef::ByteSizeLong() const
PUBLIC b3010 0 hegproto_v2::MacroDefinition::ByteSizeLong() const
PUBLIC b3100 0 hegproto_v2::TextRef::ByteSizeLong() const
PUBLIC b31a0 0 hegproto_v2::Block::clear_stmtsrefids()
PUBLIC b31b0 0 hegproto_v2::Block::Clear()
PUBLIC b32a0 0 hegproto_v2::Block::CopyFrom(google::protobuf::Message const&)
PUBLIC b32e0 0 hegproto_v2::Block::CopyFrom(hegproto_v2::Block const&)
PUBLIC b3320 0 hegproto_v2::EventCtrlStmt::clear_eventexprrefids()
PUBLIC b3330 0 hegproto_v2::EventCtrlStmt::Clear()
PUBLIC b3470 0 hegproto_v2::EventCtrlStmt::CopyFrom(google::protobuf::Message const&)
PUBLIC b34b0 0 hegproto_v2::EventCtrlStmt::CopyFrom(hegproto_v2::EventCtrlStmt const&)
PUBLIC b34f0 0 hegproto_v2::EventExpression::clear_atelemrefids()
PUBLIC b3500 0 hegproto_v2::EventExpression::Clear()
PUBLIC b35e0 0 hegproto_v2::EventExpression::CopyFrom(google::protobuf::Message const&)
PUBLIC b3620 0 hegproto_v2::EventExpression::CopyFrom(hegproto_v2::EventExpression const&)
PUBLIC b3660 0 hegproto_v2::ModuleInstantiation::clear_parameterselemrefids()
PUBLIC b3670 0 hegproto_v2::ModuleInstantiation::clear_instantiationinforefids()
PUBLIC b3680 0 hegproto_v2::ModuleInstantiation::Clear()
PUBLIC b3760 0 hegproto_v2::ModuleInstantiation::CopyFrom(google::protobuf::Message const&)
PUBLIC b37a0 0 hegproto_v2::ModuleInstantiation::CopyFrom(hegproto_v2::ModuleInstantiation const&)
PUBLIC b37e0 0 hegproto_v2::InstantiationInfo::clear_portsconnelemrefids()
PUBLIC b37f0 0 hegproto_v2::InstantiationInfo::Clear()
PUBLIC b38e0 0 hegproto_v2::InstantiationInfo::CopyFrom(google::protobuf::Message const&)
PUBLIC b3920 0 hegproto_v2::InstantiationInfo::CopyFrom(hegproto_v2::InstantiationInfo const&)
PUBLIC b3960 0 hegproto_v2::IndexedExpression::clear_dimensioninforefids()
PUBLIC b3970 0 hegproto_v2::IndexedExpression::Clear()
PUBLIC b3ab0 0 hegproto_v2::IndexedExpression::CopyFrom(google::protobuf::Message const&)
PUBLIC b3af0 0 hegproto_v2::IndexedExpression::CopyFrom(hegproto_v2::IndexedExpression const&)
PUBLIC b3b30 0 hegproto_v2::Module::clear_portdeclids()
PUBLIC b3b40 0 hegproto_v2::Module::Clear()
PUBLIC b3c30 0 hegproto_v2::Module::CopyFrom(google::protobuf::Message const&)
PUBLIC b3c70 0 hegproto_v2::Module::CopyFrom(hegproto_v2::Module const&)
PUBLIC b3cb0 0 hegproto_v2::UnhandledConstruct::clear_tonodes()
PUBLIC b3cc0 0 hegproto_v2::UnhandledConstruct::Clear()
PUBLIC b3d40 0 hegproto_v2::UnhandledConstruct::CopyFrom(google::protobuf::Message const&)
PUBLIC b3d80 0 hegproto_v2::UnhandledConstruct::CopyFrom(hegproto_v2::UnhandledConstruct const&)
PUBLIC b3dc0 0 hegproto_v2::TextRef::clear_textrefs()
PUBLIC b3dd0 0 hegproto_v2::TextRef::Clear()
PUBLIC b3e10 0 hegproto_v2::TextRef::CopyFrom(google::protobuf::Message const&)
PUBLIC b3e50 0 hegproto_v2::TextRef::CopyFrom(hegproto_v2::TextRef const&)
PUBLIC b3e90 0 hegproto_v2::MacroElement::GetCachedSize() const
PUBLIC b3ea0 0 hegproto_v2::MacroArg::GetCachedSize() const
PUBLIC b3eb0 0 hegproto_v2::TextRef::GetCachedSize() const
PUBLIC b3ec0 0 hegproto_v2::MacroDefinition::GetCachedSize() const
PUBLIC b3ed0 0 hegproto_v2::MacroRef::GetCachedSize() const
PUBLIC b3ee0 0 hegproto_v2::IncludeRef::GetCachedSize() const
PUBLIC b3ef0 0 hegproto_v2::SourceChunk::GetCachedSize() const
PUBLIC b3f00 0 hegproto_v2::Data::GetCachedSize() const
PUBLIC b3f10 0 hegproto_v2::UnhandledConstruct::GetCachedSize() const
PUBLIC b3f20 0 hegproto_v2::Module::GetCachedSize() const
PUBLIC b3f30 0 hegproto_v2::NamePrefix::GetCachedSize() const
PUBLIC b3f40 0 hegproto_v2::DimensionInfo::GetCachedSize() const
PUBLIC b3f50 0 hegproto_v2::IndexedExpression::GetCachedSize() const
PUBLIC b3f60 0 hegproto_v2::PortDecl::GetCachedSize() const
PUBLIC b3f70 0 hegproto_v2::InstantiationInfo::GetCachedSize() const
PUBLIC b3f80 0 hegproto_v2::ModuleInstantiation::GetCachedSize() const
PUBLIC b3f90 0 hegproto_v2::UnaryOperator::GetCachedSize() const
PUBLIC b3fa0 0 hegproto_v2::BinaryOperator::GetCachedSize() const
PUBLIC b3fb0 0 hegproto_v2::ConditionalStmt::GetCachedSize() const
PUBLIC b3fc0 0 hegproto_v2::Assign::GetCachedSize() const
PUBLIC b3fd0 0 hegproto_v2::AlwaysConstruct::GetCachedSize() const
PUBLIC b3fe0 0 hegproto_v2::EventExpression::GetCachedSize() const
PUBLIC b3ff0 0 hegproto_v2::EventCtrlStmt::GetCachedSize() const
PUBLIC b4000 0 hegproto_v2::Block::GetCachedSize() const
PUBLIC b4010 0 hegproto_v2::ElemRef::GetCachedSize() const
PUBLIC b4020 0 hegproto_v2::UnhandledType::GetCachedSize() const
PUBLIC b4030 0 hegproto_v2::Parameter::GetCachedSize() const
PUBLIC b4040 0 hegproto_v2::Constant::GetCachedSize() const
PUBLIC b4050 0 hegproto_v2::Variable::GetCachedSize() const
PUBLIC b4060 0 hegproto_v2::Variable::New(google::protobuf::Arena*) const
PUBLIC b4070 0 hegproto_v2::Variable::New() const
PUBLIC b4080 0 hegproto_v2::Constant::New(google::protobuf::Arena*) const
PUBLIC b4090 0 hegproto_v2::Constant::New() const
PUBLIC b40a0 0 hegproto_v2::Parameter::New(google::protobuf::Arena*) const
PUBLIC b40b0 0 hegproto_v2::Parameter::New() const
PUBLIC b40c0 0 hegproto_v2::UnhandledType::New(google::protobuf::Arena*) const
PUBLIC b40d0 0 hegproto_v2::UnhandledType::New() const
PUBLIC b40e0 0 hegproto_v2::ElemRef::New(google::protobuf::Arena*) const
PUBLIC b40f0 0 hegproto_v2::ElemRef::New() const
PUBLIC b4100 0 hegproto_v2::AlwaysConstruct::New(google::protobuf::Arena*) const
PUBLIC b4110 0 hegproto_v2::AlwaysConstruct::New() const
PUBLIC b4120 0 hegproto_v2::Assign::New(google::protobuf::Arena*) const
PUBLIC b4130 0 hegproto_v2::Assign::New() const
PUBLIC b4140 0 hegproto_v2::ConditionalStmt::New(google::protobuf::Arena*) const
PUBLIC b4150 0 hegproto_v2::ConditionalStmt::New() const
PUBLIC b4160 0 hegproto_v2::BinaryOperator::New(google::protobuf::Arena*) const
PUBLIC b4170 0 hegproto_v2::BinaryOperator::New() const
PUBLIC b4180 0 hegproto_v2::UnaryOperator::New(google::protobuf::Arena*) const
PUBLIC b4190 0 hegproto_v2::UnaryOperator::New() const
PUBLIC b41a0 0 hegproto_v2::PortDecl::New(google::protobuf::Arena*) const
PUBLIC b41b0 0 hegproto_v2::PortDecl::New() const
PUBLIC b41c0 0 hegproto_v2::DimensionInfo::New(google::protobuf::Arena*) const
PUBLIC b41d0 0 hegproto_v2::DimensionInfo::New() const
PUBLIC b41e0 0 hegproto_v2::NamePrefix::New(google::protobuf::Arena*) const
PUBLIC b41f0 0 hegproto_v2::NamePrefix::New() const
PUBLIC b4200 0 hegproto_v2::Data::New(google::protobuf::Arena*) const
PUBLIC b4210 0 hegproto_v2::Data::New() const
PUBLIC b4220 0 hegproto_v2::SourceChunk::New(google::protobuf::Arena*) const
PUBLIC b4230 0 hegproto_v2::SourceChunk::New() const
PUBLIC b4240 0 hegproto_v2::IncludeRef::New(google::protobuf::Arena*) const
PUBLIC b4250 0 hegproto_v2::IncludeRef::New() const
PUBLIC b4260 0 hegproto_v2::MacroElement::New(google::protobuf::Arena*) const
PUBLIC b4270 0 hegproto_v2::MacroElement::New() const
PUBLIC b4280 0 hegproto_v2::MacroArg::New(google::protobuf::Arena*) const
PUBLIC b4290 0 hegproto_v2::MacroArg::New() const
PUBLIC b42a0 0 hegproto_v2::MacroDefinition::New(google::protobuf::Arena*) const
PUBLIC b42b0 0 hegproto_v2::MacroDefinition::New() const
PUBLIC b42c0 0 google::protobuf::internal::GenericTypeHandler<common_v2::Id>::Merge(common_v2::Id const&, common_v2::Id*)
PUBLIC b42d0 0 void google::protobuf::internal::RepeatedPtrFieldBase::MergeFromInnerLoop<google::protobuf::RepeatedPtrField<common_v2::Id>::TypeHandler>(void**, void**, int, int)
PUBLIC b4390 0 google::protobuf::internal::GenericTypeHandler<hegproto_v2::MacroArg>::Merge(hegproto_v2::MacroArg const&, hegproto_v2::MacroArg*)
PUBLIC b43a0 0 void google::protobuf::internal::RepeatedPtrFieldBase::MergeFromInnerLoop<google::protobuf::RepeatedPtrField<hegproto_v2::MacroArg>::TypeHandler>(void**, void**, int, int)
PUBLIC b4460 0 google::protobuf::internal::GenericTypeHandler<hegproto_v2::MacroElement>::Merge(hegproto_v2::MacroElement const&, hegproto_v2::MacroElement*)
PUBLIC b4470 0 void google::protobuf::internal::RepeatedPtrFieldBase::MergeFromInnerLoop<google::protobuf::RepeatedPtrField<hegproto_v2::MacroElement>::TypeHandler>(void**, void**, int, int)
PUBLIC b4530 0 google::protobuf::RepeatedPtrField<common_v2::Id>::~RepeatedPtrField()
PUBLIC b45c0 0 hegproto_v2::Block::New(google::protobuf::Arena*) const
PUBLIC b45d0 0 hegproto_v2::Block::New() const
PUBLIC b45e0 0 hegproto_v2::EventCtrlStmt::New(google::protobuf::Arena*) const
PUBLIC b45f0 0 hegproto_v2::EventCtrlStmt::New() const
PUBLIC b4600 0 hegproto_v2::EventExpression::New(google::protobuf::Arena*) const
PUBLIC b4610 0 hegproto_v2::EventExpression::New() const
PUBLIC b4620 0 hegproto_v2::ModuleInstantiation::New(google::protobuf::Arena*) const
PUBLIC b4630 0 hegproto_v2::ModuleInstantiation::New() const
PUBLIC b4640 0 hegproto_v2::InstantiationInfo::New(google::protobuf::Arena*) const
PUBLIC b4650 0 hegproto_v2::InstantiationInfo::New() const
PUBLIC b4660 0 hegproto_v2::IndexedExpression::New(google::protobuf::Arena*) const
PUBLIC b4670 0 hegproto_v2::IndexedExpression::New() const
PUBLIC b4680 0 hegproto_v2::Module::New(google::protobuf::Arena*) const
PUBLIC b4690 0 hegproto_v2::Module::New() const
PUBLIC b46a0 0 hegproto_v2::UnhandledConstruct::New(google::protobuf::Arena*) const
PUBLIC b46b0 0 hegproto_v2::UnhandledConstruct::New() const
PUBLIC b46c0 0 hegproto_v2::TextRef::New(google::protobuf::Arena*) const
PUBLIC b46d0 0 hegproto_v2::TextRef::New() const
PUBLIC b46e0 0 google::protobuf::RepeatedPtrField<hegproto_v2::MacroElement>::~RepeatedPtrField()
PUBLIC b4770 0 void google::protobuf::internal::RepeatedPtrFieldBase::Clear<google::protobuf::RepeatedPtrField<hegproto_v2::MacroElement>::TypeHandler>()
PUBLIC b4830 0 google::protobuf::RepeatedPtrField<hegproto_v2::MacroArg>::~RepeatedPtrField()
PUBLIC b48c0 0 hegproto_v2::MacroRef::New(google::protobuf::Arena*) const
PUBLIC b48d0 0 hegproto_v2::MacroRef::New() const
PUBLIC b48e0 0 void google::protobuf::internal::RepeatedPtrFieldBase::Clear<google::protobuf::RepeatedPtrField<hegproto_v2::MacroArg>::TypeHandler>()
PUBLIC b49a0 0 char const* google::protobuf::internal::ParseContext::ParseMessage<hegproto_v2::MacroElement>(hegproto_v2::MacroElement*, char const*)
PUBLIC b4af0 0 void google::protobuf::internal::RepeatedPtrFieldBase::Clear<google::protobuf::RepeatedPtrField<common_v2::Id>::TypeHandler>()
PUBLIC b4bb0 0 hiertreeproto_v2::Parameter::IsInitialized() const
PUBLIC b4bc0 0 hiertreeproto_v2::Node::GetMetadata() const
PUBLIC b4be0 0 hiertreeproto_v2::NamedBlock::GetMetadata() const
PUBLIC b4c00 0 hiertreeproto_v2::Signal_Attribute::GetMetadata() const
PUBLIC b4c20 0 hiertreeproto_v2::Signal::GetMetadata() const
PUBLIC b4c40 0 hiertreeproto_v2::ModuleItem::GetMetadata() const
PUBLIC b4c60 0 hiertreeproto_v2::Edge::GetMetadata() const
PUBLIC b4c80 0 hiertreeproto_v2::Genvar::GetMetadata() const
PUBLIC b4ca0 0 hiertreeproto_v2::ParameterValue::GetMetadata() const
PUBLIC b4cc0 0 hiertreeproto_v2::Parameter::GetMetadata() const
PUBLIC b4cf0 0 hiertreeproto_v2::Attribute::GetMetadata() const
PUBLIC b4d20 0 hiertreeproto_v2::MessageType::GetMetadata() const
PUBLIC b4d50 0 hiertreeproto_v2::CoercedPort::GetMetadata() const
PUBLIC b4d80 0 hiertreeproto_v2::Node::SetCachedSize(int) const
PUBLIC b4d90 0 hiertreeproto_v2::NamedBlock::SetCachedSize(int) const
PUBLIC b4da0 0 hiertreeproto_v2::Signal_Attribute::SetCachedSize(int) const
PUBLIC b4db0 0 hiertreeproto_v2::Signal::SetCachedSize(int) const
PUBLIC b4dc0 0 hiertreeproto_v2::ModuleItem::SetCachedSize(int) const
PUBLIC b4dd0 0 hiertreeproto_v2::Edge::SetCachedSize(int) const
PUBLIC b4de0 0 hiertreeproto_v2::Genvar::SetCachedSize(int) const
PUBLIC b4df0 0 hiertreeproto_v2::ParameterValue::SetCachedSize(int) const
PUBLIC b4e00 0 hiertreeproto_v2::Parameter::SetCachedSize(int) const
PUBLIC b4e10 0 hiertreeproto_v2::Attribute::SetCachedSize(int) const
PUBLIC b4e20 0 hiertreeproto_v2::MessageType::SetCachedSize(int) const
PUBLIC b4e30 0 hiertreeproto_v2::CoercedPort::SetCachedSize(int) const
PUBLIC b4e40 0 hiertreeproto_v2::Signal_Attribute::ByteSizeLong() const
PUBLIC b4ed0 0 hiertreeproto_v2::Attribute::ByteSizeLong() const
PUBLIC b4f50 0 hiertreeproto_v2::MessageType::ByteSizeLong() const
PUBLIC b4fb0 0 hiertreeproto_v2::MessageType::_InternalSerialize(unsigned char*, google::protobuf::io::EpsCopyOutputStream*) const
PUBLIC b5090 0 hiertreeproto_v2::Signal_Attribute::_InternalSerialize(unsigned char*, google::protobuf::io::EpsCopyOutputStream*) const
PUBLIC b5240 0 hiertreeproto_v2::Attribute::~Attribute()
PUBLIC b53a0 0 hiertreeproto_v2::Attribute::~Attribute()
PUBLIC b53c0 0 hiertreeproto_v2::MessageType::~MessageType()
PUBLIC b54c0 0 hiertreeproto_v2::MessageType::~MessageType()
PUBLIC b54e0 0 hiertreeproto_v2::Signal_Attribute::~Signal_Attribute()
PUBLIC b55e0 0 hiertreeproto_v2::Signal_Attribute::~Signal_Attribute()
PUBLIC b5600 0 hiertreeproto_v2::Attribute::_InternalSerialize(unsigned char*, google::protobuf::io::EpsCopyOutputStream*) const
PUBLIC b5780 0 hiertreeproto_v2::NamedBlock_Type_descriptor()
PUBLIC b57a0 0 hiertreeproto_v2::NamedBlock_Type_IsValid(int)
PUBLIC b57b0 0 hiertreeproto_v2::Signal_Visibility_descriptor()
PUBLIC b57d0 0 hiertreeproto_v2::Signal_Visibility_IsValid(int)
PUBLIC b57e0 0 hiertreeproto_v2::Edge_EdgeKind_descriptor()
PUBLIC b5800 0 hiertreeproto_v2::Edge_EdgeKind_IsValid(int)
PUBLIC b5810 0 hiertreeproto_v2::ParameterValue_Type_descriptor()
PUBLIC b5830 0 hiertreeproto_v2::ParameterValue_Type_IsValid(int)
PUBLIC b5840 0 hiertreeproto_v2::MessageType_Type_descriptor()
PUBLIC b5860 0 hiertreeproto_v2::MessageType_Type_IsValid(int)
PUBLIC b5880 0 hiertreeproto_v2::Node::InitAsDefaultInstance()
PUBLIC b58a0 0 hiertreeproto_v2::Node::_Internal::id(hiertreeproto_v2::Node const*)
PUBLIC b58b0 0 hiertreeproto_v2::Node::_Internal::parentnodeid(hiertreeproto_v2::Node const*)
PUBLIC b58c0 0 hiertreeproto_v2::Node::_Internal::namedblockid(hiertreeproto_v2::Node const*)
PUBLIC b58d0 0 hiertreeproto_v2::Node::_Internal::srclocid(hiertreeproto_v2::Node const*)
PUBLIC b58e0 0 hiertreeproto_v2::Node::Node(google::protobuf::Arena*)
PUBLIC b5930 0 InitDefaultsscc_info_Node_hiertreedb_5fv2_2eproto()
PUBLIC b5970 0 hiertreeproto_v2::Node::ArenaDtor(void*)
PUBLIC b5980 0 hiertreeproto_v2::Node::default_instance()
PUBLIC b59b0 0 hiertreeproto_v2::NamedBlock::InitAsDefaultInstance()
PUBLIC b59d0 0 hiertreeproto_v2::NamedBlock::_Internal::id(hiertreeproto_v2::NamedBlock const*)
PUBLIC b59e0 0 hiertreeproto_v2::NamedBlock::_Internal::srclocid(hiertreeproto_v2::NamedBlock const*)
PUBLIC b59f0 0 hiertreeproto_v2::NamedBlock::NamedBlock(google::protobuf::Arena*)
PUBLIC b5a50 0 InitDefaultsscc_info_NamedBlock_hiertreedb_5fv2_2eproto()
PUBLIC b5a90 0 hiertreeproto_v2::NamedBlock::ArenaDtor(void*)
PUBLIC b5aa0 0 hiertreeproto_v2::NamedBlock::default_instance()
PUBLIC b5ad0 0 hiertreeproto_v2::Signal_Attribute::InitAsDefaultInstance()
PUBLIC b5ae0 0 hiertreeproto_v2::Signal_Attribute::Signal_Attribute(google::protobuf::Arena*)
PUBLIC b5b10 0 InitDefaultsscc_info_Signal_Attribute_hiertreedb_5fv2_2eproto()
PUBLIC b5b50 0 hiertreeproto_v2::Signal_Attribute::ArenaDtor(void*)
PUBLIC b5b60 0 hiertreeproto_v2::Signal_Attribute::default_instance()
PUBLIC b5b90 0 hiertreeproto_v2::Signal::InitAsDefaultInstance()
PUBLIC b5bc0 0 hiertreeproto_v2::Signal::_Internal::id(hiertreeproto_v2::Signal const*)
PUBLIC b5bd0 0 hiertreeproto_v2::Signal::_Internal::attr(hiertreeproto_v2::Signal const*)
PUBLIC b5be0 0 hiertreeproto_v2::Signal::_Internal::srclocid(hiertreeproto_v2::Signal const*)
PUBLIC b5bf0 0 hiertreeproto_v2::Signal::_Internal::moduleitemid(hiertreeproto_v2::Signal const*)
PUBLIC b5c00 0 hiertreeproto_v2::Signal::Signal(google::protobuf::Arena*)
PUBLIC b5c50 0 InitDefaultsscc_info_Signal_hiertreedb_5fv2_2eproto()
PUBLIC b5c90 0 hiertreeproto_v2::Signal::ArenaDtor(void*)
PUBLIC b5ca0 0 hiertreeproto_v2::Signal::default_instance()
PUBLIC b5cd0 0 hiertreeproto_v2::ModuleItem::InitAsDefaultInstance()
PUBLIC b5d00 0 hiertreeproto_v2::ModuleItem::_Internal::id(hiertreeproto_v2::ModuleItem const*)
PUBLIC b5d10 0 hiertreeproto_v2::ModuleItem::_Internal::srclocid(hiertreeproto_v2::ModuleItem const*)
PUBLIC b5d20 0 hiertreeproto_v2::ModuleItem::_Internal::hegid(hiertreeproto_v2::ModuleItem const*)
PUBLIC b5d30 0 hiertreeproto_v2::ModuleItem::ModuleItem(google::protobuf::Arena*)
PUBLIC b5d90 0 InitDefaultsscc_info_ModuleItem_hiertreedb_5fv2_2eproto()
PUBLIC b5dd0 0 hiertreeproto_v2::ModuleItem::ArenaDtor(void*)
PUBLIC b5de0 0 hiertreeproto_v2::ModuleItem::default_instance()
PUBLIC b5e10 0 hiertreeproto_v2::Edge::InitAsDefaultInstance()
PUBLIC b5e30 0 hiertreeproto_v2::Edge::_Internal::nodeidis(hiertreeproto_v2::Edge const*)
PUBLIC b5e40 0 hiertreeproto_v2::Edge::_Internal::ofnodeids(hiertreeproto_v2::Edge const*)
PUBLIC b5e50 0 hiertreeproto_v2::Edge::Edge(google::protobuf::Arena*)
PUBLIC b5ea0 0 InitDefaultsscc_info_Edge_hiertreedb_5fv2_2eproto()
PUBLIC b5ee0 0 hiertreeproto_v2::Edge::ArenaDtor(void*)
PUBLIC b5ef0 0 hiertreeproto_v2::Edge::default_instance()
PUBLIC b5f20 0 hiertreeproto_v2::Genvar::InitAsDefaultInstance()
PUBLIC b5f50 0 hiertreeproto_v2::Genvar::_Internal::id(hiertreeproto_v2::Genvar const*)
PUBLIC b5f60 0 hiertreeproto_v2::Genvar::_Internal::parentid(hiertreeproto_v2::Genvar const*)
PUBLIC b5f70 0 hiertreeproto_v2::Genvar::_Internal::srclocid(hiertreeproto_v2::Genvar const*)
PUBLIC b5f80 0 hiertreeproto_v2::Genvar::Genvar(google::protobuf::Arena*)
PUBLIC b5fe0 0 InitDefaultsscc_info_Genvar_hiertreedb_5fv2_2eproto()
PUBLIC b6020 0 hiertreeproto_v2::Genvar::ArenaDtor(void*)
PUBLIC b6030 0 hiertreeproto_v2::Genvar::default_instance()
PUBLIC b6060 0 hiertreeproto_v2::ParameterValue::InitAsDefaultInstance()
PUBLIC b6080 0 hiertreeproto_v2::ParameterValue::_Internal::stream(hiertreeproto_v2::ParameterValue const*)
PUBLIC b6090 0 hiertreeproto_v2::ParameterValue::ParameterValue(google::protobuf::Arena*)
PUBLIC b60f0 0 InitDefaultsscc_info_ParameterValue_hiertreedb_5fv2_2eproto()
PUBLIC b6130 0 hiertreeproto_v2::ParameterValue::ArenaDtor(void*)
PUBLIC b6140 0 hiertreeproto_v2::ParameterValue::default_instance()
PUBLIC b6170 0 hiertreeproto_v2::Parameter::InitAsDefaultInstance()
PUBLIC b61a0 0 hiertreeproto_v2::Parameter::_Internal::id(hiertreeproto_v2::Parameter const*)
PUBLIC b61b0 0 hiertreeproto_v2::Parameter::_Internal::moduleitemid(hiertreeproto_v2::Parameter const*)
PUBLIC b61c0 0 hiertreeproto_v2::Parameter::_Internal::srclocid(hiertreeproto_v2::Parameter const*)
PUBLIC b61d0 0 hiertreeproto_v2::Parameter::Parameter(google::protobuf::Arena*)
PUBLIC b6230 0 InitDefaultsscc_info_Parameter_hiertreedb_5fv2_2eproto()
PUBLIC b6270 0 hiertreeproto_v2::Parameter::ArenaDtor(void*)
PUBLIC b6280 0 hiertreeproto_v2::Parameter::default_instance()
PUBLIC b62b0 0 hiertreeproto_v2::Attribute::InitAsDefaultInstance()
PUBLIC b62c0 0 hiertreeproto_v2::Attribute::Attribute(google::protobuf::Arena*)
PUBLIC b6310 0 InitDefaultsscc_info_Attribute_hiertreedb_5fv2_2eproto()
PUBLIC b6350 0 hiertreeproto_v2::Attribute::ArenaDtor(void*)
PUBLIC b6360 0 hiertreeproto_v2::Attribute::default_instance()
PUBLIC b6390 0 hiertreeproto_v2::MessageType::InitAsDefaultInstance()
PUBLIC b63a0 0 hiertreeproto_v2::MessageType::MessageType(google::protobuf::Arena*)
PUBLIC b63c0 0 InitDefaultsscc_info_MessageType_hiertreedb_5fv2_2eproto()
PUBLIC b6400 0 hiertreeproto_v2::MessageType::ArenaDtor(void*)
PUBLIC b6410 0 hiertreeproto_v2::MessageType::default_instance()
PUBLIC b6440 0 hiertreeproto_v2::CoercedPort::InitAsDefaultInstance()
PUBLIC b6460 0 hiertreeproto_v2::CoercedPort::_Internal::portid(hiertreeproto_v2::CoercedPort const*)
PUBLIC b6470 0 hiertreeproto_v2::CoercedPort::CoercedPort(google::protobuf::Arena*)
PUBLIC b64c0 0 InitDefaultsscc_info_CoercedPort_hiertreedb_5fv2_2eproto()
PUBLIC b6500 0 hiertreeproto_v2::CoercedPort::ArenaDtor(void*)
PUBLIC b6510 0 hiertreeproto_v2::CoercedPort::default_instance()
PUBLIC b6540 0 hiertreeproto_v2::Node* google::protobuf::Arena::CreateMaybeMessage<hiertreeproto_v2::Node>(google::protobuf::Arena*)
PUBLIC b65c0 0 hiertreeproto_v2::NamedBlock* google::protobuf::Arena::CreateMaybeMessage<hiertreeproto_v2::NamedBlock>(google::protobuf::Arena*)
PUBLIC b6640 0 hiertreeproto_v2::Signal_Attribute* google::protobuf::Arena::CreateMaybeMessage<hiertreeproto_v2::Signal_Attribute>(google::protobuf::Arena*)
PUBLIC b66c0 0 hiertreeproto_v2::Signal* google::protobuf::Arena::CreateMaybeMessage<hiertreeproto_v2::Signal>(google::protobuf::Arena*)
PUBLIC b6740 0 hiertreeproto_v2::ModuleItem* google::protobuf::Arena::CreateMaybeMessage<hiertreeproto_v2::ModuleItem>(google::protobuf::Arena*)
PUBLIC b67c0 0 hiertreeproto_v2::Edge* google::protobuf::Arena::CreateMaybeMessage<hiertreeproto_v2::Edge>(google::protobuf::Arena*)
PUBLIC b6840 0 hiertreeproto_v2::Genvar* google::protobuf::Arena::CreateMaybeMessage<hiertreeproto_v2::Genvar>(google::protobuf::Arena*)
PUBLIC b68c0 0 hiertreeproto_v2::ParameterValue* google::protobuf::Arena::CreateMaybeMessage<hiertreeproto_v2::ParameterValue>(google::protobuf::Arena*)
PUBLIC b6940 0 hiertreeproto_v2::Parameter* google::protobuf::Arena::CreateMaybeMessage<hiertreeproto_v2::Parameter>(google::protobuf::Arena*)
PUBLIC b69c0 0 hiertreeproto_v2::Attribute* google::protobuf::Arena::CreateMaybeMessage<hiertreeproto_v2::Attribute>(google::protobuf::Arena*)
PUBLIC b6a40 0 hiertreeproto_v2::MessageType* google::protobuf::Arena::CreateMaybeMessage<hiertreeproto_v2::MessageType>(google::protobuf::Arena*)
PUBLIC b6ac0 0 hiertreeproto_v2::CoercedPort* google::protobuf::Arena::CreateMaybeMessage<hiertreeproto_v2::CoercedPort>(google::protobuf::Arena*)
PUBLIC b6b40 0 hiertreeproto_v2::Signal_Attribute::_InternalParse(char const*, google::protobuf::internal::ParseContext*)
PUBLIC b6f40 0 hiertreeproto_v2::MessageType::_InternalParse(char const*, google::protobuf::internal::ParseContext*)
PUBLIC b7170 0 hiertreeproto_v2::Node::Node(hiertreeproto_v2::Node const&)
PUBLIC b7380 0 hiertreeproto_v2::ModuleItem::InternalSwap(hiertreeproto_v2::ModuleItem*)
PUBLIC b7560 0 hiertreeproto_v2::Attribute::_InternalParse(char const*, google::protobuf::internal::ParseContext*)
PUBLIC b78a0 0 hiertreeproto_v2::Signal_Attribute::InternalSwap(hiertreeproto_v2::Signal_Attribute*)
PUBLIC b7950 0 hiertreeproto_v2::MessageType::Clear()
PUBLIC b7980 0 hiertreeproto_v2::CoercedPort::InternalSwap(hiertreeproto_v2::CoercedPort*)
PUBLIC b7a30 0 hiertreeproto_v2::MessageType::InternalSwap(hiertreeproto_v2::MessageType*)
PUBLIC b7ae0 0 hiertreeproto_v2::Edge::InternalSwap(hiertreeproto_v2::Edge*)
PUBLIC b7ba0 0 hiertreeproto_v2::Signal_Attribute::Clear()
PUBLIC b7bd0 0 hiertreeproto_v2::ParameterValue::InternalSwap(hiertreeproto_v2::ParameterValue*)
PUBLIC b7d00 0 hiertreeproto_v2::NamedBlock::InternalSwap(hiertreeproto_v2::NamedBlock*)
PUBLIC b7e30 0 hiertreeproto_v2::Parameter::InternalSwap(hiertreeproto_v2::Parameter*)
PUBLIC b7f70 0 hiertreeproto_v2::Node::InternalSwap(hiertreeproto_v2::Node*)
PUBLIC b80b0 0 hiertreeproto_v2::Signal::InternalSwap(hiertreeproto_v2::Signal*)
PUBLIC b81f0 0 hiertreeproto_v2::Genvar::InternalSwap(hiertreeproto_v2::Genvar*)
PUBLIC b8340 0 hiertreeproto_v2::Attribute::Clear()
PUBLIC b83a0 0 hiertreeproto_v2::Signal_Attribute::Signal_Attribute(hiertreeproto_v2::Signal_Attribute const&)
PUBLIC b8430 0 hiertreeproto_v2::MessageType::MessageType(hiertreeproto_v2::MessageType const&)
PUBLIC b84c0 0 hiertreeproto_v2::Attribute::InternalSwap(hiertreeproto_v2::Attribute*)
PUBLIC b8680 0 hiertreeproto_v2::CoercedPort::CoercedPort(hiertreeproto_v2::CoercedPort const&)
PUBLIC b8750 0 hiertreeproto_v2::MessageType::MergeFrom(hiertreeproto_v2::MessageType const&)
PUBLIC b8840 0 hiertreeproto_v2::MessageType::CopyFrom(hiertreeproto_v2::MessageType const&)
PUBLIC b8880 0 hiertreeproto_v2::MessageType::MergeFrom(google::protobuf::Message const&)
PUBLIC b8960 0 hiertreeproto_v2::MessageType::CopyFrom(google::protobuf::Message const&)
PUBLIC b89a0 0 hiertreeproto_v2::Attribute::Attribute(hiertreeproto_v2::Attribute const&)
PUBLIC b8ab0 0 hiertreeproto_v2::Attribute::MergeFrom(hiertreeproto_v2::Attribute const&)
PUBLIC b8c60 0 hiertreeproto_v2::Attribute::MergeFrom(google::protobuf::Message const&)
PUBLIC b8d40 0 hiertreeproto_v2::Attribute::CopyFrom(google::protobuf::Message const&)
PUBLIC b8d80 0 hiertreeproto_v2::Attribute::CopyFrom(hiertreeproto_v2::Attribute const&)
PUBLIC b8dc0 0 hiertreeproto_v2::ParameterValue::ParameterValue(hiertreeproto_v2::ParameterValue const&)
PUBLIC b8ef0 0 hiertreeproto_v2::CoercedPort::MergeFrom(hiertreeproto_v2::CoercedPort const&)
PUBLIC b9030 0 hiertreeproto_v2::CoercedPort::MergeFrom(google::protobuf::Message const&)
PUBLIC b9110 0 hiertreeproto_v2::Signal_Attribute::MergeFrom(hiertreeproto_v2::Signal_Attribute const&)
PUBLIC b9230 0 hiertreeproto_v2::Signal_Attribute::CopyFrom(hiertreeproto_v2::Signal_Attribute const&)
PUBLIC b9270 0 hiertreeproto_v2::Signal_Attribute::MergeFrom(google::protobuf::Message const&)
PUBLIC b9350 0 hiertreeproto_v2::Signal_Attribute::CopyFrom(google::protobuf::Message const&)
PUBLIC b9390 0 hiertreeproto_v2::Edge::Edge(hiertreeproto_v2::Edge const&)
PUBLIC b94d0 0 hiertreeproto_v2::ParameterValue::MergeFrom(hiertreeproto_v2::ParameterValue const&)
PUBLIC b9690 0 hiertreeproto_v2::ParameterValue::MergeFrom(google::protobuf::Message const&)
PUBLIC b9770 0 hiertreeproto_v2::Edge::MergeFrom(hiertreeproto_v2::Edge const&)
PUBLIC b9920 0 hiertreeproto_v2::Edge::MergeFrom(google::protobuf::Message const&)
PUBLIC b9a00 0 hiertreeproto_v2::NamedBlock::NamedBlock(hiertreeproto_v2::NamedBlock const&)
PUBLIC b9b90 0 hiertreeproto_v2::NamedBlock::MergeFrom(hiertreeproto_v2::NamedBlock const&)
PUBLIC b9db0 0 hiertreeproto_v2::NamedBlock::MergeFrom(google::protobuf::Message const&)
PUBLIC b9e90 0 hiertreeproto_v2::Parameter::MergeFrom(hiertreeproto_v2::Parameter const&)
PUBLIC ba100 0 hiertreeproto_v2::Parameter::MergeFrom(google::protobuf::Message const&)
PUBLIC ba1e0 0 hiertreeproto_v2::Parameter::Parameter(hiertreeproto_v2::Parameter const&)
PUBLIC ba3a0 0 hiertreeproto_v2::Genvar::MergeFrom(hiertreeproto_v2::Genvar const&)
PUBLIC ba610 0 hiertreeproto_v2::Genvar::MergeFrom(google::protobuf::Message const&)
PUBLIC ba6f0 0 hiertreeproto_v2::Genvar::Genvar(hiertreeproto_v2::Genvar const&)
PUBLIC ba8c0 0 hiertreeproto_v2::ModuleItem::MergeFrom(hiertreeproto_v2::ModuleItem const&)
PUBLIC babb0 0 hiertreeproto_v2::ModuleItem::MergeFrom(google::protobuf::Message const&)
PUBLIC bac90 0 hiertreeproto_v2::Signal::MergeFrom(hiertreeproto_v2::Signal const&)
PUBLIC baf70 0 hiertreeproto_v2::Signal::MergeFrom(google::protobuf::Message const&)
PUBLIC bb050 0 hiertreeproto_v2::Node::MergeFrom(hiertreeproto_v2::Node const&)
PUBLIC bb330 0 hiertreeproto_v2::Node::MergeFrom(google::protobuf::Message const&)
PUBLIC bb410 0 hiertreeproto_v2::ModuleItem::ModuleItem(hiertreeproto_v2::ModuleItem const&)
PUBLIC bb620 0 hiertreeproto_v2::Signal::Signal(hiertreeproto_v2::Signal const&)
PUBLIC bb830 0 hiertreeproto_v2::Node::clear_id()
PUBLIC bb880 0 hiertreeproto_v2::Node::clear_parentnodeid()
PUBLIC bb8d0 0 hiertreeproto_v2::Node::clear_namedblockid()
PUBLIC bb920 0 hiertreeproto_v2::Node::clear_srclocid()
PUBLIC bb970 0 hiertreeproto_v2::Node::~Node()
PUBLIC bbae0 0 hiertreeproto_v2::Node::~Node()
PUBLIC bbb00 0 hiertreeproto_v2::Node::Clear()
PUBLIC bbcd0 0 hiertreeproto_v2::Node::CopyFrom(google::protobuf::Message const&)
PUBLIC bbd10 0 hiertreeproto_v2::Node::CopyFrom(hiertreeproto_v2::Node const&)
PUBLIC bbd50 0 hiertreeproto_v2::NamedBlock::clear_id()
PUBLIC bbda0 0 hiertreeproto_v2::NamedBlock::clear_srclocid()
PUBLIC bbdf0 0 hiertreeproto_v2::NamedBlock::~NamedBlock()
PUBLIC bbf40 0 hiertreeproto_v2::NamedBlock::~NamedBlock()
PUBLIC bbf60 0 hiertreeproto_v2::NamedBlock::Clear()
PUBLIC bc050 0 hiertreeproto_v2::NamedBlock::CopyFrom(google::protobuf::Message const&)
PUBLIC bc090 0 hiertreeproto_v2::NamedBlock::CopyFrom(hiertreeproto_v2::NamedBlock const&)
PUBLIC bc0d0 0 hiertreeproto_v2::Signal::clear_id()
PUBLIC bc120 0 hiertreeproto_v2::Signal::clear_srclocid()
PUBLIC bc170 0 hiertreeproto_v2::Signal::clear_moduleitemid()
PUBLIC bc1c0 0 hiertreeproto_v2::Signal::~Signal()
PUBLIC bc330 0 hiertreeproto_v2::Signal::~Signal()
PUBLIC bc350 0 hiertreeproto_v2::Signal::Clear()
PUBLIC bc520 0 hiertreeproto_v2::Signal::CopyFrom(google::protobuf::Message const&)
PUBLIC bc560 0 hiertreeproto_v2::Signal::CopyFrom(hiertreeproto_v2::Signal const&)
PUBLIC bc5a0 0 hiertreeproto_v2::ModuleItem::clear_id()
PUBLIC bc5f0 0 hiertreeproto_v2::ModuleItem::clear_srclocid()
PUBLIC bc640 0 hiertreeproto_v2::ModuleItem::clear_hegid()
PUBLIC bc690 0 hiertreeproto_v2::ModuleItem::~ModuleItem()
PUBLIC bc820 0 hiertreeproto_v2::ModuleItem::~ModuleItem()
PUBLIC bc840 0 hiertreeproto_v2::ModuleItem::Clear()
PUBLIC bc9c0 0 hiertreeproto_v2::ModuleItem::CopyFrom(google::protobuf::Message const&)
PUBLIC bca00 0 hiertreeproto_v2::ModuleItem::CopyFrom(hiertreeproto_v2::ModuleItem const&)
PUBLIC bca40 0 hiertreeproto_v2::Edge::clear_nodeidis()
PUBLIC bca90 0 hiertreeproto_v2::Edge::clear_ofnodeids()
PUBLIC bcae0 0 hiertreeproto_v2::Edge::~Edge()
PUBLIC bcc00 0 hiertreeproto_v2::Edge::~Edge()
PUBLIC bcc20 0 hiertreeproto_v2::Edge::Clear()
PUBLIC bccf0 0 hiertreeproto_v2::Edge::CopyFrom(google::protobuf::Message const&)
PUBLIC bcd30 0 hiertreeproto_v2::Edge::CopyFrom(hiertreeproto_v2::Edge const&)
PUBLIC bcd70 0 hiertreeproto_v2::Genvar::clear_id()
PUBLIC bcdc0 0 hiertreeproto_v2::Genvar::clear_parentid()
PUBLIC bce10 0 hiertreeproto_v2::Genvar::clear_srclocid()
PUBLIC bce60 0 hiertreeproto_v2::Genvar::~Genvar()
PUBLIC bcfc0 0 hiertreeproto_v2::Genvar::~Genvar()
PUBLIC bcfe0 0 hiertreeproto_v2::Genvar::Clear()
PUBLIC bd150 0 hiertreeproto_v2::Genvar::CopyFrom(google::protobuf::Message const&)
PUBLIC bd190 0 hiertreeproto_v2::Genvar::CopyFrom(hiertreeproto_v2::Genvar const&)
PUBLIC bd1d0 0 hiertreeproto_v2::Parameter::clear_id()
PUBLIC bd220 0 hiertreeproto_v2::Parameter::clear_moduleitemid()
PUBLIC bd270 0 hiertreeproto_v2::Parameter::clear_srclocid()
PUBLIC bd2c0 0 hiertreeproto_v2::Parameter::~Parameter()
PUBLIC bd420 0 hiertreeproto_v2::Parameter::~Parameter()
PUBLIC bd440 0 hiertreeproto_v2::Parameter::Clear()
PUBLIC bd5a0 0 hiertreeproto_v2::Parameter::CopyFrom(google::protobuf::Message const&)
PUBLIC bd5e0 0 hiertreeproto_v2::Parameter::CopyFrom(hiertreeproto_v2::Parameter const&)
PUBLIC bd620 0 hiertreeproto_v2::CoercedPort::clear_portid()
PUBLIC bd670 0 hiertreeproto_v2::CoercedPort::~CoercedPort()
PUBLIC bd780 0 hiertreeproto_v2::CoercedPort::~CoercedPort()
PUBLIC bd7a0 0 hiertreeproto_v2::CoercedPort::Clear()
PUBLIC bd820 0 hiertreeproto_v2::CoercedPort::CopyFrom(google::protobuf::Message const&)
PUBLIC bd860 0 hiertreeproto_v2::CoercedPort::CopyFrom(hiertreeproto_v2::CoercedPort const&)
PUBLIC bd8a0 0 hiertreeproto_v2::Node::_InternalParse(char const*, google::protobuf::internal::ParseContext*)
PUBLIC bdc60 0 hiertreeproto_v2::NamedBlock::_InternalParse(char const*, google::protobuf::internal::ParseContext*)
PUBLIC be000 0 hiertreeproto_v2::Signal::_InternalParse(char const*, google::protobuf::internal::ParseContext*)
PUBLIC be4e0 0 hiertreeproto_v2::ModuleItem::_InternalParse(char const*, google::protobuf::internal::ParseContext*)
PUBLIC be950 0 hiertreeproto_v2::Edge::_InternalParse(char const*, google::protobuf::internal::ParseContext*)
PUBLIC bec70 0 hiertreeproto_v2::Genvar::_InternalParse(char const*, google::protobuf::internal::ParseContext*)
PUBLIC bf040 0 hiertreeproto_v2::Parameter::_InternalParse(char const*, google::protobuf::internal::ParseContext*)
PUBLIC bf3d0 0 hiertreeproto_v2::CoercedPort::_InternalParse(char const*, google::protobuf::internal::ParseContext*)
PUBLIC bf600 0 hiertreeproto_v2::Node::_InternalSerialize(unsigned char*, google::protobuf::io::EpsCopyOutputStream*) const
PUBLIC bfa10 0 hiertreeproto_v2::NamedBlock::_InternalSerialize(unsigned char*, google::protobuf::io::EpsCopyOutputStream*) const
PUBLIC bfd20 0 hiertreeproto_v2::ModuleItem::_InternalSerialize(unsigned char*, google::protobuf::io::EpsCopyOutputStream*) const
PUBLIC c0180 0 hiertreeproto_v2::Edge::_InternalSerialize(unsigned char*, google::protobuf::io::EpsCopyOutputStream*) const
PUBLIC c0400 0 hiertreeproto_v2::Genvar::_InternalSerialize(unsigned char*, google::protobuf::io::EpsCopyOutputStream*) const
PUBLIC c07c0 0 hiertreeproto_v2::Parameter::_InternalSerialize(unsigned char*, google::protobuf::io::EpsCopyOutputStream*) const
PUBLIC c0b10 0 hiertreeproto_v2::CoercedPort::_InternalSerialize(unsigned char*, google::protobuf::io::EpsCopyOutputStream*) const
PUBLIC c0c00 0 hiertreeproto_v2::Signal::_InternalSerialize(unsigned char*, google::protobuf::io::EpsCopyOutputStream*) const
PUBLIC c1010 0 hiertreeproto_v2::Node::ByteSizeLong() const
PUBLIC c1120 0 hiertreeproto_v2::NamedBlock::ByteSizeLong() const
PUBLIC c1210 0 hiertreeproto_v2::Signal::ByteSizeLong() const
PUBLIC c1320 0 hiertreeproto_v2::ModuleItem::ByteSizeLong() const
PUBLIC c1460 0 hiertreeproto_v2::Edge::ByteSizeLong() const
PUBLIC c1530 0 hiertreeproto_v2::Genvar::ByteSizeLong() const
PUBLIC c1630 0 hiertreeproto_v2::Parameter::ByteSizeLong() const
PUBLIC c1720 0 hiertreeproto_v2::CoercedPort::ByteSizeLong() const
PUBLIC c1790 0 hiertreeproto_v2::ParameterValue::clear_stream()
PUBLIC c17e0 0 hiertreeproto_v2::ParameterValue::~ParameterValue()
PUBLIC c1920 0 hiertreeproto_v2::ParameterValue::~ParameterValue()
PUBLIC c1940 0 hiertreeproto_v2::ParameterValue::Clear()
PUBLIC c19e0 0 hiertreeproto_v2::ParameterValue::CopyFrom(google::protobuf::Message const&)
PUBLIC c1a20 0 hiertreeproto_v2::ParameterValue::CopyFrom(hiertreeproto_v2::ParameterValue const&)
PUBLIC c1a60 0 hiertreeproto_v2::ParameterValue::_InternalParse(char const*, google::protobuf::internal::ParseContext*)
PUBLIC c1ec0 0 hiertreeproto_v2::ParameterValue::_InternalSerialize(unsigned char*, google::protobuf::io::EpsCopyOutputStream*) const
PUBLIC c2120 0 hiertreeproto_v2::ParameterValue::ByteSizeLong() const
PUBLIC c21e0 0 hiertreeproto_v2::Signal_Attribute::GetCachedSize() const
PUBLIC c21f0 0 hiertreeproto_v2::CoercedPort::GetCachedSize() const
PUBLIC c2200 0 hiertreeproto_v2::MessageType::GetCachedSize() const
PUBLIC c2210 0 hiertreeproto_v2::Attribute::GetCachedSize() const
PUBLIC c2220 0 hiertreeproto_v2::Parameter::GetCachedSize() const
PUBLIC c2230 0 hiertreeproto_v2::ParameterValue::GetCachedSize() const
PUBLIC c2240 0 hiertreeproto_v2::Genvar::GetCachedSize() const
PUBLIC c2250 0 hiertreeproto_v2::Edge::GetCachedSize() const
PUBLIC c2260 0 hiertreeproto_v2::ModuleItem::GetCachedSize() const
PUBLIC c2270 0 hiertreeproto_v2::Signal::GetCachedSize() const
PUBLIC c2280 0 hiertreeproto_v2::NamedBlock::GetCachedSize() const
PUBLIC c2290 0 hiertreeproto_v2::Node::GetCachedSize() const
PUBLIC c22a0 0 hiertreeproto_v2::Node::New(google::protobuf::Arena*) const
PUBLIC c22b0 0 hiertreeproto_v2::Node::New() const
PUBLIC c22c0 0 hiertreeproto_v2::NamedBlock::New(google::protobuf::Arena*) const
PUBLIC c22d0 0 hiertreeproto_v2::NamedBlock::New() const
PUBLIC c22e0 0 hiertreeproto_v2::Signal_Attribute::New(google::protobuf::Arena*) const
PUBLIC c22f0 0 hiertreeproto_v2::Signal_Attribute::New() const
PUBLIC c2300 0 hiertreeproto_v2::Signal::New(google::protobuf::Arena*) const
PUBLIC c2310 0 hiertreeproto_v2::Signal::New() const
PUBLIC c2320 0 hiertreeproto_v2::ModuleItem::New(google::protobuf::Arena*) const
PUBLIC c2330 0 hiertreeproto_v2::ModuleItem::New() const
PUBLIC c2340 0 hiertreeproto_v2::Edge::New(google::protobuf::Arena*) const
PUBLIC c2350 0 hiertreeproto_v2::Edge::New() const
PUBLIC c2360 0 hiertreeproto_v2::Genvar::New(google::protobuf::Arena*) const
PUBLIC c2370 0 hiertreeproto_v2::Genvar::New() const
PUBLIC c2380 0 hiertreeproto_v2::ParameterValue::New(google::protobuf::Arena*) const
PUBLIC c2390 0 hiertreeproto_v2::ParameterValue::New() const
PUBLIC c23a0 0 hiertreeproto_v2::Parameter::New(google::protobuf::Arena*) const
PUBLIC c23b0 0 hiertreeproto_v2::Parameter::New() const
PUBLIC c23c0 0 hiertreeproto_v2::Attribute::New(google::protobuf::Arena*) const
PUBLIC c23d0 0 hiertreeproto_v2::Attribute::New() const
PUBLIC c23e0 0 hiertreeproto_v2::MessageType::New(google::protobuf::Arena*) const
PUBLIC c23f0 0 hiertreeproto_v2::MessageType::New() const
PUBLIC c2400 0 hiertreeproto_v2::CoercedPort::New(google::protobuf::Arena*) const
PUBLIC c2410 0 hiertreeproto_v2::CoercedPort::New() const
PUBLIC c2420 0 google::protobuf::internal::NullLogHandler(google::protobuf::LogLevel, char const*, int, std::__cxx11::basic_string<char, std::char_traits<char>, std::allocator<char> > const&)
PUBLIC c2430 0 google::protobuf::FatalException::what() const
PUBLIC c2440 0 google::protobuf::internal::DefaultLogHandler(google::protobuf::LogLevel, char const*, int, std::__cxx11::basic_string<char, std::char_traits<char>, std::allocator<char> > const&)
PUBLIC c2490 0 google::protobuf::FatalException::~FatalException()
PUBLIC c24c0 0 google::protobuf::FatalException::~FatalException()
PUBLIC c24e0 0 google::protobuf::internal::LogMessage::operator<<(std::__cxx11::basic_string<char, std::char_traits<char>, std::allocator<char> > const&)
PUBLIC c2500 0 google::protobuf::internal::LogMessage::operator<<(char const*)
PUBLIC c2550 0 google::protobuf::internal::LogMessage::operator<<(google::protobuf::util::Status const&)
PUBLIC c25a0 0 google::protobuf::internal::LogMessage::operator<<(char)
PUBLIC c2650 0 google::protobuf::internal::LogMessage::operator<<(int)
PUBLIC c2700 0 google::protobuf::internal::LogMessage::operator<<(unsigned int)
PUBLIC c27b0 0 google::protobuf::internal::LogMessage::operator<<(long)
PUBLIC c2860 0 google::protobuf::internal::LogMessage::operator<<(unsigned long)
PUBLIC c2910 0 google::protobuf::internal::LogMessage::operator<<(double)
PUBLIC c29c0 0 google::protobuf::internal::LogMessage::operator<<(void*)
PUBLIC c2a70 0 google::protobuf::internal::LogMessage::operator<<(long long)
PUBLIC c2b20 0 google::protobuf::internal::LogMessage::operator<<(unsigned long long)
PUBLIC c2bd0 0 google::protobuf::internal::LogMessage::LogMessage(google::protobuf::LogLevel, char const*, int)
PUBLIC c2bf0 0 google::protobuf::internal::LogMessage::~LogMessage()
PUBLIC c2c10 0 google::protobuf::internal::LogMessage::Finish()
PUBLIC c2c60 0 google::protobuf::internal::LogFinisher::operator=(google::protobuf::internal::LogMessage&)
PUBLIC c2c70 0 google::protobuf::SetLogHandler(void (*)(google::protobuf::LogLevel, char const*, int, std::__cxx11::basic_string<char, std::char_traits<char>, std::allocator<char> > const&))
PUBLIC c2ca0 0 google::protobuf::LogSilencer::LogSilencer()
PUBLIC c2cb0 0 google::protobuf::LogSilencer::~LogSilencer()
PUBLIC c2cc0 0 google::protobuf::Closure::~Closure()
PUBLIC c2cd0 0 google::protobuf::internal::FunctionClosure0::~FunctionClosure0()
PUBLIC c2cf0 0 google::protobuf::internal::FunctionClosure0::~FunctionClosure0()
PUBLIC c2d10 0 google::protobuf::Closure::~Closure()
PUBLIC c2d30 0 google::protobuf::DoNothing()
PUBLIC c2d40 0 google::protobuf::ghtonl(unsigned int)
PUBLIC c2d50 0 google::protobuf::internal::LogMessage::operator<<(google::protobuf::uint128 const&)
PUBLIC c3040 0 google::protobuf::internal::VersionString[abi:cxx11](int)
PUBLIC c3120 0 google::protobuf::internal::VerifyVersion(int, int, char const*)
PUBLIC c3370 0 google::protobuf::internal::LogMessage::operator<<(google::protobuf::StringPiece const&)
PUBLIC c3400 0 google::protobuf::internal::FunctionClosure0::Run()
PUBLIC c3440 0 void std::__cxx11::basic_string<char, std::char_traits<char>, std::allocator<char> >::_M_construct<char const*>(char const*, char const*, std::forward_iterator_tag)
PUBLIC c34e0 0 google::protobuf::uint128::DivModImpl(google::protobuf::uint128, google::protobuf::uint128, google::protobuf::uint128*, google::protobuf::uint128*)
PUBLIC c3840 0 google::protobuf::uint128::operator/=(google::protobuf::uint128 const&)
PUBLIC c38b0 0 google::protobuf::uint128::operator%=(google::protobuf::uint128 const&)
PUBLIC c3920 0 google::protobuf::operator<<(std::ostream&, google::protobuf::uint128 const&)
PUBLIC c40c0 0 google::protobuf::util::Status::Status()
PUBLIC c40e0 0 google::protobuf::util::Status::Status(google::protobuf::util::Status const&)
PUBLIC c41a0 0 google::protobuf::util::Status::operator=(google::protobuf::util::Status const&)
PUBLIC c41c0 0 google::protobuf::util::Status::operator==(google::protobuf::util::Status const&) const
PUBLIC c4200 0 google::protobuf::util::Status::Status(google::protobuf::util::error::Code, google::protobuf::StringPiece)
PUBLIC c4340 0 google::protobuf::util::Status::ToString[abi:cxx11]() const
PUBLIC c44e0 0 google::protobuf::util::operator<<(std::ostream&, google::protobuf::util::Status const&)
PUBLIC c4530 0 google::protobuf::util::Status::~Status()
PUBLIC c4550 0 google::protobuf::util::error::CodeEnumToString[abi:cxx11](google::protobuf::util::error::Code)
PUBLIC c4710 0 google::protobuf::operator<<(std::ostream&, google::protobuf::StringPiece)
PUBLIC c4720 0 google::protobuf::StringPiece::LogFatalSizeTooBig(unsigned long, char const*)
PUBLIC c47b0 0 google::protobuf::StringPiece::StringPiece(google::protobuf::StringPiece, long)
PUBLIC c47c0 0 google::protobuf::StringPiece::StringPiece(google::protobuf::StringPiece, long, long)
PUBLIC c47e0 0 google::protobuf::StringPiece::CopyToString(std::__cxx11::basic_string<char, std::char_traits<char>, std::allocator<char> >*) const
PUBLIC c4800 0 google::protobuf::StringPiece::AppendToString(std::__cxx11::basic_string<char, std::char_traits<char>, std::allocator<char> >*) const
PUBLIC c4840 0 google::protobuf::StringPiece::Consume(google::protobuf::StringPiece)
PUBLIC c4890 0 google::protobuf::StringPiece::ConsumeFromEnd(google::protobuf::StringPiece)
PUBLIC c48d0 0 google::protobuf::StringPiece::copy(char*, unsigned long, unsigned long) const
PUBLIC c4900 0 google::protobuf::StringPiece::find(char, unsigned long) const
PUBLIC c4950 0 google::protobuf::StringPiece::rfind(char, unsigned long) const
PUBLIC c49a0 0 google::protobuf::StringPiece::find_first_of(google::protobuf::StringPiece, unsigned long) const
PUBLIC c4a60 0 google::protobuf::StringPiece::find_first_not_of(char, unsigned long) const
PUBLIC c4aa0 0 google::protobuf::StringPiece::find_first_not_of(google::protobuf::StringPiece, unsigned long) const
PUBLIC c4b70 0 google::protobuf::StringPiece::find_last_of(google::protobuf::StringPiece, unsigned long) const
PUBLIC c4c30 0 google::protobuf::StringPiece::find_last_not_of(char, unsigned long) const
PUBLIC c4c80 0 google::protobuf::StringPiece::find_last_not_of(google::protobuf::StringPiece, unsigned long) const
PUBLIC c4d50 0 google::protobuf::StringPiece::substr(unsigned long, unsigned long) const
PUBLIC c4d70 0 google::protobuf::StringPiece::find(google::protobuf::StringPiece, unsigned long) const
PUBLIC c4e60 0 google::protobuf::StringPiece::contains(google::protobuf::StringPiece) const
PUBLIC c4e80 0 google::protobuf::StringPiece::rfind(google::protobuf::StringPiece, unsigned long) const
PUBLIC c5000 0 char const* std::__find_if<char const*, __gnu_cxx::__ops::_Iter_equals_iter<char const*> >(char const*, char const*, __gnu_cxx::__ops::_Iter_equals_iter<char const*>, std::random_access_iterator_tag)
PUBLIC c50b0 0 std::reverse_iterator<char const*> std::__find_if<std::reverse_iterator<char const*>, __gnu_cxx::__ops::_Iter_equals_iter<std::reverse_iterator<char const*> > >(std::reverse_iterator<char const*>, std::reverse_iterator<char const*>, __gnu_cxx::__ops::_Iter_equals_iter<std::reverse_iterator<char const*> >, std::random_access_iterator_tag)
PUBLIC c51a0 0 google::protobuf::internal::ArenaImpl::Block::Block(unsigned long, google::protobuf::internal::ArenaImpl::Block*)
PUBLIC c51b0 0 google::protobuf::internal::ArenaImpl::NewBlock(google::protobuf::internal::ArenaImpl::Block*, unsigned long)
PUBLIC c52a0 0 google::protobuf::internal::ArenaImpl::SerialArena::AllocateAlignedFallback(unsigned long)
PUBLIC c5310 0 google::protobuf::internal::ArenaImpl::SerialArena::AddCleanupFallback(void*, void (*)(void*))
PUBLIC c53f0 0 google::protobuf::internal::ArenaImpl::SpaceAllocated() const
PUBLIC c5400 0 google::protobuf::internal::ArenaImpl::SerialArena::SpaceUsed() const
PUBLIC c5440 0 google::protobuf::internal::ArenaImpl::SpaceUsed() const
PUBLIC c5480 0 google::protobuf::internal::ArenaImpl::SerialArena::Free(google::protobuf::internal::ArenaImpl::SerialArena*, google::protobuf::internal::ArenaImpl::Block*, void (*)(void*, unsigned long))
PUBLIC c54f0 0 google::protobuf::internal::ArenaImpl::FreeBlocks()
PUBLIC c5530 0 google::protobuf::internal::ArenaImpl::SerialArena::CleanupListFallback()
PUBLIC c5590 0 google::protobuf::internal::ArenaImpl::SerialArena::CleanupList()
PUBLIC c55b0 0 google::protobuf::internal::ArenaImpl::CleanupList()
PUBLIC c55e0 0 google::protobuf::internal::ArenaImpl::~ArenaImpl()
PUBLIC c5600 0 google::protobuf::internal::ArenaImpl::SerialArena::New(google::protobuf::internal::ArenaImpl::Block*, void*, google::protobuf::internal::ArenaImpl*)
PUBLIC c5650 0 google::protobuf::internal::ArenaImpl::Init()
PUBLIC c56f0 0 google::protobuf::internal::ArenaImpl::Reset()
PUBLIC c5720 0 google::protobuf::internal::ArenaImpl::GetSerialArenaFallback(void*)
PUBLIC c57b0 0 google::protobuf::internal::ArenaImpl::GetSerialArena()
PUBLIC c5810 0 google::protobuf::internal::ArenaImpl::AllocateAlignedFallback(unsigned long)
PUBLIC c5850 0 google::protobuf::internal::ArenaImpl::AllocateAlignedAndAddCleanupFallback(unsigned long, void (*)(void*))
PUBLIC c58e0 0 google::protobuf::internal::ArenaImpl::AllocateAlignedAndAddCleanup(unsigned long, void (*)(void*))
PUBLIC c59b0 0 google::protobuf::internal::ArenaImpl::AddCleanupFallback(void*, void (*)(void*))
PUBLIC c5a00 0 google::protobuf::internal::ArenaImpl::AddCleanup(void*, void (*)(void*))
PUBLIC c5aa0 0 google::protobuf::Arena::AllocateAlignedNoHook(unsigned long)
PUBLIC c5b30 0 google::protobuf::Arena::CallDestructorHooks()
PUBLIC c5b80 0 google::protobuf::Arena::OnArenaAllocation(std::type_info const*, unsigned long) const
PUBLIC c5bb0 0 google::protobuf::internal::DestroyString(void const*)
PUBLIC c5bd0 0 google::protobuf::internal::(anonymous namespace)::InitSCC_DFS(google::protobuf::internal::SCCInfoBase*)
PUBLIC c5c50 0 google::protobuf::io::CodedOutputStream::WriteVarint32ToArray(unsigned int, unsigned char*) [clone .part.0]
PUBLIC c5ca0 0 google::protobuf::io::CodedOutputStream::WriteVarint64ToArray(unsigned long, unsigned char*) [clone .part.0]
PUBLIC c5d00 0 void google::protobuf::internal::SingularFieldHelper<1>::Serialize<google::protobuf::internal::ArrayOutput>(void const*, google::protobuf::internal::FieldMetadata const&, google::protobuf::internal::ArrayOutput*) [clone .isra.0]
PUBLIC c5d90 0 void google::protobuf::internal::SingularFieldHelper<2>::Serialize<google::protobuf::internal::ArrayOutput>(void const*, google::protobuf::internal::FieldMetadata const&, google::protobuf::internal::ArrayOutput*) [clone .isra.0]
PUBLIC c5e20 0 void google::protobuf::internal::SingularFieldHelper<1>::Serialize<google::protobuf::io::CodedOutputStream>(void const*, google::protobuf::internal::FieldMetadata const&, google::protobuf::io::CodedOutputStream*) [clone .isra.0]
PUBLIC c5ef0 0 void google::protobuf::internal::SingularFieldHelper<2>::Serialize<google::protobuf::io::CodedOutputStream>(void const*, google::protobuf::internal::FieldMetadata const&, google::protobuf::io::CodedOutputStream*) [clone .isra.0]
PUBLIC c5fc0 0 void google::protobuf::internal::SingularFieldHelper<9>::Serialize<google::protobuf::internal::ArrayOutput>(void const*, google::protobuf::internal::FieldMetadata const&, google::protobuf::internal::ArrayOutput*) [clone .isra.0]
PUBLIC c6060 0 void google::protobuf::internal::SingularFieldHelper<5>::Serialize<google::protobuf::internal::ArrayOutput>(void const*, google::protobuf::internal::FieldMetadata const&, google::protobuf::internal::ArrayOutput*) [clone .isra.0]
PUBLIC c6150 0 google::protobuf::internal::DestroyMessage(void const*)
PUBLIC c6160 0 google::protobuf::internal::InitProtobufDefaults()
PUBLIC c61d0 0 google::protobuf::internal::StringSpaceUsedExcludingSelfLong(std::__cxx11::basic_string<char, std::char_traits<char>, std::allocator<char> > const&)
PUBLIC c6210 0 google::protobuf::internal::SerializeMessageNoTable(google::protobuf::MessageLite const*, google::protobuf::io::CodedOutputStream*)
PUBLIC c6290 0 google::protobuf::internal::SerializeMessageNoTable(google::protobuf::MessageLite const*, google::protobuf::internal::ArrayOutput*)
PUBLIC c6370 0 google::protobuf::internal::SerializeNotImplemented(int)
PUBLIC c63e0 0 google::protobuf::internal::FieldMetadata::CalculateType(int, google::protobuf::internal::FieldMetadata::FieldTypeClass)
PUBLIC c63f0 0 bool google::protobuf::internal::IsNull<9>(void const*)
PUBLIC c6400 0 bool google::protobuf::internal::IsNull<12>(void const*)
PUBLIC c6410 0 bool google::protobuf::internal::IsNull<10>(void const*)
PUBLIC c6420 0 bool google::protobuf::internal::IsNull<11>(void const*)
PUBLIC c6430 0 bool google::protobuf::internal::IsNull<21>(void const*)
PUBLIC c6440 0 google::protobuf::internal::ExtensionSerializer(unsigned char const*, unsigned int, unsigned int, unsigned int, google::protobuf::io::CodedOutputStream*)
PUBLIC c6460 0 google::protobuf::internal::UnknownFieldSerializerLite(unsigned char const*, unsigned int, unsigned int, unsigned int, google::protobuf::io::CodedOutputStream*)
PUBLIC c64e0 0 google::protobuf::internal::DuplicateIfNonNullInternal(google::protobuf::MessageLite*)
PUBLIC c65a0 0 google::protobuf::internal::GenericSwap(google::protobuf::MessageLite*, google::protobuf::MessageLite*)
PUBLIC c6730 0 google::protobuf::internal::InitSCCImpl(google::protobuf::internal::SCCInfoBase*)
PUBLIC c6870 0 google::protobuf::internal::GetOwnedMessageInternal(google::protobuf::Arena*, google::protobuf::MessageLite*, google::protobuf::Arena*)
PUBLIC c6900 0 google::protobuf::internal::SerializeInternal(unsigned char const*, google::protobuf::internal::FieldMetadata const*, int, google::protobuf::io::CodedOutputStream*)
PUBLIC c9840 0 google::protobuf::internal::SerializeMessageDispatch(google::protobuf::MessageLite const&, google::protobuf::internal::FieldMetadata const*, int, int, google::protobuf::io::CodedOutputStream*)
PUBLIC c9850 0 google::protobuf::internal::SerializeInternalToArray(unsigned char const*, google::protobuf::internal::FieldMetadata const*, int, bool, unsigned char*)
PUBLIC cc540 0 google::protobuf::internal::SerializeMessageDispatch(google::protobuf::MessageLite const&, google::protobuf::internal::FieldMetadata const*, int, int, google::protobuf::internal::ArrayOutput*)
PUBLIC cc560 0 google::protobuf::internal::ImplicitWeakMessage::Clear()
PUBLIC cc570 0 google::protobuf::internal::ImplicitWeakMessage::GetCachedSize() const
PUBLIC cc580 0 void google::protobuf::internal::arena_delete_object<google::protobuf::MessageLite>(void*)
PUBLIC cc5a0 0 google::protobuf::internal::ImplicitWeakMessage::New() const
PUBLIC cc5e0 0 google::protobuf::internal::ImplicitWeakMessage::CheckTypeAndMergeFrom(google::protobuf::MessageLite const&)
PUBLIC cc600 0 google::protobuf::internal::ImplicitWeakMessage::_InternalSerialize(unsigned char*, google::protobuf::io::EpsCopyOutputStream*) const
PUBLIC cc640 0 google::protobuf::io::CodedOutputStream::WriteVarint32(unsigned int)
PUBLIC cc6f0 0 google::protobuf::io::CodedOutputStream::WriteVarint64(unsigned long)
PUBLIC cc7b0 0 google::protobuf::internal::PrimitiveTypeHelper<9>::Serialize(void const*, google::protobuf::io::CodedOutputStream*)
PUBLIC cc8b0 0 void google::protobuf::internal::PackedFieldHelper<9>::Serialize<google::protobuf::io::CodedOutputStream>(void const*, google::protobuf::internal::FieldMetadata const&, google::protobuf::io::CodedOutputStream*)
PUBLIC cc940 0 void google::protobuf::internal::PackedFieldHelper<9>::Serialize<google::protobuf::internal::ArrayOutput>(void const*, google::protobuf::internal::FieldMetadata const&, google::protobuf::internal::ArrayOutput*)
PUBLIC cc9d0 0 void google::protobuf::Arena::Own<google::protobuf::MessageLite>(google::protobuf::MessageLite*)
PUBLIC cc9f0 0 void google::protobuf::internal::SerializeMessageTo<google::protobuf::io::CodedOutputStream>(google::protobuf::MessageLite const*, void const*, google::protobuf::io::CodedOutputStream*)
PUBLIC ccbb0 0 void google::protobuf::internal::SerializeGroupTo<google::protobuf::io::CodedOutputStream>(google::protobuf::MessageLite const*, void const*, google::protobuf::io::CodedOutputStream*)
PUBLIC ccbe0 0 void google::protobuf::internal::SerializeMessageTo<google::protobuf::internal::ArrayOutput>(google::protobuf::MessageLite const*, void const*, google::protobuf::internal::ArrayOutput*)
PUBLIC ccd10 0 void google::protobuf::internal::SerializeGroupTo<google::protobuf::internal::ArrayOutput>(google::protobuf::MessageLite const*, void const*, google::protobuf::internal::ArrayOutput*)
PUBLIC ccd40 0 void google::protobuf::internal::SingularFieldHelper<10>::Serialize<google::protobuf::internal::ArrayOutput>(void const*, google::protobuf::internal::FieldMetadata const&, google::protobuf::internal::ArrayOutput*)
PUBLIC cce50 0 google::protobuf::internal::InitImplicitWeakMessageDefaultInstance()
PUBLIC cce90 0 google::protobuf::internal::ImplicitWeakMessage::_InternalParse(char const*, google::protobuf::internal::ParseContext*)
PUBLIC ccf30 0 google::protobuf::internal::ImplicitWeakMessage::default_instance()
PUBLIC ccfb0 0 google::protobuf::internal::ImplicitWeakMessage::IsInitialized() const
PUBLIC ccfc0 0 google::protobuf::internal::ImplicitWeakMessage::ByteSizeLong() const
PUBLIC ccfd0 0 std::call_once<void (&)()>(std::once_flag&, void (&)())::{lambda()#2}::_FUN()
PUBLIC ccff0 0 void google::protobuf::internal::arena_destruct_object<google::protobuf::internal::ImplicitWeakMessage>(void*)
PUBLIC cd000 0 google::protobuf::internal::ImplicitWeakMessage::~ImplicitWeakMessage()
PUBLIC cd030 0 google::protobuf::internal::ImplicitWeakMessage::~ImplicitWeakMessage()
PUBLIC cd070 0 google::protobuf::internal::ImplicitWeakMessage::New(google::protobuf::Arena*) const
PUBLIC cd0f0 0 google::protobuf::internal::ImplicitWeakMessage::GetTypeName[abi:cxx11]() const
PUBLIC cd110 0 google::protobuf::internal::RunZeroArgFunc(void const*)
PUBLIC cd120 0 google::protobuf::MessageLite::InitializationErrorString[abi:cxx11]() const [clone .localalias]
PUBLIC cd1a0 0 google::protobuf::MessageLite::DebugString[abi:cxx11]() const
PUBLIC cd1f0 0 google::protobuf::MessageLite::LogInitializationErrorMessage() const
PUBLIC cd490 0 google::protobuf::MessageLite::MergeFromImpl(google::protobuf::io::CodedInputStream*, google::protobuf::MessageLite::ParseFlags)
PUBLIC cd620 0 google::protobuf::MessageLite::MergePartialFromCodedStream(google::protobuf::io::CodedInputStream*)
PUBLIC cd630 0 google::protobuf::MessageLite::MergeFromCodedStream(google::protobuf::io::CodedInputStream*)
PUBLIC cd640 0 google::protobuf::MessageLite::ParseFromCodedStream(google::protobuf::io::CodedInputStream*)
PUBLIC cd6a0 0 google::protobuf::MessageLite::ParsePartialFromCodedStream(google::protobuf::io::CodedInputStream*)
PUBLIC cd700 0 google::protobuf::MessageLite::ParseFromZeroCopyStream(google::protobuf::io::ZeroCopyInputStream*)
PUBLIC cd750 0 google::protobuf::MessageLite::ParsePartialFromZeroCopyStream(google::protobuf::io::ZeroCopyInputStream*)
PUBLIC cd7a0 0 google::protobuf::MessageLite::MergePartialFromBoundedZeroCopyStream(google::protobuf::io::ZeroCopyInputStream*, int)
PUBLIC cd7c0 0 google::protobuf::MessageLite::MergeFromBoundedZeroCopyStream(google::protobuf::io::ZeroCopyInputStream*, int)
PUBLIC cd7e0 0 google::protobuf::MessageLite::ParseFromBoundedZeroCopyStream(google::protobuf::io::ZeroCopyInputStream*, int)
PUBLIC cd840 0 google::protobuf::MessageLite::ParsePartialFromBoundedZeroCopyStream(google::protobuf::io::ZeroCopyInputStream*, int)
PUBLIC cd8a0 0 google::protobuf::MessageLite::ParseFromString(std::__cxx11::basic_string<char, std::char_traits<char>, std::allocator<char> > const&)
PUBLIC cd8f0 0 google::protobuf::MessageLite::ParsePartialFromString(std::__cxx11::basic_string<char, std::char_traits<char>, std::allocator<char> > const&)
PUBLIC cd940 0 google::protobuf::MessageLite::ParseFromArray(void const*, int)
PUBLIC cd9a0 0 google::protobuf::MessageLite::ParsePartialFromArray(void const*, int)
PUBLIC cda00 0 google::protobuf::MessageLite::MergeFromString(std::__cxx11::basic_string<char, std::char_traits<char>, std::allocator<char> > const&)
PUBLIC cda20 0 google::protobuf::MessageLite::SerializeWithCachedSizesToArray(unsigned char*) const
PUBLIC cdb00 0 google::protobuf::MessageLite::SerializePartialToCodedStream(google::protobuf::io::CodedOutputStream*) const
PUBLIC cdf70 0 google::protobuf::MessageLite::SerializeToCodedStream(google::protobuf::io::CodedOutputStream*) const
PUBLIC cdf80 0 google::protobuf::MessageLite::SerializePartialToZeroCopyStream(google::protobuf::io::ZeroCopyOutputStream*) const
PUBLIC ce150 0 google::protobuf::MessageLite::SerializeToZeroCopyStream(google::protobuf::io::ZeroCopyOutputStream*) const
PUBLIC ce160 0 google::protobuf::MessageLite::AppendPartialToString(std::__cxx11::basic_string<char, std::char_traits<char>, std::allocator<char> >*) const
PUBLIC ce340 0 google::protobuf::MessageLite::AppendToString(std::__cxx11::basic_string<char, std::char_traits<char>, std::allocator<char> >*) const
PUBLIC ce350 0 google::protobuf::MessageLite::SerializeToString(std::__cxx11::basic_string<char, std::char_traits<char>, std::allocator<char> >*) const
PUBLIC ce370 0 google::protobuf::MessageLite::SerializePartialToString(std::__cxx11::basic_string<char, std::char_traits<char>, std::allocator<char> >*) const
PUBLIC ce390 0 google::protobuf::MessageLite::SerializePartialToArray(void*, int) const
PUBLIC ce580 0 google::protobuf::MessageLite::SerializeToArray(void*, int) const
PUBLIC ce590 0 google::protobuf::MessageLite::SerializeAsString[abi:cxx11]() const
PUBLIC ce5e0 0 google::protobuf::MessageLite::SerializePartialAsString[abi:cxx11]() const
PUBLIC ce630 0 google::protobuf::internal::GenericTypeHandler<google::protobuf::MessageLite>::NewFromPrototype(google::protobuf::MessageLite const*, google::protobuf::Arena*)
PUBLIC ce640 0 google::protobuf::internal::GenericTypeHandler<google::protobuf::MessageLite>::Merge(google::protobuf::MessageLite const&, google::protobuf::MessageLite*)
PUBLIC ce680 0 google::protobuf::internal::GenericTypeHandler<std::__cxx11::basic_string<char, std::char_traits<char>, std::allocator<char> > >::Merge(std::__cxx11::basic_string<char, std::char_traits<char>, std::allocator<char> > const&, std::__cxx11::basic_string<char, std::char_traits<char>, std::allocator<char> >*)
PUBLIC ce690 0 google::protobuf::ShutdownProtobufLibrary()
PUBLIC ce7d0 0 google::protobuf::MessageLite::New(google::protobuf::Arena*) const
PUBLIC ce850 0 google::protobuf::internal::OnShutdownRun(void (*)(void const*), void const*)
PUBLIC ce970 0 google::protobuf::internal::OnShutdown(void (*)())
PUBLIC ce980 0 google::protobuf::MessageLite::ParseFromFileDescriptor(int)
PUBLIC ce9f0 0 google::protobuf::MessageLite::ParsePartialFromFileDescriptor(int)
PUBLIC cea60 0 google::protobuf::MessageLite::ParseFromIstream(std::istream*)
PUBLIC ceae0 0 google::protobuf::MessageLite::ParsePartialFromIstream(std::istream*)
PUBLIC ceb60 0 google::protobuf::MessageLite::SerializeToFileDescriptor(int) const
PUBLIC cebc0 0 google::protobuf::MessageLite::SerializePartialToFileDescriptor(int) const
PUBLIC cec20 0 google::protobuf::MessageLite::SerializeToOstream(std::ostream*) const
PUBLIC ceca0 0 google::protobuf::MessageLite::SerializePartialToOstream(std::ostream*) const
PUBLIC cecf0 0 google::protobuf::MessageLite::_InternalParse(char const*, google::protobuf::internal::ParseContext*)
PUBLIC ced00 0 google::protobuf::ZeroCopyCodedInputStream::BackUp(int)
PUBLIC ced10 0 google::protobuf::ZeroCopyCodedInputStream::ByteCount() const
PUBLIC ced20 0 google::protobuf::ZeroCopyCodedInputStream::~ZeroCopyCodedInputStream()
PUBLIC ced30 0 google::protobuf::ZeroCopyCodedInputStream::~ZeroCopyCodedInputStream()
PUBLIC ced40 0 google::protobuf::ZeroCopyCodedInputStream::Next(void const**, int*)
PUBLIC ceda0 0 google::protobuf::ZeroCopyCodedInputStream::Skip(int)
PUBLIC cede0 0 bool google::protobuf::internal::MergeFromImpl<false>(google::protobuf::StringPiece, google::protobuf::MessageLite*, google::protobuf::MessageLite::ParseFlags)
PUBLIC cef50 0 bool google::protobuf::internal::MergeFromImpl<true>(google::protobuf::StringPiece, google::protobuf::MessageLite*, google::protobuf::MessageLite::ParseFlags)
PUBLIC cf0c0 0 bool google::protobuf::internal::MergeFromImpl<false>(google::protobuf::io::ZeroCopyInputStream*, google::protobuf::MessageLite*, google::protobuf::MessageLite::ParseFlags)
PUBLIC cf1b0 0 bool google::protobuf::internal::MergeFromImpl<true>(google::protobuf::io::ZeroCopyInputStream*, google::protobuf::MessageLite*, google::protobuf::MessageLite::ParseFlags)
PUBLIC cf2a0 0 bool google::protobuf::internal::MergeFromImpl<false>(google::protobuf::internal::BoundedZCIS, google::protobuf::MessageLite*, google::protobuf::MessageLite::ParseFlags)
PUBLIC cf430 0 bool google::protobuf::internal::MergeFromImpl<true>(google::protobuf::internal::BoundedZCIS, google::protobuf::MessageLite*, google::protobuf::MessageLite::ParseFlags)
PUBLIC cf5c0 0 void std::vector<std::pair<void (*)(void const*), void const*>, std::allocator<std::pair<void (*)(void const*), void const*> > >::_M_realloc_insert<std::pair<void (*)(void const*), void const*> >(__gnu_cxx::__normal_iterator<std::pair<void (*)(void const*), void const*>*, std::vector<std::pair<void (*)(void const*), void const*>, std::allocator<std::pair<void (*)(void const*), void const*> > > >, std::pair<void (*)(void const*), void const*>&&)
PUBLIC cf740 0 void google::protobuf::internal::byteswap<1>(void*)
PUBLIC cf750 0 void google::protobuf::internal::byteswap<4>(void*)
PUBLIC cf760 0 void google::protobuf::internal::byteswap<8>(void*)
PUBLIC cf770 0 google::protobuf::internal::EpsCopyInputStream::InitFrom(google::protobuf::io::ZeroCopyInputStream*)
PUBLIC cf850 0 google::protobuf::internal::WriteVarint(unsigned int, unsigned long, std::__cxx11::basic_string<char, std::char_traits<char>, std::allocator<char> >*)
PUBLIC cfa40 0 google::protobuf::internal::WriteLengthDelimited(unsigned int, google::protobuf::StringPiece, std::__cxx11::basic_string<char, std::char_traits<char>, std::allocator<char> >*)
PUBLIC cfca0 0 google::protobuf::internal::VarintParseSlow32(char const*, unsigned int)
PUBLIC cfcf0 0 google::protobuf::internal::VarintParseSlow64(char const*, unsigned int)
PUBLIC cfd40 0 google::protobuf::internal::ReadTagFallback(char const*, unsigned int)
PUBLIC cfd80 0 google::protobuf::internal::ReadSizeFallback(char const*, unsigned int)
PUBLIC cfdf0 0 google::protobuf::internal::ParseContext::ParseMessage(google::protobuf::MessageLite*, char const*)
PUBLIC cfec0 0 google::protobuf::internal::ParseContext::ParseMessage(google::protobuf::Message*, char const*)
PUBLIC cfed0 0 google::protobuf::internal::StringParser(char const*, char const*, void*, google::protobuf::internal::ParseContext*)
PUBLIC cff10 0 google::protobuf::internal::VerifyUTF8(google::protobuf::StringPiece, char const*)
PUBLIC d0040 0 google::protobuf::internal::EpsCopyInputStream::Next(int, int)
PUBLIC d03a0 0 google::protobuf::internal::EpsCopyInputStream::DoneFallback(char const*, int)
PUBLIC d0470 0 google::protobuf::internal::EpsCopyInputStream::SkipFallback(char const*, int)
PUBLIC d04e0 0 google::protobuf::internal::EpsCopyInputStream::ReadStringFallback(char const*, int, std::__cxx11::basic_string<char, std::char_traits<char>, std::allocator<char> >*)
PUBLIC d0610 0 google::protobuf::internal::InlineGreedyStringParser(std::__cxx11::basic_string<char, std::char_traits<char>, std::allocator<char> >*, char const*, google::protobuf::internal::ParseContext*)
PUBLIC d06b0 0 google::protobuf::internal::EpsCopyInputStream::AppendStringFallback(char const*, int, std::__cxx11::basic_string<char, std::char_traits<char>, std::allocator<char> >*)
PUBLIC d07d0 0 google::protobuf::internal::PackedFixed32Parser(void*, char const*, google::protobuf::internal::ParseContext*)
PUBLIC d0930 0 google::protobuf::internal::PackedSFixed32Parser(void*, char const*, google::protobuf::internal::ParseContext*)
PUBLIC d0a90 0 google::protobuf::internal::PackedFloatParser(void*, char const*, google::protobuf::internal::ParseContext*)
PUBLIC d0bf0 0 google::protobuf::internal::PackedDoubleParser(void*, char const*, google::protobuf::internal::ParseContext*)
PUBLIC d0d50 0 google::protobuf::internal::PackedSFixed64Parser(void*, char const*, google::protobuf::internal::ParseContext*)
PUBLIC d0eb0 0 google::protobuf::internal::PackedFixed64Parser(void*, char const*, google::protobuf::internal::ParseContext*)
PUBLIC d1010 0 google::protobuf::internal::PackedInt32Parser(void*, char const*, google::protobuf::internal::ParseContext*) [clone .localalias]
PUBLIC d1160 0 google::protobuf::internal::PackedEnumParser(void*, char const*, google::protobuf::internal::ParseContext*)
PUBLIC d1170 0 google::protobuf::internal::PackedUInt32Parser(void*, char const*, google::protobuf::internal::ParseContext*)
PUBLIC d12c0 0 google::protobuf::internal::PackedInt64Parser(void*, char const*, google::protobuf::internal::ParseContext*)
PUBLIC d1410 0 google::protobuf::internal::PackedUInt64Parser(void*, char const*, google::protobuf::internal::ParseContext*)
PUBLIC d1560 0 google::protobuf::internal::PackedSInt32Parser(void*, char const*, google::protobuf::internal::ParseContext*)
PUBLIC d16c0 0 google::protobuf::internal::PackedSInt64Parser(void*, char const*, google::protobuf::internal::ParseContext*)
PUBLIC d1820 0 google::protobuf::internal::PackedBoolParser(void*, char const*, google::protobuf::internal::ParseContext*)
PUBLIC d1970 0 google::protobuf::internal::UnknownGroupLiteParse(std::__cxx11::basic_string<char, std::char_traits<char>, std::allocator<char> >*, char const*, google::protobuf::internal::ParseContext*)
PUBLIC d1990 0 google::protobuf::internal::UnknownFieldParse(unsigned int, std::__cxx11::basic_string<char, std::char_traits<char>, std::allocator<char> >*, char const*, google::protobuf::internal::ParseContext*)
PUBLIC d19b0 0 char const* google::protobuf::internal::VarintParse<unsigned long>(char const*, unsigned long*)
PUBLIC d1a00 0 char const* google::protobuf::internal::FieldParser<google::protobuf::internal::UnknownFieldLiteParserHelper>(unsigned long, google::protobuf::internal::UnknownFieldLiteParserHelper&, char const*, google::protobuf::internal::ParseContext*)
PUBLIC d2600 0 char const* google::protobuf::internal::WireFormatParser<google::protobuf::internal::UnknownFieldLiteParserHelper>(google::protobuf::internal::UnknownFieldLiteParserHelper&, char const*, google::protobuf::internal::ParseContext*)
PUBLIC d26f0 0 google::protobuf::internal::RepeatedPtrFieldBase::InternalExtend(int)
PUBLIC d27f0 0 google::protobuf::internal::RepeatedPtrFieldBase::Reserve(int)
PUBLIC d2810 0 google::protobuf::internal::RepeatedPtrFieldBase::CloseGap(int, int)
PUBLIC d2860 0 google::protobuf::internal::RepeatedPtrFieldBase::AddWeak(google::protobuf::MessageLite const*)
PUBLIC d2970 0 void google::protobuf::internal::arena_delete_object<std::__cxx11::basic_string<char, std::char_traits<char>, std::allocator<char> > >(void*)
PUBLIC d29b0 0 void google::protobuf::internal::RepeatedPtrFieldBase::MergeFromInnerLoop<google::protobuf::RepeatedPtrField<std::__cxx11::basic_string<char, std::char_traits<char>, std::allocator<char> > >::TypeHandler>(void**, void**, int, int)
PUBLIC d2ad0 0 google::protobuf::RepeatedField<bool>::RepeatedField()
PUBLIC d2ae0 0 google::protobuf::RepeatedField<bool>::RepeatedField(google::protobuf::Arena*)
PUBLIC d2af0 0 google::protobuf::RepeatedField<bool>::~RepeatedField()
PUBLIC d2b20 0 google::protobuf::RepeatedField<bool>::empty() const
PUBLIC d2b30 0 google::protobuf::RepeatedField<bool>::size() const
PUBLIC d2b40 0 google::protobuf::RepeatedField<bool>::Get(int) const
PUBLIC d2b50 0 google::protobuf::RepeatedField<bool>::Mutable(int)
PUBLIC d2b60 0 google::protobuf::RepeatedField<bool>::operator[](int) const
PUBLIC d2b70 0 google::protobuf::RepeatedField<bool>::operator[](int)
PUBLIC d2b80 0 google::protobuf::RepeatedField<bool>::at(int) const
PUBLIC d2c70 0 google::protobuf::RepeatedField<bool>::at(int)
PUBLIC d2d60 0 google::protobuf::RepeatedField<bool>::Set(int, bool const&)
PUBLIC d2d70 0 google::protobuf::RepeatedField<bool>::RemoveLast()
PUBLIC d2d80 0 google::protobuf::RepeatedField<bool>::ExtractSubrange(int, int, bool*)
PUBLIC d2e00 0 google::protobuf::RepeatedField<bool>::Clear()
PUBLIC d2e10 0 google::protobuf::RepeatedField<bool>::Reserve(int)
PUBLIC d2f70 0 google::protobuf::RepeatedField<bool>::Add(bool const&)
PUBLIC d2fc0 0 google::protobuf::RepeatedField<bool>::Add()
PUBLIC d3000 0 google::protobuf::RepeatedField<bool>::RepeatedField(google::protobuf::RepeatedField<bool> const&)
PUBLIC d3050 0 google::protobuf::RepeatedField<bool>::MergeFrom(google::protobuf::RepeatedField<bool> const&)
PUBLIC d30a0 0 google::protobuf::RepeatedField<bool>::CopyFrom(google::protobuf::RepeatedField<bool> const&)
PUBLIC d3100 0 google::protobuf::RepeatedField<bool>::operator=(google::protobuf::RepeatedField<bool> const&)
PUBLIC d3160 0 google::protobuf::RepeatedField<bool>::RepeatedField(google::protobuf::RepeatedField<bool>&&)
PUBLIC d31f0 0 google::protobuf::RepeatedField<bool>::operator=(google::protobuf::RepeatedField<bool>&&)
PUBLIC d32c0 0 google::protobuf::RepeatedField<bool>::Truncate(int)
PUBLIC d32d0 0 google::protobuf::RepeatedField<bool>::AddAlreadyReserved(bool const&)
PUBLIC d32f0 0 google::protobuf::RepeatedField<bool>::AddAlreadyReserved()
PUBLIC d3300 0 google::protobuf::RepeatedField<bool>::AddNAlreadyReserved(int)
PUBLIC d3320 0 google::protobuf::RepeatedField<bool>::Capacity() const
PUBLIC d3330 0 google::protobuf::RepeatedField<bool>::Resize(int, bool const&)
PUBLIC d3390 0 google::protobuf::RepeatedField<bool>::mutable_data()
PUBLIC d33a0 0 google::protobuf::RepeatedField<bool>::data() const
PUBLIC d33b0 0 google::protobuf::RepeatedField<bool>::UnsafeArenaSwap(google::protobuf::RepeatedField<bool>*)
PUBLIC d33d0 0 google::protobuf::RepeatedField<bool>::Swap(google::protobuf::RepeatedField<bool>*)
PUBLIC d3500 0 google::protobuf::RepeatedField<bool>::SwapElements(int, int)
PUBLIC d3520 0 google::protobuf::RepeatedField<bool>::begin()
PUBLIC d3530 0 google::protobuf::RepeatedField<bool>::begin() const
PUBLIC d3540 0 google::protobuf::RepeatedField<bool>::cbegin() const
PUBLIC d3550 0 google::protobuf::RepeatedField<bool>::end()
PUBLIC d3560 0 google::protobuf::RepeatedField<bool>::end() const
PUBLIC d3570 0 google::protobuf::RepeatedField<bool>::cend() const
PUBLIC d3580 0 google::protobuf::RepeatedField<bool>::rbegin()
PUBLIC d3590 0 google::protobuf::RepeatedField<bool>::rbegin() const
PUBLIC d35a0 0 google::protobuf::RepeatedField<bool>::rend()
PUBLIC d35b0 0 google::protobuf::RepeatedField<bool>::rend() const
PUBLIC d35c0 0 google::protobuf::RepeatedField<bool>::SpaceUsedExcludingSelfLong() const
PUBLIC d35e0 0 google::protobuf::RepeatedField<bool>::SpaceUsedExcludingSelf() const
PUBLIC d3600 0 google::protobuf::RepeatedField<bool>::erase(bool const*)
PUBLIC d3670 0 google::protobuf::RepeatedField<bool>::erase(bool const*, bool const*)
PUBLIC d36e0 0 google::protobuf::RepeatedField<bool>::GetArena() const
PUBLIC d36f0 0 google::protobuf::RepeatedField<bool>::InternalSwap(google::protobuf::RepeatedField<bool>*)
PUBLIC d3700 0 google::protobuf::RepeatedField<bool>::elements() const
PUBLIC d3710 0 google::protobuf::RepeatedField<bool>::unsafe_elements() const
PUBLIC d3720 0 google::protobuf::RepeatedField<bool>::rep() const
PUBLIC d3730 0 google::protobuf::RepeatedField<bool>::MoveArray(bool*, bool*, int)
PUBLIC d3740 0 google::protobuf::RepeatedField<bool>::CopyArray(bool*, bool const*, int)
PUBLIC d3750 0 google::protobuf::RepeatedField<bool>::InternalDeallocate(google::protobuf::RepeatedField<bool>::Rep*, int)
PUBLIC d3770 0 google::protobuf::RepeatedField<bool>::FastAdder::FastAdder(google::protobuf::RepeatedField<bool>*)
PUBLIC d3790 0 google::protobuf::RepeatedField<bool>::FastAdder::~FastAdder()
PUBLIC d37a0 0 google::protobuf::RepeatedField<bool>::FastAdder::Add(bool const&)
PUBLIC d3800 0 google::protobuf::RepeatedField<int>::RepeatedField()
PUBLIC d3810 0 google::protobuf::RepeatedField<int>::RepeatedField(google::protobuf::Arena*)
PUBLIC d3820 0 google::protobuf::RepeatedField<int>::~RepeatedField()
PUBLIC d3850 0 google::protobuf::RepeatedField<int>::empty() const
PUBLIC d3860 0 google::protobuf::RepeatedField<int>::size() const
PUBLIC d3870 0 google::protobuf::RepeatedField<int>::Get(int) const
PUBLIC d3880 0 google::protobuf::RepeatedField<int>::Mutable(int)
PUBLIC d3890 0 google::protobuf::RepeatedField<int>::operator[](int) const
PUBLIC d38a0 0 google::protobuf::RepeatedField<int>::operator[](int)
PUBLIC d38b0 0 google::protobuf::RepeatedField<int>::at(int) const
PUBLIC d39a0 0 google::protobuf::RepeatedField<int>::at(int)
PUBLIC d3a90 0 google::protobuf::RepeatedField<int>::Set(int, int const&)
PUBLIC d3aa0 0 google::protobuf::RepeatedField<int>::RemoveLast()
PUBLIC d3ab0 0 google::protobuf::RepeatedField<int>::ExtractSubrange(int, int, int*)
PUBLIC d3b30 0 google::protobuf::RepeatedField<int>::Clear()
PUBLIC d3b40 0 google::protobuf::RepeatedField<int>::Reserve(int)
PUBLIC d3c90 0 google::protobuf::RepeatedField<int>::Add(int const&)
PUBLIC d3ce0 0 google::protobuf::RepeatedField<int>::Add()
PUBLIC d3d20 0 google::protobuf::RepeatedField<int>::RepeatedField(google::protobuf::RepeatedField<int> const&)
PUBLIC d3d70 0 google::protobuf::RepeatedField<int>::MergeFrom(google::protobuf::RepeatedField<int> const&)
PUBLIC d3dc0 0 google::protobuf::RepeatedField<int>::CopyFrom(google::protobuf::RepeatedField<int> const&)
PUBLIC d3e20 0 google::protobuf::RepeatedField<int>::operator=(google::protobuf::RepeatedField<int> const&)
PUBLIC d3e80 0 google::protobuf::RepeatedField<int>::RepeatedField(google::protobuf::RepeatedField<int>&&)
PUBLIC d3f10 0 google::protobuf::RepeatedField<int>::operator=(google::protobuf::RepeatedField<int>&&)
PUBLIC d3fe0 0 google::protobuf::RepeatedField<int>::Truncate(int)
PUBLIC d3ff0 0 google::protobuf::RepeatedField<int>::AddAlreadyReserved(int const&)
PUBLIC d4010 0 google::protobuf::RepeatedField<int>::AddAlreadyReserved()
PUBLIC d4030 0 google::protobuf::RepeatedField<int>::AddNAlreadyReserved(int)
PUBLIC d4050 0 google::protobuf::RepeatedField<int>::Capacity() const
PUBLIC d4060 0 google::protobuf::RepeatedField<int>::Resize(int, int const&)
PUBLIC d40c0 0 google::protobuf::RepeatedField<int>::mutable_data()
PUBLIC d40d0 0 google::protobuf::RepeatedField<int>::data() const
PUBLIC d40e0 0 google::protobuf::RepeatedField<int>::UnsafeArenaSwap(google::protobuf::RepeatedField<int>*)
PUBLIC d4100 0 google::protobuf::RepeatedField<int>::Swap(google::protobuf::RepeatedField<int>*)
PUBLIC d4230 0 google::protobuf::RepeatedField<int>::SwapElements(int, int)
PUBLIC d4250 0 google::protobuf::RepeatedField<int>::begin()
PUBLIC d4260 0 google::protobuf::RepeatedField<int>::begin() const
PUBLIC d4270 0 google::protobuf::RepeatedField<int>::cbegin() const
PUBLIC d4280 0 google::protobuf::RepeatedField<int>::end()
PUBLIC d4290 0 google::protobuf::RepeatedField<int>::end() const
PUBLIC d42a0 0 google::protobuf::RepeatedField<int>::cend() const
PUBLIC d42b0 0 google::protobuf::RepeatedField<int>::rbegin()
PUBLIC d42d0 0 google::protobuf::RepeatedField<int>::rbegin() const
PUBLIC d42f0 0 google::protobuf::RepeatedField<int>::rend()
PUBLIC d4300 0 google::protobuf::RepeatedField<int>::rend() const
PUBLIC d4310 0 google::protobuf::RepeatedField<int>::SpaceUsedExcludingSelfLong() const
PUBLIC d4330 0 google::protobuf::RepeatedField<int>::SpaceUsedExcludingSelf() const
PUBLIC d4350 0 google::protobuf::RepeatedField<int>::erase(int const*)
PUBLIC d43c0 0 google::protobuf::RepeatedField<int>::erase(int const*, int const*)
PUBLIC d4440 0 google::protobuf::RepeatedField<int>::GetArena() const
PUBLIC d4450 0 google::protobuf::RepeatedField<int>::InternalSwap(google::protobuf::RepeatedField<int>*)
PUBLIC d4460 0 google::protobuf::RepeatedField<int>::elements() const
PUBLIC d4470 0 google::protobuf::RepeatedField<int>::unsafe_elements() const
PUBLIC d4480 0 google::protobuf::RepeatedField<int>::rep() const
PUBLIC d4490 0 google::protobuf::RepeatedField<int>::MoveArray(int*, int*, int)
PUBLIC d44b0 0 google::protobuf::RepeatedField<int>::CopyArray(int*, int const*, int)
PUBLIC d44d0 0 google::protobuf::RepeatedField<int>::InternalDeallocate(google::protobuf::RepeatedField<int>::Rep*, int)
PUBLIC d44f0 0 google::protobuf::RepeatedField<int>::FastAdder::FastAdder(google::protobuf::RepeatedField<int>*)
PUBLIC d4510 0 google::protobuf::RepeatedField<int>::FastAdder::~FastAdder()
PUBLIC d4520 0 google::protobuf::RepeatedField<int>::FastAdder::Add(int const&)
PUBLIC d4590 0 google::protobuf::RepeatedField<unsigned int>::RepeatedField()
PUBLIC d45a0 0 google::protobuf::RepeatedField<unsigned int>::RepeatedField(google::protobuf::Arena*)
PUBLIC d45b0 0 google::protobuf::RepeatedField<unsigned int>::~RepeatedField()
PUBLIC d45e0 0 google::protobuf::RepeatedField<unsigned int>::empty() const
PUBLIC d45f0 0 google::protobuf::RepeatedField<unsigned int>::size() const
PUBLIC d4600 0 google::protobuf::RepeatedField<unsigned int>::Get(int) const
PUBLIC d4610 0 google::protobuf::RepeatedField<unsigned int>::Mutable(int)
PUBLIC d4620 0 google::protobuf::RepeatedField<unsigned int>::operator[](int) const
PUBLIC d4630 0 google::protobuf::RepeatedField<unsigned int>::operator[](int)
PUBLIC d4640 0 google::protobuf::RepeatedField<unsigned int>::at(int) const
PUBLIC d4730 0 google::protobuf::RepeatedField<unsigned int>::at(int)
PUBLIC d4820 0 google::protobuf::RepeatedField<unsigned int>::Set(int, unsigned int const&)
PUBLIC d4830 0 google::protobuf::RepeatedField<unsigned int>::RemoveLast()
PUBLIC d4840 0 google::protobuf::RepeatedField<unsigned int>::ExtractSubrange(int, int, unsigned int*)
PUBLIC d48c0 0 google::protobuf::RepeatedField<unsigned int>::Clear()
PUBLIC d48d0 0 google::protobuf::RepeatedField<unsigned int>::Reserve(int)
PUBLIC d4a20 0 google::protobuf::RepeatedField<unsigned int>::Add(unsigned int const&)
PUBLIC d4a70 0 google::protobuf::RepeatedField<unsigned int>::Add()
PUBLIC d4ab0 0 google::protobuf::RepeatedField<unsigned int>::RepeatedField(google::protobuf::RepeatedField<unsigned int> const&)
PUBLIC d4b00 0 google::protobuf::RepeatedField<unsigned int>::MergeFrom(google::protobuf::RepeatedField<unsigned int> const&)
PUBLIC d4b50 0 google::protobuf::RepeatedField<unsigned int>::CopyFrom(google::protobuf::RepeatedField<unsigned int> const&)
PUBLIC d4bb0 0 google::protobuf::RepeatedField<unsigned int>::operator=(google::protobuf::RepeatedField<unsigned int> const&)
PUBLIC d4c10 0 google::protobuf::RepeatedField<unsigned int>::RepeatedField(google::protobuf::RepeatedField<unsigned int>&&)
PUBLIC d4ca0 0 google::protobuf::RepeatedField<unsigned int>::operator=(google::protobuf::RepeatedField<unsigned int>&&)
PUBLIC d4d70 0 google::protobuf::RepeatedField<unsigned int>::Truncate(int)
PUBLIC d4d80 0 google::protobuf::RepeatedField<unsigned int>::AddAlreadyReserved(unsigned int const&)
PUBLIC d4da0 0 google::protobuf::RepeatedField<unsigned int>::AddAlreadyReserved()
PUBLIC d4dc0 0 google::protobuf::RepeatedField<unsigned int>::AddNAlreadyReserved(int)
PUBLIC d4de0 0 google::protobuf::RepeatedField<unsigned int>::Capacity() const
PUBLIC d4df0 0 google::protobuf::RepeatedField<unsigned int>::Resize(int, unsigned int const&)
PUBLIC d4e50 0 google::protobuf::RepeatedField<unsigned int>::mutable_data()
PUBLIC d4e60 0 google::protobuf::RepeatedField<unsigned int>::data() const
PUBLIC d4e70 0 google::protobuf::RepeatedField<unsigned int>::UnsafeArenaSwap(google::protobuf::RepeatedField<unsigned int>*)
PUBLIC d4e90 0 google::protobuf::RepeatedField<unsigned int>::Swap(google::protobuf::RepeatedField<unsigned int>*)
PUBLIC d4fc0 0 google::protobuf::RepeatedField<unsigned int>::SwapElements(int, int)
PUBLIC d4fe0 0 google::protobuf::RepeatedField<unsigned int>::begin()
PUBLIC d4ff0 0 google::protobuf::RepeatedField<unsigned int>::begin() const
PUBLIC d5000 0 google::protobuf::RepeatedField<unsigned int>::cbegin() const
PUBLIC d5010 0 google::protobuf::RepeatedField<unsigned int>::end()
PUBLIC d5020 0 google::protobuf::RepeatedField<unsigned int>::end() const
PUBLIC d5030 0 google::protobuf::RepeatedField<unsigned int>::cend() const
PUBLIC d5040 0 google::protobuf::RepeatedField<unsigned int>::rbegin()
PUBLIC d5060 0 google::protobuf::RepeatedField<unsigned int>::rbegin() const
PUBLIC d5080 0 google::protobuf::RepeatedField<unsigned int>::rend()
PUBLIC d5090 0 google::protobuf::RepeatedField<unsigned int>::rend() const
PUBLIC d50a0 0 google::protobuf::RepeatedField<unsigned int>::SpaceUsedExcludingSelfLong() const
PUBLIC d50c0 0 google::protobuf::RepeatedField<unsigned int>::SpaceUsedExcludingSelf() const
PUBLIC d50e0 0 google::protobuf::RepeatedField<unsigned int>::erase(unsigned int const*)
PUBLIC d5150 0 google::protobuf::RepeatedField<unsigned int>::erase(unsigned int const*, unsigned int const*)
PUBLIC d51d0 0 google::protobuf::RepeatedField<unsigned int>::GetArena() const
PUBLIC d51e0 0 google::protobuf::RepeatedField<unsigned int>::InternalSwap(google::protobuf::RepeatedField<unsigned int>*)
PUBLIC d51f0 0 google::protobuf::RepeatedField<unsigned int>::elements() const
PUBLIC d5200 0 google::protobuf::RepeatedField<unsigned int>::unsafe_elements() const
PUBLIC d5210 0 google::protobuf::RepeatedField<unsigned int>::rep() const
PUBLIC d5220 0 google::protobuf::RepeatedField<unsigned int>::MoveArray(unsigned int*, unsigned int*, int)
PUBLIC d5240 0 google::protobuf::RepeatedField<unsigned int>::CopyArray(unsigned int*, unsigned int const*, int)
PUBLIC d5260 0 google::protobuf::RepeatedField<unsigned int>::InternalDeallocate(google::protobuf::RepeatedField<unsigned int>::Rep*, int)
PUBLIC d5280 0 google::protobuf::RepeatedField<unsigned int>::FastAdder::FastAdder(google::protobuf::RepeatedField<unsigned int>*)
PUBLIC d52a0 0 google::protobuf::RepeatedField<unsigned int>::FastAdder::~FastAdder()
PUBLIC d52b0 0 google::protobuf::RepeatedField<unsigned int>::FastAdder::Add(unsigned int const&)
PUBLIC d5320 0 google::protobuf::RepeatedField<long>::RepeatedField()
PUBLIC d5330 0 google::protobuf::RepeatedField<long>::RepeatedField(google::protobuf::Arena*)
PUBLIC d5340 0 google::protobuf::RepeatedField<long>::~RepeatedField()
PUBLIC d5370 0 google::protobuf::RepeatedField<long>::empty() const
PUBLIC d5380 0 google::protobuf::RepeatedField<long>::size() const
PUBLIC d5390 0 google::protobuf::RepeatedField<long>::Get(int) const
PUBLIC d53a0 0 google::protobuf::RepeatedField<long>::Mutable(int)
PUBLIC d53b0 0 google::protobuf::RepeatedField<long>::operator[](int) const
PUBLIC d53c0 0 google::protobuf::RepeatedField<long>::operator[](int)
PUBLIC d53d0 0 google::protobuf::RepeatedField<long>::at(int) const
PUBLIC d54c0 0 google::protobuf::RepeatedField<long>::at(int)
PUBLIC d55b0 0 google::protobuf::RepeatedField<long>::Set(int, long const&)
PUBLIC d55c0 0 google::protobuf::RepeatedField<long>::RemoveLast()
PUBLIC d55d0 0 google::protobuf::RepeatedField<long>::ExtractSubrange(int, int, long*)
PUBLIC d5660 0 google::protobuf::RepeatedField<long>::Clear()
PUBLIC d5670 0 google::protobuf::RepeatedField<long>::Reserve(int)
PUBLIC d57c0 0 google::protobuf::RepeatedField<long>::Add(long const&)
PUBLIC d5810 0 google::protobuf::RepeatedField<long>::Add()
PUBLIC d5850 0 google::protobuf::RepeatedField<long>::RepeatedField(google::protobuf::RepeatedField<long> const&)
PUBLIC d58a0 0 google::protobuf::RepeatedField<long>::MergeFrom(google::protobuf::RepeatedField<long> const&)
PUBLIC d58f0 0 google::protobuf::RepeatedField<long>::CopyFrom(google::protobuf::RepeatedField<long> const&)
PUBLIC d5950 0 google::protobuf::RepeatedField<long>::operator=(google::protobuf::RepeatedField<long> const&)
PUBLIC d59b0 0 google::protobuf::RepeatedField<long>::RepeatedField(google::protobuf::RepeatedField<long>&&)
PUBLIC d5a40 0 google::protobuf::RepeatedField<long>::operator=(google::protobuf::RepeatedField<long>&&)
PUBLIC d5b10 0 google::protobuf::RepeatedField<long>::Truncate(int)
PUBLIC d5b20 0 google::protobuf::RepeatedField<long>::AddAlreadyReserved(long const&)
PUBLIC d5b40 0 google::protobuf::RepeatedField<long>::AddAlreadyReserved()
PUBLIC d5b60 0 google::protobuf::RepeatedField<long>::AddNAlreadyReserved(int)
PUBLIC d5b80 0 google::protobuf::RepeatedField<long>::Capacity() const
PUBLIC d5b90 0 google::protobuf::RepeatedField<long>::Resize(int, long const&)
PUBLIC d5bf0 0 google::protobuf::RepeatedField<long>::mutable_data()
PUBLIC d5c00 0 google::protobuf::RepeatedField<long>::data() const
PUBLIC d5c10 0 google::protobuf::RepeatedField<long>::UnsafeArenaSwap(google::protobuf::RepeatedField<long>*)
PUBLIC d5c30 0 google::protobuf::RepeatedField<long>::Swap(google::protobuf::RepeatedField<long>*)
PUBLIC d5d60 0 google::protobuf::RepeatedField<long>::SwapElements(int, int)
PUBLIC d5d80 0 google::protobuf::RepeatedField<long>::begin()
PUBLIC d5d90 0 google::protobuf::RepeatedField<long>::begin() const
PUBLIC d5da0 0 google::protobuf::RepeatedField<long>::cbegin() const
PUBLIC d5db0 0 google::protobuf::RepeatedField<long>::end()
PUBLIC d5dc0 0 google::protobuf::RepeatedField<long>::end() const
PUBLIC d5dd0 0 google::protobuf::RepeatedField<long>::cend() const
PUBLIC d5de0 0 google::protobuf::RepeatedField<long>::rbegin()
PUBLIC d5e00 0 google::protobuf::RepeatedField<long>::rbegin() const
PUBLIC d5e20 0 google::protobuf::RepeatedField<long>::rend()
PUBLIC d5e30 0 google::protobuf::RepeatedField<long>::rend() const
PUBLIC d5e40 0 google::protobuf::RepeatedField<long>::SpaceUsedExcludingSelfLong() const
PUBLIC d5e60 0 google::protobuf::RepeatedField<long>::SpaceUsedExcludingSelf() const
PUBLIC d5e80 0 google::protobuf::RepeatedField<long>::erase(long const*)
PUBLIC d5ef0 0 google::protobuf::RepeatedField<long>::erase(long const*, long const*)
PUBLIC d5f70 0 google::protobuf::RepeatedField<long>::GetArena() const
PUBLIC d5f80 0 google::protobuf::RepeatedField<long>::InternalSwap(google::protobuf::RepeatedField<long>*)
PUBLIC d5f90 0 google::protobuf::RepeatedField<long>::elements() const
PUBLIC d5fa0 0 google::protobuf::RepeatedField<long>::unsafe_elements() const
PUBLIC d5fb0 0 google::protobuf::RepeatedField<long>::rep() const
PUBLIC d5fc0 0 google::protobuf::RepeatedField<long>::MoveArray(long*, long*, int)
PUBLIC d5fe0 0 google::protobuf::RepeatedField<long>::CopyArray(long*, long const*, int)
PUBLIC d6000 0 google::protobuf::RepeatedField<long>::InternalDeallocate(google::protobuf::RepeatedField<long>::Rep*, int)
PUBLIC d6020 0 google::protobuf::RepeatedField<long>::FastAdder::FastAdder(google::protobuf::RepeatedField<long>*)
PUBLIC d6040 0 google::protobuf::RepeatedField<long>::FastAdder::~FastAdder()
PUBLIC d6050 0 google::protobuf::RepeatedField<long>::FastAdder::Add(long const&)
PUBLIC d60b0 0 google::protobuf::RepeatedField<unsigned long>::RepeatedField()
PUBLIC d60c0 0 google::protobuf::RepeatedField<unsigned long>::RepeatedField(google::protobuf::Arena*)
PUBLIC d60d0 0 google::protobuf::RepeatedField<unsigned long>::~RepeatedField()
PUBLIC d6100 0 google::protobuf::RepeatedField<unsigned long>::empty() const
PUBLIC d6110 0 google::protobuf::RepeatedField<unsigned long>::size() const
PUBLIC d6120 0 google::protobuf::RepeatedField<unsigned long>::Get(int) const
PUBLIC d6130 0 google::protobuf::RepeatedField<unsigned long>::Mutable(int)
PUBLIC d6140 0 google::protobuf::RepeatedField<unsigned long>::operator[](int) const
PUBLIC d6150 0 google::protobuf::RepeatedField<unsigned long>::operator[](int)
PUBLIC d6160 0 google::protobuf::RepeatedField<unsigned long>::at(int) const
PUBLIC d6250 0 google::protobuf::RepeatedField<unsigned long>::at(int)
PUBLIC d6340 0 google::protobuf::RepeatedField<unsigned long>::Set(int, unsigned long const&)
PUBLIC d6350 0 google::protobuf::RepeatedField<unsigned long>::RemoveLast()
PUBLIC d6360 0 google::protobuf::RepeatedField<unsigned long>::ExtractSubrange(int, int, unsigned long*)
PUBLIC d63f0 0 google::protobuf::RepeatedField<unsigned long>::Clear()
PUBLIC d6400 0 google::protobuf::RepeatedField<unsigned long>::Reserve(int)
PUBLIC d6550 0 google::protobuf::RepeatedField<unsigned long>::Add(unsigned long const&)
PUBLIC d65a0 0 google::protobuf::RepeatedField<unsigned long>::Add()
PUBLIC d65e0 0 google::protobuf::RepeatedField<unsigned long>::RepeatedField(google::protobuf::RepeatedField<unsigned long> const&)
PUBLIC d6630 0 google::protobuf::RepeatedField<unsigned long>::MergeFrom(google::protobuf::RepeatedField<unsigned long> const&)
PUBLIC d6680 0 google::protobuf::RepeatedField<unsigned long>::CopyFrom(google::protobuf::RepeatedField<unsigned long> const&)
PUBLIC d66e0 0 google::protobuf::RepeatedField<unsigned long>::operator=(google::protobuf::RepeatedField<unsigned long> const&)
PUBLIC d6740 0 google::protobuf::RepeatedField<unsigned long>::RepeatedField(google::protobuf::RepeatedField<unsigned long>&&)
PUBLIC d67d0 0 google::protobuf::RepeatedField<unsigned long>::operator=(google::protobuf::RepeatedField<unsigned long>&&)
PUBLIC d68a0 0 google::protobuf::RepeatedField<unsigned long>::Truncate(int)
PUBLIC d68b0 0 google::protobuf::RepeatedField<unsigned long>::AddAlreadyReserved(unsigned long const&)
PUBLIC d68d0 0 google::protobuf::RepeatedField<unsigned long>::AddAlreadyReserved()
PUBLIC d68f0 0 google::protobuf::RepeatedField<unsigned long>::AddNAlreadyReserved(int)
PUBLIC d6910 0 google::protobuf::RepeatedField<unsigned long>::Capacity() const
PUBLIC d6920 0 google::protobuf::RepeatedField<unsigned long>::Resize(int, unsigned long const&)
PUBLIC d6980 0 google::protobuf::RepeatedField<unsigned long>::mutable_data()
PUBLIC d6990 0 google::protobuf::RepeatedField<unsigned long>::data() const
PUBLIC d69a0 0 google::protobuf::RepeatedField<unsigned long>::UnsafeArenaSwap(google::protobuf::RepeatedField<unsigned long>*)
PUBLIC d69c0 0 google::protobuf::RepeatedField<unsigned long>::Swap(google::protobuf::RepeatedField<unsigned long>*)
PUBLIC d6af0 0 google::protobuf::RepeatedField<unsigned long>::SwapElements(int, int)
PUBLIC d6b10 0 google::protobuf::RepeatedField<unsigned long>::begin()
PUBLIC d6b20 0 google::protobuf::RepeatedField<unsigned long>::begin() const
PUBLIC d6b30 0 google::protobuf::RepeatedField<unsigned long>::cbegin() const
PUBLIC d6b40 0 google::protobuf::RepeatedField<unsigned long>::end()
PUBLIC d6b50 0 google::protobuf::RepeatedField<unsigned long>::end() const
PUBLIC d6b60 0 google::protobuf::RepeatedField<unsigned long>::cend() const
PUBLIC d6b70 0 google::protobuf::RepeatedField<unsigned long>::rbegin()
PUBLIC d6b90 0 google::protobuf::RepeatedField<unsigned long>::rbegin() const
PUBLIC d6bb0 0 google::protobuf::RepeatedField<unsigned long>::rend()
PUBLIC d6bc0 0 google::protobuf::RepeatedField<unsigned long>::rend() const
PUBLIC d6bd0 0 google::protobuf::RepeatedField<unsigned long>::SpaceUsedExcludingSelfLong() const
PUBLIC d6bf0 0 google::protobuf::RepeatedField<unsigned long>::SpaceUsedExcludingSelf() const
PUBLIC d6c10 0 google::protobuf::RepeatedField<unsigned long>::erase(unsigned long const*)
PUBLIC d6c80 0 google::protobuf::RepeatedField<unsigned long>::erase(unsigned long const*, unsigned long const*)
PUBLIC d6d00 0 google::protobuf::RepeatedField<unsigned long>::GetArena() const
PUBLIC d6d10 0 google::protobuf::RepeatedField<unsigned long>::InternalSwap(google::protobuf::RepeatedField<unsigned long>*)
PUBLIC d6d20 0 google::protobuf::RepeatedField<unsigned long>::elements() const
PUBLIC d6d30 0 google::protobuf::RepeatedField<unsigned long>::unsafe_elements() const
PUBLIC d6d40 0 google::protobuf::RepeatedField<unsigned long>::rep() const
PUBLIC d6d50 0 google::protobuf::RepeatedField<unsigned long>::MoveArray(unsigned long*, unsigned long*, int)
PUBLIC d6d70 0 google::protobuf::RepeatedField<unsigned long>::CopyArray(unsigned long*, unsigned long const*, int)
PUBLIC d6d90 0 google::protobuf::RepeatedField<unsigned long>::InternalDeallocate(google::protobuf::RepeatedField<unsigned long>::Rep*, int)
PUBLIC d6db0 0 google::protobuf::RepeatedField<unsigned long>::FastAdder::FastAdder(google::protobuf::RepeatedField<unsigned long>*)
PUBLIC d6dd0 0 google::protobuf::RepeatedField<unsigned long>::FastAdder::~FastAdder()
PUBLIC d6de0 0 google::protobuf::RepeatedField<unsigned long>::FastAdder::Add(unsigned long const&)
PUBLIC d6e40 0 google::protobuf::RepeatedField<float>::RepeatedField()
PUBLIC d6e50 0 google::protobuf::RepeatedField<float>::RepeatedField(google::protobuf::Arena*)
PUBLIC d6e60 0 google::protobuf::RepeatedField<float>::~RepeatedField()
PUBLIC d6e90 0 google::protobuf::RepeatedField<float>::empty() const
PUBLIC d6ea0 0 google::protobuf::RepeatedField<float>::size() const
PUBLIC d6eb0 0 google::protobuf::RepeatedField<float>::Get(int) const
PUBLIC d6ec0 0 google::protobuf::RepeatedField<float>::Mutable(int)
PUBLIC d6ed0 0 google::protobuf::RepeatedField<float>::operator[](int) const
PUBLIC d6ee0 0 google::protobuf::RepeatedField<float>::operator[](int)
PUBLIC d6ef0 0 google::protobuf::RepeatedField<float>::at(int) const
PUBLIC d6fe0 0 google::protobuf::RepeatedField<float>::at(int)
PUBLIC d70d0 0 google::protobuf::RepeatedField<float>::Set(int, float const&)
PUBLIC d70f0 0 google::protobuf::RepeatedField<float>::RemoveLast()
PUBLIC d7100 0 google::protobuf::RepeatedField<float>::ExtractSubrange(int, int, float*)
PUBLIC d71a0 0 google::protobuf::RepeatedField<float>::Clear()
PUBLIC d71b0 0 google::protobuf::RepeatedField<float>::Reserve(int)
PUBLIC d7300 0 google::protobuf::RepeatedField<float>::Add(float const&)
PUBLIC d7350 0 google::protobuf::RepeatedField<float>::Add()
PUBLIC d7390 0 google::protobuf::RepeatedField<float>::RepeatedField(google::protobuf::RepeatedField<float> const&)
PUBLIC d73e0 0 google::protobuf::RepeatedField<float>::MergeFrom(google::protobuf::RepeatedField<float> const&)
PUBLIC d7430 0 google::protobuf::RepeatedField<float>::CopyFrom(google::protobuf::RepeatedField<float> const&)
PUBLIC d7490 0 google::protobuf::RepeatedField<float>::operator=(google::protobuf::RepeatedField<float> const&)
PUBLIC d74f0 0 google::protobuf::RepeatedField<float>::RepeatedField(google::protobuf::RepeatedField<float>&&)
PUBLIC d7580 0 google::protobuf::RepeatedField<float>::operator=(google::protobuf::RepeatedField<float>&&)
PUBLIC d7650 0 google::protobuf::RepeatedField<float>::Truncate(int)
PUBLIC d7660 0 google::protobuf::RepeatedField<float>::AddAlreadyReserved(float const&)
PUBLIC d7680 0 google::protobuf::RepeatedField<float>::AddAlreadyReserved()
PUBLIC d76a0 0 google::protobuf::RepeatedField<float>::AddNAlreadyReserved(int)
PUBLIC d76c0 0 google::protobuf::RepeatedField<float>::Capacity() const
PUBLIC d76d0 0 google::protobuf::RepeatedField<float>::Resize(int, float const&)
PUBLIC d7730 0 google::protobuf::RepeatedField<float>::mutable_data()
PUBLIC d7740 0 google::protobuf::RepeatedField<float>::data() const
PUBLIC d7750 0 google::protobuf::RepeatedField<float>::UnsafeArenaSwap(google::protobuf::RepeatedField<float>*)
PUBLIC d7770 0 google::protobuf::RepeatedField<float>::Swap(google::protobuf::RepeatedField<float>*)
PUBLIC d78a0 0 google::protobuf::RepeatedField<float>::SwapElements(int, int)
PUBLIC d78d0 0 google::protobuf::RepeatedField<float>::begin()
PUBLIC d78e0 0 google::protobuf::RepeatedField<float>::begin() const
PUBLIC d78f0 0 google::protobuf::RepeatedField<float>::cbegin() const
PUBLIC d7900 0 google::protobuf::RepeatedField<float>::end()
PUBLIC d7910 0 google::protobuf::RepeatedField<float>::end() const
PUBLIC d7920 0 google::protobuf::RepeatedField<float>::cend() const
PUBLIC d7930 0 google::protobuf::RepeatedField<float>::rbegin()
PUBLIC d7950 0 google::protobuf::RepeatedField<float>::rbegin() const
PUBLIC d7970 0 google::protobuf::RepeatedField<float>::rend()
PUBLIC d7980 0 google::protobuf::RepeatedField<float>::rend() const
PUBLIC d7990 0 google::protobuf::RepeatedField<float>::SpaceUsedExcludingSelfLong() const
PUBLIC d79b0 0 google::protobuf::RepeatedField<float>::SpaceUsedExcludingSelf() const
PUBLIC d79d0 0 google::protobuf::RepeatedField<float>::erase(float const*)
PUBLIC d7a40 0 google::protobuf::RepeatedField<float>::erase(float const*, float const*)
PUBLIC d7ac0 0 google::protobuf::RepeatedField<float>::GetArena() const
PUBLIC d7ad0 0 google::protobuf::RepeatedField<float>::InternalSwap(google::protobuf::RepeatedField<float>*)
PUBLIC d7ae0 0 google::protobuf::RepeatedField<float>::elements() const
PUBLIC d7af0 0 google::protobuf::RepeatedField<float>::unsafe_elements() const
PUBLIC d7b00 0 google::protobuf::RepeatedField<float>::rep() const
PUBLIC d7b10 0 google::protobuf::RepeatedField<float>::MoveArray(float*, float*, int)
PUBLIC d7b30 0 google::protobuf::RepeatedField<float>::CopyArray(float*, float const*, int)
PUBLIC d7b50 0 google::protobuf::RepeatedField<float>::InternalDeallocate(google::protobuf::RepeatedField<float>::Rep*, int)
PUBLIC d7b70 0 google::protobuf::RepeatedField<float>::FastAdder::FastAdder(google::protobuf::RepeatedField<float>*)
PUBLIC d7b90 0 google::protobuf::RepeatedField<float>::FastAdder::~FastAdder()
PUBLIC d7ba0 0 google::protobuf::RepeatedField<float>::FastAdder::Add(float const&)
PUBLIC d7c00 0 google::protobuf::RepeatedField<double>::RepeatedField()
PUBLIC d7c10 0 google::protobuf::RepeatedField<double>::RepeatedField(google::protobuf::Arena*)
PUBLIC d7c20 0 google::protobuf::RepeatedField<double>::~RepeatedField()
PUBLIC d7c50 0 google::protobuf::RepeatedField<double>::empty() const
PUBLIC d7c60 0 google::protobuf::RepeatedField<double>::size() const
PUBLIC d7c70 0 google::protobuf::RepeatedField<double>::Get(int) const
PUBLIC d7c80 0 google::protobuf::RepeatedField<double>::Mutable(int)
PUBLIC d7c90 0 google::protobuf::RepeatedField<double>::operator[](int) const
PUBLIC d7ca0 0 google::protobuf::RepeatedField<double>::operator[](int)
PUBLIC d7cb0 0 google::protobuf::RepeatedField<double>::at(int) const
PUBLIC d7da0 0 google::protobuf::RepeatedField<double>::at(int)
PUBLIC d7e90 0 google::protobuf::RepeatedField<double>::Set(int, double const&)
PUBLIC d7eb0 0 google::protobuf::RepeatedField<double>::RemoveLast()
PUBLIC d7ec0 0 google::protobuf::RepeatedField<double>::ExtractSubrange(int, int, double*)
PUBLIC d7f60 0 google::protobuf::RepeatedField<double>::Clear()
PUBLIC d7f70 0 google::protobuf::RepeatedField<double>::Reserve(int)
PUBLIC d80c0 0 google::protobuf::RepeatedField<double>::Add(double const&)
PUBLIC d8110 0 google::protobuf::RepeatedField<double>::Add()
PUBLIC d8150 0 google::protobuf::RepeatedField<double>::RepeatedField(google::protobuf::RepeatedField<double> const&)
PUBLIC d81a0 0 google::protobuf::RepeatedField<double>::MergeFrom(google::protobuf::RepeatedField<double> const&)
PUBLIC d81f0 0 google::protobuf::RepeatedField<double>::CopyFrom(google::protobuf::RepeatedField<double> const&)
PUBLIC d8250 0 google::protobuf::RepeatedField<double>::operator=(google::protobuf::RepeatedField<double> const&)
PUBLIC d82b0 0 google::protobuf::RepeatedField<double>::RepeatedField(google::protobuf::RepeatedField<double>&&)
PUBLIC d8340 0 google::protobuf::RepeatedField<double>::operator=(google::protobuf::RepeatedField<double>&&)
PUBLIC d8410 0 google::protobuf::RepeatedField<double>::Truncate(int)
PUBLIC d8420 0 google::protobuf::RepeatedField<double>::AddAlreadyReserved(double const&)
PUBLIC d8440 0 google::protobuf::RepeatedField<double>::AddAlreadyReserved()
PUBLIC d8460 0 google::protobuf::RepeatedField<double>::AddNAlreadyReserved(int)
PUBLIC d8480 0 google::protobuf::RepeatedField<double>::Capacity() const
PUBLIC d8490 0 google::protobuf::RepeatedField<double>::Resize(int, double const&)
PUBLIC d84f0 0 google::protobuf::RepeatedField<double>::mutable_data()
PUBLIC d8500 0 google::protobuf::RepeatedField<double>::data() const
PUBLIC d8510 0 google::protobuf::RepeatedField<double>::UnsafeArenaSwap(google::protobuf::RepeatedField<double>*)
PUBLIC d8530 0 google::protobuf::RepeatedField<double>::Swap(google::protobuf::RepeatedField<double>*)
PUBLIC d8660 0 google::protobuf::RepeatedField<double>::SwapElements(int, int)
PUBLIC d8690 0 google::protobuf::RepeatedField<double>::begin()
PUBLIC d86a0 0 google::protobuf::RepeatedField<double>::begin() const
PUBLIC d86b0 0 google::protobuf::RepeatedField<double>::cbegin() const
PUBLIC d86c0 0 google::protobuf::RepeatedField<double>::end()
PUBLIC d86d0 0 google::protobuf::RepeatedField<double>::end() const
PUBLIC d86e0 0 google::protobuf::RepeatedField<double>::cend() const
PUBLIC d86f0 0 google::protobuf::RepeatedField<double>::rbegin()
PUBLIC d8710 0 google::protobuf::RepeatedField<double>::rbegin() const
PUBLIC d8730 0 google::protobuf::RepeatedField<double>::rend()
PUBLIC d8740 0 google::protobuf::RepeatedField<double>::rend() const
PUBLIC d8750 0 google::protobuf::RepeatedField<double>::SpaceUsedExcludingSelfLong() const
PUBLIC d8770 0 google::protobuf::RepeatedField<double>::SpaceUsedExcludingSelf() const
PUBLIC d8790 0 google::protobuf::RepeatedField<double>::erase(double const*)
PUBLIC d8800 0 google::protobuf::RepeatedField<double>::erase(double const*, double const*)
PUBLIC d8880 0 google::protobuf::RepeatedField<double>::GetArena() const
PUBLIC d8890 0 google::protobuf::RepeatedField<double>::InternalSwap(google::protobuf::RepeatedField<double>*)
PUBLIC d88a0 0 google::protobuf::RepeatedField<double>::elements() const
PUBLIC d88b0 0 google::protobuf::RepeatedField<double>::unsafe_elements() const
PUBLIC d88c0 0 google::protobuf::RepeatedField<double>::rep() const
PUBLIC d88d0 0 google::protobuf::RepeatedField<double>::MoveArray(double*, double*, int)
PUBLIC d88f0 0 google::protobuf::RepeatedField<double>::CopyArray(double*, double const*, int)
PUBLIC d8910 0 google::protobuf::RepeatedField<double>::InternalDeallocate(google::protobuf::RepeatedField<double>::Rep*, int)
PUBLIC d8930 0 google::protobuf::RepeatedField<double>::FastAdder::FastAdder(google::protobuf::RepeatedField<double>*)
PUBLIC d8950 0 google::protobuf::RepeatedField<double>::FastAdder::~FastAdder()
PUBLIC d8960 0 google::protobuf::RepeatedField<double>::FastAdder::Add(double const&)
PUBLIC d89c0 0 google::protobuf::RepeatedPtrField<std::__cxx11::basic_string<char, std::char_traits<char>, std::allocator<char> > >::RepeatedPtrField()
PUBLIC d89e0 0 google::protobuf::RepeatedPtrField<std::__cxx11::basic_string<char, std::char_traits<char>, std::allocator<char> > >::RepeatedPtrField(google::protobuf::Arena*)
PUBLIC d8a00 0 google::protobuf::RepeatedPtrField<std::__cxx11::basic_string<char, std::char_traits<char>, std::allocator<char> > >::RepeatedPtrField(google::protobuf::RepeatedPtrField<std::__cxx11::basic_string<char, std::char_traits<char>, std::allocator<char> > > const&)
PUBLIC d8a80 0 google::protobuf::RepeatedPtrField<std::__cxx11::basic_string<char, std::char_traits<char>, std::allocator<char> > >::operator=(google::protobuf::RepeatedPtrField<std::__cxx11::basic_string<char, std::char_traits<char>, std::allocator<char> > > const&)
PUBLIC d8b30 0 google::protobuf::RepeatedPtrField<std::__cxx11::basic_string<char, std::char_traits<char>, std::allocator<char> > >::RepeatedPtrField(google::protobuf::RepeatedPtrField<std::__cxx11::basic_string<char, std::char_traits<char>, std::allocator<char> > >&&)
PUBLIC d8bc0 0 google::protobuf::RepeatedPtrField<std::__cxx11::basic_string<char, std::char_traits<char>, std::allocator<char> > >::operator=(google::protobuf::RepeatedPtrField<std::__cxx11::basic_string<char, std::char_traits<char>, std::allocator<char> > >&&)
PUBLIC d8c90 0 google::protobuf::RepeatedPtrField<std::__cxx11::basic_string<char, std::char_traits<char>, std::allocator<char> > >::empty() const
PUBLIC d8ca0 0 google::protobuf::RepeatedPtrField<std::__cxx11::basic_string<char, std::char_traits<char>, std::allocator<char> > >::size() const
PUBLIC d8cb0 0 google::protobuf::RepeatedPtrField<std::__cxx11::basic_string<char, std::char_traits<char>, std::allocator<char> > >::Get(int) const
PUBLIC d8cc0 0 google::protobuf::RepeatedPtrField<std::__cxx11::basic_string<char, std::char_traits<char>, std::allocator<char> > >::Mutable(int)
PUBLIC d8cd0 0 google::protobuf::RepeatedPtrField<std::__cxx11::basic_string<char, std::char_traits<char>, std::allocator<char> > >::Add()
PUBLIC d8dc0 0 google::protobuf::RepeatedPtrField<std::__cxx11::basic_string<char, std::char_traits<char>, std::allocator<char> > >::Add(std::__cxx11::basic_string<char, std::char_traits<char>, std::allocator<char> >&&)
PUBLIC d8fd0 0 google::protobuf::RepeatedPtrField<std::__cxx11::basic_string<char, std::char_traits<char>, std::allocator<char> > >::operator[](int) const
PUBLIC d8fe0 0 google::protobuf::RepeatedPtrField<std::__cxx11::basic_string<char, std::char_traits<char>, std::allocator<char> > >::operator[](int)
PUBLIC d8ff0 0 google::protobuf::RepeatedPtrField<std::__cxx11::basic_string<char, std::char_traits<char>, std::allocator<char> > >::at(int) const
PUBLIC d90e0 0 google::protobuf::RepeatedPtrField<std::__cxx11::basic_string<char, std::char_traits<char>, std::allocator<char> > >::at(int)
PUBLIC d91d0 0 google::protobuf::RepeatedPtrField<std::__cxx11::basic_string<char, std::char_traits<char>, std::allocator<char> > >::RemoveLast()
PUBLIC d9200 0 google::protobuf::RepeatedPtrField<std::__cxx11::basic_string<char, std::char_traits<char>, std::allocator<char> > >::DeleteSubrange(int, int)
PUBLIC d92a0 0 google::protobuf::RepeatedPtrField<std::__cxx11::basic_string<char, std::char_traits<char>, std::allocator<char> > >::Clear()
PUBLIC d92f0 0 google::protobuf::RepeatedPtrField<std::__cxx11::basic_string<char, std::char_traits<char>, std::allocator<char> > >::MergeFrom(google::protobuf::RepeatedPtrField<std::__cxx11::basic_string<char, std::char_traits<char>, std::allocator<char> > > const&)
PUBLIC d9350 0 google::protobuf::RepeatedPtrField<std::__cxx11::basic_string<char, std::char_traits<char>, std::allocator<char> > >::CopyFrom(google::protobuf::RepeatedPtrField<std::__cxx11::basic_string<char, std::char_traits<char>, std::allocator<char> > > const&)
PUBLIC d9400 0 google::protobuf::RepeatedPtrField<std::__cxx11::basic_string<char, std::char_traits<char>, std::allocator<char> > >::Reserve(int)
PUBLIC d9410 0 google::protobuf::RepeatedPtrField<std::__cxx11::basic_string<char, std::char_traits<char>, std::allocator<char> > >::Capacity() const
PUBLIC d9420 0 google::protobuf::RepeatedPtrField<std::__cxx11::basic_string<char, std::char_traits<char>, std::allocator<char> > >::mutable_data()
PUBLIC d9430 0 google::protobuf::RepeatedPtrField<std::__cxx11::basic_string<char, std::char_traits<char>, std::allocator<char> > >::data() const
PUBLIC d9440 0 google::protobuf::RepeatedPtrField<std::__cxx11::basic_string<char, std::char_traits<char>, std::allocator<char> > >::UnsafeArenaSwap(google::protobuf::RepeatedPtrField<std::__cxx11::basic_string<char, std::char_traits<char>, std::allocator<char> > >*)
PUBLIC d9460 0 google::protobuf::RepeatedPtrField<std::__cxx11::basic_string<char, std::char_traits<char>, std::allocator<char> > >::SwapElements(int, int)
PUBLIC d9490 0 google::protobuf::RepeatedPtrField<std::__cxx11::basic_string<char, std::char_traits<char>, std::allocator<char> > >::begin()
PUBLIC d94a0 0 google::protobuf::RepeatedPtrField<std::__cxx11::basic_string<char, std::char_traits<char>, std::allocator<char> > >::begin() const
PUBLIC d94b0 0 google::protobuf::RepeatedPtrField<std::__cxx11::basic_string<char, std::char_traits<char>, std::allocator<char> > >::cbegin() const
PUBLIC d94c0 0 google::protobuf::RepeatedPtrField<std::__cxx11::basic_string<char, std::char_traits<char>, std::allocator<char> > >::end()
PUBLIC d94e0 0 google::protobuf::RepeatedPtrField<std::__cxx11::basic_string<char, std::char_traits<char>, std::allocator<char> > >::end() const
PUBLIC d9500 0 google::protobuf::RepeatedPtrField<std::__cxx11::basic_string<char, std::char_traits<char>, std::allocator<char> > >::cend() const
PUBLIC d9520 0 google::protobuf::RepeatedPtrField<std::__cxx11::basic_string<char, std::char_traits<char>, std::allocator<char> > >::rbegin()
PUBLIC d9540 0 google::protobuf::RepeatedPtrField<std::__cxx11::basic_string<char, std::char_traits<char>, std::allocator<char> > >::rbegin() const
PUBLIC d9560 0 google::protobuf::RepeatedPtrField<std::__cxx11::basic_string<char, std::char_traits<char>, std::allocator<char> > >::rend()
PUBLIC d9580 0 google::protobuf::RepeatedPtrField<std::__cxx11::basic_string<char, std::char_traits<char>, std::allocator<char> > >::rend() const
PUBLIC d95a0 0 google::protobuf::RepeatedPtrField<std::__cxx11::basic_string<char, std::char_traits<char>, std::allocator<char> > >::pointer_begin()
PUBLIC d95b0 0 google::protobuf::RepeatedPtrField<std::__cxx11::basic_string<char, std::char_traits<char>, std::allocator<char> > >::pointer_begin() const
PUBLIC d95c0 0 google::protobuf::RepeatedPtrField<std::__cxx11::basic_string<char, std::char_traits<char>, std::allocator<char> > >::pointer_end()
PUBLIC d95e0 0 google::protobuf::RepeatedPtrField<std::__cxx11::basic_string<char, std::char_traits<char>, std::allocator<char> > >::pointer_end() const
PUBLIC d9600 0 google::protobuf::RepeatedPtrField<std::__cxx11::basic_string<char, std::char_traits<char>, std::allocator<char> > >::SpaceUsedExcludingSelfLong() const
PUBLIC d9650 0 google::protobuf::RepeatedPtrField<std::__cxx11::basic_string<char, std::char_traits<char>, std::allocator<char> > >::SpaceUsedExcludingSelf() const
PUBLIC d96b0 0 google::protobuf::RepeatedPtrField<std::__cxx11::basic_string<char, std::char_traits<char>, std::allocator<char> > >::ReleaseLast()
PUBLIC d9730 0 google::protobuf::RepeatedPtrField<std::__cxx11::basic_string<char, std::char_traits<char>, std::allocator<char> > >::UnsafeArenaReleaseLast()
PUBLIC d9770 0 google::protobuf::RepeatedPtrField<std::__cxx11::basic_string<char, std::char_traits<char>, std::allocator<char> > >::ExtractSubrange(int, int, std::__cxx11::basic_string<char, std::char_traits<char>, std::allocator<char> >**)
PUBLIC d9860 0 google::protobuf::RepeatedPtrField<std::__cxx11::basic_string<char, std::char_traits<char>, std::allocator<char> > >::UnsafeArenaExtractSubrange(int, int, std::__cxx11::basic_string<char, std::char_traits<char>, std::allocator<char> >**)
PUBLIC d98b0 0 google::protobuf::RepeatedPtrField<std::__cxx11::basic_string<char, std::char_traits<char>, std::allocator<char> > >::ClearedCount() const
PUBLIC d98d0 0 google::protobuf::RepeatedPtrField<std::__cxx11::basic_string<char, std::char_traits<char>, std::allocator<char> > >::AddCleared(std::__cxx11::basic_string<char, std::char_traits<char>, std::allocator<char> >*)
PUBLIC d9920 0 google::protobuf::RepeatedPtrField<std::__cxx11::basic_string<char, std::char_traits<char>, std::allocator<char> > >::ReleaseCleared()
PUBLIC d9940 0 google::protobuf::RepeatedPtrField<std::__cxx11::basic_string<char, std::char_traits<char>, std::allocator<char> > >::erase(google::protobuf::internal::RepeatedPtrIterator<std::__cxx11::basic_string<char, std::char_traits<char>, std::allocator<char> > const>)
PUBLIC d9a30 0 google::protobuf::RepeatedPtrField<std::__cxx11::basic_string<char, std::char_traits<char>, std::allocator<char> > >::erase(google::protobuf::internal::RepeatedPtrIterator<std::__cxx11::basic_string<char, std::char_traits<char>, std::allocator<char> > const>, google::protobuf::internal::RepeatedPtrIterator<std::__cxx11::basic_string<char, std::char_traits<char>, std::allocator<char> > const>)
PUBLIC d9b20 0 google::protobuf::RepeatedPtrField<std::__cxx11::basic_string<char, std::char_traits<char>, std::allocator<char> > >::GetArena() const
PUBLIC d9b30 0 google::protobuf::RepeatedPtrField<std::__cxx11::basic_string<char, std::char_traits<char>, std::allocator<char> > >::InternalSwap(google::protobuf::RepeatedPtrField<std::__cxx11::basic_string<char, std::char_traits<char>, std::allocator<char> > >*)
PUBLIC d9b50 0 google::protobuf::RepeatedPtrField<std::__cxx11::basic_string<char, std::char_traits<char>, std::allocator<char> > >::ExtractSubrangeInternal(int, int, std::__cxx11::basic_string<char, std::char_traits<char>, std::allocator<char> >**, std::integral_constant<bool, true>)
PUBLIC d9c40 0 google::protobuf::RepeatedPtrField<std::__cxx11::basic_string<char, std::char_traits<char>, std::allocator<char> > >::ExtractSubrangeInternal(int, int, std::__cxx11::basic_string<char, std::char_traits<char>, std::allocator<char> >**, std::integral_constant<bool, false>)
PUBLIC d9c90 0 void google::protobuf::internal::RepeatedPtrFieldBase::Destroy<google::protobuf::RepeatedPtrField<std::__cxx11::basic_string<char, std::char_traits<char>, std::allocator<char> > >::TypeHandler>()
PUBLIC d9d30 0 google::protobuf::RepeatedPtrField<std::__cxx11::basic_string<char, std::char_traits<char>, std::allocator<char> > >::~RepeatedPtrField()
PUBLIC d9d40 0 void google::protobuf::internal::RepeatedPtrFieldBase::UnsafeArenaAddAllocated<google::protobuf::RepeatedPtrField<std::__cxx11::basic_string<char, std::char_traits<char>, std::allocator<char> > >::TypeHandler>(google::protobuf::RepeatedPtrField<std::__cxx11::basic_string<char, std::char_traits<char>, std::allocator<char> > >::TypeHandler::Type*)
PUBLIC d9e20 0 google::protobuf::RepeatedPtrField<std::__cxx11::basic_string<char, std::char_traits<char>, std::allocator<char> > >::UnsafeArenaAddAllocated(std::__cxx11::basic_string<char, std::char_traits<char>, std::allocator<char> >*)
PUBLIC d9e30 0 void google::protobuf::internal::RepeatedPtrFieldBase::SwapFallback<google::protobuf::RepeatedPtrField<std::__cxx11::basic_string<char, std::char_traits<char>, std::allocator<char> > >::TypeHandler>(google::protobuf::internal::RepeatedPtrFieldBase*)
PUBLIC d9f90 0 google::protobuf::RepeatedPtrField<std::__cxx11::basic_string<char, std::char_traits<char>, std::allocator<char> > >::Swap(google::protobuf::RepeatedPtrField<std::__cxx11::basic_string<char, std::char_traits<char>, std::allocator<char> > >*)
PUBLIC d9fd0 0 void google::protobuf::Arena::Own<std::__cxx11::basic_string<char, std::char_traits<char>, std::allocator<char> > >(std::__cxx11::basic_string<char, std::char_traits<char>, std::allocator<char> >*)
PUBLIC d9ff0 0 void google::protobuf::internal::RepeatedPtrFieldBase::AddAllocatedSlowWithCopy<google::protobuf::RepeatedPtrField<std::__cxx11::basic_string<char, std::char_traits<char>, std::allocator<char> > >::TypeHandler>(google::protobuf::RepeatedPtrField<std::__cxx11::basic_string<char, std::char_traits<char>, std::allocator<char> > >::TypeHandler::Type*, google::protobuf::Arena*, google::protobuf::Arena*)
PUBLIC da0f0 0 google::protobuf::RepeatedPtrField<std::__cxx11::basic_string<char, std::char_traits<char>, std::allocator<char> > >::AddAllocated(std::__cxx11::basic_string<char, std::char_traits<char>, std::allocator<char> >*)
PUBLIC da140 0 google::protobuf::internal::FieldSkipper::SkipUnknownEnum(int, int)
PUBLIC da150 0 google::protobuf::internal::CodedOutputStreamFieldSkipper::SkipUnknownEnum(int, int)
PUBLIC da2c0 0 google::protobuf::internal::WireFormatLite::SkipMessage(google::protobuf::io::CodedInputStream*)
PUBLIC da340 0 google::protobuf::internal::WireFormatLite::SkipField(google::protobuf::io::CodedInputStream*, unsigned int)
PUBLIC da510 0 google::protobuf::internal::FieldSkipper::SkipField(google::protobuf::io::CodedInputStream*, unsigned int)
PUBLIC da520 0 google::protobuf::internal::FieldSkipper::SkipMessage(google::protobuf::io::CodedInputStream*)
PUBLIC da530 0 google::protobuf::internal::WireFormatLite::SkipMessage(google::protobuf::io::CodedInputStream*, google::protobuf::io::CodedOutputStream*)
PUBLIC da630 0 google::protobuf::internal::WireFormatLite::SkipField(google::protobuf::io::CodedInputStream*, unsigned int, google::protobuf::io::CodedOutputStream*)
PUBLIC dad10 0 google::protobuf::internal::CodedOutputStreamFieldSkipper::SkipField(google::protobuf::io::CodedInputStream*, unsigned int)
PUBLIC dad30 0 google::protobuf::internal::CodedOutputStreamFieldSkipper::SkipMessage(google::protobuf::io::CodedInputStream*)
PUBLIC dad40 0 google::protobuf::internal::WireFormatLite::ReadPackedEnumPreserveUnknowns(google::protobuf::io::CodedInputStream*, int, bool (*)(int), google::protobuf::io::CodedOutputStream*, google::protobuf::RepeatedField<int>*)
PUBLIC daff0 0 google::protobuf::internal::WireFormatLite::WriteFloatArray(float const*, int, google::protobuf::io::CodedOutputStream*)
PUBLIC db060 0 google::protobuf::internal::WireFormatLite::WriteDoubleArray(double const*, int, google::protobuf::io::CodedOutputStream*)
PUBLIC db0d0 0 google::protobuf::internal::WireFormatLite::WriteFixed32Array(unsigned int const*, int, google::protobuf::io::CodedOutputStream*)
PUBLIC db140 0 google::protobuf::internal::WireFormatLite::WriteFixed64Array(unsigned long const*, int, google::protobuf::io::CodedOutputStream*)
PUBLIC db1b0 0 google::protobuf::internal::WireFormatLite::WriteSFixed32Array(int const*, int, google::protobuf::io::CodedOutputStream*)
PUBLIC db220 0 google::protobuf::internal::WireFormatLite::WriteSFixed64Array(long const*, int, google::protobuf::io::CodedOutputStream*)
PUBLIC db290 0 google::protobuf::internal::WireFormatLite::WriteBoolArray(bool const*, int, google::protobuf::io::CodedOutputStream*)
PUBLIC db2f0 0 google::protobuf::internal::WireFormatLite::WriteInt32(int, int, google::protobuf::io::CodedOutputStream*) [clone .localalias]
PUBLIC db440 0 google::protobuf::internal::WireFormatLite::WriteInt64(int, long, google::protobuf::io::CodedOutputStream*)
PUBLIC db590 0 google::protobuf::internal::WireFormatLite::WriteUInt32(int, unsigned int, google::protobuf::io::CodedOutputStream*)
PUBLIC db6d0 0 google::protobuf::internal::WireFormatLite::WriteUInt64(int, unsigned long, google::protobuf::io::CodedOutputStream*)
PUBLIC db820 0 google::protobuf::internal::WireFormatLite::WriteSInt32(int, int, google::protobuf::io::CodedOutputStream*)
PUBLIC db970 0 google::protobuf::internal::WireFormatLite::WriteSInt64(int, long, google::protobuf::io::CodedOutputStream*)
PUBLIC dbac0 0 google::protobuf::internal::WireFormatLite::WriteFixed32(int, unsigned int, google::protobuf::io::CodedOutputStream*)
PUBLIC dbba0 0 google::protobuf::internal::WireFormatLite::WriteFixed64(int, unsigned long, google::protobuf::io::CodedOutputStream*)
PUBLIC dbc80 0 google::protobuf::internal::WireFormatLite::WriteSFixed32(int, int, google::protobuf::io::CodedOutputStream*)
PUBLIC dbd60 0 google::protobuf::internal::WireFormatLite::WriteSFixed64(int, long, google::protobuf::io::CodedOutputStream*)
PUBLIC dbe40 0 google::protobuf::internal::WireFormatLite::WriteFloat(int, float, google::protobuf::io::CodedOutputStream*)
PUBLIC dbf20 0 google::protobuf::internal::WireFormatLite::WriteDouble(int, double, google::protobuf::io::CodedOutputStream*)
PUBLIC dc000 0 google::protobuf::internal::WireFormatLite::WriteBool(int, bool, google::protobuf::io::CodedOutputStream*)
PUBLIC dc0e0 0 google::protobuf::internal::WireFormatLite::WriteEnum(int, int, google::protobuf::io::CodedOutputStream*)
PUBLIC dc0f0 0 google::protobuf::internal::WireFormatLite::WriteString(int, std::__cxx11::basic_string<char, std::char_traits<char>, std::allocator<char> > const&, google::protobuf::io::CodedOutputStream*)
PUBLIC dc310 0 google::protobuf::internal::WireFormatLite::WriteStringMaybeAliased(int, std::__cxx11::basic_string<char, std::char_traits<char>, std::allocator<char> > const&, google::protobuf::io::CodedOutputStream*)
PUBLIC dc550 0 google::protobuf::internal::WireFormatLite::WriteBytes(int, std::__cxx11::basic_string<char, std::char_traits<char>, std::allocator<char> > const&, google::protobuf::io::CodedOutputStream*)
PUBLIC dc770 0 google::protobuf::internal::WireFormatLite::WriteBytesMaybeAliased(int, std::__cxx11::basic_string<char, std::char_traits<char>, std::allocator<char> > const&, google::protobuf::io::CodedOutputStream*)
PUBLIC dc9b0 0 google::protobuf::internal::WireFormatLite::WriteGroup(int, google::protobuf::MessageLite const&, google::protobuf::io::CodedOutputStream*)
