MODULE Linux x86_64 92099D32807382EE8B8F671B29DF6E4C0 libsagegen.so
INFO CODE_ID 329D09927380EE828B8F671B29DF6E4CF8A5E307
PUBLIC 1d000 0 _init
PUBLIC 1da40 0 std::function<._853 (ssl_item_s*, xst_s*, ssl_item_s*, char const*, char const*, char const*, char const*, char const*)>::function<std::_Bind<._853 (*(std::unordered_map<std::__cxx11::basic_string<char, std::char_traits<char>, std::allocator<char> >, int, std::hash<std::__cxx11::basic_string<char, std::char_traits<char>, std::allocator<char> > >, std::equal_to<std::__cxx11::basic_string<char, std::char_traits<char>, std::allocator<char> > >, std::allocator<std::pair<std::__cxx11::basic_string<char, std::char_traits<char>, std::allocator<char> > const, int> > >, std::_Placeholder<1>, std::_Placeholder<2>, std::_Placeholder<3>, std::_Placeholder<4>, std::_Placeholder<5>, std::_Placeholder<6>, std::_Placeholder<7>, std::_Placeholder<8>))(std::unordered_map<std::__cxx11::basic_string<char, std::char_traits<char>, std::allocator<char> >, int, std::hash<std::__cxx11::basic_string<char, std::char_traits<char>, std::allocator<char> > >, std::equal_to<std::__cxx11::basic_string<char, std::char_traits<char>, std::allocator<char> > >, std::allocator<std::pair<std::__cxx11::basic_string<char, std::char_traits<char>, std::allocator<char> > const, int> > >&, ssl_item_s*, xst_s*, ssl_item_s*, char const*, char const*, char const*, char const*, char const*)>, void, void>(std::_Bind<._853 (*(std::unordered_map<std::__cxx11::basic_string<char, std::char_traits<char>, std::allocator<char> >, int, std::hash<std::__cxx11::basic_string<char, std::char_traits<char>, std::allocator<char> > >, std::equal_to<std::__cxx11::basic_string<char, std::char_traits<char>, std::allocator<char> > >, std::allocator<std::pair<std::__cxx11::basic_string<char, std::char_traits<char>, std::allocator<char> > const, int> > >, std::_Placeholder<1>, std::_Placeholder<2>, std::_Placeholder<3>, std::_Placeholder<4>, std::_Placeholder<5>, std::_Placeholder<6>, std::_Placeholder<7>, std::_Placeholder<8>))(std::unordered_map<std::__cxx11::basic_string<char, std::char_traits<char>, std::allocator<char> >, int, std::hash<std::__cxx11::basic_string<char, std::char_traits<char>, std::allocator<char> > >, std::equal_to<std::__cxx11::basic_string<char, std::char_traits<char>, std::allocator<char> > >, std::allocator<std::pair<std::__cxx11::basic_string<char, std::char_traits<char>, std::allocator<char> > const, int> > >&, ssl_item_s*, xst_s*, ssl_item_s*, char const*, char const*, char const*, char const*, char const*)>) [clone .cold]
PUBLIC 1da5e 0 std::_Hashtable<std::pair<xst_s*, long*>, std::pair<std::pair<xst_s*, long*> const, int>, std::allocator<std::pair<std::pair<xst_s*, long*> const, int> >, std::__detail::_Select1st, std::equal_to<std::pair<xst_s*, long*> >, (anonymous namespace)::PointerPairHash, std::__detail::_Mod_range_hashing, std::__detail::_Default_ranged_hash, std::__detail::_Prime_rehash_policy, std::__detail::_Hashtable_traits<true, false, true> >::_M_insert_unique_node(unsigned long, unsigned long, std::__detail::_Hash_node<std::pair<std::pair<xst_s*, long*> const, int>, true>*, unsigned long) [clone .constprop.0] [clone .cold]
PUBLIC 1da9c 0 std::__detail::_Map_base<std::__cxx11::basic_string<char, std::char_traits<char>, std::allocator<char> >, std::pair<std::__cxx11::basic_string<char, std::char_traits<char>, std::allocator<char> > const, (anonymous namespace)::OocrInfo>, std::allocator<std::pair<std::__cxx11::basic_string<char, std::char_traits<char>, std::allocator<char> > const, (anonymous namespace)::OocrInfo> >, std::__detail::_Select1st, std::equal_to<std::__cxx11::basic_string<char, std::char_traits<char>, std::allocator<char> > >, std::hash<std::__cxx11::basic_string<char, std::char_traits<char>, std::allocator<char> > >, std::__detail::_Mod_range_hashing, std::__detail::_Default_ranged_hash, std::__detail::_Prime_rehash_policy, std::__detail::_Hashtable_traits<true, false, true>, true>::operator[](std::__cxx11::basic_string<char, std::char_traits<char>, std::allocator<char> > const&) [clone .cold]
PUBLIC 1db80 0 (anonymous namespace)::createOoprForOocr((anonymous namespace)::OocrInfo&) [clone .cold]
PUBLIC 1dcfc 0 (anonymous namespace)::comparePibInstancesDirect(long*, long*) [clone .cold]
PUBLIC 1dd13 0 (anonymous namespace)::getPrimTypeName(vst_s*, bool) [clone .cold]
PUBLIC 1dd97 0 (anonymous namespace)::fileSysErr(std::__cxx11::basic_string<char, std::char_traits<char>, std::allocator<char> > const&, std::__cxx11::basic_string<char, std::char_traits<char>, std::allocator<char> > const&) [clone .cold]
PUBLIC 1ddae 0 (anonymous namespace)::prepareOoprForSvBindOomr(ssl_item_s*, xst_s*, std::__cxx11::basic_string<char, std::char_traits<char>, std::allocator<char> > const&, std::__cxx11::basic_string<char, std::char_traits<char>, std::allocator<char> > const&, xst_s*, std::__cxx11::basic_string<char, std::char_traits<char>, std::allocator<char> > const&, bool) [clone .cold]
PUBLIC 1dfc1 0 (anonymous namespace)::getXmclonePartitionPath(char const*, char const*, char const*, char const*, char const*, bool) [clone .constprop.0] [clone .cold]
PUBLIC 1dff0 0 Sage::catLCVSName[abi:cxx11](char const*, char const*, char const*, char const*) [clone .cold]
PUBLIC 1e004 0 (anonymous namespace)::recordHierNodeTypeSignals(ssl_item_s*, hiertreeproto::ModuleItem&) [clone .isra.0] [clone .cold]
PUBLIC 1e011 0 (anonymous namespace)::sagegenIePropagateCoercion() [clone .cold]
PUBLIC 1e01e 0 (anonymous namespace)::getPaddedHexStr(long) [clone .cold]
PUBLIC 1e105 0 Sage::getSignature[abi:cxx11](ssl_item_s const*) [clone .cold]
PUBLIC 1e11f 0 Sage::buildUnknownLcvName[abi:cxx11](ssl_item_s*, bool) [clone .cold]
PUBLIC 1e14d 0 Sage::getLcvName[abi:cxx11](ssl_item_s*, bool) [clone .cold]
PUBLIC 1e169 0 (anonymous namespace)::getOocrTargetValue(xst_s*, long*, bool&) [clone .constprop.0] [clone .cold]
PUBLIC 1e1ee 0 (anonymous namespace)::logVlogObj(char const*, xst_s*, long*, std::__cxx11::basic_string<char, std::char_traits<char>, std::allocator<char> > const&) [clone .cold]
PUBLIC 1e29f 0 sagegen_xmclone_bind_cb.cold
PUBLIC 1e2bb 0 (anonymous namespace)::xmcloneDsngenOomrCb(ssl_item_s*, xst_s*, ssl_item_s*, char const*, char const*, char const*, char const*, char const*) [clone .cold]
PUBLIC 1e40c 0 sagegen_xmclone_prepare.cold
PUBLIC 1e434 0 (anonymous namespace)::propagationCb(vst_s*, long*, std::unordered_set<std::__cxx11::basic_string<char, std::char_traits<char>, std::allocator<char> >, std::hash<std::__cxx11::basic_string<char, std::char_traits<char>, std::allocator<char> > >, std::equal_to<std::__cxx11::basic_string<char, std::char_traits<char>, std::allocator<char> > >, std::allocator<std::__cxx11::basic_string<char, std::char_traits<char>, std::allocator<char> > > > const&) [clone .cold]
PUBLIC 1e450 0 (anonymous namespace)::getNodeTypeId(std::__cxx11::basic_string<char, std::char_traits<char>, std::allocator<char> > const&, bool*) [clone .cold]
PUBLIC 1e466 0 std::__detail::_Map_base<std::__cxx11::basic_string<char, std::char_traits<char>, std::allocator<char> >, std::pair<std::__cxx11::basic_string<char, std::char_traits<char>, std::allocator<char> > const, int>, std::allocator<std::pair<std::__cxx11::basic_string<char, std::char_traits<char>, std::allocator<char> > const, int> >, std::__detail::_Select1st, std::equal_to<std::__cxx11::basic_string<char, std::char_traits<char>, std::allocator<char> > >, std::hash<std::__cxx11::basic_string<char, std::char_traits<char>, std::allocator<char> > >, std::__detail::_Mod_range_hashing, std::__detail::_Default_ranged_hash, std::__detail::_Prime_rehash_policy, std::__detail::_Hashtable_traits<true, false, true>, true>::operator[](std::__cxx11::basic_string<char, std::char_traits<char>, std::allocator<char> > const&) [clone .constprop.0] [clone .cold]
PUBLIC 1e488 0 (anonymous namespace)::getMSIEPartitionId(long*) [clone .cold]
PUBLIC 1e49e 0 (anonymous namespace)::sagegenIeGetPartitionCoercion() [clone .cold]
PUBLIC 1e504 0 std::_Function_base::_Base_manager<std::_Bind<._853 (*(std::unordered_map<std::__cxx11::basic_string<char, std::char_traits<char>, std::allocator<char> >, int, std::hash<std::__cxx11::basic_string<char, std::char_traits<char>, std::allocator<char> > >, std::equal_to<std::__cxx11::basic_string<char, std::char_traits<char>, std::allocator<char> > >, std::allocator<std::pair<std::__cxx11::basic_string<char, std::char_traits<char>, std::allocator<char> > const, int> > >, std::_Placeholder<1>, std::_Placeholder<2>, std::_Placeholder<3>, std::_Placeholder<4>, std::_Placeholder<5>, std::_Placeholder<6>, std::_Placeholder<7>, std::_Placeholder<8>))(std::unordered_map<std::__cxx11::basic_string<char, std::char_traits<char>, std::allocator<char> >, int, std::hash<std::__cxx11::basic_string<char, std::char_traits<char>, std::allocator<char> > >, std::equal_to<std::__cxx11::basic_string<char, std::char_traits<char>, std::allocator<char> > >, std::allocator<std::pair<std::__cxx11::basic_string<char, std::char_traits<char>, std::allocator<char> > const, int> > >&, ssl_item_s*, xst_s*, ssl_item_s*, char const*, char const*, char const*, char const*, char const*)> >::_M_manager(std::_Any_data&, std::_Any_data const&, std::_Manager_operation) [clone .cold]
PUBLIC 1e519 0 (anonymous namespace)::sagegenXmcloneOocrCb(vst_s*, long*, vst_s*, long*) [clone .cold]
PUBLIC 1e570 0 _GLOBAL__sub_I_sagegen.cc.cold
PUBLIC 1e858 0 sagegen_wait_and_cleanup.cold
PUBLIC 1e90a 0 (anonymous namespace)::recordModuleItemPartition(std::__cxx11::basic_string<char, std::char_traits<char>, std::allocator<char> > const&, std::__cxx11::basic_string<char, std::char_traits<char>, std::allocator<char> > const&, std::__cxx11::basic_string<char, std::char_traits<char>, std::allocator<char> > const&, std::__cxx11::basic_string<char, std::char_traits<char>, std::allocator<char> > const&, std::__cxx11::basic_string<char, std::char_traits<char>, std::allocator<char> > const&, std::__cxx11::basic_string<char, std::char_traits<char>, std::allocator<char> > const&, bool) [clone .cold]
PUBLIC 1e94e 0 (anonymous namespace)::recordPartitionInfo(void*, void*, bool, char*) [clone .cold]
PUBLIC 1eaa8 0 (anonymous namespace)::recordHierParent(int, ssl_item_s*, ssl_item_s const*, int*, std::__cxx11::basic_string<char, std::char_traits<char>, std::allocator<char> > const&) [clone .isra.0] [clone .cold]
PUBLIC 1eab5 0 (anonymous namespace)::recordHierNodeType(int, ssl_item_s*, bool) [clone .cold]
PUBLIC 1ecf9 0 (anonymous namespace)::sagegenRecordTopInstance(long*, bool) [clone .cold]
PUBLIC 1ed29 0 (anonymous namespace)::sagegenBeginShutdown(bool) [clone .cold]
PUBLIC 1ed3b 0 (anonymous namespace)::sagegenIeStitchPair(long*, long*, bool) [clone .cold]
PUBLIC 1ed88 0 (anonymous namespace)::xmcloneConnectBindInstOoprs(xst_s*, std::vector<long*, std::allocator<long*> >&) [clone .cold]
PUBLIC 1ef47 0 (anonymous namespace)::xmcloneBindScopeDsngenOomrCb(std::unordered_map<std::__cxx11::basic_string<char, std::char_traits<char>, std::allocator<char> >, int, std::hash<std::__cxx11::basic_string<char, std::char_traits<char>, std::allocator<char> > >, std::equal_to<std::__cxx11::basic_string<char, std::char_traits<char>, std::allocator<char> > >, std::allocator<std::pair<std::__cxx11::basic_string<char, std::char_traits<char>, std::allocator<char> > const, int> > >&, ssl_item_s*, xst_s*, ssl_item_s*, char const*, char const*, char const*, char const*, char const*) [clone .cold]
PUBLIC 1ef7f 0 sagegen_ie_connect_oopr.cold
PUBLIC 1f05c 0 (anonymous namespace)::recordScope(xst_s*, long*, std::__cxx11::basic_string<char, std::char_traits<char>, std::allocator<char> > const&) [clone .constprop.0] [clone .cold]
PUBLIC 1f13e 0 (anonymous namespace)::processXstItems(ssl_item_s*, idaStatusCodeT, char*, char*, std::__cxx11::basic_string<char, std::char_traits<char>, std::allocator<char> > const&) [clone .cold]
PUBLIC 1f2c0 0 (anonymous namespace)::traverseDesignCallback(ssl_item_s*, bool, ._853 (*)(ssl_item_s*, xst_s*, ssl_item_s*, char const*, char const*, char const*, char const*, char const*)) [clone .cold]
PUBLIC 1f2fb 0 (anonymous namespace)::sagegenGenerate(char*, char*, char*, char*, char*, char*, int, bool, bool, bool, void*, void*, ssl_item_s*) [clone .cold]
PUBLIC 1f49b 0 (anonymous namespace)::sagegenGenerateXmclone(char*, char*, char*, char*, char*, char*, int, bool, void*) [clone .cold]
PUBLIC 1f664 0 sagegen_xmclone_complete.cold
PUBLIC 1f6c4 0 Sage::Logger::Logger() [clone .cold]
PUBLIC 1f78c 0 (anonymous namespace)::dumpMsgStr(std::__cxx11::basic_string<char, std::char_traits<char>, std::allocator<char> > const&, google::protobuf::Message&) [clone .cold]
PUBLIC 1f7a7 0 (anonymous namespace)::packAnyMsg(google::protobuf::Message&) [clone .cold]
PUBLIC 1f7be 0 Sage::Proto::markTypeParam(parameterproto::ValuePack&) [clone .cold]
PUBLIC 1f7d9 0 Sage::Proto::startHegTextRef() [clone .cold]
PUBLIC 1f7f0 0 Sage::Proto::getByteStream(unsigned char*, unsigned long) [clone .cold]
PUBLIC 1f818 0 Sage::Proto::addByteStream(unsigned char*, bool, unsigned long, parameterproto::ValuePack&) [clone .cold]
PUBLIC 1f833 0 (anonymous namespace)::createNamedBlockCore(std::__cxx11::basic_string<char, std::char_traits<char>, std::allocator<char> > const&, sourcelocproto::SourceLoc*, hiertreeproto::NamedBlockCore_NamedBlockKind, bool) [clone .cold]
PUBLIC 1f84a 0 Sage::Proto::addStringValue(char*, unsigned long, parameterproto::ValuePack&) [clone .cold]
PUBLIC 1f861 0 Sage::Proto::commInit(char const*, bool, bool) [clone .cold]
PUBLIC 1fb8c 0 Sage::Proto::addHegTextRef(int, hegproto::TextRef&) [clone .cold]
PUBLIC 1fbb3 0 (anonymous namespace)::send(google::protobuf::Message&, bool) [clone .cold]
PUBLIC 1fbdc 0 (anonymous namespace)::processHierEdgeMsg(int, int, hiertreeproto::Edge_EdgeKind, bool) [clone .cold]
PUBLIC 1fc18 0 (anonymous namespace)::send(google::protobuf::Message&, bool) [clone .constprop.0] [clone .cold]
PUBLIC 1fc41 0 Sage::Proto::recordHegDataMsg(hegproto::Data_Type) [clone .cold]
PUBLIC 1fc55 0 (anonymous namespace)::processOoprTargetMsg(std::__cxx11::basic_string<char, std::char_traits<char>, std::allocator<char> > const&, std::__cxx11::basic_string<char, std::char_traits<char>, std::allocator<char> > const&, int, bool) [clone .cold]
PUBLIC 1fc90 0 (anonymous namespace)::processOoprExternMsg(int, std::__cxx11::basic_string<char, std::char_traits<char>, std::allocator<char> > const&, std::__cxx11::basic_string<char, std::char_traits<char>, std::allocator<char> > const&, bool, int, bool) [clone .cold]
PUBLIC 1fced 0 (anonymous namespace)::processTopInstanceMsg(int, bool) [clone .cold]
PUBLIC 1fd2d 0 (anonymous namespace)::processModuleItemPartitionMsg(int, std::__cxx11::basic_string<char, std::char_traits<char>, std::allocator<char> > const&, std::__cxx11::basic_string<char, std::char_traits<char>, std::allocator<char> > const&, std::__cxx11::basic_string<char, std::char_traits<char>, std::allocator<char> > const&, std::__cxx11::basic_string<char, std::char_traits<char>, std::allocator<char> > const&, int, bool) [clone .cold]
PUBLIC 1fd68 0 (anonymous namespace)::processPartitionInfoMsg(int, std::__cxx11::basic_string<char, std::char_traits<char>, std::allocator<char> > const&, std::__cxx11::basic_string<char, std::char_traits<char>, std::allocator<char> > const&, std::__cxx11::basic_string<char, std::char_traits<char>, std::allocator<char> > const&, std::__cxx11::basic_string<char, std::char_traits<char>, std::allocator<char> > const&, std::__cxx11::basic_string<char, std::char_traits<char>, std::allocator<char> > const&, std::__cxx11::basic_string<char, std::char_traits<char>, std::allocator<char> > const&, bool) [clone .cold]
PUBLIC 1fdba 0 (anonymous namespace)::processAttributeMsg(std::__cxx11::basic_string<char, std::char_traits<char>, std::allocator<char> > const&, std::__cxx11::basic_string<char, std::char_traits<char>, std::allocator<char> > const&, bool) [clone .cold]
PUBLIC 1fe0c 0 (anonymous namespace)::dumpSrcLoc(Sage::GenSrcLoc const&) [clone .cold]
PUBLIC 1fe6b 0 (anonymous namespace)::createSourceLoc(Sage::GenSrcLoc const&, bool) [clone .constprop.0] [clone .cold]
PUBLIC 1fea7 0 (anonymous namespace)::processHierNodeMsg(int, std::__cxx11::basic_string<char, std::char_traits<char>, std::allocator<char> > const&, Sage::GenSrcLoc const&, bool) [clone .cold]
PUBLIC 1fede 0 (anonymous namespace)::processHierNodeTypeMsg(int, int, std::__cxx11::basic_string<char, std::char_traits<char>, std::allocator<char> > const&, std::__cxx11::basic_string<char, std::char_traits<char>, std::allocator<char> > const&, Sage::GenSrcLoc const&, hiertreeproto::NamedBlockCore_NamedBlockKind, bool) [clone .cold]
PUBLIC 1ff11 0 (anonymous namespace)::processPrimitiveTypeMsg(int, std::__cxx11::basic_string<char, std::char_traits<char>, std::allocator<char> > const&, Sage::GenSrcLoc const&, hiertreeproto::NamedBlockCore_NamedBlockKind, bool) [clone .cold]
PUBLIC 1ff4b 0 (anonymous namespace)::processGenvarMsg(int, std::__cxx11::basic_string<char, std::char_traits<char>, std::allocator<char> > const&, Sage::GenSrcLoc const&, int, bool) [clone .cold]
PUBLIC 1ff82 0 (anonymous namespace)::processStitchPointMsg(int, std::__cxx11::basic_string<char, std::char_traits<char>, std::allocator<char> > const&, std::__cxx11::basic_string<char, std::char_traits<char>, std::allocator<char> > const&, std::__cxx11::basic_string<char, std::char_traits<char>, std::allocator<char> > const&, int, Sage::GenSrcLoc const&, bool) [clone .cold]
PUBLIC 1ffb9 0 (anonymous namespace)::processHegMacroElem(std::__cxx11::basic_string<char, std::char_traits<char>, std::allocator<char> > const&, hegproto::MacroElement_Type, Sage::GenSrcLoc const&, int, hegproto::MacroElement*) [clone .cold]
PUBLIC 1ffec 0 Sage::Proto::addHegMacroElem(std::__cxx11::basic_string<char, std::char_traits<char>, std::allocator<char> > const&, hegproto::MacroElement_Type, Sage::GenSrcLoc const&, int, hegproto::MacroArg&) [clone .cold]
PUBLIC 20003 0 Sage::Proto::startParam(hiertreeproto::ModuleItem&, int, std::__cxx11::basic_string<char, std::char_traits<char>, std::allocator<char> > const&, Sage::GenSrcLoc const&) [clone .cold]
PUBLIC 2001f 0 Sage::Proto::startSignal(hiertreeproto::ModuleItem&, int, std::__cxx11::basic_string<char, std::char_traits<char>, std::allocator<char> > const&, Sage::GenSrcLoc const&, bool, bool, bool, hiertreeproto::Signal_SigVis) [clone .cold]
PUBLIC 2003b 0 Sage::Proto::startHegMacroRef(int, Sage::GenSrcLoc const&, int, int, int, std::__cxx11::basic_string<char, std::char_traits<char>, std::allocator<char> > const&, bool) [clone .cold]
PUBLIC 20085 0 Sage::Proto::startHegMacroArg(Sage::GenSrcLoc const&, hegproto::MacroRef&) [clone .cold]
PUBLIC 2009b 0 Sage::Proto::addPredefinedType(std::__cxx11::basic_string<char, std::char_traits<char>, std::allocator<char> > const&, bool, bool, bool, typeinfoproto::PredefinedType_Type, Sage::Wrapper<parameterproto::ParameterBasicInfo>&) [clone .cold]
PUBLIC 200cc 0 Sage::Proto::addPredefinedType(std::__cxx11::basic_string<char, std::char_traits<char>, std::allocator<char> > const&, bool, bool, bool, typeinfoproto::PredefinedType_Type, Sage::Wrapper<hiertreeproto::Signal>&) [clone .cold]
PUBLIC 200f7 0 Sage::Proto::addStruct(std::__cxx11::basic_string<char, std::char_traits<char>, std::allocator<char> > const&, bool, bool, bool, bool, std::tuple<bool, bool, long, long>&, Sage::Wrapper<parameterproto::ParameterBasicInfo>&) [clone .cold]
PUBLIC 20125 0 Sage::Proto::addStruct(std::__cxx11::basic_string<char, std::char_traits<char>, std::allocator<char> > const&, bool, bool, bool, bool, std::tuple<bool, bool, long, long>&, Sage::Wrapper<hiertreeproto::Signal>&) [clone .cold]
PUBLIC 20161 0 Sage::Proto::addUnion(std::__cxx11::basic_string<char, std::char_traits<char>, std::allocator<char> > const&, bool, bool, bool, bool, std::tuple<bool, bool, long, long>&, Sage::Wrapper<parameterproto::ParameterBasicInfo>&) [clone .cold]
PUBLIC 2018f 0 Sage::Proto::addUnion(std::__cxx11::basic_string<char, std::char_traits<char>, std::allocator<char> > const&, bool, bool, bool, bool, std::tuple<bool, bool, long, long>&, Sage::Wrapper<hiertreeproto::Signal>&) [clone .cold]
PUBLIC 201cb 0 Sage::Proto::finishComposite(Sage::Wrapper<parameterproto::ParameterBasicInfo>&) [clone .cold]
PUBLIC 201f9 0 Sage::Proto::finishComposite(Sage::Wrapper<hiertreeproto::Signal>&) [clone .cold]
PUBLIC 20224 0 Sage::Proto::addField(std::__cxx11::basic_string<char, std::char_traits<char>, std::allocator<char> > const&, typeinfoproto::TypeInfoTree_Type, Sage::Wrapper<parameterproto::ParameterBasicInfo>&) [clone .cold]
PUBLIC 20252 0 Sage::Proto::addField(std::__cxx11::basic_string<char, std::char_traits<char>, std::allocator<char> > const&, typeinfoproto::TypeInfoTree_Type, Sage::Wrapper<hiertreeproto::Signal>&) [clone .cold]
PUBLIC 2027d 0 Sage::Proto::addEnum(std::__cxx11::basic_string<char, std::char_traits<char>, std::allocator<char> > const&, std::vector<std::pair<std::__cxx11::basic_string<char, std::char_traits<char>, std::allocator<char> >, common::ByteStream*>, std::allocator<std::pair<std::__cxx11::basic_string<char, std::char_traits<char>, std::allocator<char> >, common::ByteStream*> > > const&, unsigned long, bool, bool, bool, Sage::Wrapper<hiertreeproto::Signal>&) [clone .cold]
PUBLIC 202a8 0 Sage::Proto::addEnum(std::__cxx11::basic_string<char, std::char_traits<char>, std::allocator<char> > const&, std::vector<std::pair<std::__cxx11::basic_string<char, std::char_traits<char>, std::allocator<char> >, common::ByteStream*>, std::allocator<std::pair<std::__cxx11::basic_string<char, std::char_traits<char>, std::allocator<char> >, common::ByteStream*> > > const&, unsigned long, bool, bool, bool, Sage::Wrapper<parameterproto::ParameterBasicInfo>&) [clone .cold]
PUBLIC 202c7 0 Sage::Proto::addArray(std::__cxx11::basic_string<char, std::char_traits<char>, std::allocator<char> > const&, std::vector<std::tuple<bool, bool, long, long>, std::allocator<std::tuple<bool, bool, long, long> > > const&, typeinfoproto::TypeInfoTree_Type, bool, bool, Sage::Wrapper<parameterproto::ParameterBasicInfo>&) [clone .cold]
PUBLIC 20320 0 Sage::Proto::addArray(std::__cxx11::basic_string<char, std::char_traits<char>, std::allocator<char> > const&, std::vector<std::tuple<bool, bool, long, long>, std::allocator<std::tuple<bool, bool, long, long> > > const&, typeinfoproto::TypeInfoTree_Type, bool, bool, Sage::Wrapper<hiertreeproto::Signal>&) [clone .cold]
PUBLIC 20391 0 Sage::Proto::addQDA(std::__cxx11::basic_string<char, std::char_traits<char>, std::allocator<char> > const&, typeinfoproto::QDAArray_Type, typeinfoproto::TypeInfoTree_Type, typeinfoproto::TypeInfoTree_Type, Sage::Wrapper<parameterproto::ParameterBasicInfo>&) [clone .cold]
PUBLIC 203c2 0 Sage::Proto::addQDA(std::__cxx11::basic_string<char, std::char_traits<char>, std::allocator<char> > const&, typeinfoproto::QDAArray_Type, typeinfoproto::TypeInfoTree_Type, typeinfoproto::TypeInfoTree_Type, Sage::Wrapper<hiertreeproto::Signal>&) [clone .cold]
PUBLIC 203ed 0 Sage::Proto::addClassHandle(std::__cxx11::basic_string<char, std::char_traits<char>, std::allocator<char> > const&, int, int, typeinfoproto::ClassHandle_Type, typeinfoproto::TypeInfoTree_Type, Sage::Wrapper<parameterproto::ParameterBasicInfo>&) [clone .cold]
PUBLIC 20427 0 Sage::Proto::addClassHandle(std::__cxx11::basic_string<char, std::char_traits<char>, std::allocator<char> > const&, int, int, typeinfoproto::ClassHandle_Type, typeinfoproto::TypeInfoTree_Type, Sage::Wrapper<hiertreeproto::Signal>&) [clone .cold]
PUBLIC 2046d 0 Sage::Proto::addVirtualInterface(std::__cxx11::basic_string<char, std::char_traits<char>, std::allocator<char> > const&, int, int, Sage::Wrapper<parameterproto::ParameterBasicInfo>&) [clone .cold]
PUBLIC 20491 0 Sage::Proto::addVirtualInterface(std::__cxx11::basic_string<char, std::char_traits<char>, std::allocator<char> > const&, int, int, Sage::Wrapper<hiertreeproto::Signal>&) [clone .cold]
PUBLIC 204c1 0 Sage::Proto::recordHegVariable(int, std::__cxx11::basic_string<char, std::char_traits<char>, std::allocator<char> > const&, Sage::GenSrcLoc const&) [clone .cold]
PUBLIC 204df 0 Sage::Proto::recordHegParameter(int, std::__cxx11::basic_string<char, std::char_traits<char>, std::allocator<char> > const&, Sage::GenSrcLoc const&) [clone .cold]
PUBLIC 204fd 0 Sage::Proto::startHegModule(int, std::__cxx11::basic_string<char, std::char_traits<char>, std::allocator<char> > const&, Sage::GenSrcLoc const&, std::vector<int, std::allocator<int> > const&, bool) [clone .cold]
PUBLIC 2053f 0 Sage::Proto::recordHegPortDecl(int, std::__cxx11::basic_string<char, std::char_traits<char>, std::allocator<char> > const&, hegproto::PortDecl_Direction, int, Sage::GenSrcLoc const&) [clone .cold]
PUBLIC 20572 0 Sage::Proto::recordHegElemRef(int, int, Sage::GenSrcLoc const&) [clone .cold]
PUBLIC 205b3 0 Sage::Proto::recordHegConstant(int, std::__cxx11::basic_string<char, std::char_traits<char>, std::allocator<char> > const&, Sage::GenSrcLoc const&) [clone .cold]
PUBLIC 205d1 0 Sage::Proto::recordHegInstance(int, int, std::__cxx11::basic_string<char, std::char_traits<char>, std::allocator<char> > const&, std::vector<int, std::allocator<int> > const&, std::vector<int, std::allocator<int> > const&, Sage::GenSrcLoc const&) [clone .cold]
PUBLIC 20632 0 Sage::Proto::recordHegAssignment(int, hegproto::Assign_Type, int, int, Sage::GenSrcLoc const&) [clone .cold]
PUBLIC 2067c 0 Sage::Proto::recordHegConditional(int, hegproto::ConditionalStmt_Type, int, int, int, Sage::GenSrcLoc const&) [clone .cold]
PUBLIC 206ad 0 Sage::Proto::recordHegSeqBlock(int, std::__cxx11::basic_string<char, std::char_traits<char>, std::allocator<char> > const&, std::vector<int, std::allocator<int> > const&, Sage::GenSrcLoc const&) [clone .cold]
PUBLIC 206f0 0 Sage::Proto::recordHegAlways(int, int, Sage::GenSrcLoc const&) [clone .cold]
PUBLIC 20723 0 Sage::Proto::recordHegAlwaysEventControl(int, std::vector<int, std::allocator<int> > const&, int, Sage::GenSrcLoc const&) [clone .cold]
PUBLIC 20788 0 Sage::Proto::recordHegEventExpression(int, hegproto::EventExpression_Type, int, Sage::GenSrcLoc const&) [clone .cold]
PUBLIC 207c2 0 Sage::Proto::recordHegBinaryOp(int, int, int, hegproto::BinaryOperator_Type, Sage::GenSrcLoc const&) [clone .cold]
PUBLIC 2080c 0 Sage::Proto::recordHegIncludeRef(std::__cxx11::basic_string<char, std::char_traits<char>, std::allocator<char> > const&, Sage::GenSrcLoc const&) [clone .cold]
PUBLIC 20861 0 Sage::Proto::recordHegSourceChunk(std::__cxx11::basic_string<char, std::char_traits<char>, std::allocator<char> > const&, int, int) [clone .cold]
PUBLIC 208a1 0 Sage::Proto::recordHegMacroDef(int, std::__cxx11::basic_string<char, std::char_traits<char>, std::allocator<char> > const&, Sage::GenSrcLoc const&, std::__cxx11::basic_string<char, std::char_traits<char>, std::allocator<char> > const&) [clone .cold]
PUBLIC 208c4 0 Sage::Proto::recordHegUnhandledType(int, Sage::GenSrcLoc const&) [clone .cold]
PUBLIC 208eb 0 Sage::Proto::commSignalShutdown(bool) [clone .cold]
PUBLIC 208fb 0 Sage::loadLib(char const*) [clone .cold]
PUBLIC 20922 0 Sage::StringValue::record(unsigned char*, unsigned long) [clone .cold]
PUBLIC 209ca 0 Sage::BasicValue::record(unsigned char*, unsigned long) [clone .cold]
PUBLIC 20a78 0 (anonymous namespace)::getTypeName(vst_s*, via_external_s, long*) [clone .cold]
PUBLIC 20a8e 0 Sage::Type::recordDanglingTypeRefs(int, std::__cxx11::basic_string<char, std::char_traits<char>, std::allocator<char> > const&, long*) [clone .cold]
PUBLIC 20b32 0 (anonymous namespace)::TypeObj<Sage::Wrapper<hiertreeproto::Signal> >::finishComposite() [clone .isra.0] [clone .cold]
PUBLIC 20bde 0 (anonymous namespace)::TypeObj<Sage::Wrapper<parameterproto::ParameterBasicInfo> >::finishComposite() [clone .isra.0] [clone .cold]
PUBLIC 20c8a 0 std::unique_ptr<Sage::CompoundValue, std::default_delete<Sage::CompoundValue> > (anonymous namespace)::doPredefType<Sage::Wrapper<parameterproto::ParameterBasicInfo> >(std::__cxx11::basic_string<char, std::char_traits<char>, std::allocator<char> > const&, bool, typeinfoproto::PredefinedType_Type, (anonymous namespace)::TypeObj<Sage::Wrapper<parameterproto::ParameterBasicInfo> >&, bool, bool, unsigned long, bool, unsigned char*) [clone .cold]
PUBLIC 20d3d 0 std::unique_ptr<Sage::CompoundValue, std::default_delete<Sage::CompoundValue> > (anonymous namespace)::doPredefType<Sage::Wrapper<hiertreeproto::Signal> >(std::__cxx11::basic_string<char, std::char_traits<char>, std::allocator<char> > const&, bool, typeinfoproto::PredefinedType_Type, (anonymous namespace)::TypeObj<Sage::Wrapper<hiertreeproto::Signal> >&, bool, bool, unsigned long, bool, unsigned char*) [clone .cold]
PUBLIC 20df0 0 std::unique_ptr<Sage::CompoundValue, std::default_delete<Sage::CompoundValue> > (anonymous namespace)::doObjTypeAndValue<Sage::Wrapper<parameterproto::ParameterBasicInfo> >(vst_s*, via_external_s, (anonymous namespace)::TypeObj<Sage::Wrapper<parameterproto::ParameterBasicInfo> >&, bool, std::__cxx11::basic_string<char, std::char_traits<char>, std::allocator<char> >, unsigned char*, unsigned long, bool) [clone .cold]
PUBLIC 21176 0 void (anonymous namespace)::doClassType<Sage::Wrapper<parameterproto::ParameterBasicInfo> >(std::__cxx11::basic_string<char, std::char_traits<char>, std::allocator<char> > const&, via_external_s, (anonymous namespace)::TypeObj<Sage::Wrapper<parameterproto::ParameterBasicInfo> >&, typeinfoproto::ClassHandle_Type, bool) [clone .cold]
PUBLIC 21358 0 std::unique_ptr<Sage::CompoundValue, std::default_delete<Sage::CompoundValue> > (anonymous namespace)::doStructUnionType<Sage::Wrapper<parameterproto::ParameterBasicInfo> >(std::__cxx11::basic_string<char, std::char_traits<char>, std::allocator<char> > const&, via_external_s, bool, bool, (anonymous namespace)::TypeObj<Sage::Wrapper<parameterproto::ParameterBasicInfo> >&, unsigned long, bool, unsigned char*, unsigned long, bool, bool) [clone .cold]
PUBLIC 21551 0 Sage::Type::recordParameter(xst_s*, long*, hiertreeproto::ModuleItem&) [clone .cold]
PUBLIC 215b0 0 std::unique_ptr<Sage::CompoundValue, std::default_delete<Sage::CompoundValue> > (anonymous namespace)::doStaticArrayType<Sage::Wrapper<hiertreeproto::Signal> >(std::__cxx11::basic_string<char, std::char_traits<char>, std::allocator<char> > const&, via_external_s, bool, (anonymous namespace)::TypeObj<Sage::Wrapper<hiertreeproto::Signal> >&, xst_s*, long*, unsigned char*, unsigned long, bool, bool) [clone .cold]
PUBLIC 217a0 0 std::unique_ptr<Sage::CompoundValue, std::default_delete<Sage::CompoundValue> > (anonymous namespace)::doObjTypeAndValue<Sage::Wrapper<hiertreeproto::Signal> >(vst_s*, via_external_s, (anonymous namespace)::TypeObj<Sage::Wrapper<hiertreeproto::Signal> >&, bool, std::__cxx11::basic_string<char, std::char_traits<char>, std::allocator<char> >, unsigned char*, unsigned long, bool) [clone .cold]
PUBLIC 21b44 0 std::unique_ptr<Sage::CompoundValue, std::default_delete<Sage::CompoundValue> > (anonymous namespace)::doVectorType<Sage::Wrapper<hiertreeproto::Signal> >(std::__cxx11::basic_string<char, std::char_traits<char>, std::allocator<char> > const&, via_external_s, bool, (anonymous namespace)::TypeObj<Sage::Wrapper<hiertreeproto::Signal> >&, xst_s*, long*, unsigned long, bool, unsigned char*, unsigned long, bool, bool) [clone .cold]
PUBLIC 21b80 0 void (anonymous namespace)::doWireType<Sage::Wrapper<hiertreeproto::Signal> >(xst_s*, long*, vst_s*, via_external_s, (anonymous namespace)::TypeObj<Sage::Wrapper<hiertreeproto::Signal> >&) [clone .cold]
PUBLIC 21bac 0 std::unique_ptr<Sage::CompoundValue, std::default_delete<Sage::CompoundValue> > (anonymous namespace)::doStructUnionType<Sage::Wrapper<hiertreeproto::Signal> >(std::__cxx11::basic_string<char, std::char_traits<char>, std::allocator<char> > const&, via_external_s, bool, bool, (anonymous namespace)::TypeObj<Sage::Wrapper<hiertreeproto::Signal> >&, unsigned long, bool, unsigned char*, unsigned long, bool, bool) [clone .cold]
PUBLIC 21da5 0 Sage::Type::recordSignal(xst_s*, long*, hiertreeproto::ModuleItem&, bool, bool) [clone .cold]
PUBLIC 21e04 0 Sage::HDLGraph::doUnhandledType(vst_s*, long*, int) [clone .cold]
PUBLIC 21ebb 0 (anonymous namespace)::doElemRef(vst_s*, long*) [clone .cold]
PUBLIC 21f87 0 (anonymous namespace)::doExpr(vst_s*, long*) [clone .cold]
PUBLIC 22274 0 (anonymous namespace)::doAssignment(vst_s*, long*, hegproto::Assign_Type) [clone .cold]
PUBLIC 22346 0 (anonymous namespace)::doStatement(vst_s*, long*) [clone .cold]
PUBLIC 2252b 0 (anonymous namespace)::doEventControls(vst_s*, std::vector<int, std::allocator<int> >&, long*) [clone .cold]
PUBLIC 225ea 0 (anonymous namespace)::doDeclarativeItems(ssl_item_s*) [clone .isra.0] [clone .cold]
PUBLIC 22ac7 0 Sage::HDLGraph::recordHDLGraph(ssl_item_s*) [clone .cold]
PUBLIC 22d64 0 (anonymous namespace)::getNameFromVst(vst_s*) [clone .cold]
PUBLIC 22d7a 0 Sage::Text::getSrcLoc(xst_s*, long*) [clone .cold]
PUBLIC 22dcf 0 Sage::Text::recordSourceChunks(xst_s*) [clone .cold]
PUBLIC 22e8c 0 Sage::Text::recordIncludeRefs(xst_s*) [clone .cold]
PUBLIC 22f81 0 Sage::Text::recordTextRefs(ssl_item_s*) [clone .cold]
PUBLIC 2319f 0 (anonymous namespace)::doMacroDef(mac_def_s*) [clone .cold]
PUBLIC 232a2 0 (anonymous namespace)::doMacroRef(mac_ref_s*, long*) [clone .cold]
PUBLIC 23710 0 Sage::IO::IpcStream::connect() [clone .cold]
PUBLIC 23728 0 Sage::IO::IpcStream::IpcStream() [clone .cold]
PUBLIC 2375f 0 Sage::IO::connectWriter(std::__cxx11::basic_string<char, std::char_traits<char>, std::allocator<char> >, char const*, bool, bool) [clone .cold]
PUBLIC 2379c 0 Sage::IO::IpcStream::IpcStream(std::__cxx11::basic_string<char, std::char_traits<char>, std::allocator<char> > const&) [clone .cold]
PUBLIC 237e8 0 Sage::PartDsgn::xmcloneDataPrepared(char*) [clone .cold]
PUBLIC 23804 0 boost::disable_if<boost::property_tree::detail::is_translator<std::__cxx11::basic_string<char, std::char_traits<char>, std::allocator<char> > >, std::__cxx11::basic_string<char, std::char_traits<char>, std::allocator<char> > >::type boost::property_tree::basic_ptree<std::__cxx11::basic_string<char, std::char_traits<char>, std::allocator<char> >, std::__cxx11::basic_string<char, std::char_traits<char>, std::allocator<char> >, std::less<std::__cxx11::basic_string<char, std::char_traits<char>, std::allocator<char> > > >::get<std::__cxx11::basic_string<char, std::char_traits<char>, std::allocator<char> > >(boost::property_tree::string_path<std::__cxx11::basic_string<char, std::char_traits<char>, std::allocator<char> >, boost::property_tree::id_translator<std::__cxx11::basic_string<char, std::char_traits<char>, std::allocator<char> > > > const&, std::__cxx11::basic_string<char, std::char_traits<char>, std::allocator<char> > const&) const [clone .constprop.0] [clone .cold]
PUBLIC 2383c 0 boost::property_tree::basic_ptree<std::__cxx11::basic_string<char, std::char_traits<char>, std::allocator<char> >, std::__cxx11::basic_string<char, std::char_traits<char>, std::allocator<char> >, std::less<std::__cxx11::basic_string<char, std::char_traits<char>, std::allocator<char> > > >& boost::property_tree::basic_ptree<std::__cxx11::basic_string<char, std::char_traits<char>, std::allocator<char> >, std::__cxx11::basic_string<char, std::char_traits<char>, std::allocator<char> >, std::less<std::__cxx11::basic_string<char, std::char_traits<char>, std::allocator<char> > > >::put<std::__cxx11::basic_string<char, std::char_traits<char>, std::allocator<char> >, boost::property_tree::id_translator<std::__cxx11::basic_string<char, std::char_traits<char>, std::allocator<char> > > >(boost::property_tree::string_path<std::__cxx11::basic_string<char, std::char_traits<char>, std::allocator<char> >, boost::property_tree::id_translator<std::__cxx11::basic_string<char, std::char_traits<char>, std::allocator<char> > > > const&, std::__cxx11::basic_string<char, std::char_traits<char>, std::allocator<char> > const&, boost::property_tree::id_translator<std::__cxx11::basic_string<char, std::char_traits<char>, std::allocator<char> > >) [clone .constprop.0] [clone .cold]
PUBLIC 23862 0 Sage::PartDsgn::readXmclonePrepareData(char*, std::vector<std::array<std::__cxx11::basic_string<char, std::char_traits<char>, std::allocator<char> >, 6ul>, std::allocator<std::array<std::__cxx11::basic_string<char, std::char_traits<char>, std::allocator<char> >, 6ul> > >&, std::vector<unsigned long, std::allocator<unsigned long> >&, std::map<std::pair<std::__cxx11::basic_string<char, std::char_traits<char>, std::allocator<char> >, std::__cxx11::basic_string<char, std::char_traits<char>, std::allocator<char> > >, std::set<std::pair<std::__cxx11::basic_string<char, std::char_traits<char>, std::allocator<char> >, std::__cxx11::basic_string<char, std::char_traits<char>, std::allocator<char> > >, std::less<std::pair<std::__cxx11::basic_string<char, std::char_traits<char>, std::allocator<char> >, std::__cxx11::basic_string<char, std::char_traits<char>, std::allocator<char> > > >, std::allocator<std::pair<std::__cxx11::basic_string<char, std::char_traits<char>, std::allocator<char> >, std::__cxx11::basic_string<char, std::char_traits<char>, std::allocator<char> > > > >, std::less<std::pair<std::__cxx11::basic_string<char, std::char_traits<char>, std::allocator<char> >, std::__cxx11::basic_string<char, std::char_traits<char>, std::allocator<char> > > >, std::allocator<std::pair<std::pair<std::__cxx11::basic_string<char, std::char_traits<char>, std::allocator<char> >, std::__cxx11::basic_string<char, std::char_traits<char>, std::allocator<char> > > const, std::set<std::pair<std::__cxx11::basic_string<char, std::char_traits<char>, std::allocator<char> >, std::__cxx11::basic_string<char, std::char_traits<char>, std::allocator<char> > >, std::less<std::pair<std::__cxx11::basic_string<char, std::char_traits<char>, std::allocator<char> >, std::__cxx11::basic_string<char, std::char_traits<char>, std::allocator<char> > > >, std::allocator<std::pair<std::__cxx11::basic_string<char, std::char_traits<char>, std::allocator<char> >, std::__cxx11::basic_string<char, std::char_traits<char>, std::allocator<char> > > > > > > >&, std::vector<std::__cxx11::basic_string<char, std::char_traits<char>, std::allocator<char> >, std::allocator<std::__cxx11::basic_string<char, std::char_traits<char>, std::allocator<char> > > >&) [clone .cold]
PUBLIC 23b67 0 Sage::PartDsgn::xmclonePrepare(char*, void*, std::vector<unsigned long, std::allocator<unsigned long> >&, std::map<std::pair<std::__cxx11::basic_string<char, std::char_traits<char>, std::allocator<char> >, std::__cxx11::basic_string<char, std::char_traits<char>, std::allocator<char> > >, std::set<std::pair<std::__cxx11::basic_string<char, std::char_traits<char>, std::allocator<char> >, std::__cxx11::basic_string<char, std::char_traits<char>, std::allocator<char> > >, std::less<std::pair<std::__cxx11::basic_string<char, std::char_traits<char>, std::allocator<char> >, std::__cxx11::basic_string<char, std::char_traits<char>, std::allocator<char> > > >, std::allocator<std::pair<std::__cxx11::basic_string<char, std::char_traits<char>, std::allocator<char> >, std::__cxx11::basic_string<char, std::char_traits<char>, std::allocator<char> > > > >, std::less<std::pair<std::__cxx11::basic_string<char, std::char_traits<char>, std::allocator<char> >, std::__cxx11::basic_string<char, std::char_traits<char>, std::allocator<char> > > >, std::allocator<std::pair<std::pair<std::__cxx11::basic_string<char, std::char_traits<char>, std::allocator<char> >, std::__cxx11::basic_string<char, std::char_traits<char>, std::allocator<char> > > const, std::set<std::pair<std::__cxx11::basic_string<char, std::char_traits<char>, std::allocator<char> >, std::__cxx11::basic_string<char, std::char_traits<char>, std::allocator<char> > >, std::less<std::pair<std::__cxx11::basic_string<char, std::char_traits<char>, std::allocator<char> >, std::__cxx11::basic_string<char, std::char_traits<char>, std::allocator<char> > > >, std::allocator<std::pair<std::__cxx11::basic_string<char, std::char_traits<char>, std::allocator<char> >, std::__cxx11::basic_string<char, std::char_traits<char>, std::allocator<char> > > > > > > >&, std::vector<std::__cxx11::basic_string<char, std::char_traits<char>, std::allocator<char> >, std::allocator<std::__cxx11::basic_string<char, std::char_traits<char>, std::allocator<char> > > >&) [clone .cold]
PUBLIC 23f8c 0 _GLOBAL__sub_I_partitioned_design.cc.cold
PUBLIC 24036 0 boost::exception_detail::clone_impl<boost::exception_detail::error_info_injector<boost::property_tree::json_parser::json_parser_error> >::rethrow() const
PUBLIC 240b4 0 virtual thunk to boost::exception_detail::clone_impl<boost::exception_detail::error_info_injector<boost::property_tree::json_parser::json_parser_error> >::rethrow() const
PUBLIC 2413a 0 boost::exception_detail::clone_impl<boost::exception_detail::error_info_injector<boost::property_tree::ptree_bad_path> >::rethrow() const
PUBLIC 241b2 0 virtual thunk to boost::exception_detail::clone_impl<boost::exception_detail::error_info_injector<boost::property_tree::ptree_bad_path> >::rethrow() const
PUBLIC 24232 0 boost::exception_detail::clone_impl<boost::exception_detail::error_info_injector<boost::property_tree::ptree_bad_data> >::rethrow() const
PUBLIC 242aa 0 virtual thunk to boost::exception_detail::clone_impl<boost::exception_detail::error_info_injector<boost::property_tree::ptree_bad_data> >::rethrow() const
PUBLIC 24329 0 void boost::throw_exception<boost::exception_detail::error_info_injector<boost::property_tree::json_parser::json_parser_error> >(boost::exception_detail::error_info_injector<boost::property_tree::json_parser::json_parser_error> const&)
PUBLIC 24399 0 void boost::throw_exception<boost::exception_detail::error_info_injector<boost::property_tree::ptree_bad_path> >(boost::exception_detail::error_info_injector<boost::property_tree::ptree_bad_path> const&)
PUBLIC 24409 0 void boost::throw_exception<boost::exception_detail::error_info_injector<boost::property_tree::ptree_bad_data> >(boost::exception_detail::error_info_injector<boost::property_tree::ptree_bad_data> const&)
PUBLIC 2447a 0 generalproto::EndOfData::~EndOfData() [clone .cold]
PUBLIC 24488 0 generalproto::GenericMsg* google::protobuf::Arena::CreateMaybeMessage<generalproto::GenericMsg>(google::protobuf::Arena*) [clone .cold]
PUBLIC 2449e 0 generalproto::EndOfData* google::protobuf::Arena::CreateMaybeMessage<generalproto::EndOfData>(google::protobuf::Arena*) [clone .cold]
PUBLIC 244b4 0 generalproto::EndOfData::_InternalParse(char const*, google::protobuf::internal::ParseContext*) [clone .cold]
PUBLIC 244c4 0 generalproto::GenericMsg::MergeFrom(generalproto::GenericMsg const&) [clone .cold]
PUBLIC 244d4 0 generalproto::GenericMsg::MergeFrom(google::protobuf::Message const&) [clone .cold]
PUBLIC 244e4 0 generalproto::GenericMsg::GenericMsg(generalproto::GenericMsg const&) [clone .cold]
PUBLIC 244fa 0 generalproto::EndOfData::MergeFrom(generalproto::EndOfData const&) [clone .cold]
PUBLIC 2450a 0 generalproto::EndOfData::MergeFrom(google::protobuf::Message const&) [clone .cold]
PUBLIC 2451a 0 generalproto::GenericMsg::~GenericMsg() [clone .cold]
PUBLIC 24528 0 generalproto::GenericMsg::_InternalParse(char const*, google::protobuf::internal::ParseContext*) [clone .cold]
PUBLIC 24538 0 sourcelocproto::SourceLoc_SourceFile::~SourceLoc_SourceFile() [clone .cold]
PUBLIC 24546 0 sourcelocproto::SourceLoc::~SourceLoc() [clone .cold]
PUBLIC 24554 0 sourcelocproto::SourceLoc_SourceFile* google::protobuf::Arena::CreateMaybeMessage<sourcelocproto::SourceLoc_SourceFile>(google::protobuf::Arena*) [clone .cold]
PUBLIC 2456a 0 sourcelocproto::SourceLoc* google::protobuf::Arena::CreateMaybeMessage<sourcelocproto::SourceLoc>(google::protobuf::Arena*) [clone .cold]
PUBLIC 24580 0 sourcelocproto::SourceLoc_SourceFile::_InternalParse(char const*, google::protobuf::internal::ParseContext*) [clone .cold]
PUBLIC 24590 0 sourcelocproto::SourceLoc::_InternalParse(char const*, google::protobuf::internal::ParseContext*) [clone .cold]
PUBLIC 245a0 0 sourcelocproto::SourceLoc::SourceLoc(sourcelocproto::SourceLoc const&) [clone .cold]
PUBLIC 245b6 0 sourcelocproto::SourceLoc_SourceFile::MergeFrom(sourcelocproto::SourceLoc_SourceFile const&) [clone .cold]
PUBLIC 245c6 0 sourcelocproto::SourceLoc_SourceFile::MergeFrom(google::protobuf::Message const&) [clone .cold]
PUBLIC 245d6 0 sourcelocproto::SourceLoc::MergeFrom(sourcelocproto::SourceLoc const&) [clone .cold]
PUBLIC 245e6 0 sourcelocproto::SourceLoc::MergeFrom(google::protobuf::Message const&) [clone .cold]
PUBLIC 245f6 0 msieproto::TopInstance::~TopInstance() [clone .cold]
PUBLIC 24604 0 msieproto::OoprExtern::~OoprExtern() [clone .cold]
PUBLIC 24612 0 msieproto::Partition::~Partition() [clone .cold]
PUBLIC 24620 0 msieproto::ModuleItemPartition::~ModuleItemPartition() [clone .cold]
PUBLIC 2462e 0 msieproto::OoprTarget::~OoprTarget() [clone .cold]
PUBLIC 2463c 0 msieproto::Partition* google::protobuf::Arena::CreateMaybeMessage<msieproto::Partition>(google::protobuf::Arena*) [clone .cold]
PUBLIC 24652 0 msieproto::ModuleItemPartition* google::protobuf::Arena::CreateMaybeMessage<msieproto::ModuleItemPartition>(google::protobuf::Arena*) [clone .cold]
PUBLIC 24668 0 msieproto::StitchPoint* google::protobuf::Arena::CreateMaybeMessage<msieproto::StitchPoint>(google::protobuf::Arena*) [clone .cold]
PUBLIC 2467e 0 msieproto::TopInstance* google::protobuf::Arena::CreateMaybeMessage<msieproto::TopInstance>(google::protobuf::Arena*) [clone .cold]
PUBLIC 24694 0 msieproto::OoprExtern* google::protobuf::Arena::CreateMaybeMessage<msieproto::OoprExtern>(google::protobuf::Arena*) [clone .cold]
PUBLIC 246aa 0 msieproto::OoprTarget* google::protobuf::Arena::CreateMaybeMessage<msieproto::OoprTarget>(google::protobuf::Arena*) [clone .cold]
PUBLIC 246c0 0 msieproto::TopInstance::_InternalParse(char const*, google::protobuf::internal::ParseContext*) [clone .cold]
PUBLIC 246d0 0 msieproto::Partition::_InternalParse(char const*, google::protobuf::internal::ParseContext*) [clone .cold]
PUBLIC 246e0 0 msieproto::ModuleItemPartition::_InternalParse(char const*, google::protobuf::internal::ParseContext*) [clone .cold]
PUBLIC 246f0 0 msieproto::OoprExtern::_InternalParse(char const*, google::protobuf::internal::ParseContext*) [clone .cold]
PUBLIC 24700 0 msieproto::OoprTarget::_InternalParse(char const*, google::protobuf::internal::ParseContext*) [clone .cold]
PUBLIC 24710 0 msieproto::TopInstance::MergeFrom(msieproto::TopInstance const&) [clone .cold]
PUBLIC 24720 0 msieproto::TopInstance::MergeFrom(google::protobuf::Message const&) [clone .cold]
PUBLIC 24730 0 msieproto::OoprTarget::MergeFrom(msieproto::OoprTarget const&) [clone .cold]
PUBLIC 24740 0 msieproto::OoprTarget::MergeFrom(google::protobuf::Message const&) [clone .cold]
PUBLIC 24750 0 msieproto::OoprExtern::MergeFrom(msieproto::OoprExtern const&) [clone .cold]
PUBLIC 24760 0 msieproto::OoprExtern::MergeFrom(google::protobuf::Message const&) [clone .cold]
PUBLIC 24770 0 msieproto::ModuleItemPartition::MergeFrom(msieproto::ModuleItemPartition const&) [clone .cold]
PUBLIC 24780 0 msieproto::ModuleItemPartition::MergeFrom(google::protobuf::Message const&) [clone .cold]
PUBLIC 24790 0 msieproto::StitchPoint::MergeFrom(msieproto::StitchPoint const&) [clone .cold]
PUBLIC 247a0 0 msieproto::StitchPoint::MergeFrom(google::protobuf::Message const&) [clone .cold]
PUBLIC 247b0 0 msieproto::StitchPoint::StitchPoint(msieproto::StitchPoint const&) [clone .cold]
PUBLIC 247c6 0 msieproto::Partition::MergeFrom(msieproto::Partition const&) [clone .cold]
PUBLIC 247d6 0 msieproto::Partition::MergeFrom(google::protobuf::Message const&) [clone .cold]
PUBLIC 247e6 0 msieproto::StitchPoint::~StitchPoint() [clone .cold]
PUBLIC 247f4 0 msieproto::StitchPoint::_InternalParse(char const*, google::protobuf::internal::ParseContext*) [clone .cold]
PUBLIC 24804 0 common::ByteStream::~ByteStream() [clone .cold]
PUBLIC 24812 0 common::ByteStream* google::protobuf::Arena::CreateMaybeMessage<common::ByteStream>(google::protobuf::Arena*) [clone .cold]
PUBLIC 24828 0 common::ByteStream::MergeFrom(common::ByteStream const&) [clone .cold]
PUBLIC 24838 0 common::ByteStream::MergeFrom(google::protobuf::Message const&) [clone .cold]
PUBLIC 24848 0 common::ByteStream::_InternalParse(char const*, google::protobuf::internal::ParseContext*) [clone .cold]
PUBLIC 24858 0 typeinfoproto::QDAArray::~QDAArray() [clone .cold]
PUBLIC 24866 0 typeinfoproto::DimensionInfo::~DimensionInfo() [clone .cold]
PUBLIC 24874 0 typeinfoproto::Struct::~Struct() [clone .cold]
PUBLIC 24882 0 typeinfoproto::VirtualInterface::~VirtualInterface() [clone .cold]
PUBLIC 24890 0 typeinfoproto::TypeInfoTree::~TypeInfoTree() [clone .cold]
PUBLIC 2489e 0 typeinfoproto::Field::~Field() [clone .cold]
PUBLIC 248ac 0 typeinfoproto::Close::~Close() [clone .cold]
PUBLIC 248ba 0 typeinfoproto::PredefinedType::~PredefinedType() [clone .cold]
PUBLIC 248c8 0 typeinfoproto::Union::~Union() [clone .cold]
PUBLIC 248d6 0 typeinfoproto::StaticArray::~StaticArray() [clone .cold]
PUBLIC 248e4 0 typeinfoproto::ClassHandle::~ClassHandle() [clone .cold]
PUBLIC 248f2 0 typeinfoproto::MultiDimensionArray::~MultiDimensionArray() [clone .cold]
PUBLIC 24900 0 typeinfoproto::MultiDimensionArray::_InternalSerialize(unsigned char*, google::protobuf::io::EpsCopyOutputStream*) const [clone .cold]
PUBLIC 24920 0 typeinfoproto::TypeInfoTree* google::protobuf::Arena::CreateMaybeMessage<typeinfoproto::TypeInfoTree>(google::protobuf::Arena*) [clone .cold]
PUBLIC 24936 0 typeinfoproto::Enum_LabelInfo* google::protobuf::Arena::CreateMaybeMessage<typeinfoproto::Enum_LabelInfo>(google::protobuf::Arena*) [clone .cold]
PUBLIC 2494c 0 typeinfoproto::DimensionInfo* google::protobuf::Arena::CreateMaybeMessage<typeinfoproto::DimensionInfo>(google::protobuf::Arena*) [clone .cold]
PUBLIC 24962 0 typeinfoproto::PredefinedType* google::protobuf::Arena::CreateMaybeMessage<typeinfoproto::PredefinedType>(google::protobuf::Arena*) [clone .cold]
PUBLIC 24978 0 typeinfoproto::QDAArray* google::protobuf::Arena::CreateMaybeMessage<typeinfoproto::QDAArray>(google::protobuf::Arena*) [clone .cold]
PUBLIC 2498e 0 typeinfoproto::ClassHandle* google::protobuf::Arena::CreateMaybeMessage<typeinfoproto::ClassHandle>(google::protobuf::Arena*) [clone .cold]
PUBLIC 249a4 0 typeinfoproto::VirtualInterface* google::protobuf::Arena::CreateMaybeMessage<typeinfoproto::VirtualInterface>(google::protobuf::Arena*) [clone .cold]
PUBLIC 249ba 0 typeinfoproto::StaticArray* google::protobuf::Arena::CreateMaybeMessage<typeinfoproto::StaticArray>(google::protobuf::Arena*) [clone .cold]
PUBLIC 249d0 0 typeinfoproto::Struct* google::protobuf::Arena::CreateMaybeMessage<typeinfoproto::Struct>(google::protobuf::Arena*) [clone .cold]
PUBLIC 249e6 0 typeinfoproto::Field* google::protobuf::Arena::CreateMaybeMessage<typeinfoproto::Field>(google::protobuf::Arena*) [clone .cold]
PUBLIC 249fc 0 typeinfoproto::Union* google::protobuf::Arena::CreateMaybeMessage<typeinfoproto::Union>(google::protobuf::Arena*) [clone .cold]
PUBLIC 24a12 0 typeinfoproto::Close* google::protobuf::Arena::CreateMaybeMessage<typeinfoproto::Close>(google::protobuf::Arena*) [clone .cold]
PUBLIC 24a28 0 typeinfoproto::MultiDimensionArray::MultiDimensionArray(google::protobuf::Arena*) [clone .cold]
PUBLIC 24a3a 0 typeinfoproto::MultiDimensionArray* google::protobuf::Arena::CreateMaybeMessage<typeinfoproto::MultiDimensionArray>(google::protobuf::Arena*) [clone .cold]
PUBLIC 24a50 0 typeinfoproto::TypeInfoTree::_InternalParse(char const*, google::protobuf::internal::ParseContext*) [clone .cold]
PUBLIC 24a60 0 typeinfoproto::DimensionInfo::_InternalParse(char const*, google::protobuf::internal::ParseContext*) [clone .cold]
PUBLIC 24a70 0 typeinfoproto::VirtualInterface::_InternalParse(char const*, google::protobuf::internal::ParseContext*) [clone .cold]
PUBLIC 24a80 0 typeinfoproto::Close::_InternalParse(char const*, google::protobuf::internal::ParseContext*) [clone .cold]
PUBLIC 24a90 0 typeinfoproto::PredefinedType::_InternalParse(char const*, google::protobuf::internal::ParseContext*) [clone .cold]
PUBLIC 24aa0 0 typeinfoproto::QDAArray::_InternalParse(char const*, google::protobuf::internal::ParseContext*) [clone .cold]
PUBLIC 24ab0 0 typeinfoproto::ClassHandle::_InternalParse(char const*, google::protobuf::internal::ParseContext*) [clone .cold]
PUBLIC 24ac0 0 typeinfoproto::StaticArray::_InternalParse(char const*, google::protobuf::internal::ParseContext*) [clone .cold]
PUBLIC 24ad0 0 typeinfoproto::Struct::_InternalParse(char const*, google::protobuf::internal::ParseContext*) [clone .cold]
PUBLIC 24ae0 0 typeinfoproto::Field::_InternalParse(char const*, google::protobuf::internal::ParseContext*) [clone .cold]
PUBLIC 24af0 0 typeinfoproto::Union::_InternalParse(char const*, google::protobuf::internal::ParseContext*) [clone .cold]
PUBLIC 24b00 0 typeinfoproto::MultiDimensionArray::_InternalParse(char const*, google::protobuf::internal::ParseContext*) [clone .cold]
PUBLIC 24b10 0 typeinfoproto::MultiDimensionArray::InternalSwap(typeinfoproto::MultiDimensionArray*) [clone .cold]
PUBLIC 24b30 0 typeinfoproto::Enum::InternalSwap(typeinfoproto::Enum*) [clone .cold]
PUBLIC 24b50 0 typeinfoproto::Close::MergeFrom(typeinfoproto::Close const&) [clone .cold]
PUBLIC 24b60 0 typeinfoproto::Close::MergeFrom(google::protobuf::Message const&) [clone .cold]
PUBLIC 24b70 0 typeinfoproto::TypeInfoTree::MergeFrom(typeinfoproto::TypeInfoTree const&) [clone .cold]
PUBLIC 24b80 0 typeinfoproto::TypeInfoTree::MergeFrom(google::protobuf::Message const&) [clone .cold]
PUBLIC 24b90 0 typeinfoproto::Field::MergeFrom(typeinfoproto::Field const&) [clone .cold]
PUBLIC 24ba0 0 typeinfoproto::Field::MergeFrom(google::protobuf::Message const&) [clone .cold]
PUBLIC 24bb0 0 typeinfoproto::VirtualInterface::MergeFrom(typeinfoproto::VirtualInterface const&) [clone .cold]
PUBLIC 24bc0 0 typeinfoproto::VirtualInterface::MergeFrom(google::protobuf::Message const&) [clone .cold]
PUBLIC 24bd0 0 typeinfoproto::Enum_LabelInfo::Enum_LabelInfo(typeinfoproto::Enum_LabelInfo const&) [clone .cold]
PUBLIC 24be6 0 typeinfoproto::Struct::Struct(typeinfoproto::Struct const&) [clone .cold]
PUBLIC 24bfc 0 typeinfoproto::Union::Union(typeinfoproto::Union const&) [clone .cold]
PUBLIC 24c12 0 typeinfoproto::StaticArray::StaticArray(typeinfoproto::StaticArray const&) [clone .cold]
PUBLIC 24c28 0 typeinfoproto::QDAArray::MergeFrom(typeinfoproto::QDAArray const&) [clone .cold]
PUBLIC 24c38 0 typeinfoproto::QDAArray::MergeFrom(google::protobuf::Message const&) [clone .cold]
PUBLIC 24c48 0 typeinfoproto::DimensionInfo::MergeFrom(typeinfoproto::DimensionInfo const&) [clone .cold]
PUBLIC 24c58 0 typeinfoproto::DimensionInfo::MergeFrom(google::protobuf::Message const&) [clone .cold]
PUBLIC 24c68 0 typeinfoproto::Union::MergeFrom(typeinfoproto::Union const&) [clone .cold]
PUBLIC 24c78 0 typeinfoproto::Union::MergeFrom(google::protobuf::Message const&) [clone .cold]
PUBLIC 24c88 0 typeinfoproto::Enum_LabelInfo::MergeFrom(typeinfoproto::Enum_LabelInfo const&) [clone .cold]
PUBLIC 24c98 0 typeinfoproto::Enum_LabelInfo::MergeFrom(google::protobuf::Message const&) [clone .cold]
PUBLIC 24ca8 0 typeinfoproto::ClassHandle::MergeFrom(typeinfoproto::ClassHandle const&) [clone .cold]
PUBLIC 24cb8 0 typeinfoproto::ClassHandle::MergeFrom(google::protobuf::Message const&) [clone .cold]
PUBLIC 24cc8 0 typeinfoproto::PredefinedType::MergeFrom(typeinfoproto::PredefinedType const&) [clone .cold]
PUBLIC 24cd8 0 typeinfoproto::PredefinedType::MergeFrom(google::protobuf::Message const&) [clone .cold]
PUBLIC 24ce8 0 typeinfoproto::StaticArray::MergeFrom(typeinfoproto::StaticArray const&) [clone .cold]
PUBLIC 24cf8 0 typeinfoproto::StaticArray::MergeFrom(google::protobuf::Message const&) [clone .cold]
PUBLIC 24d08 0 typeinfoproto::Struct::MergeFrom(typeinfoproto::Struct const&) [clone .cold]
PUBLIC 24d18 0 typeinfoproto::Struct::MergeFrom(google::protobuf::Message const&) [clone .cold]
PUBLIC 24d28 0 typeinfoproto::Enum::MergeFrom(typeinfoproto::Enum const&) [clone .cold]
PUBLIC 24d48 0 typeinfoproto::Enum::MergeFrom(google::protobuf::Message const&) [clone .cold]
PUBLIC 24d58 0 typeinfoproto::MultiDimensionArray::MergeFrom(typeinfoproto::MultiDimensionArray const&) [clone .cold]
PUBLIC 24d78 0 typeinfoproto::MultiDimensionArray::MergeFrom(google::protobuf::Message const&) [clone .cold]
PUBLIC 24d88 0 typeinfoproto::MultiDimensionArray::MultiDimensionArray(typeinfoproto::MultiDimensionArray const&) [clone .cold]
PUBLIC 24db8 0 typeinfoproto::Enum_LabelInfo::~Enum_LabelInfo() [clone .cold]
PUBLIC 24dc6 0 typeinfoproto::Enum::Enum(google::protobuf::Arena*) [clone .cold]
PUBLIC 24dd8 0 typeinfoproto::Enum* google::protobuf::Arena::CreateMaybeMessage<typeinfoproto::Enum>(google::protobuf::Arena*) [clone .cold]
PUBLIC 24dee 0 typeinfoproto::Enum::Enum(typeinfoproto::Enum const&) [clone .cold]
PUBLIC 24e1e 0 typeinfoproto::Enum::~Enum() [clone .cold]
PUBLIC 24e2c 0 typeinfoproto::Enum_LabelInfo::_InternalParse(char const*, google::protobuf::internal::ParseContext*) [clone .cold]
PUBLIC 24e4c 0 typeinfoproto::Enum::_InternalParse(char const*, google::protobuf::internal::ParseContext*) [clone .cold]
PUBLIC 24e6c 0 typeinfoproto::Enum::_InternalSerialize(unsigned char*, google::protobuf::io::EpsCopyOutputStream*) const [clone .cold]
PUBLIC 24e8c 0 parameterproto::ParameterValue* google::protobuf::Arena::CreateMaybeMessage<parameterproto::ParameterValue>(google::protobuf::Arena*) [clone .cold]
PUBLIC 24ea2 0 parameterproto::ParameterBasicInfo::InternalSwap(parameterproto::ParameterBasicInfo*) [clone .cold]
PUBLIC 24ec2 0 parameterproto::ValuePack::InternalSwap(parameterproto::ValuePack*) [clone .cold]
PUBLIC 24ee2 0 parameterproto::ParameterValue::ParameterValue(parameterproto::ParameterValue const&) [clone .cold]
PUBLIC 24ef8 0 parameterproto::ParameterValue::MergeFrom(parameterproto::ParameterValue const&) [clone .cold]
PUBLIC 24f08 0 parameterproto::ParameterValue::MergeFrom(google::protobuf::Message const&) [clone .cold]
PUBLIC 24f18 0 parameterproto::ValuePack::MergeFrom(parameterproto::ValuePack const&) [clone .cold]
PUBLIC 24f38 0 parameterproto::ValuePack::MergeFrom(google::protobuf::Message const&) [clone .cold]
PUBLIC 24f48 0 parameterproto::ParameterValue::~ParameterValue() [clone .cold]
PUBLIC 24f56 0 parameterproto::ValuePack::ValuePack(google::protobuf::Arena*) [clone .cold]
PUBLIC 24f68 0 parameterproto::ValuePack* google::protobuf::Arena::CreateMaybeMessage<parameterproto::ValuePack>(google::protobuf::Arena*) [clone .cold]
PUBLIC 24f7e 0 parameterproto::ParameterBasicInfo::MergeFrom(parameterproto::ParameterBasicInfo const&) [clone .cold]
PUBLIC 24f9e 0 parameterproto::ParameterBasicInfo::MergeFrom(google::protobuf::Message const&) [clone .cold]
PUBLIC 24fae 0 parameterproto::ValuePack::ValuePack(parameterproto::ValuePack const&) [clone .cold]
PUBLIC 24fec 0 parameterproto::ParameterValue::_InternalParse(char const*, google::protobuf::internal::ParseContext*) [clone .cold]
PUBLIC 2500c 0 parameterproto::ValuePack::~ValuePack() [clone .cold]
PUBLIC 2501a 0 parameterproto::ParameterBasicInfo::ParameterBasicInfo(google::protobuf::Arena*) [clone .cold]
PUBLIC 2502c 0 parameterproto::ParameterBasicInfo* google::protobuf::Arena::CreateMaybeMessage<parameterproto::ParameterBasicInfo>(google::protobuf::Arena*) [clone .cold]
PUBLIC 25042 0 parameterproto::ParameterBasicInfo::ParameterBasicInfo(parameterproto::ParameterBasicInfo const&) [clone .cold]
PUBLIC 25080 0 parameterproto::ValuePack::_InternalParse(char const*, google::protobuf::internal::ParseContext*) [clone .cold]
PUBLIC 250b0 0 parameterproto::ValuePack::_InternalSerialize(unsigned char*, google::protobuf::io::EpsCopyOutputStream*) const [clone .cold]
PUBLIC 250d0 0 parameterproto::ParameterBasicInfo::~ParameterBasicInfo() [clone .cold]
PUBLIC 250de 0 parameterproto::ParameterBasicInfo::_InternalParse(char const*, google::protobuf::internal::ParseContext*) [clone .cold]
PUBLIC 2510e 0 parameterproto::ParameterBasicInfo::_InternalSerialize(unsigned char*, google::protobuf::io::EpsCopyOutputStream*) const [clone .cold]
PUBLIC 2512e 0 hegproto::TextRef::_InternalSerialize(unsigned char*, google::protobuf::io::EpsCopyOutputStream*) const [clone .cold]
PUBLIC 2513e 0 hegproto::Data::~Data() [clone .cold]
PUBLIC 2514c 0 hegproto::UnhandledConstruct::~UnhandledConstruct() [clone .cold]
PUBLIC 2515a 0 hegproto::TextRef::~TextRef() [clone .cold]
PUBLIC 25168 0 hegproto::UnhandledConstruct::_InternalSerialize(unsigned char*, google::protobuf::io::EpsCopyOutputStream*) const [clone .cold]
PUBLIC 25178 0 hegproto::Block::Block(google::protobuf::Arena*) [clone .cold]
PUBLIC 2518a 0 hegproto::EventCtrlStmt::EventCtrlStmt(google::protobuf::Arena*) [clone .cold]
PUBLIC 2519c 0 hegproto::EventExpression::EventExpression(google::protobuf::Arena*) [clone .cold]
PUBLIC 251ae 0 hegproto::ModuleInstantiation::ModuleInstantiation(google::protobuf::Arena*) [clone .cold]
PUBLIC 251c8 0 hegproto::InstantiationInfo::InstantiationInfo(google::protobuf::Arena*) [clone .cold]
PUBLIC 251da 0 hegproto::IndexedExpression::IndexedExpression(google::protobuf::Arena*) [clone .cold]
PUBLIC 251ec 0 hegproto::Module::Module(google::protobuf::Arena*) [clone .cold]
PUBLIC 251fe 0 hegproto::Variable* google::protobuf::Arena::CreateMaybeMessage<hegproto::Variable>(google::protobuf::Arena*) [clone .cold]
PUBLIC 25214 0 hegproto::Constant* google::protobuf::Arena::CreateMaybeMessage<hegproto::Constant>(google::protobuf::Arena*) [clone .cold]
PUBLIC 2522a 0 hegproto::Parameter* google::protobuf::Arena::CreateMaybeMessage<hegproto::Parameter>(google::protobuf::Arena*) [clone .cold]
PUBLIC 25240 0 hegproto::UnhandledType* google::protobuf::Arena::CreateMaybeMessage<hegproto::UnhandledType>(google::protobuf::Arena*) [clone .cold]
PUBLIC 25256 0 hegproto::ElemRef* google::protobuf::Arena::CreateMaybeMessage<hegproto::ElemRef>(google::protobuf::Arena*) [clone .cold]
PUBLIC 2526c 0 hegproto::Block* google::protobuf::Arena::CreateMaybeMessage<hegproto::Block>(google::protobuf::Arena*) [clone .cold]
PUBLIC 25282 0 hegproto::EventCtrlStmt* google::protobuf::Arena::CreateMaybeMessage<hegproto::EventCtrlStmt>(google::protobuf::Arena*) [clone .cold]
PUBLIC 25298 0 hegproto::EventExpression* google::protobuf::Arena::CreateMaybeMessage<hegproto::EventExpression>(google::protobuf::Arena*) [clone .cold]
PUBLIC 252ae 0 hegproto::AlwaysConstruct* google::protobuf::Arena::CreateMaybeMessage<hegproto::AlwaysConstruct>(google::protobuf::Arena*) [clone .cold]
PUBLIC 252c4 0 hegproto::Assign* google::protobuf::Arena::CreateMaybeMessage<hegproto::Assign>(google::protobuf::Arena*) [clone .cold]
PUBLIC 252da 0 hegproto::ConditionalStmt* google::protobuf::Arena::CreateMaybeMessage<hegproto::ConditionalStmt>(google::protobuf::Arena*) [clone .cold]
PUBLIC 252f0 0 hegproto::BinaryOperator* google::protobuf::Arena::CreateMaybeMessage<hegproto::BinaryOperator>(google::protobuf::Arena*) [clone .cold]
PUBLIC 25306 0 hegproto::ModuleInstantiation* google::protobuf::Arena::CreateMaybeMessage<hegproto::ModuleInstantiation>(google::protobuf::Arena*) [clone .cold]
PUBLIC 2531c 0 hegproto::InstantiationInfo* google::protobuf::Arena::CreateMaybeMessage<hegproto::InstantiationInfo>(google::protobuf::Arena*) [clone .cold]
PUBLIC 25332 0 hegproto::PortDecl* google::protobuf::Arena::CreateMaybeMessage<hegproto::PortDecl>(google::protobuf::Arena*) [clone .cold]
PUBLIC 25348 0 hegproto::IndexedExpression* google::protobuf::Arena::CreateMaybeMessage<hegproto::IndexedExpression>(google::protobuf::Arena*) [clone .cold]
PUBLIC 2535e 0 hegproto::DimensionInfo* google::protobuf::Arena::CreateMaybeMessage<hegproto::DimensionInfo>(google::protobuf::Arena*) [clone .cold]
PUBLIC 25374 0 hegproto::NamePrefix* google::protobuf::Arena::CreateMaybeMessage<hegproto::NamePrefix>(google::protobuf::Arena*) [clone .cold]
PUBLIC 2538a 0 hegproto::Module* google::protobuf::Arena::CreateMaybeMessage<hegproto::Module>(google::protobuf::Arena*) [clone .cold]
PUBLIC 253a0 0 hegproto::UnhandledConstruct* google::protobuf::Arena::CreateMaybeMessage<hegproto::UnhandledConstruct>(google::protobuf::Arena*) [clone .cold]
PUBLIC 253b6 0 hegproto::Data* google::protobuf::Arena::CreateMaybeMessage<hegproto::Data>(google::protobuf::Arena*) [clone .cold]
PUBLIC 253cc 0 hegproto::SourceChunk* google::protobuf::Arena::CreateMaybeMessage<hegproto::SourceChunk>(google::protobuf::Arena*) [clone .cold]
PUBLIC 253e2 0 hegproto::IncludeRef* google::protobuf::Arena::CreateMaybeMessage<hegproto::IncludeRef>(google::protobuf::Arena*) [clone .cold]
PUBLIC 253f8 0 hegproto::MacroElement* google::protobuf::Arena::CreateMaybeMessage<hegproto::MacroElement>(google::protobuf::Arena*) [clone .cold]
PUBLIC 2540e 0 hegproto::MacroArg* google::protobuf::Arena::CreateMaybeMessage<hegproto::MacroArg>(google::protobuf::Arena*) [clone .cold]
PUBLIC 25424 0 hegproto::MacroDefinition* google::protobuf::Arena::CreateMaybeMessage<hegproto::MacroDefinition>(google::protobuf::Arena*) [clone .cold]
PUBLIC 2543a 0 hegproto::TextRef* google::protobuf::Arena::CreateMaybeMessage<hegproto::TextRef>(google::protobuf::Arena*) [clone .cold]
PUBLIC 25450 0 hegproto::UnhandledConstruct::_InternalParse(char const*, google::protobuf::internal::ParseContext*) [clone .cold]
PUBLIC 25460 0 hegproto::Data::_InternalParse(char const*, google::protobuf::internal::ParseContext*) [clone .cold]
PUBLIC 25470 0 hegproto::TextRef::_InternalParse(char const*, google::protobuf::internal::ParseContext*) [clone .cold]
PUBLIC 25480 0 hegproto::NamePrefix::MergeFrom(hegproto::NamePrefix const&) [clone .cold]
PUBLIC 25490 0 hegproto::NamePrefix::MergeFrom(google::protobuf::Message const&) [clone .cold]
PUBLIC 254a0 0 hegproto::TextRef::TextRef(hegproto::TextRef const&) [clone .cold]
PUBLIC 25500 0 hegproto::UnhandledConstruct::UnhandledConstruct(hegproto::UnhandledConstruct const&) [clone .cold]
PUBLIC 25560 0 hegproto::TextRef::InternalSwap(hegproto::TextRef*) [clone .cold]
PUBLIC 255a0 0 hegproto::UnhandledConstruct::InternalSwap(hegproto::UnhandledConstruct*) [clone .cold]
PUBLIC 255e0 0 hegproto::EventCtrlStmt::InternalSwap(hegproto::EventCtrlStmt*) [clone .cold]
PUBLIC 25620 0 hegproto::EventExpression::InternalSwap(hegproto::EventExpression*) [clone .cold]
PUBLIC 25660 0 hegproto::IndexedExpression::InternalSwap(hegproto::IndexedExpression*) [clone .cold]
PUBLIC 256a0 0 hegproto::ModuleInstantiation::InternalSwap(hegproto::ModuleInstantiation*) [clone .cold]
PUBLIC 25720 0 hegproto::TextRef::MergeFrom(hegproto::TextRef const&) [clone .cold]
PUBLIC 257a0 0 hegproto::TextRef::MergeFrom(google::protobuf::Message const&) [clone .cold]
PUBLIC 257b0 0 hegproto::AlwaysConstruct::AlwaysConstruct(hegproto::AlwaysConstruct const&) [clone .cold]
PUBLIC 257c6 0 hegproto::UnhandledType::UnhandledType(hegproto::UnhandledType const&) [clone .cold]
PUBLIC 257dc 0 hegproto::ElemRef::ElemRef(hegproto::ElemRef const&) [clone .cold]
PUBLIC 257f2 0 hegproto::Assign::Assign(hegproto::Assign const&) [clone .cold]
PUBLIC 25808 0 hegproto::BinaryOperator::BinaryOperator(hegproto::BinaryOperator const&) [clone .cold]
PUBLIC 2581e 0 hegproto::SourceChunk::SourceChunk(hegproto::SourceChunk const&) [clone .cold]
PUBLIC 25834 0 hegproto::ConditionalStmt::ConditionalStmt(hegproto::ConditionalStmt const&) [clone .cold]
PUBLIC 2584a 0 hegproto::UnhandledConstruct::MergeFrom(hegproto::UnhandledConstruct const&) [clone .cold]
PUBLIC 258ca 0 hegproto::UnhandledConstruct::MergeFrom(google::protobuf::Message const&) [clone .cold]
PUBLIC 258da 0 hegproto::Data::MergeFrom(hegproto::Data const&) [clone .cold]
PUBLIC 258ea 0 hegproto::Data::MergeFrom(google::protobuf::Message const&) [clone .cold]
PUBLIC 258fa 0 hegproto::DimensionInfo::DimensionInfo(hegproto::DimensionInfo const&) [clone .cold]
PUBLIC 25910 0 hegproto::EventExpression::EventExpression(hegproto::EventExpression const&) [clone .cold]
PUBLIC 2597e 0 hegproto::EventCtrlStmt::EventCtrlStmt(hegproto::EventCtrlStmt const&) [clone .cold]
PUBLIC 259ec 0 hegproto::IndexedExpression::IndexedExpression(hegproto::IndexedExpression const&) [clone .cold]
PUBLIC 25a5a 0 hegproto::Constant::Constant(hegproto::Constant const&) [clone .cold]
PUBLIC 25a70 0 hegproto::Variable::Variable(hegproto::Variable const&) [clone .cold]
PUBLIC 25a86 0 hegproto::MacroElement::MacroElement(hegproto::MacroElement const&) [clone .cold]
PUBLIC 25a9c 0 hegproto::Parameter::Parameter(hegproto::Parameter const&) [clone .cold]
PUBLIC 25ab2 0 hegproto::ModuleInstantiation::ModuleInstantiation(hegproto::ModuleInstantiation const&) [clone .cold]
PUBLIC 25b32 0 hegproto::PortDecl::PortDecl(hegproto::PortDecl const&) [clone .cold]
PUBLIC 25b48 0 hegproto::MacroArg::MacroArg(hegproto::MacroArg const&) [clone .cold]
PUBLIC 25b72 0 hegproto::UnhandledType::MergeFrom(hegproto::UnhandledType const&) [clone .cold]
PUBLIC 25b82 0 hegproto::UnhandledType::MergeFrom(google::protobuf::Message const&) [clone .cold]
PUBLIC 25b92 0 hegproto::IncludeRef::IncludeRef(hegproto::IncludeRef const&) [clone .cold]
PUBLIC 25bbc 0 hegproto::InstantiationInfo::InstantiationInfo(hegproto::InstantiationInfo const&) [clone .cold]
PUBLIC 25c2a 0 hegproto::Block::Block(hegproto::Block const&) [clone .cold]
PUBLIC 25c98 0 hegproto::ModuleInstantiation::MergeFrom(hegproto::ModuleInstantiation const&) [clone .cold]
PUBLIC 25d88 0 hegproto::ModuleInstantiation::MergeFrom(google::protobuf::Message const&) [clone .cold]
PUBLIC 25d98 0 hegproto::EventCtrlStmt::MergeFrom(hegproto::EventCtrlStmt const&) [clone .cold]
PUBLIC 25de8 0 hegproto::EventCtrlStmt::MergeFrom(google::protobuf::Message const&) [clone .cold]
PUBLIC 25df8 0 hegproto::IndexedExpression::MergeFrom(hegproto::IndexedExpression const&) [clone .cold]
PUBLIC 25e78 0 hegproto::IndexedExpression::MergeFrom(google::protobuf::Message const&) [clone .cold]
PUBLIC 25e88 0 hegproto::EventExpression::MergeFrom(hegproto::EventExpression const&) [clone .cold]
PUBLIC 25e98 0 hegproto::EventExpression::MergeFrom(google::protobuf::Message const&) [clone .cold]
PUBLIC 25ea8 0 hegproto::Module::Module(hegproto::Module const&) [clone .cold]
PUBLIC 25f16 0 hegproto::ElemRef::MergeFrom(hegproto::ElemRef const&) [clone .cold]
PUBLIC 25f26 0 hegproto::ElemRef::MergeFrom(google::protobuf::Message const&) [clone .cold]
PUBLIC 25f36 0 hegproto::AlwaysConstruct::MergeFrom(hegproto::AlwaysConstruct const&) [clone .cold]
PUBLIC 25f46 0 hegproto::AlwaysConstruct::MergeFrom(google::protobuf::Message const&) [clone .cold]
PUBLIC 25f56 0 hegproto::SourceChunk::MergeFrom(hegproto::SourceChunk const&) [clone .cold]
PUBLIC 25f66 0 hegproto::SourceChunk::MergeFrom(google::protobuf::Message const&) [clone .cold]
PUBLIC 25f76 0 hegproto::Parameter::MergeFrom(hegproto::Parameter const&) [clone .cold]
PUBLIC 25f86 0 hegproto::Parameter::MergeFrom(google::protobuf::Message const&) [clone .cold]
PUBLIC 25f96 0 hegproto::Variable::MergeFrom(hegproto::Variable const&) [clone .cold]
PUBLIC 25fa6 0 hegproto::Variable::MergeFrom(google::protobuf::Message const&) [clone .cold]
PUBLIC 25fb6 0 hegproto::Constant::MergeFrom(hegproto::Constant const&) [clone .cold]
PUBLIC 25fc6 0 hegproto::Constant::MergeFrom(google::protobuf::Message const&) [clone .cold]
PUBLIC 25fd6 0 hegproto::MacroRef::InternalSwap(hegproto::MacroRef*) [clone .cold]
PUBLIC 26016 0 hegproto::Block::MergeFrom(hegproto::Block const&) [clone .cold]
PUBLIC 26026 0 hegproto::Block::MergeFrom(google::protobuf::Message const&) [clone .cold]
PUBLIC 26036 0 hegproto::InstantiationInfo::MergeFrom(hegproto::InstantiationInfo const&) [clone .cold]
PUBLIC 26046 0 hegproto::InstantiationInfo::MergeFrom(google::protobuf::Message const&) [clone .cold]
PUBLIC 26056 0 hegproto::MacroElement::MergeFrom(hegproto::MacroElement const&) [clone .cold]
PUBLIC 26066 0 hegproto::MacroElement::MergeFrom(google::protobuf::Message const&) [clone .cold]
PUBLIC 26076 0 hegproto::MacroArg::MergeFrom(hegproto::MacroArg const&) [clone .cold]
PUBLIC 26086 0 hegproto::MacroArg::MergeFrom(google::protobuf::Message const&) [clone .cold]
PUBLIC 26096 0 hegproto::MacroDefinition::MacroDefinition(hegproto::MacroDefinition const&) [clone .cold]
PUBLIC 260ac 0 hegproto::IncludeRef::MergeFrom(hegproto::IncludeRef const&) [clone .cold]
PUBLIC 260bc 0 hegproto::IncludeRef::MergeFrom(google::protobuf::Message const&) [clone .cold]
PUBLIC 260cc 0 hegproto::Module::MergeFrom(hegproto::Module const&) [clone .cold]
PUBLIC 260dc 0 hegproto::Module::MergeFrom(google::protobuf::Message const&) [clone .cold]
PUBLIC 260ec 0 hegproto::MacroDefinition::MergeFrom(hegproto::MacroDefinition const&) [clone .cold]
PUBLIC 260fc 0 hegproto::MacroDefinition::MergeFrom(google::protobuf::Message const&) [clone .cold]
PUBLIC 2610c 0 hegproto::PortDecl::MergeFrom(hegproto::PortDecl const&) [clone .cold]
PUBLIC 2611c 0 hegproto::PortDecl::MergeFrom(google::protobuf::Message const&) [clone .cold]
PUBLIC 2612c 0 hegproto::Assign::MergeFrom(hegproto::Assign const&) [clone .cold]
PUBLIC 2613c 0 hegproto::Assign::MergeFrom(google::protobuf::Message const&) [clone .cold]
PUBLIC 2614c 0 hegproto::BinaryOperator::MergeFrom(hegproto::BinaryOperator const&) [clone .cold]
PUBLIC 2615c 0 hegproto::BinaryOperator::MergeFrom(google::protobuf::Message const&) [clone .cold]
PUBLIC 2616c 0 hegproto::DimensionInfo::MergeFrom(hegproto::DimensionInfo const&) [clone .cold]
PUBLIC 2617c 0 hegproto::DimensionInfo::MergeFrom(google::protobuf::Message const&) [clone .cold]
PUBLIC 2618c 0 hegproto::ConditionalStmt::MergeFrom(hegproto::ConditionalStmt const&) [clone .cold]
PUBLIC 2619c 0 hegproto::ConditionalStmt::MergeFrom(google::protobuf::Message const&) [clone .cold]
PUBLIC 261ac 0 hegproto::NamePrefix::NamePrefix(hegproto::NamePrefix const&) [clone .cold]
PUBLIC 261c2 0 hegproto::MacroRef::MergeFrom(hegproto::MacroRef const&) [clone .cold]
PUBLIC 261f2 0 hegproto::MacroRef::MergeFrom(google::protobuf::Message const&) [clone .cold]
PUBLIC 26202 0 hegproto::Variable::~Variable() [clone .cold]
PUBLIC 26210 0 hegproto::Constant::~Constant() [clone .cold]
PUBLIC 2621e 0 hegproto::Parameter::~Parameter() [clone .cold]
PUBLIC 2622c 0 hegproto::UnhandledType::~UnhandledType() [clone .cold]
PUBLIC 2623a 0 hegproto::ElemRef::~ElemRef() [clone .cold]
PUBLIC 26248 0 hegproto::Block::~Block() [clone .cold]
PUBLIC 26256 0 hegproto::EventCtrlStmt::~EventCtrlStmt() [clone .cold]
PUBLIC 26264 0 hegproto::EventExpression::~EventExpression() [clone .cold]
PUBLIC 26272 0 hegproto::AlwaysConstruct::~AlwaysConstruct() [clone .cold]
PUBLIC 26280 0 hegproto::Assign::~Assign() [clone .cold]
PUBLIC 2628e 0 hegproto::ConditionalStmt::~ConditionalStmt() [clone .cold]
PUBLIC 2629c 0 hegproto::BinaryOperator::~BinaryOperator() [clone .cold]
PUBLIC 262aa 0 hegproto::ModuleInstantiation::~ModuleInstantiation() [clone .cold]
PUBLIC 262b8 0 hegproto::InstantiationInfo::~InstantiationInfo() [clone .cold]
PUBLIC 262c6 0 hegproto::PortDecl::~PortDecl() [clone .cold]
PUBLIC 262d4 0 hegproto::IndexedExpression::~IndexedExpression() [clone .cold]
PUBLIC 262e2 0 hegproto::DimensionInfo::~DimensionInfo() [clone .cold]
PUBLIC 262f0 0 hegproto::NamePrefix::~NamePrefix() [clone .cold]
PUBLIC 262fe 0 hegproto::Module::~Module() [clone .cold]
PUBLIC 2630c 0 hegproto::MacroElement::~MacroElement() [clone .cold]
PUBLIC 2631a 0 hegproto::MacroArg::~MacroArg() [clone .cold]
PUBLIC 26328 0 hegproto::MacroRef::MacroRef(google::protobuf::Arena*) [clone .cold]
PUBLIC 26342 0 hegproto::MacroRef* google::protobuf::Arena::CreateMaybeMessage<hegproto::MacroRef>(google::protobuf::Arena*) [clone .cold]
PUBLIC 26358 0 hegproto::MacroRef::MacroRef(hegproto::MacroRef const&) [clone .cold]
PUBLIC 263b8 0 hegproto::MacroRef::~MacroRef() [clone .cold]
PUBLIC 263c6 0 hegproto::MacroDefinition::~MacroDefinition() [clone .cold]
PUBLIC 263d4 0 hegproto::Variable::_InternalParse(char const*, google::protobuf::internal::ParseContext*) [clone .cold]
PUBLIC 263e4 0 hegproto::Constant::_InternalParse(char const*, google::protobuf::internal::ParseContext*) [clone .cold]
PUBLIC 263f4 0 hegproto::Parameter::_InternalParse(char const*, google::protobuf::internal::ParseContext*) [clone .cold]
PUBLIC 26404 0 hegproto::UnhandledType::_InternalParse(char const*, google::protobuf::internal::ParseContext*) [clone .cold]
PUBLIC 26414 0 hegproto::ElemRef::_InternalParse(char const*, google::protobuf::internal::ParseContext*) [clone .cold]
PUBLIC 26424 0 hegproto::Block::_InternalParse(char const*, google::protobuf::internal::ParseContext*) [clone .cold]
PUBLIC 26434 0 hegproto::EventCtrlStmt::_InternalParse(char const*, google::protobuf::internal::ParseContext*) [clone .cold]
PUBLIC 26444 0 hegproto::EventExpression::_InternalParse(char const*, google::protobuf::internal::ParseContext*) [clone .cold]
PUBLIC 26454 0 hegproto::AlwaysConstruct::_InternalParse(char const*, google::protobuf::internal::ParseContext*) [clone .cold]
PUBLIC 26464 0 hegproto::Assign::_InternalParse(char const*, google::protobuf::internal::ParseContext*) [clone .cold]
PUBLIC 26474 0 hegproto::ConditionalStmt::_InternalParse(char const*, google::protobuf::internal::ParseContext*) [clone .cold]
PUBLIC 26484 0 hegproto::BinaryOperator::_InternalParse(char const*, google::protobuf::internal::ParseContext*) [clone .cold]
PUBLIC 26494 0 hegproto::ModuleInstantiation::_InternalParse(char const*, google::protobuf::internal::ParseContext*) [clone .cold]
PUBLIC 264a4 0 hegproto::InstantiationInfo::_InternalParse(char const*, google::protobuf::internal::ParseContext*) [clone .cold]
PUBLIC 264b4 0 hegproto::PortDecl::_InternalParse(char const*, google::protobuf::internal::ParseContext*) [clone .cold]
PUBLIC 264c4 0 hegproto::IndexedExpression::_InternalParse(char const*, google::protobuf::internal::ParseContext*) [clone .cold]
PUBLIC 264d4 0 hegproto::DimensionInfo::_InternalParse(char const*, google::protobuf::internal::ParseContext*) [clone .cold]
PUBLIC 264e4 0 hegproto::NamePrefix::_InternalParse(char const*, google::protobuf::internal::ParseContext*) [clone .cold]
PUBLIC 264f4 0 hegproto::Module::_InternalParse(char const*, google::protobuf::internal::ParseContext*) [clone .cold]
PUBLIC 26504 0 hegproto::MacroElement::_InternalParse(char const*, google::protobuf::internal::ParseContext*) [clone .cold]
PUBLIC 26514 0 hegproto::MacroArg::_InternalParse(char const*, google::protobuf::internal::ParseContext*) [clone .cold]
PUBLIC 26524 0 hegproto::MacroRef::_InternalParse(char const*, google::protobuf::internal::ParseContext*) [clone .cold]
PUBLIC 26544 0 hegproto::MacroDefinition::_InternalParse(char const*, google::protobuf::internal::ParseContext*) [clone .cold]
PUBLIC 26554 0 hegproto::Block::_InternalSerialize(unsigned char*, google::protobuf::io::EpsCopyOutputStream*) const [clone .cold]
PUBLIC 26564 0 hegproto::EventCtrlStmt::_InternalSerialize(unsigned char*, google::protobuf::io::EpsCopyOutputStream*) const [clone .cold]
PUBLIC 26574 0 hegproto::EventExpression::_InternalSerialize(unsigned char*, google::protobuf::io::EpsCopyOutputStream*) const [clone .cold]
PUBLIC 26584 0 hegproto::ModuleInstantiation::_InternalSerialize(unsigned char*, google::protobuf::io::EpsCopyOutputStream*) const [clone .cold]
PUBLIC 265a4 0 hegproto::InstantiationInfo::_InternalSerialize(unsigned char*, google::protobuf::io::EpsCopyOutputStream*) const [clone .cold]
PUBLIC 265b4 0 hegproto::IndexedExpression::_InternalSerialize(unsigned char*, google::protobuf::io::EpsCopyOutputStream*) const [clone .cold]
PUBLIC 265c4 0 hegproto::Module::_InternalSerialize(unsigned char*, google::protobuf::io::EpsCopyOutputStream*) const [clone .cold]
PUBLIC 265d4 0 hegproto::MacroRef::_InternalSerialize(unsigned char*, google::protobuf::io::EpsCopyOutputStream*) const [clone .cold]
PUBLIC 26614 0 hegproto::SourceChunk::~SourceChunk() [clone .cold]
PUBLIC 26622 0 hegproto::IncludeRef::~IncludeRef() [clone .cold]
PUBLIC 26630 0 hegproto::SourceChunk::_InternalParse(char const*, google::protobuf::internal::ParseContext*) [clone .cold]
PUBLIC 26640 0 hegproto::IncludeRef::_InternalParse(char const*, google::protobuf::internal::ParseContext*) [clone .cold]
PUBLIC 26650 0 hiertreeproto::Attribute::~Attribute() [clone .cold]
PUBLIC 2665e 0 hiertreeproto::Edge::~Edge() [clone .cold]
PUBLIC 2666c 0 hiertreeproto::Edge::_InternalSerialize(unsigned char*, google::protobuf::io::EpsCopyOutputStream*) const [clone .cold]
PUBLIC 2667c 0 hiertreeproto::Node* google::protobuf::Arena::CreateMaybeMessage<hiertreeproto::Node>(google::protobuf::Arena*) [clone .cold]
PUBLIC 26692 0 hiertreeproto::NamedBlockCore* google::protobuf::Arena::CreateMaybeMessage<hiertreeproto::NamedBlockCore>(google::protobuf::Arena*) [clone .cold]
PUBLIC 266a8 0 hiertreeproto::NamedBlock* google::protobuf::Arena::CreateMaybeMessage<hiertreeproto::NamedBlock>(google::protobuf::Arena*) [clone .cold]
PUBLIC 266be 0 hiertreeproto::Edge* google::protobuf::Arena::CreateMaybeMessage<hiertreeproto::Edge>(google::protobuf::Arena*) [clone .cold]
PUBLIC 266d4 0 hiertreeproto::Genvar* google::protobuf::Arena::CreateMaybeMessage<hiertreeproto::Genvar>(google::protobuf::Arena*) [clone .cold]
PUBLIC 266ea 0 hiertreeproto::Attribute* google::protobuf::Arena::CreateMaybeMessage<hiertreeproto::Attribute>(google::protobuf::Arena*) [clone .cold]
PUBLIC 26700 0 hiertreeproto::Edge::_InternalParse(char const*, google::protobuf::internal::ParseContext*) [clone .cold]
PUBLIC 26720 0 hiertreeproto::Attribute::_InternalParse(char const*, google::protobuf::internal::ParseContext*) [clone .cold]
PUBLIC 26730 0 hiertreeproto::Edge::InternalSwap(hiertreeproto::Edge*) [clone .cold]
PUBLIC 26770 0 hiertreeproto::Signal::InternalSwap(hiertreeproto::Signal*) [clone .cold]
PUBLIC 26790 0 hiertreeproto::ModuleItem::InternalSwap(hiertreeproto::ModuleItem*) [clone .cold]
PUBLIC 267d0 0 hiertreeproto::Edge::Edge(hiertreeproto::Edge const&) [clone .cold]
PUBLIC 26830 0 hiertreeproto::Edge::MergeFrom(hiertreeproto::Edge const&) [clone .cold]
PUBLIC 268b0 0 hiertreeproto::Edge::MergeFrom(google::protobuf::Message const&) [clone .cold]
PUBLIC 268c0 0 hiertreeproto::Attribute::MergeFrom(hiertreeproto::Attribute const&) [clone .cold]
PUBLIC 268d0 0 hiertreeproto::Attribute::MergeFrom(google::protobuf::Message const&) [clone .cold]
PUBLIC 268e0 0 hiertreeproto::Node::Node(hiertreeproto::Node const&) [clone .cold]
PUBLIC 268f6 0 hiertreeproto::NamedBlockCore::NamedBlockCore(hiertreeproto::NamedBlockCore const&) [clone .cold]
PUBLIC 2690c 0 hiertreeproto::NamedBlock::NamedBlock(hiertreeproto::NamedBlock const&) [clone .cold]
PUBLIC 26922 0 hiertreeproto::Genvar::Genvar(hiertreeproto::Genvar const&) [clone .cold]
PUBLIC 26938 0 hiertreeproto::NamedBlockCore::MergeFrom(hiertreeproto::NamedBlockCore const&) [clone .cold]
PUBLIC 26948 0 hiertreeproto::NamedBlockCore::MergeFrom(google::protobuf::Message const&) [clone .cold]
PUBLIC 26958 0 hiertreeproto::NamedBlock::MergeFrom(hiertreeproto::NamedBlock const&) [clone .cold]
PUBLIC 26968 0 hiertreeproto::NamedBlock::MergeFrom(google::protobuf::Message const&) [clone .cold]
PUBLIC 26978 0 hiertreeproto::Node::MergeFrom(hiertreeproto::Node const&) [clone .cold]
PUBLIC 26988 0 hiertreeproto::Node::MergeFrom(google::protobuf::Message const&) [clone .cold]
PUBLIC 26998 0 hiertreeproto::Genvar::MergeFrom(hiertreeproto::Genvar const&) [clone .cold]
PUBLIC 269a8 0 hiertreeproto::Genvar::MergeFrom(google::protobuf::Message const&) [clone .cold]
PUBLIC 269b8 0 hiertreeproto::Signal::MergeFrom(hiertreeproto::Signal const&) [clone .cold]
PUBLIC 269d8 0 hiertreeproto::Signal::MergeFrom(google::protobuf::Message const&) [clone .cold]
PUBLIC 269e8 0 hiertreeproto::Node::~Node() [clone .cold]
PUBLIC 269f6 0 hiertreeproto::NamedBlockCore::~NamedBlockCore() [clone .cold]
PUBLIC 26a04 0 hiertreeproto::NamedBlock::~NamedBlock() [clone .cold]
PUBLIC 26a12 0 hiertreeproto::Genvar::~Genvar() [clone .cold]
PUBLIC 26a20 0 hiertreeproto::Node::_InternalParse(char const*, google::protobuf::internal::ParseContext*) [clone .cold]
PUBLIC 26a30 0 hiertreeproto::NamedBlockCore::_InternalParse(char const*, google::protobuf::internal::ParseContext*) [clone .cold]
PUBLIC 26a40 0 hiertreeproto::NamedBlock::_InternalParse(char const*, google::protobuf::internal::ParseContext*) [clone .cold]
PUBLIC 26a50 0 hiertreeproto::Genvar::_InternalParse(char const*, google::protobuf::internal::ParseContext*) [clone .cold]
PUBLIC 26a60 0 hiertreeproto::Signal::Signal(google::protobuf::Arena*) [clone .cold]
PUBLIC 26a72 0 hiertreeproto::Signal* google::protobuf::Arena::CreateMaybeMessage<hiertreeproto::Signal>(google::protobuf::Arena*) [clone .cold]
PUBLIC 26a88 0 hiertreeproto::ModuleItem::MergeFrom(hiertreeproto::ModuleItem const&) [clone .cold]
PUBLIC 26ab8 0 hiertreeproto::ModuleItem::MergeFrom(google::protobuf::Message const&) [clone .cold]
PUBLIC 26ac8 0 hiertreeproto::Signal::Signal(hiertreeproto::Signal const&) [clone .cold]
PUBLIC 26b06 0 hiertreeproto::Signal::~Signal() [clone .cold]
PUBLIC 26b14 0 hiertreeproto::Signal::_InternalParse(char const*, google::protobuf::internal::ParseContext*) [clone .cold]
PUBLIC 26b34 0 hiertreeproto::Signal::_InternalSerialize(unsigned char*, google::protobuf::io::EpsCopyOutputStream*) const [clone .cold]
PUBLIC 26b54 0 hiertreeproto::ModuleItem::ModuleItem(google::protobuf::Arena*) [clone .cold]
PUBLIC 26b6e 0 hiertreeproto::ModuleItem* google::protobuf::Arena::CreateMaybeMessage<hiertreeproto::ModuleItem>(google::protobuf::Arena*) [clone .cold]
PUBLIC 26b84 0 hiertreeproto::ModuleItem::ModuleItem(hiertreeproto::ModuleItem const&) [clone .cold]
PUBLIC 26be4 0 hiertreeproto::ModuleItem::~ModuleItem() [clone .cold]
PUBLIC 26bf2 0 hiertreeproto::ModuleItem::_InternalParse(char const*, google::protobuf::internal::ParseContext*) [clone .cold]
PUBLIC 26c22 0 hiertreeproto::ModuleItem::_InternalSerialize(unsigned char*, google::protobuf::io::EpsCopyOutputStream*) const [clone .cold]
PUBLIC 26c62 0 google::protobuf::internal::LogMessage::operator<<(google::protobuf::util::Status const&) [clone .cold]
PUBLIC 26c7e 0 google::protobuf::internal::LogMessage::Finish() [clone .cold]
PUBLIC 26d64 0 google::protobuf::internal::LogMessage::operator<<(google::protobuf::uint128 const&) [clone .cold]
PUBLIC 26e0c 0 google::protobuf::internal::VerifyVersion(int, int, char const*) [clone .cold]
PUBLIC 26e7c 0 google::protobuf::internal::LogMessage::operator<<(google::protobuf::StringPiece const&) [clone .cold]
PUBLIC 26e92 0 google::protobuf::uint128::DivModImpl(google::protobuf::uint128, google::protobuf::uint128, google::protobuf::uint128*, google::protobuf::uint128*) [clone .cold]
PUBLIC 26ea2 0 google::protobuf::operator<<(std::ostream&, google::protobuf::uint128 const&) [clone .cold]
PUBLIC 26f5a 0 google::protobuf::util::Status::Status(google::protobuf::util::error::Code, google::protobuf::StringPiece) [clone .cold]
PUBLIC 26f70 0 google::protobuf::util::Status::ToString[abi:cxx11]() const [clone .cold]
PUBLIC 26f9d 0 google::protobuf::util::operator<<(std::ostream&, google::protobuf::util::Status const&) [clone .cold]
PUBLIC 26fb8 0 google::protobuf::StringPiece::LogFatalSizeTooBig(unsigned long, char const*) [clone .cold]
PUBLIC 26fc8 0 google::protobuf::internal::ArenaImpl::NewBlock(google::protobuf::internal::ArenaImpl::Block*, unsigned long) [clone .cold]
PUBLIC 26fd8 0 google::protobuf::internal::InitProtobufDefaults() [clone .cold]
PUBLIC 26fec 0 google::protobuf::internal::SerializeMessageNoTable(google::protobuf::MessageLite const*, google::protobuf::internal::ArrayOutput*) [clone .cold]
PUBLIC 26ffc 0 google::protobuf::internal::SerializeNotImplemented(int) [clone .cold]
PUBLIC 2700c 0 google::protobuf::internal::GenericSwap(google::protobuf::MessageLite*, google::protobuf::MessageLite*) [clone .cold]
PUBLIC 2701e 0 google::protobuf::internal::InitSCCImpl(google::protobuf::internal::SCCInfoBase*) [clone .cold]
PUBLIC 2702e 0 google::protobuf::internal::SerializeInternalToArray(unsigned char const*, google::protobuf::internal::FieldMetadata const*, int, bool, unsigned char*) [clone .cold]
PUBLIC 2703e 0 google::protobuf::MessageLite::LogInitializationErrorMessage() const [clone .cold]
PUBLIC 27092 0 google::protobuf::MessageLite::SerializePartialToCodedStream(google::protobuf::io::CodedOutputStream*) const [clone .cold]
PUBLIC 27100 0 google::protobuf::MessageLite::SerializePartialToZeroCopyStream(google::protobuf::io::ZeroCopyOutputStream*) const [clone .cold]
PUBLIC 27120 0 google::protobuf::MessageLite::AppendPartialToString(std::__cxx11::basic_string<char, std::char_traits<char>, std::allocator<char> >*) const [clone .cold]
PUBLIC 27140 0 google::protobuf::MessageLite::SerializePartialToArray(void*, int) const [clone .cold]
PUBLIC 27160 0 google::protobuf::MessageLite::SerializeAsString[abi:cxx11]() const [clone .cold]
PUBLIC 27176 0 google::protobuf::MessageLite::SerializePartialAsString[abi:cxx11]() const [clone .cold]
PUBLIC 2718c 0 google::protobuf::ShutdownProtobufLibrary() [clone .cold]
PUBLIC 2719c 0 google::protobuf::internal::OnShutdownRun(void (*)(void const*), void const*) [clone .cold]
PUBLIC 271c2 0 google::protobuf::MessageLite::ParseFromFileDescriptor(int) [clone .cold]
PUBLIC 271ee 0 google::protobuf::MessageLite::ParsePartialFromFileDescriptor(int) [clone .cold]
PUBLIC 2721a 0 google::protobuf::MessageLite::ParseFromIstream(std::istream*) [clone .cold]
PUBLIC 27246 0 google::protobuf::MessageLite::ParsePartialFromIstream(std::istream*) [clone .cold]
PUBLIC 27272 0 google::protobuf::MessageLite::SerializeToFileDescriptor(int) const [clone .cold]
PUBLIC 27282 0 google::protobuf::MessageLite::SerializePartialToFileDescriptor(int) const [clone .cold]
PUBLIC 27292 0 google::protobuf::MessageLite::SerializeToOstream(std::ostream*) const [clone .cold]
PUBLIC 272a2 0 google::protobuf::MessageLite::SerializePartialToOstream(std::ostream*) const [clone .cold]
PUBLIC 272b2 0 google::protobuf::internal::VerifyUTF8(google::protobuf::StringPiece, char const*) [clone .cold]
PUBLIC 272ca 0 google::protobuf::internal::WireFormatLite::SkipField(google::protobuf::io::CodedInputStream*, unsigned int, google::protobuf::io::CodedOutputStream*) [clone .cold]
PUBLIC 272e0 0 google::protobuf::internal::WireFormatLite::WriteString(int, std::__cxx11::basic_string<char, std::char_traits<char>, std::allocator<char> > const&, google::protobuf::io::CodedOutputStream*) [clone .cold]
PUBLIC 272f0 0 google::protobuf::internal::WireFormatLite::WriteStringMaybeAliased(int, std::__cxx11::basic_string<char, std::char_traits<char>, std::allocator<char> > const&, google::protobuf::io::CodedOutputStream*) [clone .cold]
PUBLIC 27300 0 google::protobuf::internal::WireFormatLite::WriteBytes(int, std::__cxx11::basic_string<char, std::char_traits<char>, std::allocator<char> > const&, google::protobuf::io::CodedOutputStream*) [clone .cold]
PUBLIC 27310 0 google::protobuf::internal::WireFormatLite::WriteBytesMaybeAliased(int, std::__cxx11::basic_string<char, std::char_traits<char>, std::allocator<char> > const&, google::protobuf::io::CodedOutputStream*) [clone .cold]
PUBLIC 27320 0 google::protobuf::internal::PrintUTF8ErrorLog(char const*, char const*, bool) [clone .cold]
PUBLIC 2734e 0 google::protobuf::io::CodedInputStream::PrintTotalBytesLimitError() [clone .cold]
PUBLIC 2735e 0 google::protobuf::io::CodedInputStream::Refresh() [clone .cold]
PUBLIC 2736e 0 google::protobuf::io::ConcatenatingInputStream::BackUp(int) [clone .cold]
PUBLIC 2737e 0 google::protobuf::io::FileInputStream::CopyingFileInputStream::Read(void*, int) [clone .cold]
PUBLIC 2738e 0 google::protobuf::io::FileInputStream::CopyingFileInputStream::Skip(int) [clone .cold]
PUBLIC 2739e 0 google::protobuf::io::FileOutputStream::CopyingFileOutputStream::Write(void const*, int) [clone .cold]
PUBLIC 273ae 0 google::protobuf::io::FileInputStream::CopyingFileInputStream::Close() [clone .cold]
PUBLIC 273be 0 google::protobuf::io::FileInputStream::FileInputStream(int, int) [clone .cold]
PUBLIC 273ce 0 google::protobuf::io::FileOutputStream::CopyingFileOutputStream::Close() [clone .cold]
PUBLIC 273de 0 google::protobuf::io::FileOutputStream::FileOutputStream(int, int) [clone .cold]
PUBLIC 273ee 0 google::protobuf::io::IstreamInputStream::IstreamInputStream(std::istream*, int) [clone .cold]
PUBLIC 273fe 0 google::protobuf::io::OstreamOutputStream::OstreamOutputStream(std::ostream*, int) [clone .cold]
PUBLIC 2740e 0 google::protobuf::io::ArrayInputStream::BackUp(int) [clone .cold]
PUBLIC 2743e 0 google::protobuf::io::ArrayInputStream::Skip(int) [clone .cold]
PUBLIC 2744e 0 google::protobuf::io::ArrayOutputStream::BackUp(int) [clone .cold]
PUBLIC 2747e 0 google::protobuf::io::StringOutputStream::ByteCount() const [clone .cold]
PUBLIC 2748e 0 google::protobuf::io::CopyingOutputStreamAdaptor::BackUp(int) [clone .cold]
PUBLIC 274be 0 google::protobuf::io::CopyingInputStreamAdaptor::BackUp(int) [clone .cold]
PUBLIC 274ee 0 google::protobuf::io::StringOutputStream::BackUp(int) [clone .cold]
PUBLIC 2751e 0 google::protobuf::io::StringOutputStream::Next(void**, int*) [clone .cold]
PUBLIC 2753e 0 google::protobuf::io::CopyingInputStreamAdaptor::Skip(int) [clone .cold]
PUBLIC 2754e 0 google::protobuf::io::CopyingInputStreamAdaptor::FreeBuffer() [clone .cold]
PUBLIC 2755e 0 google::protobuf::Any* google::protobuf::Arena::CreateMaybeMessage<google::protobuf::Any>(google::protobuf::Arena*) [clone .cold]
PUBLIC 27574 0 google::protobuf::internal::ArenaStringPtr::CreateInstanceNoArena(std::__cxx11::basic_string<char, std::char_traits<char>, std::allocator<char> > const*) [clone .isra.0] [clone .constprop.0] [clone .cold]
PUBLIC 2758a 0 google::protobuf::internal::AnyMetadata::PackFrom(google::protobuf::Message const&, std::__cxx11::basic_string<char, std::char_traits<char>, std::allocator<char> > const&) [clone .cold]
PUBLIC 275a6 0 google::protobuf::internal::AnyMetadata::PackFrom(google::protobuf::Message const&) [clone .cold]
PUBLIC 275be 0 google::protobuf::(anonymous namespace)::OptionsToInterpret::~OptionsToInterpret()
PUBLIC 275f6 0 google::protobuf::(anonymous namespace)::GeneratedDatabase() [clone .cold]
PUBLIC 2761a 0 std::pair<std::__detail::_Node_iterator<std::pair<std::pair<google::protobuf::EnumDescriptor const*, int> const, google::protobuf::EnumValueDescriptor const*>, false, true>, bool> std::_Hashtable<std::pair<google::protobuf::EnumDescriptor const*, int>, std::pair<std::pair<google::protobuf::EnumDescriptor const*, int> const, google::protobuf::EnumValueDescriptor const*>, std::allocator<std::pair<std::pair<google::protobuf::EnumDescriptor const*, int> const, google::protobuf::EnumValueDescriptor const*> >, std::__detail::_Select1st, std::equal_to<std::pair<google::protobuf::EnumDescriptor const*, int> >, google::protobuf::(anonymous namespace)::PointerIntegerPairHash<std::pair<google::protobuf::EnumDescriptor const*, int> >, std::__detail::_Mod_range_hashing, std::__detail::_Default_ranged_hash, std::__detail::_Prime_rehash_policy, std::__detail::_Hashtable_traits<true, false, true> >::_M_insert<std::pair<std::pair<google::protobuf::EnumDescriptor const*, int> const, google::protobuf::EnumValueDescriptor const*> const&, std::__detail::_AllocNode<std::allocator<std::__detail::_Hash_node<std::pair<std::pair<google::protobuf::EnumDescriptor const*, int> const, google::protobuf::EnumValueDescriptor const*>, true> > > >(std::pair<std::pair<google::protobuf::EnumDescriptor const*, int> const, google::protobuf::EnumValueDescriptor const*> const&, std::__detail::_AllocNode<std::allocator<std::__detail::_Hash_node<std::pair<std::pair<google::protobuf::EnumDescriptor const*, int> const, google::protobuf::EnumValueDescriptor const*>, true> > > const&, std::integral_constant<bool, true>, unsigned long) [clone .isra.0] [clone .constprop.0] [clone .cold]
PUBLIC 27656 0 std::pair<std::__detail::_Node_iterator<std::pair<std::pair<void const*, char const*> const, google::protobuf::FieldDescriptor const*>, false, true>, bool> std::_Hashtable<std::pair<void const*, char const*>, std::pair<std::pair<void const*, char const*> const, google::protobuf::FieldDescriptor const*>, std::allocator<std::pair<std::pair<void const*, char const*> const, google::protobuf::FieldDescriptor const*> >, std::__detail::_Select1st, google::protobuf::(anonymous namespace)::PointerStringPairEqual, google::protobuf::(anonymous namespace)::PointerStringPairHash, std::__detail::_Mod_range_hashing, std::__detail::_Default_ranged_hash, std::__detail::_Prime_rehash_policy, std::__detail::_Hashtable_traits<true, false, true> >::_M_insert<std::pair<std::pair<void const*, char const*> const, google::protobuf::FieldDescriptor const*> const&, std::__detail::_AllocNode<std::allocator<std::__detail::_Hash_node<std::pair<std::pair<void const*, char const*> const, google::protobuf::FieldDescriptor const*>, true> > > >(std::pair<std::pair<void const*, char const*> const, google::protobuf::FieldDescriptor const*> const&, std::__detail::_AllocNode<std::allocator<std::__detail::_Hash_node<std::pair<std::pair<void const*, char const*> const, google::protobuf::FieldDescriptor const*>, true> > > const&, std::integral_constant<bool, true>, unsigned long) [clone .isra.0] [clone .constprop.0] [clone .cold]
PUBLIC 27692 0 std::_Hashtable<std::pair<void const*, char const*>, std::pair<std::pair<void const*, char const*> const, google::protobuf::FieldDescriptor const*>, std::allocator<std::pair<std::pair<void const*, char const*> const, google::protobuf::FieldDescriptor const*> >, std::__detail::_Select1st, google::protobuf::(anonymous namespace)::PointerStringPairEqual, google::protobuf::(anonymous namespace)::PointerStringPairHash, std::__detail::_Mod_range_hashing, std::__detail::_Default_ranged_hash, std::__detail::_Prime_rehash_policy, std::__detail::_Hashtable_traits<true, false, true> >::_Hashtable(unsigned long, google::protobuf::(anonymous namespace)::PointerStringPairHash const&, std::__detail::_Mod_range_hashing const&, std::__detail::_Default_ranged_hash const&, google::protobuf::(anonymous namespace)::PointerStringPairEqual const&, std::__detail::_Select1st const&, std::allocator<std::pair<std::pair<void const*, char const*> const, google::protobuf::FieldDescriptor const*> > const&) [clone .isra.0] [clone .constprop.0] [clone .cold]
PUBLIC 276a2 0 std::_Hashtable<std::pair<google::protobuf::EnumDescriptor const*, int>, std::pair<std::pair<google::protobuf::EnumDescriptor const*, int> const, google::protobuf::EnumValueDescriptor const*>, std::allocator<std::pair<std::pair<google::protobuf::EnumDescriptor const*, int> const, google::protobuf::EnumValueDescriptor const*> >, std::__detail::_Select1st, std::equal_to<std::pair<google::protobuf::EnumDescriptor const*, int> >, google::protobuf::(anonymous namespace)::PointerIntegerPairHash<std::pair<google::protobuf::EnumDescriptor const*, int> >, std::__detail::_Mod_range_hashing, std::__detail::_Default_ranged_hash, std::__detail::_Prime_rehash_policy, std::__detail::_Hashtable_traits<true, false, true> >::_Hashtable(unsigned long, google::protobuf::(anonymous namespace)::PointerIntegerPairHash<std::pair<google::protobuf::EnumDescriptor const*, int> > const&, std::__detail::_Mod_range_hashing const&, std::__detail::_Default_ranged_hash const&, std::equal_to<std::pair<google::protobuf::EnumDescriptor const*, int> > const&, std::__detail::_Select1st const&, std::allocator<std::pair<std::pair<google::protobuf::EnumDescriptor const*, int> const, google::protobuf::EnumValueDescriptor const*> > const&) [clone .isra.0] [clone .constprop.0] [clone .cold]
PUBLIC 276b2 0 std::default_delete<google::protobuf::UnknownFieldSet>::operator()(google::protobuf::UnknownFieldSet*) const [clone .isra.0] [clone .part.0]
PUBLIC 276e0 0 google::protobuf::(anonymous namespace)::SourceLocationCommentPrinter::~SourceLocationCommentPrinter()
PUBLIC 2775c 0 google::protobuf::(anonymous namespace)::ToJsonName(std::__cxx11::basic_string<char, std::char_traits<char>, std::allocator<char> > const&) [clone .cold]
PUBLIC 27774 0 google::protobuf::(anonymous namespace)::ToCamelCase(std::__cxx11::basic_string<char, std::char_traits<char>, std::allocator<char> > const&, bool) [clone .cold]
PUBLIC 2778c 0 google::protobuf::FileDescriptor::SyntaxName(google::protobuf::FileDescriptor::Syntax) [clone .cold]
PUBLIC 2779c 0 google::protobuf::FileDescriptorTables::AddAliasUnderParent(void const*, std::__cxx11::basic_string<char, std::char_traits<char>, std::allocator<char> > const&, google::protobuf::Symbol) [clone .cold]
PUBLIC 277d8 0 google::protobuf::FileDescriptorTables::AddFieldByNumber(google::protobuf::FieldDescriptor const*) [clone .cold]
PUBLIC 27816 0 google::protobuf::DescriptorPool::InternalAddGeneratedFile(void const*, int) [clone .cold]
PUBLIC 27826 0 google::protobuf::Descriptor::CopyJsonNameTo(google::protobuf::DescriptorProto*) const [clone .cold]
PUBLIC 27836 0 google::protobuf::FileDescriptor::CopyJsonNameTo(google::protobuf::FileDescriptorProto*) const [clone .cold]
PUBLIC 27846 0 google::protobuf::DescriptorBuilder::AddError(std::__cxx11::basic_string<char, std::char_traits<char>, std::allocator<char> > const&, google::protobuf::Message const&, google::protobuf::DescriptorPool::ErrorCollector::ErrorLocation, std::__cxx11::basic_string<char, std::char_traits<char>, std::allocator<char> > const&) [clone .cold]
PUBLIC 27866 0 google::protobuf::DescriptorBuilder::AddWarning(std::__cxx11::basic_string<char, std::char_traits<char>, std::allocator<char> > const&, google::protobuf::Message const&, google::protobuf::DescriptorPool::ErrorCollector::ErrorLocation, std::__cxx11::basic_string<char, std::char_traits<char>, std::allocator<char> > const&) [clone .cold]
PUBLIC 27876 0 google::protobuf::DescriptorBuilder::OptionInterpreter::SetInt32(int, int, google::protobuf::FieldDescriptor::Type, google::protobuf::UnknownFieldSet*) [clone .cold]
PUBLIC 27886 0 google::protobuf::DescriptorBuilder::OptionInterpreter::SetInt64(int, long, google::protobuf::FieldDescriptor::Type, google::protobuf::UnknownFieldSet*) [clone .cold]
PUBLIC 27896 0 google::protobuf::DescriptorBuilder::OptionInterpreter::SetUInt32(int, unsigned int, google::protobuf::FieldDescriptor::Type, google::protobuf::UnknownFieldSet*) [clone .cold]
PUBLIC 278a6 0 google::protobuf::DescriptorBuilder::OptionInterpreter::SetUInt64(int, unsigned long, google::protobuf::FieldDescriptor::Type, google::protobuf::UnknownFieldSet*) [clone .cold]
PUBLIC 278b6 0 google::protobuf::internal::LazyDescriptor::Set(google::protobuf::Descriptor const*) [clone .cold]
PUBLIC 278e6 0 google::protobuf::(anonymous namespace)::SourceLocationCommentPrinter::AddPreComment(std::__cxx11::basic_string<char, std::char_traits<char>, std::allocator<char> >*) [clone .cold]
PUBLIC 279b8 0 google::protobuf::FileDescriptorTables::FileDescriptorTables() [clone .cold]
PUBLIC 27a54 0 google::protobuf::DescriptorBuilder::AddNotDefinedError(std::__cxx11::basic_string<char, std::char_traits<char>, std::allocator<char> > const&, google::protobuf::Message const&, google::protobuf::DescriptorPool::ErrorCollector::ErrorLocation, std::__cxx11::basic_string<char, std::char_traits<char>, std::allocator<char> > const&) [clone .cold]
PUBLIC 27b76 0 google::protobuf::DescriptorBuilder::AddTwiceListedError(google::protobuf::FileDescriptorProto const&, int) [clone .cold]
PUBLIC 27ba0 0 google::protobuf::DescriptorBuilder::AddImportError(google::protobuf::FileDescriptorProto const&, int) [clone .cold]
PUBLIC 27be0 0 google::protobuf::DescriptorBuilder::OptionInterpreter::ExamineIfOptionIsSet(__gnu_cxx::__normal_iterator<google::protobuf::FieldDescriptor const* const*, std::vector<google::protobuf::FieldDescriptor const*, std::allocator<google::protobuf::FieldDescriptor const*> > >, __gnu_cxx::__normal_iterator<google::protobuf::FieldDescriptor const* const*, std::vector<google::protobuf::FieldDescriptor const*, std::allocator<google::protobuf::FieldDescriptor const*> > >, google::protobuf::FieldDescriptor const*, std::__cxx11::basic_string<char, std::char_traits<char>, std::allocator<char> > const&, google::protobuf::UnknownFieldSet const&) [clone .cold]
PUBLIC 27c46 0 google::protobuf::DescriptorPool::Tables::AllocateString(std::__cxx11::basic_string<char, std::char_traits<char>, std::allocator<char> > const&) [clone .cold]
PUBLIC 27c5c 0 google::protobuf::internal::LazyDescriptor::SetLazy(std::__cxx11::basic_string<char, std::char_traits<char>, std::allocator<char> > const&, google::protobuf::FileDescriptor const*) [clone .cold]
PUBLIC 27ccc 0 google::protobuf::DescriptorPool::Tables::AllocateFileTables() [clone .cold]
PUBLIC 27ce2 0 google::protobuf::DescriptorPool::NewPlaceholderFileWithMutexHeld(std::__cxx11::basic_string<char, std::char_traits<char>, std::allocator<char> > const&) const [clone .cold]
PUBLIC 27d00 0 google::protobuf::DescriptorPool::NewPlaceholderFile(std::__cxx11::basic_string<char, std::char_traits<char>, std::allocator<char> > const&) const [clone .cold]
PUBLIC 27d1f 0 google::protobuf::(anonymous namespace)::RetrieveOptionsAssumingRightPool(int, google::protobuf::Message const&, std::vector<std::__cxx11::basic_string<char, std::char_traits<char>, std::allocator<char> >, std::allocator<std::__cxx11::basic_string<char, std::char_traits<char>, std::allocator<char> > > >*) [clone .cold]
PUBLIC 27e12 0 google::protobuf::DescriptorBuilder::LogUnusedDependency(google::protobuf::FileDescriptorProto const&, google::protobuf::FileDescriptor const*) [clone .cold]
PUBLIC 27e42 0 google::protobuf::DescriptorBuilder::DetectMapConflicts(google::protobuf::Descriptor const*, google::protobuf::DescriptorProto const&) [clone .cold]
PUBLIC 27f16 0 google::protobuf::DescriptorBuilder::CheckEnumValueUniqueness(google::protobuf::EnumDescriptorProto const&, google::protobuf::EnumDescriptor const*) [clone .cold]
PUBLIC 2800c 0 google::protobuf::DescriptorBuilder::AddError(std::__cxx11::basic_string<char, std::char_traits<char>, std::allocator<char> > const&, google::protobuf::Message const&, google::protobuf::DescriptorPool::ErrorCollector::ErrorLocation, char const*) [clone .cold]
PUBLIC 28024 0 google::protobuf::DescriptorBuilder::ValidateSymbolName(std::__cxx11::basic_string<char, std::char_traits<char>, std::allocator<char> > const&, std::__cxx11::basic_string<char, std::char_traits<char>, std::allocator<char> > const&, google::protobuf::Message const&) [clone .cold]
PUBLIC 2804e 0 google::protobuf::DescriptorBuilder::ValidateMapEntry(google::protobuf::FieldDescriptor*, google::protobuf::FieldDescriptorProto const&) [clone .cold]
PUBLIC 2806a 0 google::protobuf::DescriptorBuilder::ValidateJSType(google::protobuf::FieldDescriptor*, google::protobuf::FieldDescriptorProto const&) [clone .cold]
PUBLIC 28086 0 google::protobuf::DescriptorBuilder::DescriptorBuilder(google::protobuf::DescriptorPool const*, google::protobuf::DescriptorPool::Tables*, google::protobuf::DescriptorPool::ErrorCollector*) [clone .cold]
PUBLIC 28120 0 google::protobuf::DescriptorBuilder::AddRecursiveImportError(google::protobuf::FileDescriptorProto const&, int) [clone .cold]
PUBLIC 28138 0 google::protobuf::DescriptorBuilder::OptionInterpreter::AddWithoutInterpreting(google::protobuf::UninterpretedOption const&, google::protobuf::Message*) [clone .cold]
PUBLIC 28160 0 google::protobuf::MethodDescriptor::CopyTo(google::protobuf::MethodDescriptorProto*) const [clone .cold]
PUBLIC 2818e 0 google::protobuf::DescriptorBuilder::ValidateProto3Field(google::protobuf::FieldDescriptor*, google::protobuf::FieldDescriptorProto const&) [clone .cold]
PUBLIC 28250 0 google::protobuf::DescriptorPool::NewPlaceholderWithMutexHeld(std::__cxx11::basic_string<char, std::char_traits<char>, std::allocator<char> > const&, google::protobuf::DescriptorPool::PlaceholderType) const [clone .cold]
PUBLIC 28268 0 google::protobuf::DescriptorPool::NewPlaceholder(std::__cxx11::basic_string<char, std::char_traits<char>, std::allocator<char> > const&, google::protobuf::DescriptorPool::PlaceholderType) const [clone .cold]
PUBLIC 28288 0 google::protobuf::FieldDescriptor::DefaultValueAsString[abi:cxx11](bool) const [clone .cold]
PUBLIC 282e2 0 google::protobuf::FieldDescriptor::CopyTo(google::protobuf::FieldDescriptorProto*) const [clone .cold]
PUBLIC 28344 0 google::protobuf::FileDescriptor::CopyTo(google::protobuf::FileDescriptorProto*) const [clone .cold]
PUBLIC 2835c 0 google::protobuf::DescriptorPool::IsSubSymbolOfBuiltType(std::__cxx11::basic_string<char, std::char_traits<char>, std::allocator<char> > const&) const [clone .cold]
PUBLIC 28372 0 google::protobuf::FileDescriptorTables::GetSourceLocation(std::vector<int, std::allocator<int> > const&, google::protobuf::SourceCodeInfo const*) const [clone .cold]
PUBLIC 2838a 0 google::protobuf::FileDescriptor::GetSourceLocation(std::vector<int, std::allocator<int> > const&, google::protobuf::SourceLocation*) const [clone .cold]
PUBLIC 2839a 0 google::protobuf::FileDescriptor::GetSourceLocation(google::protobuf::SourceLocation*) const [clone .cold]
PUBLIC 283b0 0 google::protobuf::Descriptor::GetSourceLocation(google::protobuf::SourceLocation*) const [clone .cold]
PUBLIC 283c6 0 google::protobuf::FieldDescriptor::GetSourceLocation(google::protobuf::SourceLocation*) const [clone .cold]
PUBLIC 283dc 0 google::protobuf::OneofDescriptor::GetSourceLocation(google::protobuf::SourceLocation*) const [clone .cold]
PUBLIC 283f2 0 google::protobuf::EnumDescriptor::GetSourceLocation(google::protobuf::SourceLocation*) const [clone .cold]
PUBLIC 28408 0 google::protobuf::MethodDescriptor::GetSourceLocation(google::protobuf::SourceLocation*) const [clone .cold]
PUBLIC 2841e 0 google::protobuf::ServiceDescriptor::GetSourceLocation(google::protobuf::SourceLocation*) const [clone .cold]
PUBLIC 28434 0 google::protobuf::EnumValueDescriptor::GetSourceLocation(google::protobuf::SourceLocation*) const [clone .cold]
PUBLIC 2844a 0 google::protobuf::FileDescriptorTables::BuildLocationsByPath(std::pair<google::protobuf::FileDescriptorTables const*, google::protobuf::SourceCodeInfo const*>*) [clone .cold]
PUBLIC 284c6 0 google::protobuf::DescriptorPool::Tables::Tables() [clone .cold]
PUBLIC 28860 0 google::protobuf::DescriptorPool::DescriptorPool() [clone .cold]
PUBLIC 28876 0 google::protobuf::DescriptorPool::DescriptorPool(google::protobuf::DescriptorDatabase*, google::protobuf::DescriptorPool::ErrorCollector*) [clone .cold]
PUBLIC 2888c 0 google::protobuf::DescriptorPool::internal_generated_pool() [clone .cold]
PUBLIC 288ae 0 google::protobuf::EnumDescriptor::FindValueByNumberCreatingIfUnknown(int) const [clone .cold]
PUBLIC 28912 0 google::protobuf::DescriptorPool::DescriptorPool(google::protobuf::DescriptorPool const*) [clone .cold]
PUBLIC 28928 0 google::protobuf::DescriptorBuilder::ValidateProto3Message(google::protobuf::Descriptor*, google::protobuf::DescriptorProto const&) [clone .cold]
PUBLIC 289b6 0 google::protobuf::DescriptorBuilder::ValidateEnumOptions(google::protobuf::EnumDescriptor*, google::protobuf::EnumDescriptorProto const&) [clone .cold]
PUBLIC 28a1a 0 google::protobuf::DescriptorBuilder::ValidateMessageOptions(google::protobuf::Descriptor*, google::protobuf::DescriptorProto const&) [clone .cold]
PUBLIC 28a36 0 google::protobuf::DescriptorBuilder::ValidateFileOptions(google::protobuf::FileDescriptor*, google::protobuf::FileDescriptorProto const&) [clone .cold]
PUBLIC 28a60 0 google::protobuf::DescriptorPool::Tables::AddSymbol(std::__cxx11::basic_string<char, std::char_traits<char>, std::allocator<char> > const&, google::protobuf::Symbol) [clone .cold]
PUBLIC 28a82 0 google::protobuf::DescriptorBuilder::AddSymbol(std::__cxx11::basic_string<char, std::char_traits<char>, std::allocator<char> > const&, void const*, std::__cxx11::basic_string<char, std::char_traits<char>, std::allocator<char> > const&, google::protobuf::Message const&, google::protobuf::Symbol) [clone .cold]
PUBLIC 28b90 0 google::protobuf::DescriptorBuilder::AddPackage(std::__cxx11::basic_string<char, std::char_traits<char>, std::allocator<char> > const&, google::protobuf::Message const&, google::protobuf::FileDescriptor const*) [clone .cold]
PUBLIC 28bf0 0 google::protobuf::DescriptorPool::Tables::AddFile(google::protobuf::FileDescriptor const*) [clone .cold]
PUBLIC 28c12 0 google::protobuf::ExistingFileMatchesProto(google::protobuf::FileDescriptor const*, google::protobuf::FileDescriptorProto const&) [clone .cold]
PUBLIC 28c48 0 google::protobuf::DescriptorBuilder::OptionInterpreter::OptionInterpreter(google::protobuf::DescriptorBuilder*) [clone .cold]
PUBLIC 28c7a 0 google::protobuf::DescriptorBuilder::AllocateOptions(google::protobuf::FileOptions const&, google::protobuf::FileDescriptor*) [clone .cold]
PUBLIC 28cc0 0 google::protobuf::DescriptorBuilder::BuildFieldOrExtension(google::protobuf::FieldDescriptorProto const&, google::protobuf::Descriptor*, google::protobuf::FieldDescriptor*, bool) [clone .cold]
PUBLIC 28d6a 0 google::protobuf::DescriptorBuilder::BuildExtensionRange(google::protobuf::DescriptorProto_ExtensionRange const&, google::protobuf::Descriptor const*, google::protobuf::Descriptor::ExtensionRange*) [clone .cold]
PUBLIC 28d92 0 google::protobuf::DescriptorBuilder::BuildOneof(google::protobuf::OneofDescriptorProto const&, google::protobuf::Descriptor*, google::protobuf::OneofDescriptor*) [clone .cold]
PUBLIC 28dba 0 google::protobuf::DescriptorBuilder::BuildEnumValue(google::protobuf::EnumValueDescriptorProto const&, google::protobuf::EnumDescriptor const*, google::protobuf::EnumValueDescriptor*) [clone .cold]
PUBLIC 28e74 0 google::protobuf::DescriptorBuilder::BuildEnum(google::protobuf::EnumDescriptorProto const&, google::protobuf::Descriptor const*, google::protobuf::EnumDescriptor*) [clone .cold]
PUBLIC 28f22 0 google::protobuf::DescriptorBuilder::BuildMessage(google::protobuf::DescriptorProto const&, google::protobuf::Descriptor const*, google::protobuf::Descriptor*) [clone .cold]
PUBLIC 28f9a 0 google::protobuf::DescriptorBuilder::BuildMethod(google::protobuf::MethodDescriptorProto const&, google::protobuf::ServiceDescriptor const*, google::protobuf::MethodDescriptor*) [clone .cold]
PUBLIC 28fc2 0 google::protobuf::DescriptorBuilder::BuildService(google::protobuf::ServiceDescriptorProto const&, void const*, google::protobuf::ServiceDescriptor*) [clone .cold]
PUBLIC 28fea 0 google::protobuf::DescriptorBuilder::OptionInterpreter::UpdateSourceCodeInfo(google::protobuf::SourceCodeInfo*) [clone .cold]
PUBLIC 2900c 0 google::protobuf::DescriptorBuilder::BuildFileImpl(google::protobuf::FileDescriptorProto const&) [clone .cold]
PUBLIC 291a2 0 google::protobuf::DescriptorPool::BuildFile(google::protobuf::FileDescriptorProto const&) [clone .cold]
PUBLIC 291d2 0 google::protobuf::DescriptorPool::BuildFileCollectingErrors(google::protobuf::FileDescriptorProto const&, google::protobuf::DescriptorPool::ErrorCollector*) [clone .cold]
PUBLIC 29202 0 google::protobuf::DescriptorPool::BuildFileFromDatabase(google::protobuf::FileDescriptorProto const&) const [clone .cold]
PUBLIC 29212 0 google::protobuf::DescriptorPool::TryFindFileInFallbackDatabase(std::__cxx11::basic_string<char, std::char_traits<char>, std::allocator<char> > const&) const [clone .cold]
PUBLIC 29222 0 google::protobuf::DescriptorPool::FindFileByName(std::__cxx11::basic_string<char, std::char_traits<char>, std::allocator<char> > const&) const [clone .cold]
PUBLIC 29242 0 google::protobuf::FileDescriptor::InternalDependenciesOnceInit() const [clone .cold]
PUBLIC 29252 0 google::protobuf::DescriptorPool::TryFindSymbolInFallbackDatabase(std::__cxx11::basic_string<char, std::char_traits<char>, std::allocator<char> > const&) const [clone .cold]
PUBLIC 29262 0 google::protobuf::DescriptorPool::Tables::FindByNameHelper(google::protobuf::DescriptorPool const*, std::__cxx11::basic_string<char, std::char_traits<char>, std::allocator<char> > const&) [clone .cold]
PUBLIC 29281 0 google::protobuf::(anonymous namespace)::RetrieveOptions(int, google::protobuf::Message const&, google::protobuf::DescriptorPool const*, std::vector<std::__cxx11::basic_string<char, std::char_traits<char>, std::allocator<char> >, std::allocator<std::__cxx11::basic_string<char, std::char_traits<char>, std::allocator<char> > > >*) [clone .constprop.0] [clone .cold]
PUBLIC 292bd 0 google::protobuf::(anonymous namespace)::FormatLineOptions(int, google::protobuf::Message const&, google::protobuf::DescriptorPool const*, std::__cxx11::basic_string<char, std::char_traits<char>, std::allocator<char> >*) [clone .cold]
PUBLIC 292e6 0 google::protobuf::MethodDescriptor::DebugString(int, std::__cxx11::basic_string<char, std::char_traits<char>, std::allocator<char> >*, google::protobuf::DebugStringOptions const&) const [clone .cold]
PUBLIC 293a4 0 google::protobuf::MethodDescriptor::DebugStringWithOptions[abi:cxx11](google::protobuf::DebugStringOptions const&) const [clone .cold]
PUBLIC 293ba 0 google::protobuf::ServiceDescriptor::DebugString(std::__cxx11::basic_string<char, std::char_traits<char>, std::allocator<char> >*, google::protobuf::DebugStringOptions const&) const [clone .cold]
PUBLIC 29460 0 google::protobuf::ServiceDescriptor::DebugStringWithOptions[abi:cxx11](google::protobuf::DebugStringOptions const&) const [clone .cold]
PUBLIC 29476 0 google::protobuf::(anonymous namespace)::FormatBracketedOptions(int, google::protobuf::Message const&, google::protobuf::DescriptorPool const*, std::__cxx11::basic_string<char, std::char_traits<char>, std::allocator<char> >*) [clone .constprop.0] [clone .cold]
PUBLIC 294aa 0 google::protobuf::EnumValueDescriptor::DebugString(int, std::__cxx11::basic_string<char, std::char_traits<char>, std::allocator<char> >*, google::protobuf::DebugStringOptions const&) const [clone .cold]
PUBLIC 29564 0 google::protobuf::EnumDescriptor::DebugString(int, std::__cxx11::basic_string<char, std::char_traits<char>, std::allocator<char> >*, google::protobuf::DebugStringOptions const&) const [clone .cold]
PUBLIC 29632 0 google::protobuf::EnumDescriptor::DebugStringWithOptions[abi:cxx11](google::protobuf::DebugStringOptions const&) const [clone .cold]
PUBLIC 29648 0 google::protobuf::Descriptor::DebugString(int, std::__cxx11::basic_string<char, std::char_traits<char>, std::allocator<char> >*, google::protobuf::DebugStringOptions const&, bool) const [clone .cold]
PUBLIC 29718 0 google::protobuf::FieldDescriptor::DebugString(int, std::__cxx11::basic_string<char, std::char_traits<char>, std::allocator<char> >*, google::protobuf::DebugStringOptions const&) const [clone .cold]
PUBLIC 29866 0 google::protobuf::FieldDescriptor::DebugStringWithOptions[abi:cxx11](google::protobuf::DebugStringOptions const&) const [clone .cold]
PUBLIC 2987c 0 google::protobuf::DescriptorBuilder::OptionInterpreter::SetAggregateOption(google::protobuf::FieldDescriptor const*, google::protobuf::UnknownFieldSet*) [clone .cold]
PUBLIC 299ae 0 google::protobuf::OneofDescriptor::DebugString(int, std::__cxx11::basic_string<char, std::char_traits<char>, std::allocator<char> >*, google::protobuf::DebugStringOptions const&) const [clone .cold]
PUBLIC 29a50 0 google::protobuf::OneofDescriptor::DebugStringWithOptions[abi:cxx11](google::protobuf::DebugStringOptions const&) const [clone .cold]
PUBLIC 29a66 0 google::protobuf::Descriptor::DebugStringWithOptions[abi:cxx11](google::protobuf::DebugStringOptions const&) const [clone .cold]
PUBLIC 29a7c 0 google::protobuf::FileDescriptor::DebugStringWithOptions[abi:cxx11](google::protobuf::DebugStringOptions const&) const [clone .cold]
PUBLIC 29ce4 0 google::protobuf::EnumValueDescriptor::DebugStringWithOptions[abi:cxx11](google::protobuf::DebugStringOptions const&) const [clone .cold]
PUBLIC 29cfa 0 google::protobuf::DescriptorPool::CrossLinkOnDemandHelper(std::__cxx11::basic_string<char, std::char_traits<char>, std::allocator<char> > const&, bool) const [clone .cold]
PUBLIC 29d10 0 google::protobuf::FieldDescriptor::InternalTypeOnceInit() const [clone .cold]
PUBLIC 29d64 0 google::protobuf::internal::LazyDescriptor::OnceInternal() [clone .cold]
PUBLIC 29d74 0 google::protobuf::DescriptorPool::FindFileContainingSymbol(std::__cxx11::basic_string<char, std::char_traits<char>, std::allocator<char> > const&) const [clone .cold]
PUBLIC 29d94 0 google::protobuf::DescriptorBuilder::FindSymbolNotEnforcingDepsHelper(google::protobuf::DescriptorPool const*, std::__cxx11::basic_string<char, std::char_traits<char>, std::allocator<char> > const&, bool) [clone .cold]
PUBLIC 29db4 0 google::protobuf::DescriptorBuilder::LookupSymbolNoPlaceholder(std::__cxx11::basic_string<char, std::char_traits<char>, std::allocator<char> > const&, std::__cxx11::basic_string<char, std::char_traits<char>, std::allocator<char> > const&, google::protobuf::DescriptorBuilder::ResolveMode, bool) [clone .cold]
PUBLIC 29df8 0 google::protobuf::DescriptorBuilder::CrossLinkMethod(google::protobuf::MethodDescriptor*, google::protobuf::MethodDescriptorProto const&) [clone .cold]
PUBLIC 29e4c 0 google::protobuf::DescriptorBuilder::CrossLinkField(google::protobuf::FieldDescriptor*, google::protobuf::FieldDescriptorProto const&) [clone .cold]
PUBLIC 2a01e 0 google::protobuf::DescriptorBuilder::CrossLinkMessage(google::protobuf::Descriptor*, google::protobuf::DescriptorProto const&) [clone .cold]
PUBLIC 2a0ba 0 google::protobuf::DescriptorBuilder::OptionInterpreter::SetOptionValue(google::protobuf::FieldDescriptor const*, google::protobuf::UnknownFieldSet*) [clone .cold]
PUBLIC 2a490 0 google::protobuf::DescriptorBuilder::OptionInterpreter::InterpretSingleOption(google::protobuf::Message*, std::vector<int, std::allocator<int> > const&, std::vector<int, std::allocator<int> > const&) [clone .cold]
PUBLIC 2a712 0 google::protobuf::DescriptorPool::TryFindExtensionInFallbackDatabase(google::protobuf::Descriptor const*, int) const [clone .cold]
PUBLIC 2a722 0 google::protobuf::DescriptorPool::FindExtensionByNumber(google::protobuf::Descriptor const*, int) const [clone .cold]
PUBLIC 2a742 0 google::protobuf::DescriptorPool::FindAllExtensions(google::protobuf::Descriptor const*, std::vector<google::protobuf::FieldDescriptor const*, std::allocator<google::protobuf::FieldDescriptor const*> >*) const [clone .cold]
PUBLIC 2a770 0 google::protobuf::DescriptorPoolDatabase::FindAllExtensionNumbers(std::__cxx11::basic_string<char, std::char_traits<char>, std::allocator<char> > const&, std::vector<int, std::allocator<int> >*) [clone .cold]
PUBLIC 2a788 0 google::protobuf::MergedDescriptorDatabase::MergedDescriptorDatabase(std::vector<google::protobuf::DescriptorDatabase*, std::allocator<google::protobuf::DescriptorDatabase*> > const&) [clone .cold]
PUBLIC 2a798 0 google::protobuf::MergedDescriptorDatabase::MergedDescriptorDatabase(google::protobuf::DescriptorDatabase*, google::protobuf::DescriptorDatabase*) [clone .cold]
PUBLIC 2a7b6 0 google::protobuf::(anonymous namespace)::RecordMessageNames(google::protobuf::DescriptorProto const&, std::__cxx11::basic_string<char, std::char_traits<char>, std::allocator<char> > const&, std::set<std::__cxx11::basic_string<char, std::char_traits<char>, std::allocator<char> >, std::less<std::__cxx11::basic_string<char, std::char_traits<char>, std::allocator<char> > >, std::allocator<std::__cxx11::basic_string<char, std::char_traits<char>, std::allocator<char> > > >*) [clone .cold]
PUBLIC 2a7dc 0 google::protobuf::EncodedDescriptorDatabase::Add(void const*, int) [clone .cold]
PUBLIC 2a80a 0 google::protobuf::MergedDescriptorDatabase::FindAllExtensionNumbers(std::__cxx11::basic_string<char, std::char_traits<char>, std::allocator<char> > const&, std::vector<int, std::allocator<int> >*) [clone .cold]
PUBLIC 2a830 0 bool google::protobuf::(anonymous namespace)::ForAllFileProtos<google::protobuf::DescriptorDatabase::FindAllPackageNames(std::vector<std::__cxx11::basic_string<char, std::char_traits<char>, std::allocator<char> >, std::allocator<std::__cxx11::basic_string<char, std::char_traits<char>, std::allocator<char> > > >*)::{lambda(google::protobuf::FileDescriptorProto const&, std::set<std::__cxx11::basic_string<char, std::char_traits<char>, std::allocator<char> >, std::less<std::__cxx11::basic_string<char, std::char_traits<char>, std::allocator<char> > >, std::allocator<std::__cxx11::basic_string<char, std::char_traits<char>, std::allocator<char> > > >*)#1}>(google::protobuf::DescriptorDatabase*, google::protobuf::DescriptorDatabase::FindAllPackageNames(std::vector<std::__cxx11::basic_string<char, std::char_traits<char>, std::allocator<char> >, std::allocator<std::__cxx11::basic_string<char, std::char_traits<char>, std::allocator<char> > > >*)::{lambda(google::protobuf::FileDescriptorProto const&, std::set<std::__cxx11::basic_string<char, std::char_traits<char>, std::allocator<char> >, std::less<std::__cxx11::basic_string<char, std::char_traits<char>, std::allocator<char> > >, std::allocator<std::__cxx11::basic_string<char, std::char_traits<char>, std::allocator<char> > > >*)#1}, std::vector<std::__cxx11::basic_string<char, std::char_traits<char>, std::allocator<char> >, std::allocator<std::__cxx11::basic_string<char, std::char_traits<char>, std::allocator<char> > > >*) [clone .isra.0] [clone .cold]
PUBLIC 2a85f 0 bool google::protobuf::(anonymous namespace)::ForAllFileProtos<google::protobuf::DescriptorDatabase::FindAllMessageNames(std::vector<std::__cxx11::basic_string<char, std::char_traits<char>, std::allocator<char> >, std::allocator<std::__cxx11::basic_string<char, std::char_traits<char>, std::allocator<char> > > >*)::{lambda(google::protobuf::FileDescriptorProto const&, std::set<std::__cxx11::basic_string<char, std::char_traits<char>, std::allocator<char> >, std::less<std::__cxx11::basic_string<char, std::char_traits<char>, std::allocator<char> > >, std::allocator<std::__cxx11::basic_string<char, std::char_traits<char>, std::allocator<char> > > >*)#1}>(google::protobuf::DescriptorDatabase*, google::protobuf::DescriptorDatabase::FindAllMessageNames(std::vector<std::__cxx11::basic_string<char, std::char_traits<char>, std::allocator<char> >, std::allocator<std::__cxx11::basic_string<char, std::char_traits<char>, std::allocator<char> > > >*)::{lambda(google::protobuf::FileDescriptorProto const&, std::set<std::__cxx11::basic_string<char, std::char_traits<char>, std::allocator<char> >, std::less<std::__cxx11::basic_string<char, std::char_traits<char>, std::allocator<char> > >, std::allocator<std::__cxx11::basic_string<char, std::char_traits<char>, std::allocator<char> > > >*)#1}, std::vector<std::__cxx11::basic_string<char, std::char_traits<char>, std::allocator<char> >, std::allocator<std::__cxx11::basic_string<char, std::char_traits<char>, std::allocator<char> > > >*) [clone .isra.0] [clone .cold]
PUBLIC 2a88e 0 google::protobuf::EncodedDescriptorDatabase::FindNameOfFileContainingSymbol(std::__cxx11::basic_string<char, std::char_traits<char>, std::allocator<char> > const&, std::__cxx11::basic_string<char, std::char_traits<char>, std::allocator<char> >*) [clone .cold]
PUBLIC 2a8a6 0 google::protobuf::MergedDescriptorDatabase::FindFileContainingSymbol(std::__cxx11::basic_string<char, std::char_traits<char>, std::allocator<char> > const&, google::protobuf::FileDescriptorProto*) [clone .cold]
PUBLIC 2a8b6 0 google::protobuf::MergedDescriptorDatabase::FindFileContainingExtension(std::__cxx11::basic_string<char, std::char_traits<char>, std::allocator<char> > const&, int, google::protobuf::FileDescriptorProto*) [clone .cold]
PUBLIC 2a8c6 0 google::protobuf::SimpleDescriptorDatabase::Add(google::protobuf::FileDescriptorProto const&) [clone .cold]
PUBLIC 2a8dc 0 google::protobuf::SourceCodeInfo_Location::SourceCodeInfo_Location(google::protobuf::Arena*) [clone .cold]
PUBLIC 2a8fe 0 google::protobuf::GeneratedCodeInfo_Annotation::GeneratedCodeInfo_Annotation(google::protobuf::Arena*) [clone .cold]
PUBLIC 2a910 0 google::protobuf::DescriptorProto_ExtensionRange* google::protobuf::Arena::CreateMaybeMessage<google::protobuf::DescriptorProto_ExtensionRange>(google::protobuf::Arena*) [clone .cold]
PUBLIC 2a926 0 google::protobuf::DescriptorProto_ReservedRange* google::protobuf::Arena::CreateMaybeMessage<google::protobuf::DescriptorProto_ReservedRange>(google::protobuf::Arena*) [clone .cold]
PUBLIC 2a93c 0 google::protobuf::FieldDescriptorProto* google::protobuf::Arena::CreateMaybeMessage<google::protobuf::FieldDescriptorProto>(google::protobuf::Arena*) [clone .cold]
PUBLIC 2a952 0 google::protobuf::OneofDescriptorProto* google::protobuf::Arena::CreateMaybeMessage<google::protobuf::OneofDescriptorProto>(google::protobuf::Arena*) [clone .cold]
PUBLIC 2a968 0 google::protobuf::EnumDescriptorProto_EnumReservedRange* google::protobuf::Arena::CreateMaybeMessage<google::protobuf::EnumDescriptorProto_EnumReservedRange>(google::protobuf::Arena*) [clone .cold]
PUBLIC 2a97e 0 google::protobuf::EnumValueDescriptorProto* google::protobuf::Arena::CreateMaybeMessage<google::protobuf::EnumValueDescriptorProto>(google::protobuf::Arena*) [clone .cold]
PUBLIC 2a994 0 google::protobuf::MethodDescriptorProto* google::protobuf::Arena::CreateMaybeMessage<google::protobuf::MethodDescriptorProto>(google::protobuf::Arena*) [clone .cold]
PUBLIC 2a9aa 0 google::protobuf::UninterpretedOption_NamePart* google::protobuf::Arena::CreateMaybeMessage<google::protobuf::UninterpretedOption_NamePart>(google::protobuf::Arena*) [clone .cold]
PUBLIC 2a9c0 0 google::protobuf::SourceCodeInfo_Location* google::protobuf::Arena::CreateMaybeMessage<google::protobuf::SourceCodeInfo_Location>(google::protobuf::Arena*) [clone .cold]
PUBLIC 2a9d6 0 google::protobuf::GeneratedCodeInfo_Annotation* google::protobuf::Arena::CreateMaybeMessage<google::protobuf::GeneratedCodeInfo_Annotation>(google::protobuf::Arena*) [clone .cold]
PUBLIC 2a9ec 0 google::protobuf::UninterpretedOption::UninterpretedOption(google::protobuf::Arena*) [clone .cold]
PUBLIC 2a9fe 0 google::protobuf::UninterpretedOption* google::protobuf::Arena::CreateMaybeMessage<google::protobuf::UninterpretedOption>(google::protobuf::Arena*) [clone .cold]
PUBLIC 2aa14 0 google::protobuf::ExtensionRangeOptions::ExtensionRangeOptions(google::protobuf::Arena*) [clone .cold]
PUBLIC 2aa2e 0 google::protobuf::ExtensionRangeOptions* google::protobuf::Arena::CreateMaybeMessage<google::protobuf::ExtensionRangeOptions>(google::protobuf::Arena*) [clone .cold]
PUBLIC 2aa44 0 google::protobuf::FileOptions::FileOptions(google::protobuf::Arena*) [clone .cold]
PUBLIC 2aa5e 0 google::protobuf::FileOptions* google::protobuf::Arena::CreateMaybeMessage<google::protobuf::FileOptions>(google::protobuf::Arena*) [clone .cold]
PUBLIC 2aa74 0 google::protobuf::MessageOptions::MessageOptions(google::protobuf::Arena*) [clone .cold]
PUBLIC 2aa8e 0 google::protobuf::MessageOptions* google::protobuf::Arena::CreateMaybeMessage<google::protobuf::MessageOptions>(google::protobuf::Arena*) [clone .cold]
PUBLIC 2aaa4 0 google::protobuf::FieldOptions::FieldOptions(google::protobuf::Arena*) [clone .cold]
PUBLIC 2aabe 0 google::protobuf::FieldOptions* google::protobuf::Arena::CreateMaybeMessage<google::protobuf::FieldOptions>(google::protobuf::Arena*) [clone .cold]
PUBLIC 2aad4 0 google::protobuf::OneofOptions::OneofOptions(google::protobuf::Arena*) [clone .cold]
PUBLIC 2aaee 0 google::protobuf::OneofOptions* google::protobuf::Arena::CreateMaybeMessage<google::protobuf::OneofOptions>(google::protobuf::Arena*) [clone .cold]
PUBLIC 2ab04 0 google::protobuf::EnumOptions::EnumOptions(google::protobuf::Arena*) [clone .cold]
PUBLIC 2ab1e 0 google::protobuf::EnumOptions* google::protobuf::Arena::CreateMaybeMessage<google::protobuf::EnumOptions>(google::protobuf::Arena*) [clone .cold]
PUBLIC 2ab34 0 google::protobuf::EnumValueOptions::EnumValueOptions(google::protobuf::Arena*) [clone .cold]
PUBLIC 2ab4e 0 google::protobuf::EnumValueOptions* google::protobuf::Arena::CreateMaybeMessage<google::protobuf::EnumValueOptions>(google::protobuf::Arena*) [clone .cold]
PUBLIC 2ab64 0 google::protobuf::ServiceOptions::ServiceOptions(google::protobuf::Arena*) [clone .cold]
PUBLIC 2ab7e 0 google::protobuf::ServiceOptions* google::protobuf::Arena::CreateMaybeMessage<google::protobuf::ServiceOptions>(google::protobuf::Arena*) [clone .cold]
PUBLIC 2ab94 0 google::protobuf::MethodOptions::MethodOptions(google::protobuf::Arena*) [clone .cold]
PUBLIC 2abae 0 google::protobuf::MethodOptions* google::protobuf::Arena::CreateMaybeMessage<google::protobuf::MethodOptions>(google::protobuf::Arena*) [clone .cold]
PUBLIC 2abc4 0 google::protobuf::EnumDescriptorProto::EnumDescriptorProto(google::protobuf::Arena*) [clone .cold]
PUBLIC 2abe6 0 google::protobuf::EnumDescriptorProto* google::protobuf::Arena::CreateMaybeMessage<google::protobuf::EnumDescriptorProto>(google::protobuf::Arena*) [clone .cold]
PUBLIC 2abfc 0 google::protobuf::DescriptorProto::DescriptorProto(google::protobuf::Arena*) [clone .cold]
PUBLIC 2ac52 0 google::protobuf::DescriptorProto* google::protobuf::Arena::CreateMaybeMessage<google::protobuf::DescriptorProto>(google::protobuf::Arena*) [clone .cold]
PUBLIC 2ac68 0 google::protobuf::ServiceDescriptorProto::ServiceDescriptorProto(google::protobuf::Arena*) [clone .cold]
PUBLIC 2ac7a 0 google::protobuf::ServiceDescriptorProto* google::protobuf::Arena::CreateMaybeMessage<google::protobuf::ServiceDescriptorProto>(google::protobuf::Arena*) [clone .cold]
PUBLIC 2ac90 0 google::protobuf::FileDescriptorProto::FileDescriptorProto(google::protobuf::Arena*) [clone .cold]
PUBLIC 2acdc 0 google::protobuf::FileDescriptorProto* google::protobuf::Arena::CreateMaybeMessage<google::protobuf::FileDescriptorProto>(google::protobuf::Arena*) [clone .cold]
PUBLIC 2acf2 0 google::protobuf::SourceCodeInfo::SourceCodeInfo(google::protobuf::Arena*) [clone .cold]
PUBLIC 2ad04 0 google::protobuf::SourceCodeInfo* google::protobuf::Arena::CreateMaybeMessage<google::protobuf::SourceCodeInfo>(google::protobuf::Arena*) [clone .cold]
PUBLIC 2ad1a 0 google::protobuf::FileDescriptorSet::FileDescriptorSet(google::protobuf::Arena*) [clone .cold]
PUBLIC 2ad2c 0 google::protobuf::FileDescriptorSet* google::protobuf::Arena::CreateMaybeMessage<google::protobuf::FileDescriptorSet>(google::protobuf::Arena*) [clone .cold]
PUBLIC 2ad42 0 google::protobuf::GeneratedCodeInfo::GeneratedCodeInfo(google::protobuf::Arena*) [clone .cold]
PUBLIC 2ad54 0 google::protobuf::GeneratedCodeInfo* google::protobuf::Arena::CreateMaybeMessage<google::protobuf::GeneratedCodeInfo>(google::protobuf::Arena*) [clone .cold]
PUBLIC 2ad6a 0 google::protobuf::GeneratedCodeInfo_Annotation::GeneratedCodeInfo_Annotation(google::protobuf::GeneratedCodeInfo_Annotation const&) [clone .cold]
PUBLIC 2ad7a 0 google::protobuf::SourceCodeInfo_Location::SourceCodeInfo_Location(google::protobuf::SourceCodeInfo_Location const&) [clone .cold]
PUBLIC 2ad9a 0 google::protobuf::OneofOptions::OneofOptions(google::protobuf::OneofOptions const&) [clone .cold]
PUBLIC 2adb2 0 google::protobuf::OneofDescriptorProto::OneofDescriptorProto(google::protobuf::OneofDescriptorProto const&) [clone .cold]
PUBLIC 2adc8 0 google::protobuf::ExtensionRangeOptions::ExtensionRangeOptions(google::protobuf::ExtensionRangeOptions const&) [clone .cold]
PUBLIC 2ade0 0 google::protobuf::DescriptorProto_ExtensionRange::DescriptorProto_ExtensionRange(google::protobuf::DescriptorProto_ExtensionRange const&) [clone .cold]
PUBLIC 2adf6 0 google::protobuf::EnumValueOptions::EnumValueOptions(google::protobuf::EnumValueOptions const&) [clone .cold]
PUBLIC 2ae0e 0 google::protobuf::EnumValueDescriptorProto::EnumValueDescriptorProto(google::protobuf::EnumValueDescriptorProto const&) [clone .cold]
PUBLIC 2ae24 0 google::protobuf::MessageOptions::MessageOptions(google::protobuf::MessageOptions const&) [clone .cold]
PUBLIC 2ae3c 0 google::protobuf::EnumOptions::EnumOptions(google::protobuf::EnumOptions const&) [clone .cold]
PUBLIC 2ae54 0 google::protobuf::EnumDescriptorProto::EnumDescriptorProto(google::protobuf::EnumDescriptorProto const&) [clone .cold]
PUBLIC 2ae82 0 google::protobuf::ServiceOptions::ServiceOptions(google::protobuf::ServiceOptions const&) [clone .cold]
PUBLIC 2ae9a 0 google::protobuf::MethodOptions::MethodOptions(google::protobuf::MethodOptions const&) [clone .cold]
PUBLIC 2aeb2 0 google::protobuf::MethodDescriptorProto::MethodDescriptorProto(google::protobuf::MethodDescriptorProto const&) [clone .cold]
PUBLIC 2aec8 0 google::protobuf::FieldOptions::FieldOptions(google::protobuf::FieldOptions const&) [clone .cold]
PUBLIC 2aee0 0 google::protobuf::FieldDescriptorProto::FieldDescriptorProto(google::protobuf::FieldDescriptorProto const&) [clone .cold]
PUBLIC 2aef6 0 google::protobuf::ServiceDescriptorProto::ServiceDescriptorProto(google::protobuf::ServiceDescriptorProto const&) [clone .cold]
PUBLIC 2af14 0 google::protobuf::DescriptorProto::DescriptorProto(google::protobuf::DescriptorProto const&) [clone .cold]
PUBLIC 2af74 0 google::protobuf::FileOptions::FileOptions(google::protobuf::FileOptions const&) [clone .cold]
PUBLIC 2af8c 0 google::protobuf::UninterpretedOption::UninterpretedOption(google::protobuf::UninterpretedOption const&) [clone .cold]
PUBLIC 2af9c 0 google::protobuf::FileDescriptorSet::FileDescriptorSet(google::protobuf::FileDescriptorSet const&) [clone .cold]
PUBLIC 2afac 0 google::protobuf::SourceCodeInfo::SourceCodeInfo(google::protobuf::SourceCodeInfo const&) [clone .cold]
PUBLIC 2afbc 0 google::protobuf::FileDescriptorProto::FileDescriptorProto(google::protobuf::FileDescriptorProto const&) [clone .cold]
PUBLIC 2b022 0 google::protobuf::GeneratedCodeInfo::GeneratedCodeInfo(google::protobuf::GeneratedCodeInfo const&) [clone .cold]
PUBLIC 2b032 0 google::protobuf::DynamicMessageFactory::DynamicMessageFactory() [clone .cold]
PUBLIC 2b042 0 google::protobuf::DynamicMessageFactory::DynamicMessageFactory(google::protobuf::DescriptorPool const*) [clone .cold]
PUBLIC 2b052 0 google::protobuf::DynamicMessageFactory::GetPrototypeNoLock(google::protobuf::Descriptor const*) [clone .cold]
PUBLIC 2b0f6 0 google::protobuf::DynamicMessage::CrossLinkPrototypes() [clone .cold]
PUBLIC 2b106 0 google::protobuf::DynamicMessageFactory::GetPrototype(google::protobuf::Descriptor const*) [clone .cold]
PUBLIC 2b11c 0 google::protobuf::internal::ExtensionSet::ParseField(unsigned int, google::protobuf::io::CodedInputStream*, google::protobuf::Message const*, google::protobuf::UnknownFieldSet*) [clone .cold]
PUBLIC 2b14e 0 google::protobuf::internal::ExtensionSet::ParseMessageSetItem(google::protobuf::io::CodedInputStream*, google::protobuf::internal::ExtensionFinder*, google::protobuf::internal::MessageSetFieldSkipper*) [clone .cold]
PUBLIC 2b16e 0 google::protobuf::internal::ExtensionSet::ParseMessageSet(google::protobuf::io::CodedInputStream*, google::protobuf::Message const*, google::protobuf::UnknownFieldSet*) [clone .cold]
PUBLIC 2b1a0 0 google::protobuf::internal::DescriptorPoolExtensionFinder::Find(int, google::protobuf::internal::ExtensionInfo*) [clone .cold]
PUBLIC 2b1b0 0 google::protobuf::internal::ExtensionSet::AddMessage(google::protobuf::FieldDescriptor const*, google::protobuf::MessageFactory*) [clone .cold]
PUBLIC 2b1c0 0 google::protobuf::internal::ExtensionSet::ParseField(unsigned long, char const*, google::protobuf::Message const*, google::protobuf::internal::InternalMetadata*, google::protobuf::internal::ParseContext*) [clone .cold]
PUBLIC 2b200 0 google::protobuf::(anonymous namespace)::ReportReflectionUsageError(google::protobuf::Descriptor const*, google::protobuf::FieldDescriptor const*, char const*, char const*) [clone .cold]
PUBLIC 2b210 0 google::protobuf::(anonymous namespace)::ReportReflectionUsageEnumTypeError(google::protobuf::Descriptor const*, google::protobuf::FieldDescriptor const*, char const*, google::protobuf::EnumValueDescriptor const*) [clone .cold]
PUBLIC 2b220 0 google::protobuf::(anonymous namespace)::ReportReflectionUsageTypeError(google::protobuf::Descriptor const*, google::protobuf::FieldDescriptor const*, char const*, google::protobuf::FieldDescriptor::CppType) [clone .cold]
PUBLIC 2b230 0 google::protobuf::Reflection::SetRepeatedString(google::protobuf::Message*, google::protobuf::FieldDescriptor const*, int, std::__cxx11::basic_string<char, std::char_traits<char>, std::allocator<char> >) const [clone .cold]
PUBLIC 2b248 0 google::protobuf::Reflection::AddString(google::protobuf::Message*, google::protobuf::FieldDescriptor const*, std::__cxx11::basic_string<char, std::char_traits<char>, std::allocator<char> >) const [clone .cold]
PUBLIC 2b260 0 google::protobuf::Reflection::RepeatedFieldData(google::protobuf::Message*, google::protobuf::FieldDescriptor const*, google::protobuf::FieldDescriptor::CppType, google::protobuf::Descriptor const*) const [clone .cold]
PUBLIC 2b29a 0 google::protobuf::Reflection::MutableRawRepeatedField(google::protobuf::Message*, google::protobuf::FieldDescriptor const*, google::protobuf::FieldDescriptor::CppType, int, google::protobuf::Descriptor const*) const [clone .cold]
PUBLIC 2b2aa 0 google::protobuf::Reflection::GetRawRepeatedField(google::protobuf::Message const&, google::protobuf::FieldDescriptor const*, google::protobuf::FieldDescriptor::CppType, int, google::protobuf::Descriptor const*) const [clone .cold]
PUBLIC 2b2ca 0 google::protobuf::Reflection::InsertOrLookupMapValue(google::protobuf::Message*, google::protobuf::FieldDescriptor const*, google::protobuf::MapKey const&, google::protobuf::MapValueRef*) const [clone .cold]
PUBLIC 2b2e2 0 google::protobuf::Reflection::MapBegin(google::protobuf::Message*, google::protobuf::FieldDescriptor const*) const [clone .cold]
PUBLIC 2b336 0 google::protobuf::Reflection::MapEnd(google::protobuf::Message*, google::protobuf::FieldDescriptor const*) const [clone .cold]
PUBLIC 2b38a 0 google::protobuf::Reflection::FieldSize(google::protobuf::Message const&, google::protobuf::FieldDescriptor const*) const [clone .cold]
PUBLIC 2b39a 0 google::protobuf::(anonymous namespace)::AssignDescriptorsImpl(google::protobuf::internal::DescriptorTable const*, bool) [clone .cold]
PUBLIC 2b3e4 0 google::protobuf::Reflection::SetString(google::protobuf::Message*, google::protobuf::FieldDescriptor const*, std::__cxx11::basic_string<char, std::char_traits<char>, std::allocator<char> >) const [clone .cold]
PUBLIC 2b3fc 0 google::protobuf::Reflection::SwapOneofField(google::protobuf::Message*, google::protobuf::Message*, google::protobuf::OneofDescriptor const*) const [clone .cold]
PUBLIC 2b44a 0 google::protobuf::Reflection::SwapField(google::protobuf::Message*, google::protobuf::Message*, google::protobuf::FieldDescriptor const*) const [clone .cold]
PUBLIC 2b482 0 google::protobuf::Reflection::Swap(google::protobuf::Message*, google::protobuf::Message*) const [clone .cold]
PUBLIC 2b4b6 0 google::protobuf::Reflection::SwapFields(google::protobuf::Message*, google::protobuf::Message*, std::vector<google::protobuf::FieldDescriptor const*, std::allocator<google::protobuf::FieldDescriptor const*> > const&) const [clone .cold]
PUBLIC 2b506 0 std::_Rb_tree<google::protobuf::internal::KeyView<google::protobuf::MapKey>*, google::protobuf::internal::KeyView<google::protobuf::MapKey>*, std::_Identity<google::protobuf::internal::KeyView<google::protobuf::MapKey>*>, google::protobuf::internal::DerefCompare<google::protobuf::internal::KeyView<google::protobuf::MapKey> >, google::protobuf::internal::MapAllocator<google::protobuf::internal::KeyView<google::protobuf::MapKey>*> >::_M_lower_bound(std::_Rb_tree_node<google::protobuf::internal::KeyView<google::protobuf::MapKey>*>*, std::_Rb_tree_node_base*, google::protobuf::internal::KeyView<google::protobuf::MapKey>* const&) [clone .isra.0] [clone .cold]
PUBLIC 2b536 0 google::protobuf::internal::DynamicMapField::SetMapIteratorValue(google::protobuf::MapIterator*) const [clone .cold]
PUBLIC 2b556 0 google::protobuf::internal::DynamicMapField::DynamicMapField(google::protobuf::Message const*) [clone .cold]
PUBLIC 2b586 0 google::protobuf::internal::DynamicMapField::DynamicMapField(google::protobuf::Message const*, google::protobuf::Arena*) [clone .cold]
PUBLIC 2b5b6 0 google::protobuf::internal::DynamicMapField::SyncRepeatedFieldWithMapNoLock() const [clone .cold]
PUBLIC 2b6e8 0 google::protobuf::internal::DynamicMapField::SyncMapWithRepeatedFieldNoLock() const [clone .cold]
PUBLIC 2b72c 0 google::protobuf::internal::DynamicMapField::MergeFrom(google::protobuf::internal::MapFieldBase const&) [clone .cold]
PUBLIC 2b998 0 google::protobuf::internal::DynamicMapField::Swap(google::protobuf::internal::MapFieldBase*) [clone .cold]
PUBLIC 2ba60 0 google::protobuf::Message::SetCachedSize(int) const [clone .cold]
PUBLIC 2ba70 0 google::protobuf::Message::MergeFrom(google::protobuf::Message const&) [clone .cold]
PUBLIC 2ba8a 0 google::protobuf::Message::CopyFrom(google::protobuf::Message const&) [clone .cold]
PUBLIC 2baa4 0 google::protobuf::(anonymous namespace)::GeneratedMessageFactory::singleton() [clone .cold]
PUBLIC 2bab8 0 google::protobuf::Message::FindInitializationErrors(std::vector<std::__cxx11::basic_string<char, std::char_traits<char>, std::allocator<char> >, std::allocator<std::__cxx11::basic_string<char, std::char_traits<char>, std::allocator<char> > > >*) const [clone .cold]
PUBLIC 2bace 0 google::protobuf::Message::InitializationErrorString[abi:cxx11]() const [clone .cold]
PUBLIC 2bb18 0 google::protobuf::Message::CheckInitialized() const [clone .cold]
PUBLIC 2bb3c 0 google::protobuf::Reflection::RepeatedFieldAccessor(google::protobuf::FieldDescriptor const*) const [clone .cold]
PUBLIC 2bb5c 0 google::protobuf::(anonymous namespace)::GeneratedMessageFactory::GetPrototype(google::protobuf::Descriptor const*) [clone .cold]
PUBLIC 2bb8c 0 google::protobuf::MessageFactory::InternalRegisterGeneratedFile(google::protobuf::internal::DescriptorTable const*) [clone .cold]
PUBLIC 2bbbe 0 google::protobuf::MessageFactory::InternalRegisterGeneratedMessage(google::protobuf::Descriptor const*, google::protobuf::Message const*) [clone .cold]
PUBLIC 2bbf0 0 google::protobuf::internal::GenericSwap(google::protobuf::Message*, google::protobuf::Message*) [clone .cold]
PUBLIC 2bc06 0 google::protobuf::internal::GetReflectionOrDie(google::protobuf::Message const&) [clone .cold]
PUBLIC 2bc26 0 google::protobuf::internal::ReflectionOps::Merge(google::protobuf::Message const&, google::protobuf::Message*) [clone .cold]
PUBLIC 2bc92 0 google::protobuf::internal::ReflectionOps::Clear(google::protobuf::Message*) [clone .cold]
PUBLIC 2bca8 0 google::protobuf::internal::ReflectionOps::IsInitialized(google::protobuf::Message const&) [clone .cold]
PUBLIC 2bda0 0 google::protobuf::internal::ReflectionOps::DiscardUnknownFields(google::protobuf::Message*) [clone .cold]
PUBLIC 2be93 0 google::protobuf::internal::SubMessagePrefix(std::__cxx11::basic_string<char, std::char_traits<char>, std::allocator<char> > const&, google::protobuf::FieldDescriptor const*, int) [clone .cold]
PUBLIC 2beb8 0 google::protobuf::internal::ReflectionOps::FindInitializationErrors(google::protobuf::Message const&, std::__cxx11::basic_string<char, std::char_traits<char>, std::allocator<char> > const&, std::vector<std::__cxx11::basic_string<char, std::char_traits<char>, std::allocator<char> >, std::allocator<std::__cxx11::basic_string<char, std::char_traits<char>, std::allocator<char> > > >*) [clone .cold]
PUBLIC 2bf2b 0 google::protobuf::strings::SubstituteAndAppend(std::__cxx11::basic_string<char, std::char_traits<char>, std::allocator<char> >*, char const*, google::protobuf::strings::internal::SubstituteArg const&, google::protobuf::strings::internal::SubstituteArg const&, google::protobuf::strings::internal::SubstituteArg const&, google::protobuf::strings::internal::SubstituteArg const&, google::protobuf::strings::internal::SubstituteArg const&, google::protobuf::strings::internal::SubstituteArg const&, google::protobuf::strings::internal::SubstituteArg const&, google::protobuf::strings::internal::SubstituteArg const&, google::protobuf::strings::internal::SubstituteArg const&, google::protobuf::strings::internal::SubstituteArg const&) [clone .cold]
PUBLIC 2bf91 0 google::protobuf::strings::Substitute[abi:cxx11](char const*, google::protobuf::strings::internal::SubstituteArg const&, google::protobuf::strings::internal::SubstituteArg const&, google::protobuf::strings::internal::SubstituteArg const&, google::protobuf::strings::internal::SubstituteArg const&, google::protobuf::strings::internal::SubstituteArg const&, google::protobuf::strings::internal::SubstituteArg const&, google::protobuf::strings::internal::SubstituteArg const&, google::protobuf::strings::internal::SubstituteArg const&, google::protobuf::strings::internal::SubstituteArg const&, google::protobuf::strings::internal::SubstituteArg const&) [clone .cold]
PUBLIC 2bfa8 0 google::protobuf::(anonymous namespace)::FieldValuePrinterWrapper::PrintMessageEnd(google::protobuf::Message const&, int, int, bool, google::protobuf::TextFormat::BaseTextGenerator*) const [clone .cold]
PUBLIC 2bfc4 0 google::protobuf::(anonymous namespace)::FieldValuePrinterWrapper::PrintMessageStart(google::protobuf::Message const&, int, int, bool, google::protobuf::TextFormat::BaseTextGenerator*) const [clone .cold]
PUBLIC 2bfe0 0 google::protobuf::(anonymous namespace)::FieldValuePrinterWrapper::PrintFieldName(google::protobuf::Message const&, google::protobuf::Reflection const*, google::protobuf::FieldDescriptor const*, google::protobuf::TextFormat::BaseTextGenerator*) const [clone .cold]
PUBLIC 2bffc 0 google::protobuf::(anonymous namespace)::FieldValuePrinterWrapper::PrintFieldName(google::protobuf::Message const&, int, int, google::protobuf::Reflection const*, google::protobuf::FieldDescriptor const*, google::protobuf::TextFormat::BaseTextGenerator*) const [clone .cold]
PUBLIC 2c018 0 google::protobuf::(anonymous namespace)::FieldValuePrinterWrapper::PrintEnum(int, std::__cxx11::basic_string<char, std::char_traits<char>, std::allocator<char> > const&, google::protobuf::TextFormat::BaseTextGenerator*) const [clone .cold]
PUBLIC 2c034 0 google::protobuf::(anonymous namespace)::FieldValuePrinterWrapper::PrintBytes(std::__cxx11::basic_string<char, std::char_traits<char>, std::allocator<char> > const&, google::protobuf::TextFormat::BaseTextGenerator*) const [clone .cold]
PUBLIC 2c050 0 google::protobuf::(anonymous namespace)::FieldValuePrinterWrapper::PrintString(std::__cxx11::basic_string<char, std::char_traits<char>, std::allocator<char> > const&, google::protobuf::TextFormat::BaseTextGenerator*) const [clone .cold]
PUBLIC 2c06c 0 google::protobuf::(anonymous namespace)::FieldValuePrinterWrapper::PrintDouble(double, google::protobuf::TextFormat::BaseTextGenerator*) const [clone .cold]
PUBLIC 2c088 0 google::protobuf::(anonymous namespace)::FieldValuePrinterWrapper::PrintFloat(float, google::protobuf::TextFormat::BaseTextGenerator*) const [clone .cold]
PUBLIC 2c0a4 0 google::protobuf::(anonymous namespace)::FieldValuePrinterWrapper::PrintUInt64(unsigned long, google::protobuf::TextFormat::BaseTextGenerator*) const [clone .cold]
PUBLIC 2c0c0 0 google::protobuf::(anonymous namespace)::FieldValuePrinterWrapper::PrintInt64(long, google::protobuf::TextFormat::BaseTextGenerator*) const [clone .cold]
PUBLIC 2c0dc 0 google::protobuf::(anonymous namespace)::FieldValuePrinterWrapper::PrintUInt32(unsigned int, google::protobuf::TextFormat::BaseTextGenerator*) const [clone .cold]
PUBLIC 2c0f8 0 google::protobuf::(anonymous namespace)::FieldValuePrinterWrapper::PrintInt32(int, google::protobuf::TextFormat::BaseTextGenerator*) const [clone .cold]
PUBLIC 2c114 0 google::protobuf::(anonymous namespace)::FieldValuePrinterWrapper::PrintBool(bool, google::protobuf::TextFormat::BaseTextGenerator*) const [clone .cold]
PUBLIC 2c130 0 google::protobuf::TextFormat::FastFieldValuePrinter::PrintString(std::__cxx11::basic_string<char, std::char_traits<char>, std::allocator<char> > const&, google::protobuf::TextFormat::BaseTextGenerator*) const [clone .cold]
PUBLIC 2c14c 0 google::protobuf::(anonymous namespace)::FastFieldValuePrinterUtf8Escaping::PrintString(std::__cxx11::basic_string<char, std::char_traits<char>, std::allocator<char> > const&, google::protobuf::TextFormat::BaseTextGenerator*) const [clone .cold]
PUBLIC 2c167 0 google::protobuf::CheckFieldIndex(google::protobuf::FieldDescriptor const*, int) [clone .cold]
PUBLIC 2c187 0 google::protobuf::(anonymous namespace)::CheckParseInputSize(google::protobuf::StringPiece, google::protobuf::io::ErrorCollector*) [clone .isra.0] [clone .cold]
PUBLIC 2c1a4 0 google::protobuf::TextFormat::Printer::SetDefaultFieldValuePrinter(google::protobuf::TextFormat::FieldValuePrinter const*) [clone .cold]
PUBLIC 2c1ba 0 google::protobuf::TextFormat::Printer::SetUseUtf8StringEscaping(bool) [clone .cold]
PUBLIC 2c1e4 0 google::protobuf::TextFormat::Printer::Printer() [clone .cold]
PUBLIC 2c216 0 google::protobuf::TextFormat::Printer::RegisterFieldValuePrinter(google::protobuf::FieldDescriptor const*, google::protobuf::TextFormat::FieldValuePrinter const*) [clone .cold]
PUBLIC 2c25c 0 google::protobuf::TextFormat::FastFieldValuePrinter::PrintInt32(int, google::protobuf::TextFormat::BaseTextGenerator*) const [clone .cold]
PUBLIC 2c272 0 google::protobuf::TextFormat::FastFieldValuePrinter::PrintUInt32(unsigned int, google::protobuf::TextFormat::BaseTextGenerator*) const [clone .cold]
PUBLIC 2c288 0 google::protobuf::TextFormat::FastFieldValuePrinter::PrintInt64(long, google::protobuf::TextFormat::BaseTextGenerator*) const [clone .cold]
PUBLIC 2c29e 0 google::protobuf::TextFormat::FastFieldValuePrinter::PrintUInt64(unsigned long, google::protobuf::TextFormat::BaseTextGenerator*) const [clone .cold]
PUBLIC 2c2b4 0 google::protobuf::TextFormat::Printer::PrintFieldName(google::protobuf::Message const&, int, int, google::protobuf::Reflection const*, google::protobuf::FieldDescriptor const*, google::protobuf::TextFormat::Printer::TextGenerator*) const [clone .cold]
PUBLIC 2c2ca 0 google::protobuf::TextFormat::Printer::PrintUnknownFields(google::protobuf::UnknownFieldSet const&, google::protobuf::TextFormat::Printer::TextGenerator*, int) const [clone .cold]
PUBLIC 2c330 0 google::protobuf::TextFormat::Printer::PrintUnknownFields(google::protobuf::UnknownFieldSet const&, google::protobuf::io::ZeroCopyOutputStream*) const [clone .cold]
PUBLIC 2c340 0 google::protobuf::TextFormat::PrintUnknownFields(google::protobuf::UnknownFieldSet const&, google::protobuf::io::ZeroCopyOutputStream*) [clone .cold]
PUBLIC 2c350 0 google::protobuf::TextFormat::PrintUnknownFieldsToString(google::protobuf::UnknownFieldSet const&, std::__cxx11::basic_string<char, std::char_traits<char>, std::allocator<char> >*) [clone .cold]
PUBLIC 2c360 0 google::protobuf::TextFormat::FastFieldValuePrinter::PrintFloat(float, google::protobuf::TextFormat::BaseTextGenerator*) const [clone .cold]
PUBLIC 2c376 0 google::protobuf::TextFormat::FastFieldValuePrinter::PrintDouble(double, google::protobuf::TextFormat::BaseTextGenerator*) const [clone .cold]
PUBLIC 2c38c 0 google::protobuf::TextFormat::FieldValuePrinter::PrintBool[abi:cxx11](bool) const [clone .cold]
PUBLIC 2c39c 0 google::protobuf::TextFormat::FieldValuePrinter::PrintInt32[abi:cxx11](int) const [clone .cold]
PUBLIC 2c3ac 0 google::protobuf::TextFormat::FieldValuePrinter::PrintUInt32[abi:cxx11](unsigned int) const [clone .cold]
PUBLIC 2c3bc 0 google::protobuf::TextFormat::FieldValuePrinter::PrintInt64[abi:cxx11](long) const [clone .cold]
PUBLIC 2c3cc 0 google::protobuf::TextFormat::FieldValuePrinter::PrintUInt64[abi:cxx11](unsigned long) const [clone .cold]
PUBLIC 2c3dc 0 google::protobuf::TextFormat::FieldValuePrinter::PrintFloat[abi:cxx11](float) const [clone .cold]
PUBLIC 2c3ec 0 google::protobuf::TextFormat::FieldValuePrinter::PrintDouble[abi:cxx11](double) const [clone .cold]
PUBLIC 2c3fc 0 google::protobuf::TextFormat::FieldValuePrinter::PrintString(std::__cxx11::basic_string<char, std::char_traits<char>, std::allocator<char> > const&) const [clone .cold]
PUBLIC 2c40c 0 google::protobuf::TextFormat::FieldValuePrinter::PrintEnum(int, std::__cxx11::basic_string<char, std::char_traits<char>, std::allocator<char> > const&) const [clone .cold]
PUBLIC 2c41c 0 google::protobuf::TextFormat::FieldValuePrinter::PrintFieldName[abi:cxx11](google::protobuf::Message const&, google::protobuf::Reflection const*, google::protobuf::FieldDescriptor const*) const [clone .cold]
PUBLIC 2c42c 0 google::protobuf::TextFormat::FieldValuePrinter::PrintMessageStart[abi:cxx11](google::protobuf::Message const&, int, int, bool) const [clone .cold]
PUBLIC 2c43c 0 google::protobuf::TextFormat::FieldValuePrinter::PrintMessageEnd[abi:cxx11](google::protobuf::Message const&, int, int, bool) const [clone .cold]
PUBLIC 2c44c 0 google::protobuf::internal::MapFieldPrinterHelper::CopyKey(google::protobuf::MapKey const&, google::protobuf::Message*, google::protobuf::FieldDescriptor const*) [clone .cold]
PUBLIC 2c534 0 google::protobuf::internal::MapFieldPrinterHelper::CopyValue(google::protobuf::MapValueRef const&, google::protobuf::Message*, google::protobuf::FieldDescriptor const*) [clone .cold]
PUBLIC 2c690 0 google::protobuf::internal::MapFieldPrinterHelper::SortMap(google::protobuf::Message const&, google::protobuf::Reflection const*, google::protobuf::FieldDescriptor const*, google::protobuf::MessageFactory*, std::vector<google::protobuf::Message const*, std::allocator<google::protobuf::Message const*> >*) [clone .cold]
PUBLIC 2c6be 0 google::protobuf::TextFormat::Parser::MergeUsingImpl(google::protobuf::io::ZeroCopyInputStream*, google::protobuf::Message*, google::protobuf::TextFormat::Parser::ParserImpl*) [clone .cold]
PUBLIC 2c72e 0 google::protobuf::TextFormat::Parser::Parse(google::protobuf::io::ZeroCopyInputStream*, google::protobuf::Message*) [clone .cold]
PUBLIC 2c77e 0 google::protobuf::TextFormat::ParseFromString(std::__cxx11::basic_string<char, std::char_traits<char>, std::allocator<char> > const&, google::protobuf::Message*) [clone .cold]
PUBLIC 2c78e 0 google::protobuf::TextFormat::Parse(google::protobuf::io::ZeroCopyInputStream*, google::protobuf::Message*) [clone .cold]
PUBLIC 2c79e 0 google::protobuf::TextFormat::Parser::Merge(google::protobuf::io::ZeroCopyInputStream*, google::protobuf::Message*) [clone .cold]
PUBLIC 2c7ee 0 google::protobuf::TextFormat::MergeFromString(std::__cxx11::basic_string<char, std::char_traits<char>, std::allocator<char> > const&, google::protobuf::Message*) [clone .cold]
PUBLIC 2c7fe 0 google::protobuf::TextFormat::Merge(google::protobuf::io::ZeroCopyInputStream*, google::protobuf::Message*) [clone .cold]
PUBLIC 2c80e 0 google::protobuf::TextFormat::Parser::ParseFieldValueFromString(std::__cxx11::basic_string<char, std::char_traits<char>, std::allocator<char> > const&, google::protobuf::FieldDescriptor const*, google::protobuf::Message*) [clone .cold]
PUBLIC 2c85e 0 google::protobuf::TextFormat::ParseFieldValueFromString(std::__cxx11::basic_string<char, std::char_traits<char>, std::allocator<char> > const&, google::protobuf::FieldDescriptor const*, google::protobuf::Message*) [clone .cold]
PUBLIC 2c86e 0 google::protobuf::TextFormat::Printer::PrintField(google::protobuf::Message const&, google::protobuf::Reflection const*, google::protobuf::FieldDescriptor const*, google::protobuf::TextFormat::Printer::TextGenerator*) const [clone .cold]
PUBLIC 2c8a0 0 google::protobuf::TextFormat::Printer::Print(google::protobuf::Message const&, google::protobuf::TextFormat::Printer::TextGenerator*) const [clone .cold]
PUBLIC 2c8dc 0 google::protobuf::TextFormat::Printer::PrintAny(google::protobuf::Message const&, google::protobuf::TextFormat::Printer::TextGenerator*) const [clone .cold]
PUBLIC 2c976 0 google::protobuf::TextFormat::Printer::Print(google::protobuf::Message const&, google::protobuf::io::ZeroCopyOutputStream*) const [clone .cold]
PUBLIC 2c986 0 google::protobuf::Message::DebugString[abi:cxx11]() const [clone .cold]
PUBLIC 2c9a4 0 google::protobuf::Message::PrintDebugString() const [clone .cold]
PUBLIC 2c9c0 0 google::protobuf::Message::ShortDebugString[abi:cxx11]() const [clone .cold]
PUBLIC 2c9de 0 google::protobuf::Message::Utf8DebugString[abi:cxx11]() const [clone .cold]
PUBLIC 2c9fc 0 google::protobuf::TextFormat::PrintToString(google::protobuf::Message const&, std::__cxx11::basic_string<char, std::char_traits<char>, std::allocator<char> >*) [clone .cold]
PUBLIC 2ca0c 0 google::protobuf::TextFormat::Print(google::protobuf::Message const&, google::protobuf::io::ZeroCopyOutputStream*) [clone .cold]
PUBLIC 2ca1c 0 google::protobuf::TextFormat::Printer::PrintFieldValue(google::protobuf::Message const&, google::protobuf::Reflection const*, google::protobuf::FieldDescriptor const*, int, google::protobuf::TextFormat::Printer::TextGenerator*) const [clone .cold]
PUBLIC 2ca6e 0 google::protobuf::TextFormat::Printer::PrintFieldValueToString(google::protobuf::Message const&, google::protobuf::FieldDescriptor const*, int, std::__cxx11::basic_string<char, std::char_traits<char>, std::allocator<char> >*) const [clone .cold]
PUBLIC 2ca7e 0 google::protobuf::TextFormat::PrintFieldValueToString(google::protobuf::Message const&, google::protobuf::FieldDescriptor const*, int, std::__cxx11::basic_string<char, std::char_traits<char>, std::allocator<char> >*) [clone .cold]
PUBLIC 2ca8e 0 google::protobuf::UnknownFieldSet::default_instance() [clone .cold]
PUBLIC 2caa2 0 google::protobuf::UnknownField::DeepCopy(google::protobuf::UnknownField const&) [clone .cold]
PUBLIC 2cab8 0 google::protobuf::UnknownFieldSet::MergeFromCodedStream(google::protobuf::io::CodedInputStream*) [clone .cold]
PUBLIC 2cae2 0 google::protobuf::UnknownFieldSet::ParseFromZeroCopyStream(google::protobuf::io::ZeroCopyInputStream*) [clone .cold]
PUBLIC 2caf2 0 google::protobuf::internal::WireFormat::ParseAndMergeMessageSetField(unsigned int, google::protobuf::FieldDescriptor const*, google::protobuf::Message*, google::protobuf::io::CodedInputStream*) [clone .cold]
PUBLIC 2cb02 0 google::protobuf::internal::WireFormat::ParseAndMergeMessageSetItem(google::protobuf::io::CodedInputStream*, google::protobuf::Message*) [clone .cold]
PUBLIC 2cb21 0 google::protobuf::internal::MapKeyDataOnlyByteSize(google::protobuf::FieldDescriptor const*, google::protobuf::MapKey const&) [clone .cold]
PUBLIC 2cb41 0 google::protobuf::internal::MapValueRefDataOnlyByteSize(google::protobuf::FieldDescriptor const*, google::protobuf::MapValueRef const&) [clone .cold]
PUBLIC 2cb61 0 google::protobuf::internal::InternalSerializeMapEntry(google::protobuf::FieldDescriptor const*, google::protobuf::MapKey const&, google::protobuf::MapValueRef const&, unsigned char*, google::protobuf::io::EpsCopyOutputStream*) [clone .cold]
PUBLIC 2cba2 0 google::protobuf::internal::WireFormat::FieldDataOnlyByteSize(google::protobuf::FieldDescriptor const*, google::protobuf::Message const&) [clone .cold]
PUBLIC 2cbd6 0 google::protobuf::internal::WireFormat::ByteSize(google::protobuf::Message const&) [clone .cold]
PUBLIC 2cbee 0 google::protobuf::internal::WireFormat::ParseAndMergeField(unsigned int, google::protobuf::FieldDescriptor const*, google::protobuf::Message*, google::protobuf::io::CodedInputStream*) [clone .cold]
PUBLIC 2cc64 0 google::protobuf::internal::WireFormat::_InternalParseAndMergeField(google::protobuf::Message*, char const*, google::protobuf::internal::ParseContext*, unsigned long, google::protobuf::Reflection const*, google::protobuf::FieldDescriptor const*) [clone .cold]
PUBLIC 2ccb0 0 google::protobuf::internal::WireFormat::InternalSerializeField(google::protobuf::FieldDescriptor const*, google::protobuf::Message const&, unsigned char*, google::protobuf::io::EpsCopyOutputStream*) [clone .cold]
PUBLIC 2cd80 0 google::protobuf::internal::WireFormat::_InternalSerialize(google::protobuf::Message const&, unsigned char*, google::protobuf::io::EpsCopyOutputStream*) [clone .cold]
PUBLIC 2cd98 0 google::protobuf::io::Tokenizer::Tokenizer(google::protobuf::io::ZeroCopyInputStream*, google::protobuf::io::ErrorCollector*) [clone .cold]
PUBLIC 2cdbc 0 google::protobuf::io::Tokenizer::ParseFloat(std::__cxx11::basic_string<char, std::char_traits<char>, std::allocator<char> > const&) [clone .cold]
PUBLIC 2cde0 0 google::protobuf::io::Tokenizer::ParseStringAppend(std::__cxx11::basic_string<char, std::char_traits<char>, std::allocator<char> > const&, std::__cxx11::basic_string<char, std::char_traits<char>, std::allocator<char> >*) [clone .cold]
PUBLIC 2ce04 0 google::protobuf::io::Tokenizer::ConsumeBlockComment(std::__cxx11::basic_string<char, std::char_traits<char>, std::allocator<char> >*) [clone .cold]
PUBLIC 2ce1c 0 google::protobuf::io::Tokenizer::ConsumeNumber(bool, bool) [clone .cold]
PUBLIC 2cea0 0 google::protobuf::io::Tokenizer::ConsumeString(char) [clone .cold]
PUBLIC 2cf24 0 google::protobuf::io::Tokenizer::Next() [clone .cold]
PUBLIC 2cf4a 0 google::protobuf::io::Tokenizer::NextWithComments(std::__cxx11::basic_string<char, std::char_traits<char>, std::allocator<char> >*, std::vector<std::__cxx11::basic_string<char, std::char_traits<char>, std::allocator<char> >, std::allocator<std::__cxx11::basic_string<char, std::char_traits<char>, std::allocator<char> > > >*, std::__cxx11::basic_string<char, std::char_traits<char>, std::allocator<char> >*) [clone .cold]
PUBLIC 2cf8b 0 google::protobuf::util::ParseDelimitedFromZeroCopyStream(google::protobuf::MessageLite*, google::protobuf::io::ZeroCopyInputStream*, bool*) [clone .cold]
PUBLIC 2cf9b 0 google::protobuf::util::SerializeDelimitedToZeroCopyStream(google::protobuf::MessageLite const&, google::protobuf::io::ZeroCopyOutputStream*) [clone .cold]
PUBLIC 2cfab 0 google::protobuf::util::SerializeDelimitedToFileDescriptor(google::protobuf::MessageLite const&, int) [clone .cold]
PUBLIC 2cfbb 0 google::protobuf::util::SerializeDelimitedToOstream(google::protobuf::MessageLite const&, std::ostream*) [clone .cold]
PUBLIC 2cfcb 0 google::protobuf::StringPrintf[abi:cxx11](char const*, ...) [clone .cold]
PUBLIC 2cfe1 0 google::protobuf::StringPrintfVector(char const*, std::vector<std::__cxx11::basic_string<char, std::char_traits<char>, std::allocator<char> >, std::allocator<std::__cxx11::basic_string<char, std::char_traits<char>, std::allocator<char> > > > const&) [clone .cold]
PUBLIC 2cff1 0 google::protobuf::StringReplace(std::__cxx11::basic_string<char, std::char_traits<char>, std::allocator<char> > const&, std::__cxx11::basic_string<char, std::char_traits<char>, std::allocator<char> > const&, std::__cxx11::basic_string<char, std::char_traits<char>, std::allocator<char> > const&, bool) [clone .cold]
PUBLIC 2d007 0 google::protobuf::JoinStrings(std::vector<std::__cxx11::basic_string<char, std::char_traits<char>, std::allocator<char> >, std::allocator<std::__cxx11::basic_string<char, std::char_traits<char>, std::allocator<char> > > > const&, char const*, std::__cxx11::basic_string<char, std::char_traits<char>, std::allocator<char> >*) [clone .cold]
PUBLIC 2d017 0 google::protobuf::UnescapeCEscapeString(std::__cxx11::basic_string<char, std::char_traits<char>, std::allocator<char> > const&, std::__cxx11::basic_string<char, std::char_traits<char>, std::allocator<char> >*, std::vector<std::__cxx11::basic_string<char, std::char_traits<char>, std::allocator<char> >, std::allocator<std::__cxx11::basic_string<char, std::char_traits<char>, std::allocator<char> > > >*) [clone .cold]
PUBLIC 2d02f 0 google::protobuf::CEscape(std::__cxx11::basic_string<char, std::char_traits<char>, std::allocator<char> > const&) [clone .cold]
PUBLIC 2d045 0 google::protobuf::FastHexToBuffer(int, char*) [clone .cold]
PUBLIC 2d055 0 google::protobuf::safe_strtob(google::protobuf::StringPiece, bool*) [clone .cold]
PUBLIC 2d065 0 google::protobuf::StrCat[abi:cxx11](google::protobuf::strings::AlphaNum const&, google::protobuf::strings::AlphaNum const&) [clone .cold]
PUBLIC 2d07b 0 google::protobuf::StrCat[abi:cxx11](google::protobuf::strings::AlphaNum const&, google::protobuf::strings::AlphaNum const&, google::protobuf::strings::AlphaNum const&) [clone .cold]
PUBLIC 2d091 0 google::protobuf::StrCat[abi:cxx11](google::protobuf::strings::AlphaNum const&, google::protobuf::strings::AlphaNum const&, google::protobuf::strings::AlphaNum const&, google::protobuf::strings::AlphaNum const&) [clone .cold]
PUBLIC 2d0a7 0 google::protobuf::StrCat[abi:cxx11](google::protobuf::strings::AlphaNum const&, google::protobuf::strings::AlphaNum const&, google::protobuf::strings::AlphaNum const&, google::protobuf::strings::AlphaNum const&, google::protobuf::strings::AlphaNum const&) [clone .cold]
PUBLIC 2d0bf 0 google::protobuf::StrCat[abi:cxx11](google::protobuf::strings::AlphaNum const&, google::protobuf::strings::AlphaNum const&, google::protobuf::strings::AlphaNum const&, google::protobuf::strings::AlphaNum const&, google::protobuf::strings::AlphaNum const&, google::protobuf::strings::AlphaNum const&) [clone .cold]
PUBLIC 2d0d7 0 google::protobuf::StrCat[abi:cxx11](google::protobuf::strings::AlphaNum const&, google::protobuf::strings::AlphaNum const&, google::protobuf::strings::AlphaNum const&, google::protobuf::strings::AlphaNum const&, google::protobuf::strings::AlphaNum const&, google::protobuf::strings::AlphaNum const&, google::protobuf::strings::AlphaNum const&) [clone .cold]
PUBLIC 2d0ef 0 google::protobuf::StrCat[abi:cxx11](google::protobuf::strings::AlphaNum const&, google::protobuf::strings::AlphaNum const&, google::protobuf::strings::AlphaNum const&, google::protobuf::strings::AlphaNum const&, google::protobuf::strings::AlphaNum const&, google::protobuf::strings::AlphaNum const&, google::protobuf::strings::AlphaNum const&, google::protobuf::strings::AlphaNum const&) [clone .cold]
PUBLIC 2d107 0 google::protobuf::StrCat[abi:cxx11](google::protobuf::strings::AlphaNum const&, google::protobuf::strings::AlphaNum const&, google::protobuf::strings::AlphaNum const&, google::protobuf::strings::AlphaNum const&, google::protobuf::strings::AlphaNum const&, google::protobuf::strings::AlphaNum const&, google::protobuf::strings::AlphaNum const&, google::protobuf::strings::AlphaNum const&, google::protobuf::strings::AlphaNum const&) [clone .cold]
PUBLIC 2d11f 0 google::protobuf::GlobalReplaceSubstring(std::__cxx11::basic_string<char, std::char_traits<char>, std::allocator<char> > const&, std::__cxx11::basic_string<char, std::char_traits<char>, std::allocator<char> > const&, std::__cxx11::basic_string<char, std::char_traits<char>, std::allocator<char> >*) [clone .cold]
PUBLIC 2d148 0 google::protobuf::Base64EscapeInternal(unsigned char const*, int, char*, int, char const*, bool) [clone .cold]
PUBLIC 2d158 0 google::protobuf::internal::NoLocaleStrtod(char const*, char**) [clone .cold]
PUBLIC 2d1a0 0 google::protobuf::UnescapeCEscapeString(std::__cxx11::basic_string<char, std::char_traits<char>, std::allocator<char> > const&) [clone .cold]
PUBLIC 2d1b0 0 google::protobuf::strings::Utf8SafeCEscape(std::__cxx11::basic_string<char, std::char_traits<char>, std::allocator<char> > const&) [clone .cold]
PUBLIC 2d1c0 0 google::protobuf::strings::CHexEscape(std::__cxx11::basic_string<char, std::char_traits<char>, std::allocator<char> > const&) [clone .cold]
PUBLIC 2d1d0 0 google::protobuf::safe_strto32(std::__cxx11::basic_string<char, std::char_traits<char>, std::allocator<char> > const&, int*) [clone .cold]
PUBLIC 2d1e6 0 google::protobuf::safe_strtou32(std::__cxx11::basic_string<char, std::char_traits<char>, std::allocator<char> > const&, unsigned int*) [clone .cold]
PUBLIC 2d1fc 0 google::protobuf::safe_strto64(std::__cxx11::basic_string<char, std::char_traits<char>, std::allocator<char> > const&, long*) [clone .cold]
PUBLIC 2d212 0 google::protobuf::safe_strtou64(std::__cxx11::basic_string<char, std::char_traits<char>, std::allocator<char> > const&, unsigned long*) [clone .cold]
PUBLIC 2d228 0 google::protobuf::CleanStringLineEndings(std::__cxx11::basic_string<char, std::char_traits<char>, std::allocator<char> > const&, std::__cxx11::basic_string<char, std::char_traits<char>, std::allocator<char> >*, bool) [clone .cold]
PUBLIC 2d23e 0 google::protobuf::SplitStringUsing(std::__cxx11::basic_string<char, std::char_traits<char>, std::allocator<char> > const&, char const*, std::vector<std::__cxx11::basic_string<char, std::char_traits<char>, std::allocator<char> >, std::allocator<std::__cxx11::basic_string<char, std::char_traits<char>, std::allocator<char> > > >*) [clone .cold]
PUBLIC 2d255 0 google::protobuf::SplitStringAllowEmpty(std::__cxx11::basic_string<char, std::char_traits<char>, std::allocator<char> > const&, char const*, std::vector<std::__cxx11::basic_string<char, std::char_traits<char>, std::allocator<char> >, std::allocator<std::__cxx11::basic_string<char, std::char_traits<char>, std::allocator<char> > > >*) [clone .cold]
PUBLIC 2d26c 0 google::protobuf::internal::ArenaStringPtr::CreateInstanceNoArena(std::__cxx11::basic_string<char, std::char_traits<char>, std::allocator<char> > const*) [clone .isra.0] [clone .constprop.0] [clone .cold]
PUBLIC 2d282 0 google::protobuf::internal::AnyMetadata::InternalPackFrom(google::protobuf::MessageLite const&, google::protobuf::StringPiece, google::protobuf::StringPiece) [clone .cold]
PUBLIC 2d29e 0 google::protobuf::internal::AnyMetadata::InternalIs(google::protobuf::StringPiece) const [clone .cold]
PUBLIC 2d2c4 0 google::protobuf::internal::ExtensionSet::FindExtensionInfoFromFieldNumber(int, int, google::protobuf::internal::ExtensionFinder*, google::protobuf::internal::ExtensionInfo*, bool*) [clone .cold]
PUBLIC 2d2d4 0 google::protobuf::internal::ExtensionSet::Extension::ByteSize(int) const [clone .cold]
PUBLIC 2d2e4 0 google::protobuf::internal::ExtensionSet::Extension::GetSize() const [clone .cold]
PUBLIC 2d2f4 0 google::protobuf::internal::ExtensionSet::ExtensionType(int) const [clone .cold]
PUBLIC 2d314 0 google::protobuf::internal::ExtensionSet::GetRepeatedInt32(int, int) const [clone .cold]
PUBLIC 2d324 0 google::protobuf::internal::ExtensionSet::GetRepeatedInt64(int, int) const [clone .cold]
PUBLIC 2d334 0 google::protobuf::internal::ExtensionSet::GetRepeatedUInt32(int, int) const [clone .cold]
PUBLIC 2d344 0 google::protobuf::internal::ExtensionSet::GetRepeatedUInt64(int, int) const [clone .cold]
PUBLIC 2d354 0 google::protobuf::internal::ExtensionSet::GetRepeatedFloat(int, int) const [clone .cold]
PUBLIC 2d364 0 google::protobuf::internal::ExtensionSet::GetRepeatedDouble(int, int) const [clone .cold]
PUBLIC 2d374 0 google::protobuf::internal::ExtensionSet::GetRepeatedBool(int, int) const [clone .cold]
PUBLIC 2d384 0 google::protobuf::internal::ExtensionSet::GetRepeatedEnum(int, int) const [clone .cold]
PUBLIC 2d394 0 google::protobuf::internal::ExtensionSet::GetRepeatedString[abi:cxx11](int, int) const [clone .cold]
PUBLIC 2d3a4 0 google::protobuf::internal::ExtensionSet::GetRepeatedMessage(int, int) const [clone .cold]
PUBLIC 2d3b4 0 google::protobuf::internal::ExtensionSet::SetRepeatedInt32(int, int, int) [clone .cold]
PUBLIC 2d3c4 0 google::protobuf::internal::ExtensionSet::SetRepeatedInt64(int, int, long) [clone .cold]
PUBLIC 2d3d4 0 google::protobuf::internal::ExtensionSet::SetRepeatedUInt32(int, int, unsigned int) [clone .cold]
PUBLIC 2d3e4 0 google::protobuf::internal::ExtensionSet::SetRepeatedUInt64(int, int, unsigned long) [clone .cold]
PUBLIC 2d3f4 0 google::protobuf::internal::ExtensionSet::SetRepeatedFloat(int, int, float) [clone .cold]
PUBLIC 2d404 0 google::protobuf::internal::ExtensionSet::SetRepeatedDouble(int, int, double) [clone .cold]
PUBLIC 2d414 0 google::protobuf::internal::ExtensionSet::SetRepeatedBool(int, int, bool) [clone .cold]
PUBLIC 2d424 0 google::protobuf::internal::ExtensionSet::MutableRawRepeatedField(int) [clone .cold]
PUBLIC 2d434 0 google::protobuf::internal::ExtensionSet::SetRepeatedEnum(int, int, int) [clone .cold]
PUBLIC 2d444 0 google::protobuf::internal::ExtensionSet::MutableRepeatedString[abi:cxx11](int, int) [clone .cold]
PUBLIC 2d454 0 google::protobuf::internal::ExtensionSet::MutableRepeatedMessage(int, int) [clone .cold]
PUBLIC 2d464 0 google::protobuf::internal::ExtensionSet::RemoveLast(int) [clone .cold]
PUBLIC 2d474 0 google::protobuf::internal::ExtensionSet::ReleaseLast(int) [clone .cold]
PUBLIC 2d484 0 google::protobuf::internal::ExtensionSet::SwapElements(int, int, int) [clone .cold]
PUBLIC 2d494 0 google::protobuf::internal::RepeatedPrimitiveDefaults::default_instance() [clone .cold]
PUBLIC 2d4a8 0 google::protobuf::internal::RepeatedStringTypeTraits::GetDefaultRepeatedField[abi:cxx11]() [clone .cold]
PUBLIC 2d4cc 0 google::protobuf::internal::ExtensionSet::Extension::InternalSerializeFieldWithCachedSizesToArray(int, unsigned char*, google::protobuf::io::EpsCopyOutputStream*) const [clone .cold]
PUBLIC 2d4dc 0 google::protobuf::internal::ExtensionSet::Extension::InternalSerializeMessageSetItemWithCachedSizesToArray(int, unsigned char*, google::protobuf::io::EpsCopyOutputStream*) const [clone .cold]
PUBLIC 2d4ec 0 google::protobuf::internal::(anonymous namespace)::Register(google::protobuf::MessageLite const*, int, google::protobuf::internal::ExtensionInfo) [clone .constprop.0] [clone .cold]
PUBLIC 2d55a 0 google::protobuf::internal::ExtensionSet::RegisterMessageExtension(google::protobuf::MessageLite const*, int, unsigned char, bool, bool, google::protobuf::MessageLite const*) [clone .cold]
PUBLIC 2d56a 0 google::protobuf::internal::ExtensionSet::RegisterEnumExtension(google::protobuf::MessageLite const*, int, unsigned char, bool, bool, bool (*)(int)) [clone .cold]
PUBLIC 2d57a 0 google::protobuf::internal::ExtensionSet::RegisterExtension(google::protobuf::MessageLite const*, int, unsigned char, bool, bool) [clone .cold]
PUBLIC 2d5aa 0 google::protobuf::internal::ExtensionSet::MutableRawRepeatedField(int, unsigned char, bool, google::protobuf::FieldDescriptor const*) [clone .cold]
PUBLIC 2d5c0 0 google::protobuf::internal::ExtensionSet::AddString[abi:cxx11](int, unsigned char, google::protobuf::FieldDescriptor const*) [clone .cold]
PUBLIC 2d5d6 0 google::protobuf::internal::ExtensionSet::ParseField(unsigned long, char const*, google::protobuf::MessageLite const*, google::protobuf::internal::InternalMetadata*, google::protobuf::internal::ParseContext*) [clone .cold]
PUBLIC 2d5f6 0 google::protobuf::internal::ExtensionSet::ParseFieldWithExtensionInfo(int, bool, google::protobuf::internal::ExtensionInfo const&, google::protobuf::io::CodedInputStream*, google::protobuf::internal::FieldSkipper*) [clone .cold]
PUBLIC 2d606 0 google::protobuf::internal::ExtensionSet::ParseField(unsigned int, google::protobuf::io::CodedInputStream*, google::protobuf::MessageLite const*) [clone .cold]
PUBLIC 2d620 0 google::protobuf::internal::ExtensionSet::ParseField(unsigned int, google::protobuf::io::CodedInputStream*, google::protobuf::MessageLite const*, google::protobuf::io::CodedOutputStream*) [clone .cold]
PUBLIC 2d63a 0 google::protobuf::internal::ExtensionSet::ParseMessageSetItemLite(google::protobuf::io::CodedInputStream*, google::protobuf::internal::ExtensionFinder*, google::protobuf::internal::FieldSkipper*) [clone .cold]
PUBLIC 2d65a 0 google::protobuf::internal::ExtensionSet::ParseMessageSet(google::protobuf::io::CodedInputStream*, google::protobuf::MessageLite const*, std::__cxx11::basic_string<char, std::char_traits<char>, std::allocator<char> >*) [clone .cold]
PUBLIC 2d67c 0 google::protobuf::internal::ExtensionSet::InternalExtensionMergeFrom(int, google::protobuf::internal::ExtensionSet::Extension const&) [clone .cold]
PUBLIC 2d6a8 0 google::protobuf::internal::ExtensionSet::SwapExtension(google::protobuf::internal::ExtensionSet*, int) [clone .cold]
PUBLIC 2d6b8 0 google::protobuf::internal::ExtensionSet::Swap(google::protobuf::internal::ExtensionSet*) [clone .cold]
PUBLIC 2d6c8 0 google::protobuf::io::ZeroCopyOutputStream::WriteAliasedRaw(void const*, int) [clone .cold]
PUBLIC 2d6e0 0 _GLOBAL__sub_I_sagegen.cc
PUBLIC 2e4c0 0 _GLOBAL__sub_I_logger.cc
PUBLIC 2e510 0 _GLOBAL__sub_I_protobuf_producer.cc
PUBLIC 2e6e0 0 _GLOBAL__sub_I_values.cc
PUBLIC 2e710 0 _GLOBAL__sub_I_typeobj.cc
PUBLIC 2e790 0 _GLOBAL__sub_I_hdlgraph.cc
PUBLIC 2e830 0 _GLOBAL__sub_I_source_info.cc
PUBLIC 2e860 0 _GLOBAL__sub_I_io.cc
PUBLIC 2e890 0 _GLOBAL__sub_I_proto_api.cc
PUBLIC 2e8c0 0 _GLOBAL__sub_I_partitioned_design.cc
PUBLIC 2eaa0 0 _GLOBAL__sub_I_general.pb.cc
PUBLIC 2eae0 0 _GLOBAL__sub_I_sourcelocdb.pb.cc
PUBLIC 2eb20 0 _GLOBAL__sub_I_msiedb.pb.cc
PUBLIC 2eb60 0 _GLOBAL__sub_I_common.pb.cc
PUBLIC 2eba0 0 _GLOBAL__sub_I_typeinfo.pb.cc
PUBLIC 2ebe0 0 _GLOBAL__sub_I_parameter.pb.cc
PUBLIC 2ec20 0 _GLOBAL__sub_I_hegdb.pb.cc
PUBLIC 2ec60 0 _GLOBAL__sub_I_hiertreedb.pb.cc
PUBLIC 2eca0 0 _GLOBAL__sub_I_common.cc
PUBLIC 2ecd0 0 _GLOBAL__sub_I_int128.cc
PUBLIC 2ed00 0 _GLOBAL__sub_I_status.cc
PUBLIC 2edc0 0 _GLOBAL__sub_I_stringpiece.cc
PUBLIC 2edf0 0 _GLOBAL__sub_I_arena.cc
PUBLIC 2ee20 0 _GLOBAL__sub_I_generated_message_util.cc
PUBLIC 2ee50 0 _GLOBAL__sub_I_implicit_weak_message.cc
PUBLIC 2ee80 0 _GLOBAL__sub_I_message_lite.cc
PUBLIC 2eeb0 0 _GLOBAL__sub_I_parse_context.cc
PUBLIC 2eee0 0 _GLOBAL__sub_I_repeated_field.cc
PUBLIC 2ef10 0 _GLOBAL__sub_I_wire_format_lite.cc
PUBLIC 2ef40 0 _GLOBAL__sub_I_coded_stream.cc
PUBLIC 2ef70 0 _GLOBAL__sub_I_zero_copy_stream_impl.cc
PUBLIC 2efa0 0 _GLOBAL__sub_I_zero_copy_stream_impl_lite.cc
PUBLIC 2efd0 0 _GLOBAL__sub_I_any.pb.cc
PUBLIC 2f010 0 _GLOBAL__sub_I_any.cc
PUBLIC 2f040 0 _GLOBAL__sub_I_descriptor.cc
PUBLIC 2f090 0 _GLOBAL__sub_I_descriptor_database.cc
PUBLIC 2f0c0 0 _GLOBAL__sub_I_descriptor.pb.cc
PUBLIC 2f100 0 _GLOBAL__sub_I_dynamic_message.cc
PUBLIC 2f130 0 _GLOBAL__sub_I_extension_set_heavy.cc
PUBLIC 2f160 0 _GLOBAL__sub_I_generated_message_reflection.cc
PUBLIC 2f190 0 _GLOBAL__sub_I_map_field.cc
PUBLIC 2f1c0 0 _GLOBAL__sub_I_message.cc
PUBLIC 2f1f0 0 _GLOBAL__sub_I_reflection_ops.cc
PUBLIC 2f220 0 _GLOBAL__sub_I_substitute.cc
PUBLIC 2f250 0 _GLOBAL__sub_I_text_format.cc
PUBLIC 2f280 0 _GLOBAL__sub_I_unknown_field_set.cc
PUBLIC 2f2b0 0 _GLOBAL__sub_I_wire_format.cc
PUBLIC 2f2e0 0 _GLOBAL__sub_I_tokenizer.cc
PUBLIC 2f310 0 _GLOBAL__sub_I_delimited_message_util.cc
PUBLIC 2f340 0 _GLOBAL__sub_I_stringprintf.cc
PUBLIC 2f370 0 _GLOBAL__sub_I_structurally_valid.cc
PUBLIC 2f3b0 0 _GLOBAL__sub_I_strutil.cc
PUBLIC 2f3e0 0 _GLOBAL__sub_I_any_lite.cc
PUBLIC 2f410 0 _GLOBAL__sub_I_extension_set.cc
PUBLIC 2f440 0 _GLOBAL__sub_I_strtod.cc
PUBLIC 2f470 0 _GLOBAL__sub_I_zero_copy_stream.cc
PUBLIC 2f4a0 0 deregister_tm_clones
PUBLIC 2f4d0 0 register_tm_clones
PUBLIC 2f510 0 __do_global_dtors_aux
PUBLIC 2f550 0 frame_dummy
PUBLIC 2f560 0 (anonymous namespace)::getModule(via_external_s&)
PUBLIC 2f5e0 0 (anonymous namespace)::isValidScope(xst_s*)
PUBLIC 2f720 0 (anonymous namespace)::skipScope(ssl_item_s*)
PUBLIC 2f7e0 0 (anonymous namespace)::xmcloneDepDsngenOomrCb(ssl_item_s*, xst_s*, ssl_item_s*, char const*, char const*, char const*, char const*, char const*)
PUBLIC 2f7f0 0 std::_Function_handler<._853 (ssl_item_s*, xst_s*, ssl_item_s*, char const*, char const*, char const*, char const*, char const*), ._853 (*)(ssl_item_s*, xst_s*, ssl_item_s*, char const*, char const*, char const*, char const*, char const*)>::_M_invoke(std::_Any_data const&, ssl_item_s*&&, xst_s*&&, ssl_item_s*&&, char const*&&, char const*&&, char const*&&, char const*&&, char const*&&)
PUBLIC 2f840 0 std::_Function_base::_Base_manager<._853 (*)(ssl_item_s*, xst_s*, ssl_item_s*, char const*, char const*, char const*, char const*, char const*)>::_M_manager(std::_Any_data&, std::_Any_data const&, std::_Manager_operation)
PUBLIC 2f880 0 Sage::FuncLoader<&(anonymous namespace)::dsngenLibName, &(anonymous namespace)::str_dsngen_lcvname, char*, ssl_item_s*, int>::~FuncLoader()
PUBLIC 2f890 0 (anonymous namespace)::OocrInfo::~OocrInfo()
PUBLIC 2f920 0 __tcf_0
PUBLIC 2f970 0 (anonymous namespace)::msieDsngenOomrCb(ssl_item_s*, xst_s*, ssl_item_s*, char const*, char const*, char const*, char const*, char const*)
PUBLIC 2f9d0 0 (anonymous namespace)::getSvBindInst(ssl_item_s*) [clone .isra.0] [clone .part.0]
PUBLIC 2fab0 0 Sage::LibLoader<&(anonymous namespace)::dsngenLibName>::libInit() [clone .isra.0] [clone .part.0]
PUBLIC 2fad0 0 (anonymous namespace)::getPrimTypeKind(ssl_item_s*)
PUBLIC 2fcb0 0 std::function<._853 (ssl_item_s*, xst_s*, ssl_item_s*, char const*, char const*, char const*, char const*, char const*)>::function<std::_Bind<._853 (*(std::unordered_map<std::__cxx11::basic_string<char, std::char_traits<char>, std::allocator<char> >, int, std::hash<std::__cxx11::basic_string<char, std::char_traits<char>, std::allocator<char> > >, std::equal_to<std::__cxx11::basic_string<char, std::char_traits<char>, std::allocator<char> > >, std::allocator<std::pair<std::__cxx11::basic_string<char, std::char_traits<char>, std::allocator<char> > const, int> > >, std::_Placeholder<1>, std::_Placeholder<2>, std::_Placeholder<3>, std::_Placeholder<4>, std::_Placeholder<5>, std::_Placeholder<6>, std::_Placeholder<7>, std::_Placeholder<8>))(std::unordered_map<std::__cxx11::basic_string<char, std::char_traits<char>, std::allocator<char> >, int, std::hash<std::__cxx11::basic_string<char, std::char_traits<char>, std::allocator<char> > >, std::equal_to<std::__cxx11::basic_string<char, std::char_traits<char>, std::allocator<char> > >, std::allocator<std::pair<std::__cxx11::basic_string<char, std::char_traits<char>, std::allocator<char> > const, int> > >&, ssl_item_s*, xst_s*, ssl_item_s*, char const*, char const*, char const*, char const*, char const*)>, void, void>(std::_Bind<._853 (*(std::unordered_map<std::__cxx11::basic_string<char, std::char_traits<char>, std::allocator<char> >, int, std::hash<std::__cxx11::basic_string<char, std::char_traits<char>, std::allocator<char> > >, std::equal_to<std::__cxx11::basic_string<char, std::char_traits<char>, std::allocator<char> > >, std::allocator<std::pair<std::__cxx11::basic_string<char, std::char_traits<char>, std::allocator<char> > const, int> > >, std::_Placeholder<1>, std::_Placeholder<2>, std::_Placeholder<3>, std::_Placeholder<4>, std::_Placeholder<5>, std::_Placeholder<6>, std::_Placeholder<7>, std::_Placeholder<8>))(std::unordered_map<std::__cxx11::basic_string<char, std::char_traits<char>, std::allocator<char> >, int, std::hash<std::__cxx11::basic_string<char, std::char_traits<char>, std::allocator<char> > >, std::equal_to<std::__cxx11::basic_string<char, std::char_traits<char>, std::allocator<char> > >, std::allocator<std::pair<std::__cxx11::basic_string<char, std::char_traits<char>, std::allocator<char> > const, int> > >&, ssl_item_s*, xst_s*, ssl_item_s*, char const*, char const*, char const*, char const*, char const*)>)
PUBLIC 2fda0 0 std::_Function_handler<._853 (ssl_item_s*, xst_s*, ssl_item_s*, char const*, char const*, char const*, char const*, char const*), std::_Bind<._853 (*(std::unordered_map<std::__cxx11::basic_string<char, std::char_traits<char>, std::allocator<char> >, int, std::hash<std::__cxx11::basic_string<char, std::char_traits<char>, std::allocator<char> > >, std::equal_to<std::__cxx11::basic_string<char, std::char_traits<char>, std::allocator<char> > >, std::allocator<std::pair<std::__cxx11::basic_string<char, std::char_traits<char>, std::allocator<char> > const, int> > >, std::_Placeholder<1>, std::_Placeholder<2>, std::_Placeholder<3>, std::_Placeholder<4>, std::_Placeholder<5>, std::_Placeholder<6>, std::_Placeholder<7>, std::_Placeholder<8>))(std::unordered_map<std::__cxx11::basic_string<char, std::char_traits<char>, std::allocator<char> >, int, std::hash<std::__cxx11::basic_string<char, std::char_traits<char>, std::allocator<char> > >, std::equal_to<std::__cxx11::basic_string<char, std::char_traits<char>, std::allocator<char> > >, std::allocator<std::pair<std::__cxx11::basic_string<char, std::char_traits<char>, std::allocator<char> > const, int> > >&, ssl_item_s*, xst_s*, ssl_item_s*, char const*, char const*, char const*, char const*, char const*)> >::_M_invoke(std::_Any_data const&, ssl_item_s*&&, xst_s*&&, ssl_item_s*&&, char const*&&, char const*&&, char const*&&, char const*&&, char const*&&)
PUBLIC 2fdf0 0 void std::__cxx11::basic_string<char, std::char_traits<char>, std::allocator<char> >::_M_construct<char*>(char*, char*, std::forward_iterator_tag) [clone .constprop.0]
PUBLIC 2fe90 0 std::unordered_map<std::pair<xst_s*, long*>, int, (anonymous namespace)::PointerPairHash, std::equal_to<std::pair<xst_s*, long*> >, std::allocator<std::pair<std::pair<xst_s*, long*> const, int> > >::~unordered_map()
PUBLIC 2ff10 0 std::_Hashtable<std::__cxx11::basic_string<char, std::char_traits<char>, std::allocator<char> >, std::pair<std::__cxx11::basic_string<char, std::char_traits<char>, std::allocator<char> > const, (anonymous namespace)::OocrInfo>, std::allocator<std::pair<std::__cxx11::basic_string<char, std::char_traits<char>, std::allocator<char> > const, (anonymous namespace)::OocrInfo> >, std::__detail::_Select1st, std::equal_to<std::__cxx11::basic_string<char, std::char_traits<char>, std::allocator<char> > >, std::hash<std::__cxx11::basic_string<char, std::char_traits<char>, std::allocator<char> > >, std::__detail::_Mod_range_hashing, std::__detail::_Default_ranged_hash, std::__detail::_Prime_rehash_policy, std::__detail::_Hashtable_traits<true, false, true> >::find(std::__cxx11::basic_string<char, std::char_traits<char>, std::allocator<char> > const&)
PUBLIC 2ffc0 0 std::unordered_map<xst_s*, std::unordered_map<std::__cxx11::basic_string<char, std::char_traits<char>, std::allocator<char> >, (anonymous namespace)::OocrInfo, std::hash<std::__cxx11::basic_string<char, std::char_traits<char>, std::allocator<char> > >, std::equal_to<std::__cxx11::basic_string<char, std::char_traits<char>, std::allocator<char> > >, std::allocator<std::pair<std::__cxx11::basic_string<char, std::char_traits<char>, std::allocator<char> > const, (anonymous namespace)::OocrInfo> > >, std::hash<xst_s*>, std::equal_to<xst_s*>, std::allocator<std::pair<xst_s* const, std::unordered_map<std::__cxx11::basic_string<char, std::char_traits<char>, std::allocator<char> >, (anonymous namespace)::OocrInfo, std::hash<std::__cxx11::basic_string<char, std::char_traits<char>, std::allocator<char> > >, std::equal_to<std::__cxx11::basic_string<char, std::char_traits<char>, std::allocator<char> > >, std::allocator<std::pair<std::__cxx11::basic_string<char, std::char_traits<char>, std::allocator<char> > const, (anonymous namespace)::OocrInfo> > > > > >::~unordered_map()
PUBLIC 30180 0 std::_Hashtable<std::pair<xst_s*, long*>, std::pair<std::pair<xst_s*, long*> const, int>, std::allocator<std::pair<std::pair<xst_s*, long*> const, int> >, std::__detail::_Select1st, std::equal_to<std::pair<xst_s*, long*> >, (anonymous namespace)::PointerPairHash, std::__detail::_Mod_range_hashing, std::__detail::_Default_ranged_hash, std::__detail::_Prime_rehash_policy, std::__detail::_Hashtable_traits<true, false, true> >::find(std::pair<xst_s*, long*> const&) [clone .constprop.0]
PUBLIC 30210 0 std::__cxx11::basic_string<char, std::char_traits<char>, std::allocator<char> >::basic_string(char const*, std::allocator<char> const&) [clone .isra.0]
PUBLIC 302d0 0 std::vector<(anonymous namespace)::OocrInfo, std::allocator<(anonymous namespace)::OocrInfo> >::~vector()
PUBLIC 303c0 0 std::_Rb_tree<std::__cxx11::basic_string<char, std::char_traits<char>, std::allocator<char> >, std::pair<std::__cxx11::basic_string<char, std::char_traits<char>, std::allocator<char> > const, (anonymous namespace)::OocrInfo>, std::_Select1st<std::pair<std::__cxx11::basic_string<char, std::char_traits<char>, std::allocator<char> > const, (anonymous namespace)::OocrInfo> >, std::less<std::__cxx11::basic_string<char, std::char_traits<char>, std::allocator<char> > >, std::allocator<std::pair<std::__cxx11::basic_string<char, std::char_traits<char>, std::allocator<char> > const, (anonymous namespace)::OocrInfo> > >::_M_erase(std::_Rb_tree_node<std::pair<std::__cxx11::basic_string<char, std::char_traits<char>, std::allocator<char> > const, (anonymous namespace)::OocrInfo> >*)
PUBLIC 304c0 0 Sage::FuncLoader<&(anonymous namespace)::dsngenLibName, &(anonymous namespace)::str_dsngen_record_aname_to_db, void, char*, ssl_item_s*>::funcInit() [clone .isra.0]
PUBLIC 30520 0 Sage::FuncLoader<&(anonymous namespace)::dsngenLibName, &(anonymous namespace)::str_dsngen_process_scope_oomrs_internal, void, ssl_item_s*, char*, char*, std::function<._853 (ssl_item_s*, xst_s*, ssl_item_s*, char const*, char const*, char const*, char const*, char const*)>*, bool>::funcInit() [clone .isra.0]
PUBLIC 30580 0 Sage::FuncLoader<&(anonymous namespace)::dsngenLibName, &(anonymous namespace)::str_dsngen_idaDesignRecordHierarchyEntry, idaStatusCodeT, char const*, char const*, char const*, idaHierarchyKindT, idaHierarchySubKindT, int, char const*, char const*, char const*, int, int>::funcInit() [clone .isra.0]
PUBLIC 305e0 0 Sage::FuncLoader<&(anonymous namespace)::dsngenLibName, &(anonymous namespace)::str_dsngen_lcvname, char*, ssl_item_s*, int>::funcInit() [clone .isra.0]
PUBLIC 30640 0 Sage::FuncLoader<&(anonymous namespace)::dsngenLibName, &(anonymous namespace)::str_dsngen_process_coercion, idaHierarchySubKindT, ssl_item_s*, vst_s*, char*, int>::funcInit() [clone .isra.0]
PUBLIC 306a0 0 Sage::FuncLoader<&(anonymous namespace)::dsngenLibName, &(anonymous namespace)::str_dsngen_print_scope_path_to_buf, char const*, char*, ssl_item_s*, char const*, bool>::funcInit() [clone .isra.0]
PUBLIC 30700 0 (anonymous namespace)::escapeWrap(std::__cxx11::basic_string<char, std::char_traits<char>, std::allocator<char> > const&, std::__cxx11::basic_string<char, std::char_traits<char>, std::allocator<char> >&)
PUBLIC 30770 0 std::_Hashtable<std::pair<xst_s*, long*>, std::pair<std::pair<xst_s*, long*> const, int>, std::allocator<std::pair<std::pair<xst_s*, long*> const, int> >, std::__detail::_Select1st, std::equal_to<std::pair<xst_s*, long*> >, (anonymous namespace)::PointerPairHash, std::__detail::_Mod_range_hashing, std::__detail::_Default_ranged_hash, std::__detail::_Prime_rehash_policy, std::__detail::_Hashtable_traits<true, false, true> >::_M_insert_unique_node(unsigned long, unsigned long, std::__detail::_Hash_node<std::pair<std::pair<xst_s*, long*> const, int>, true>*, unsigned long) [clone .constprop.0]
PUBLIC 30990 0 std::__detail::_Map_base<std::pair<xst_s*, long*>, std::pair<std::pair<xst_s*, long*> const, int>, std::allocator<std::pair<std::pair<xst_s*, long*> const, int> >, std::__detail::_Select1st, std::equal_to<std::pair<xst_s*, long*> >, (anonymous namespace)::PointerPairHash, std::__detail::_Mod_range_hashing, std::__detail::_Default_ranged_hash, std::__detail::_Prime_rehash_policy, std::__detail::_Hashtable_traits<true, false, true>, true>::operator[](std::pair<xst_s*, long*>&&) [clone .constprop.0]
PUBLIC 30a60 0 std::pair<std::__detail::_Node_iterator<std::pair<std::pair<xst_s*, long*> const, int>, false, true>, bool> std::_Hashtable<std::pair<xst_s*, long*>, std::pair<std::pair<xst_s*, long*> const, int>, std::allocator<std::pair<std::pair<xst_s*, long*> const, int> >, std::__detail::_Select1st, std::equal_to<std::pair<xst_s*, long*> >, (anonymous namespace)::PointerPairHash, std::__detail::_Mod_range_hashing, std::__detail::_Default_ranged_hash, std::__detail::_Prime_rehash_policy, std::__detail::_Hashtable_traits<true, false, true> >::_M_emplace<std::pair<std::pair<xst_s*, long*> const, int> >(std::integral_constant<bool, true>, std::pair<std::pair<xst_s*, long*> const, int>&&) [clone .isra.0] [clone .constprop.0]
PUBLIC 30b40 0 std::_Rb_tree<std::__cxx11::basic_string<char, std::char_traits<char>, std::allocator<char> >, std::pair<std::__cxx11::basic_string<char, std::char_traits<char>, std::allocator<char> > const, (anonymous namespace)::OocrInfo>, std::_Select1st<std::pair<std::__cxx11::basic_string<char, std::char_traits<char>, std::allocator<char> > const, (anonymous namespace)::OocrInfo> >, std::less<std::__cxx11::basic_string<char, std::char_traits<char>, std::allocator<char> > >, std::allocator<std::pair<std::__cxx11::basic_string<char, std::char_traits<char>, std::allocator<char> > const, (anonymous namespace)::OocrInfo> > >::_M_get_insert_unique_pos(std::__cxx11::basic_string<char, std::char_traits<char>, std::allocator<char> > const&)
PUBLIC 30ca0 0 std::__detail::_Map_base<std::__cxx11::basic_string<char, std::char_traits<char>, std::allocator<char> >, std::pair<std::__cxx11::basic_string<char, std::char_traits<char>, std::allocator<char> > const, (anonymous namespace)::OocrInfo>, std::allocator<std::pair<std::__cxx11::basic_string<char, std::char_traits<char>, std::allocator<char> > const, (anonymous namespace)::OocrInfo> >, std::__detail::_Select1st, std::equal_to<std::__cxx11::basic_string<char, std::char_traits<char>, std::allocator<char> > >, std::hash<std::__cxx11::basic_string<char, std::char_traits<char>, std::allocator<char> > >, std::__detail::_Mod_range_hashing, std::__detail::_Default_ranged_hash, std::__detail::_Prime_rehash_policy, std::__detail::_Hashtable_traits<true, false, true>, true>::operator[](std::__cxx11::basic_string<char, std::char_traits<char>, std::allocator<char> > const&)
PUBLIC 30fe0 0 (anonymous namespace)::createOoprForOocr((anonymous namespace)::OocrInfo&)
PUBLIC 31a50 0 (anonymous namespace)::comparePibInstancesDirect(long*, long*)
PUBLIC 31dc0 0 (anonymous namespace)::comparePibInstances(void const*, void const*)
PUBLIC 31dd0 0 (anonymous namespace)::compareRoots(void const*, void const*)
PUBLIC 31f00 0 (anonymous namespace)::getPrimTypeName(vst_s*, bool)
PUBLIC 32450 0 (anonymous namespace)::fileSysErr(std::__cxx11::basic_string<char, std::char_traits<char>, std::allocator<char> > const&, std::__cxx11::basic_string<char, std::char_traits<char>, std::allocator<char> > const&)
PUBLIC 326f0 0 (anonymous namespace)::getNodeId(xst_s*, long*, bool*)
PUBLIC 32ad0 0 std::__cxx11::basic_string<char, std::char_traits<char>, std::allocator<char> > __gnu_cxx::__to_xstring<std::__cxx11::basic_string<char, std::char_traits<char>, std::allocator<char> >, char>(int (*)(char*, unsigned long, char const*, __va_list_tag*), unsigned long, char const*, ...) [clone .constprop.0]
PUBLIC 32c00 0 (anonymous namespace)::prepareOoprForSvBindOomr(ssl_item_s*, xst_s*, std::__cxx11::basic_string<char, std::char_traits<char>, std::allocator<char> > const&, std::__cxx11::basic_string<char, std::char_traits<char>, std::allocator<char> > const&, xst_s*, std::__cxx11::basic_string<char, std::char_traits<char>, std::allocator<char> > const&, bool)
PUBLIC 332b0 0 (anonymous namespace)::getXmclonePartitionPath(char const*, char const*, char const*, char const*, char const*, bool) [clone .constprop.0]
PUBLIC 337f0 0 Sage::getSvStringData(unsigned char*, unsigned long&)
PUBLIC 33900 0 Sage::catLCVSName[abi:cxx11](char const*, char const*, char const*, char const*)
PUBLIC 33b30 0 Sage::catLCVSName(std::__cxx11::basic_string<char, std::char_traits<char>, std::allocator<char> > const&, std::__cxx11::basic_string<char, std::char_traits<char>, std::allocator<char> > const&, std::__cxx11::basic_string<char, std::char_traits<char>, std::allocator<char> > const&, std::__cxx11::basic_string<char, std::char_traits<char>, std::allocator<char> > const&)
PUBLIC 33b50 0 Sage::getIdCounter()
PUBLIC 33b60 0 Sage::getPartInfo()
PUBLIC 33b70 0 Sage::getTypeIdMap[abi:cxx11]()
PUBLIC 33b80 0 Sage::sagegenProfPush(int)
PUBLIC 33be0 0 Sage::sagegenProfPop()
PUBLIC 33c50 0 (anonymous namespace)::recordHierNodeTypeSignals(ssl_item_s*, hiertreeproto::ModuleItem&) [clone .isra.0]
PUBLIC 33e70 0 (anonymous namespace)::sagegenIePropagateCoercion()
PUBLIC 33f30 0 sagegen_xmclone_data_prepared
PUBLIC 33f40 0 sagegen_xmclone_start_cb
PUBLIC 33f60 0 sagegen_ie_propagate_coercion
PUBLIC 33f70 0 (anonymous namespace)::getPaddedHexStr(long)
PUBLIC 343c0 0 Sage::getSignature[abi:cxx11](ssl_item_s const*)
PUBLIC 34520 0 Sage::buildUnknownLcvName[abi:cxx11](ssl_item_s*, bool)
PUBLIC 34750 0 Sage::getLcvName[abi:cxx11](ssl_item_s*, bool)
PUBLIC 34a60 0 Sage::getLcvName[abi:cxx11](xst_s*, long*, bool)
PUBLIC 34a90 0 (anonymous namespace)::getXmclonePartDef(long*)
PUBLIC 34c80 0 (anonymous namespace)::getOocrTargetValue(xst_s*, long*, bool&) [clone .constprop.0]
PUBLIC 35250 0 (anonymous namespace)::isCurrentXmcloneTop(ssl_item_s*)
PUBLIC 35370 0 (anonymous namespace)::logVlogObj(char const*, xst_s*, long*, std::__cxx11::basic_string<char, std::char_traits<char>, std::allocator<char> > const&)
PUBLIC 35dd0 0 sagegen_xmclone_bind_cb
PUBLIC 35ef0 0 (anonymous namespace)::xmcloneDsngenOomrCb(ssl_item_s*, xst_s*, ssl_item_s*, char const*, char const*, char const*, char const*, char const*)
PUBLIC 36920 0 std::_Rb_tree_iterator<std::pair<std::pair<std::__cxx11::basic_string<char, std::char_traits<char>, std::allocator<char> >, int> const, int> > std::_Rb_tree<std::pair<std::__cxx11::basic_string<char, std::char_traits<char>, std::allocator<char> >, int>, std::pair<std::pair<std::__cxx11::basic_string<char, std::char_traits<char>, std::allocator<char> >, int> const, int>, std::_Select1st<std::pair<std::pair<std::__cxx11::basic_string<char, std::char_traits<char>, std::allocator<char> >, int> const, int> >, std::less<std::pair<std::__cxx11::basic_string<char, std::char_traits<char>, std::allocator<char> >, int> >, std::allocator<std::pair<std::pair<std::__cxx11::basic_string<char, std::char_traits<char>, std::allocator<char> >, int> const, int> > >::_M_emplace_hint_unique<std::piecewise_construct_t const&, std::tuple<std::pair<std::__cxx11::basic_string<char, std::char_traits<char>, std::allocator<char> >, int>&&>, std::tuple<> >(std::_Rb_tree_const_iterator<std::pair<std::pair<std::__cxx11::basic_string<char, std::char_traits<char>, std::allocator<char> >, int> const, int> >, std::piecewise_construct_t const&, std::tuple<std::pair<std::__cxx11::basic_string<char, std::char_traits<char>, std::allocator<char> >, int>&&>&&, std::tuple<>&&) [clone .isra.0]
PUBLIC 370e0 0 (anonymous namespace)::getImcRoots()
PUBLIC 37400 0 sagegen_xmclone_prepare
PUBLIC 37cc0 0 sagegen_xmclone_end_cb
PUBLIC 37f60 0 (anonymous namespace)::getSvBindTops()
PUBLIC 38260 0 (anonymous namespace)::propagationCb(vst_s*, long*, std::unordered_set<std::__cxx11::basic_string<char, std::char_traits<char>, std::allocator<char> >, std::hash<std::__cxx11::basic_string<char, std::char_traits<char>, std::allocator<char> > >, std::equal_to<std::__cxx11::basic_string<char, std::char_traits<char>, std::allocator<char> > >, std::allocator<std::__cxx11::basic_string<char, std::char_traits<char>, std::allocator<char> > > > const&)
PUBLIC 385b0 0 (anonymous namespace)::breakDownPortExpr(vst_s*, ssl_item_s*, std::unordered_set<std::__cxx11::basic_string<char, std::char_traits<char>, std::allocator<char> >, std::hash<std::__cxx11::basic_string<char, std::char_traits<char>, std::allocator<char> > >, std::equal_to<std::__cxx11::basic_string<char, std::char_traits<char>, std::allocator<char> > >, std::allocator<std::__cxx11::basic_string<char, std::char_traits<char>, std::allocator<char> > > > const&, void (*)(vst_s*, long*, std::unordered_set<std::__cxx11::basic_string<char, std::char_traits<char>, std::allocator<char> >, std::hash<std::__cxx11::basic_string<char, std::char_traits<char>, std::allocator<char> > >, std::equal_to<std::__cxx11::basic_string<char, std::char_traits<char>, std::allocator<char> > >, std::allocator<std::__cxx11::basic_string<char, std::char_traits<char>, std::allocator<char> > > > const&)) [clone .constprop.0]
PUBLIC 386c0 0 (anonymous namespace)::getNodeTypeId(std::__cxx11::basic_string<char, std::char_traits<char>, std::allocator<char> > const&, bool*)
PUBLIC 38970 0 std::__detail::_Map_base<std::__cxx11::basic_string<char, std::char_traits<char>, std::allocator<char> >, std::pair<std::__cxx11::basic_string<char, std::char_traits<char>, std::allocator<char> > const, int>, std::allocator<std::pair<std::__cxx11::basic_string<char, std::char_traits<char>, std::allocator<char> > const, int> >, std::__detail::_Select1st, std::equal_to<std::__cxx11::basic_string<char, std::char_traits<char>, std::allocator<char> > >, std::hash<std::__cxx11::basic_string<char, std::char_traits<char>, std::allocator<char> > >, std::__detail::_Mod_range_hashing, std::__detail::_Default_ranged_hash, std::__detail::_Prime_rehash_policy, std::__detail::_Hashtable_traits<true, false, true>, true>::operator[](std::__cxx11::basic_string<char, std::char_traits<char>, std::allocator<char> > const&) [clone .constprop.0]
PUBLIC 38a80 0 (anonymous namespace)::getMSIEPartitionId(long*)
PUBLIC 38b10 0 (anonymous namespace)::getXmclonePartitionId(long*)
PUBLIC 38c30 0 std::pair<std::__detail::_Node_iterator<xst_s*, true, false>, bool> std::_Hashtable<xst_s*, xst_s*, std::allocator<xst_s*>, std::__detail::_Identity, std::equal_to<xst_s*>, std::hash<xst_s*>, std::__detail::_Mod_range_hashing, std::__detail::_Default_ranged_hash, std::__detail::_Prime_rehash_policy, std::__detail::_Hashtable_traits<false, true, true> >::_M_insert<xst_s*, std::__detail::_AllocNode<std::allocator<std::__detail::_Hash_node<xst_s*, false> > > >(xst_s*&&, std::__detail::_AllocNode<std::allocator<std::__detail::_Hash_node<xst_s*, false> > > const&, std::integral_constant<bool, true>, unsigned long) [clone .constprop.0]
PUBLIC 38ce0 0 (anonymous namespace)::sagegenIeGetPartitionCoercion()
PUBLIC 398c0 0 sagegen_ie_get_partition_coercion
PUBLIC 398d0 0 std::_Function_base::_Base_manager<std::_Bind<._853 (*(std::unordered_map<std::__cxx11::basic_string<char, std::char_traits<char>, std::allocator<char> >, int, std::hash<std::__cxx11::basic_string<char, std::char_traits<char>, std::allocator<char> > >, std::equal_to<std::__cxx11::basic_string<char, std::char_traits<char>, std::allocator<char> > >, std::allocator<std::pair<std::__cxx11::basic_string<char, std::char_traits<char>, std::allocator<char> > const, int> > >, std::_Placeholder<1>, std::_Placeholder<2>, std::_Placeholder<3>, std::_Placeholder<4>, std::_Placeholder<5>, std::_Placeholder<6>, std::_Placeholder<7>, std::_Placeholder<8>))(std::unordered_map<std::__cxx11::basic_string<char, std::char_traits<char>, std::allocator<char> >, int, std::hash<std::__cxx11::basic_string<char, std::char_traits<char>, std::allocator<char> > >, std::equal_to<std::__cxx11::basic_string<char, std::char_traits<char>, std::allocator<char> > >, std::allocator<std::pair<std::__cxx11::basic_string<char, std::char_traits<char>, std::allocator<char> > const, int> > >&, ssl_item_s*, xst_s*, ssl_item_s*, char const*, char const*, char const*, char const*, char const*)> >::_M_manager(std::_Any_data&, std::_Any_data const&, std::_Manager_operation)
PUBLIC 39a50 0 void std::__introsort_loop<__gnu_cxx::__normal_iterator<std::__cxx11::basic_string<char, std::char_traits<char>, std::allocator<char> >*, std::vector<std::__cxx11::basic_string<char, std::char_traits<char>, std::allocator<char> >, std::allocator<std::__cxx11::basic_string<char, std::char_traits<char>, std::allocator<char> > > > >, long, __gnu_cxx::__ops::_Iter_less_iter>(__gnu_cxx::__normal_iterator<std::__cxx11::basic_string<char, std::char_traits<char>, std::allocator<char> >*, std::vector<std::__cxx11::basic_string<char, std::char_traits<char>, std::allocator<char> >, std::allocator<std::__cxx11::basic_string<char, std::char_traits<char>, std::allocator<char> > > > >, __gnu_cxx::__normal_iterator<std::__cxx11::basic_string<char, std::char_traits<char>, std::allocator<char> >*, std::vector<std::__cxx11::basic_string<char, std::char_traits<char>, std::allocator<char> >, std::allocator<std::__cxx11::basic_string<char, std::char_traits<char>, std::allocator<char> > > > >, long, __gnu_cxx::__ops::_Iter_less_iter) [clone .isra.0]
PUBLIC 39fc0 0 std::_Rb_tree_iterator<std::pair<std::pair<std::__cxx11::basic_string<char, std::char_traits<char>, std::allocator<char> >, std::__cxx11::basic_string<char, std::char_traits<char>, std::allocator<char> > > const, std::set<std::pair<std::__cxx11::basic_string<char, std::char_traits<char>, std::allocator<char> >, std::__cxx11::basic_string<char, std::char_traits<char>, std::allocator<char> > >, std::less<std::pair<std::__cxx11::basic_string<char, std::char_traits<char>, std::allocator<char> >, std::__cxx11::basic_string<char, std::char_traits<char>, std::allocator<char> > > >, std::allocator<std::pair<std::__cxx11::basic_string<char, std::char_traits<char>, std::allocator<char> >, std::__cxx11::basic_string<char, std::char_traits<char>, std::allocator<char> > > > > > > std::_Rb_tree<std::pair<std::__cxx11::basic_string<char, std::char_traits<char>, std::allocator<char> >, std::__cxx11::basic_string<char, std::char_traits<char>, std::allocator<char> > >, std::pair<std::pair<std::__cxx11::basic_string<char, std::char_traits<char>, std::allocator<char> >, std::__cxx11::basic_string<char, std::char_traits<char>, std::allocator<char> > > const, std::set<std::pair<std::__cxx11::basic_string<char, std::char_traits<char>, std::allocator<char> >, std::__cxx11::basic_string<char, std::char_traits<char>, std::allocator<char> > >, std::less<std::pair<std::__cxx11::basic_string<char, std::char_traits<char>, std::allocator<char> >, std::__cxx11::basic_string<char, std::char_traits<char>, std::allocator<char> > > >, std::allocator<std::pair<std::__cxx11::basic_string<char, std::char_traits<char>, std::allocator<char> >, std::__cxx11::basic_string<char, std::char_traits<char>, std::allocator<char> > > > > >, std::_Select1st<std::pair<std::pair<std::__cxx11::basic_string<char, std::char_traits<char>, std::allocator<char> >, std::__cxx11::basic_string<char, std::char_traits<char>, std::allocator<char> > > const, std::set<std::pair<std::__cxx11::basic_string<char, std::char_traits<char>, std::allocator<char> >, std::__cxx11::basic_string<char, std::char_traits<char>, std::allocator<char> > >, std::less<std::pair<std::__cxx11::basic_string<char, std::char_traits<char>, std::allocator<char> >, std::__cxx11::basic_string<char, std::char_traits<char>, std::allocator<char> > > >, std::allocator<std::pair<std::__cxx11::basic_string<char, std::char_traits<char>, std::allocator<char> >, std::__cxx11::basic_string<char, std::char_traits<char>, std::allocator<char> > > > > > >, std::less<std::pair<std::__cxx11::basic_string<char, std::char_traits<char>, std::allocator<char> >, std::__cxx11::basic_string<char, std::char_traits<char>, std::allocator<char> > > >, std::allocator<std::pair<std::pair<std::__cxx11::basic_string<char, std::char_traits<char>, std::allocator<char> >, std::__cxx11::basic_string<char, std::char_traits<char>, std::allocator<char> > > const, std::set<std::pair<std::__cxx11::basic_string<char, std::char_traits<char>, std::allocator<char> >, std::__cxx11::basic_string<char, std::char_traits<char>, std::allocator<char> > >, std::less<std::pair<std::__cxx11::basic_string<char, std::char_traits<char>, std::allocator<char> >, std::__cxx11::basic_string<char, std::char_traits<char>, std::allocator<char> > > >, std::allocator<std::pair<std::__cxx11::basic_string<char, std::char_traits<char>, std::allocator<char> >, std::__cxx11::basic_string<char, std::char_traits<char>, std::allocator<char> > > > > > > >::_M_emplace_hint_unique<std::piecewise_construct_t const&, std::tuple<std::pair<std::__cxx11::basic_string<char, std::char_traits<char>, std::allocator<char> >, std::__cxx11::basic_string<char, std::char_traits<char>, std::allocator<char> > >&&>, std::tuple<> >(std::_Rb_tree_const_iterator<std::pair<std::pair<std::__cxx11::basic_string<char, std::char_traits<char>, std::allocator<char> >, std::__cxx11::basic_string<char, std::char_traits<char>, std::allocator<char> > > const, std::set<std::pair<std::__cxx11::basic_string<char, std::char_traits<char>, std::allocator<char> >, std::__cxx11::basic_string<char, std::char_traits<char>, std::allocator<char> > >, std::less<std::pair<std::__cxx11::basic_string<char, std::char_traits<char>, std::allocator<char> >, std::__cxx11::basic_string<char, std::char_traits<char>, std::allocator<char> > > >, std::allocator<std::pair<std::__cxx11::basic_string<char, std::char_traits<char>, std::allocator<char> >, std::__cxx11::basic_string<char, std::char_traits<char>, std::allocator<char> > > > > > >, std::piecewise_construct_t const&, std::tuple<std::pair<std::__cxx11::basic_string<char, std::char_traits<char>, std::allocator<char> >, std::__cxx11::basic_string<char, std::char_traits<char>, std::allocator<char> > >&&>&&, std::tuple<>&&) [clone .isra.0]
PUBLIC 3a1d0 0 (anonymous namespace)::sagegenXmcloneOocrCb(vst_s*, long*, vst_s*, long*)
PUBLIC 3a640 0 sagegen_wait_and_cleanup
PUBLIC 3aa00 0 (anonymous namespace)::exitHandler(long*, int)
PUBLIC 3aa30 0 (anonymous namespace)::recordModuleItemPartition(std::__cxx11::basic_string<char, std::char_traits<char>, std::allocator<char> > const&, std::__cxx11::basic_string<char, std::char_traits<char>, std::allocator<char> > const&, std::__cxx11::basic_string<char, std::char_traits<char>, std::allocator<char> > const&, std::__cxx11::basic_string<char, std::char_traits<char>, std::allocator<char> > const&, std::__cxx11::basic_string<char, std::char_traits<char>, std::allocator<char> > const&, std::__cxx11::basic_string<char, std::char_traits<char>, std::allocator<char> > const&, bool)
PUBLIC 3b1d0 0 (anonymous namespace)::recordPartitionInfo(void*, void*, bool, char*)
PUBLIC 3c690 0 (anonymous namespace)::recordHierParent(int, ssl_item_s*, ssl_item_s const*, int*, std::__cxx11::basic_string<char, std::char_traits<char>, std::allocator<char> > const&) [clone .isra.0]
PUBLIC 3cb40 0 (anonymous namespace)::recordHierNodeType(int, ssl_item_s*, bool)
PUBLIC 3d9a0 0 (anonymous namespace)::sagegenRecordTopInstance(long*, bool)
PUBLIC 3dc80 0 sagegen_top_instance
PUBLIC 3dc90 0 (anonymous namespace)::sagegenBeginShutdown(bool)
PUBLIC 3e8a0 0 sagegen_begin_shutdown
PUBLIC 3e8b0 0 (anonymous namespace)::sagegenIeStitchPair(long*, long*, bool)
PUBLIC 3f960 0 sagegen_ie_stitch_pair
PUBLIC 3f970 0 (anonymous namespace)::xmcloneConnectBindInstOoprs(xst_s*, std::vector<long*, std::allocator<long*> >&)
PUBLIC 411c0 0 (anonymous namespace)::xmcloneBindScopeDsngenOomrCb(std::unordered_map<std::__cxx11::basic_string<char, std::char_traits<char>, std::allocator<char> >, int, std::hash<std::__cxx11::basic_string<char, std::char_traits<char>, std::allocator<char> > >, std::equal_to<std::__cxx11::basic_string<char, std::char_traits<char>, std::allocator<char> > >, std::allocator<std::pair<std::__cxx11::basic_string<char, std::char_traits<char>, std::allocator<char> > const, int> > >&, ssl_item_s*, xst_s*, ssl_item_s*, char const*, char const*, char const*, char const*, char const*)
PUBLIC 416a0 0 sagegen_ie_connect_oopr
PUBLIC 41ed0 0 (anonymous namespace)::recordScope(xst_s*, long*, std::__cxx11::basic_string<char, std::char_traits<char>, std::allocator<char> > const&) [clone .constprop.0]
PUBLIC 42c40 0 (anonymous namespace)::processXstItems(ssl_item_s*, idaStatusCodeT, char*, char*, std::__cxx11::basic_string<char, std::char_traits<char>, std::allocator<char> > const&)
PUBLIC 44890 0 (anonymous namespace)::traverseDesignCallback(ssl_item_s*, bool, ._853 (*)(ssl_item_s*, xst_s*, ssl_item_s*, char const*, char const*, char const*, char const*, char const*))
PUBLIC 455e0 0 (anonymous namespace)::traverseDesignCallbackMonolithic(ssl_item_s*)
PUBLIC 455f0 0 (anonymous namespace)::traverseDesignCallbackXmclone(ssl_item_s*)
PUBLIC 45610 0 (anonymous namespace)::traverseDesignCallbackXmcloneDep(ssl_item_s*)
PUBLIC 45630 0 (anonymous namespace)::sagegenGenerate(char*, char*, char*, char*, char*, char*, int, bool, bool, bool, void*, void*, ssl_item_s*)
PUBLIC 47700 0 sagegen_generate
PUBLIC 47730 0 (anonymous namespace)::sagegenGenerateXmclone(char*, char*, char*, char*, char*, char*, int, bool, void*)
PUBLIC 495c0 0 sagegen_generate_xmclone
PUBLIC 495d0 0 sagegen_xmclone_complete
PUBLIC 498c0 0 std::ctype<char>::do_widen(char) const
PUBLIC 498d0 0 Sage::ProtoAPI::commInit(char const*, bool, bool)
PUBLIC 498e0 0 Sage::ProtoAPI::commSignalShutdown(bool)
PUBLIC 498f0 0 Sage::ProtoAPI::commWaitAndCleanup()
PUBLIC 49900 0 Sage::ProtoAPI::recordHierEdge(int, int, hiertreeproto::Edge_EdgeKind)
PUBLIC 49910 0 Sage::ProtoAPI::recordHierNode(int, std::__cxx11::basic_string<char, std::char_traits<char>, std::allocator<char> > const&, Sage::GenSrcLoc const&)
PUBLIC 49920 0 Sage::ProtoAPI::startHierNodeType(int, int, std::__cxx11::basic_string<char, std::char_traits<char>, std::allocator<char> > const&, std::__cxx11::basic_string<char, std::char_traits<char>, std::allocator<char> > const&, Sage::GenSrcLoc const&, hiertreeproto::NamedBlockCore_NamedBlockKind)
PUBLIC 49930 0 Sage::ProtoAPI::finishHierNodeType(hiertreeproto::ModuleItem&)
PUBLIC 49940 0 Sage::ProtoAPI::startParam(hiertreeproto::ModuleItem&, int, std::__cxx11::basic_string<char, std::char_traits<char>, std::allocator<char> > const&, Sage::GenSrcLoc const&)
PUBLIC 49950 0 Sage::ProtoAPI::finishType(Sage::Wrapper<parameterproto::ParameterBasicInfo>&)
PUBLIC 49960 0 Sage::ProtoAPI::finishType(Sage::Wrapper<hiertreeproto::Signal>&)
PUBLIC 49970 0 Sage::ProtoAPI::startSignal(hiertreeproto::ModuleItem&, int, std::__cxx11::basic_string<char, std::char_traits<char>, std::allocator<char> > const&, Sage::GenSrcLoc const&, bool, bool, bool, hiertreeproto::Signal_SigVis)
PUBLIC 49980 0 Sage::ProtoAPI::addPredefinedType(std::__cxx11::basic_string<char, std::char_traits<char>, std::allocator<char> > const&, bool, bool, bool, typeinfoproto::PredefinedType_Type, Sage::Wrapper<parameterproto::ParameterBasicInfo>&)
PUBLIC 49990 0 Sage::ProtoAPI::addPredefinedType(std::__cxx11::basic_string<char, std::char_traits<char>, std::allocator<char> > const&, bool, bool, bool, typeinfoproto::PredefinedType_Type, Sage::Wrapper<hiertreeproto::Signal>&)
PUBLIC 499a0 0 Sage::ProtoAPI::addStruct(std::__cxx11::basic_string<char, std::char_traits<char>, std::allocator<char> > const&, bool, bool, bool, bool, std::tuple<bool, bool, long, long>&, Sage::Wrapper<parameterproto::ParameterBasicInfo>&)
PUBLIC 499b0 0 Sage::ProtoAPI::addStruct(std::__cxx11::basic_string<char, std::char_traits<char>, std::allocator<char> > const&, bool, bool, bool, bool, std::tuple<bool, bool, long, long>&, Sage::Wrapper<hiertreeproto::Signal>&)
PUBLIC 499c0 0 Sage::ProtoAPI::addUnion(std::__cxx11::basic_string<char, std::char_traits<char>, std::allocator<char> > const&, bool, bool, bool, bool, std::tuple<bool, bool, long, long>&, Sage::Wrapper<parameterproto::ParameterBasicInfo>&)
PUBLIC 499d0 0 Sage::ProtoAPI::addUnion(std::__cxx11::basic_string<char, std::char_traits<char>, std::allocator<char> > const&, bool, bool, bool, bool, std::tuple<bool, bool, long, long>&, Sage::Wrapper<hiertreeproto::Signal>&)
PUBLIC 499e0 0 Sage::ProtoAPI::finishComposite(Sage::Wrapper<parameterproto::ParameterBasicInfo>&)
PUBLIC 499f0 0 Sage::ProtoAPI::finishComposite(Sage::Wrapper<hiertreeproto::Signal>&)
PUBLIC 49a00 0 Sage::ProtoAPI::addField(std::__cxx11::basic_string<char, std::char_traits<char>, std::allocator<char> > const&, typeinfoproto::TypeInfoTree_Type, Sage::Wrapper<parameterproto::ParameterBasicInfo>&)
PUBLIC 49a10 0 Sage::ProtoAPI::addField(std::__cxx11::basic_string<char, std::char_traits<char>, std::allocator<char> > const&, typeinfoproto::TypeInfoTree_Type, Sage::Wrapper<hiertreeproto::Signal>&)
PUBLIC 49a20 0 Sage::ProtoAPI::getByteStream(unsigned char*, unsigned long)
PUBLIC 49a30 0 Sage::ProtoAPI::addEnum(std::__cxx11::basic_string<char, std::char_traits<char>, std::allocator<char> > const&, std::vector<std::pair<std::__cxx11::basic_string<char, std::char_traits<char>, std::allocator<char> >, common::ByteStream*>, std::allocator<std::pair<std::__cxx11::basic_string<char, std::char_traits<char>, std::allocator<char> >, common::ByteStream*> > > const&, unsigned long, bool, bool, bool, Sage::Wrapper<parameterproto::ParameterBasicInfo>&)
PUBLIC 49a40 0 Sage::ProtoAPI::addEnum(std::__cxx11::basic_string<char, std::char_traits<char>, std::allocator<char> > const&, std::vector<std::pair<std::__cxx11::basic_string<char, std::char_traits<char>, std::allocator<char> >, common::ByteStream*>, std::allocator<std::pair<std::__cxx11::basic_string<char, std::char_traits<char>, std::allocator<char> >, common::ByteStream*> > > const&, unsigned long, bool, bool, bool, Sage::Wrapper<hiertreeproto::Signal>&)
PUBLIC 49a50 0 Sage::ProtoAPI::addArray(std::__cxx11::basic_string<char, std::char_traits<char>, std::allocator<char> > const&, std::vector<std::tuple<bool, bool, long, long>, std::allocator<std::tuple<bool, bool, long, long> > > const&, typeinfoproto::TypeInfoTree_Type, bool, bool, Sage::Wrapper<parameterproto::ParameterBasicInfo>&)
PUBLIC 49a60 0 Sage::ProtoAPI::addArray(std::__cxx11::basic_string<char, std::char_traits<char>, std::allocator<char> > const&, std::vector<std::tuple<bool, bool, long, long>, std::allocator<std::tuple<bool, bool, long, long> > > const&, typeinfoproto::TypeInfoTree_Type, bool, bool, Sage::Wrapper<hiertreeproto::Signal>&)
PUBLIC 49a70 0 Sage::ProtoAPI::addQDA(std::__cxx11::basic_string<char, std::char_traits<char>, std::allocator<char> > const&, typeinfoproto::QDAArray_Type, typeinfoproto::TypeInfoTree_Type, typeinfoproto::TypeInfoTree_Type, Sage::Wrapper<parameterproto::ParameterBasicInfo>&)
PUBLIC 49a80 0 Sage::ProtoAPI::addQDA(std::__cxx11::basic_string<char, std::char_traits<char>, std::allocator<char> > const&, typeinfoproto::QDAArray_Type, typeinfoproto::TypeInfoTree_Type, typeinfoproto::TypeInfoTree_Type, Sage::Wrapper<hiertreeproto::Signal>&)
PUBLIC 49a90 0 Sage::ProtoAPI::addClassHandle(std::__cxx11::basic_string<char, std::char_traits<char>, std::allocator<char> > const&, int, int, typeinfoproto::ClassHandle_Type, typeinfoproto::TypeInfoTree_Type, Sage::Wrapper<parameterproto::ParameterBasicInfo>&)
PUBLIC 49aa0 0 Sage::ProtoAPI::addClassHandle(std::__cxx11::basic_string<char, std::char_traits<char>, std::allocator<char> > const&, int, int, typeinfoproto::ClassHandle_Type, typeinfoproto::TypeInfoTree_Type, Sage::Wrapper<hiertreeproto::Signal>&)
PUBLIC 49ab0 0 Sage::ProtoAPI::addVirtualInterface(std::__cxx11::basic_string<char, std::char_traits<char>, std::allocator<char> > const&, int, int, Sage::Wrapper<parameterproto::ParameterBasicInfo>&)
PUBLIC 49ac0 0 Sage::ProtoAPI::addVirtualInterface(std::__cxx11::basic_string<char, std::char_traits<char>, std::allocator<char> > const&, int, int, Sage::Wrapper<hiertreeproto::Signal>&)
PUBLIC 49ad0 0 Sage::ProtoAPI::markTypeParam(parameterproto::ValuePack&)
PUBLIC 49ae0 0 Sage::ProtoAPI::addByteStream(unsigned char*, bool, unsigned long, parameterproto::ValuePack&)
PUBLIC 49af0 0 Sage::ProtoAPI::addStringValue(char*, unsigned long, parameterproto::ValuePack&)
PUBLIC 49b00 0 Sage::ProtoAPI::recordPrimitiveType(int, std::__cxx11::basic_string<char, std::char_traits<char>, std::allocator<char> > const&, Sage::GenSrcLoc const&, hiertreeproto::NamedBlockCore_NamedBlockKind)
PUBLIC 49b10 0 Sage::ProtoAPI::recordGenvar(int, std::__cxx11::basic_string<char, std::char_traits<char>, std::allocator<char> > const&, Sage::GenSrcLoc const&, int)
PUBLIC 49b20 0 Sage::ProtoAPI::recordPartitionInfo(int, std::__cxx11::basic_string<char, std::char_traits<char>, std::allocator<char> > const&, std::__cxx11::basic_string<char, std::char_traits<char>, std::allocator<char> > const&, std::__cxx11::basic_string<char, std::char_traits<char>, std::allocator<char> > const&, std::__cxx11::basic_string<char, std::char_traits<char>, std::allocator<char> > const&, std::__cxx11::basic_string<char, std::char_traits<char>, std::allocator<char> > const&, std::__cxx11::basic_string<char, std::char_traits<char>, std::allocator<char> > const&)
PUBLIC 49b30 0 Sage::ProtoAPI::recordStitchPoint(int, std::__cxx11::basic_string<char, std::char_traits<char>, std::allocator<char> > const&, std::__cxx11::basic_string<char, std::char_traits<char>, std::allocator<char> > const&, std::__cxx11::basic_string<char, std::char_traits<char>, std::allocator<char> > const&, int, Sage::GenSrcLoc const&)
PUBLIC 49b40 0 Sage::ProtoAPI::recordModuleItemPartition(int, std::__cxx11::basic_string<char, std::char_traits<char>, std::allocator<char> > const&, std::__cxx11::basic_string<char, std::char_traits<char>, std::allocator<char> > const&, std::__cxx11::basic_string<char, std::char_traits<char>, std::allocator<char> > const&, std::__cxx11::basic_string<char, std::char_traits<char>, std::allocator<char> > const&, int)
PUBLIC 49b50 0 Sage::ProtoAPI::recordTopInstance(int)
PUBLIC 49b60 0 Sage::ProtoAPI::recordAttribute(std::__cxx11::basic_string<char, std::char_traits<char>, std::allocator<char> > const&, std::__cxx11::basic_string<char, std::char_traits<char>, std::allocator<char> > const&)
PUBLIC 49b70 0 Sage::ProtoAPI::recordOoprExtern(int, std::__cxx11::basic_string<char, std::char_traits<char>, std::allocator<char> > const&, std::__cxx11::basic_string<char, std::char_traits<char>, std::allocator<char> > const&, bool, int)
PUBLIC 49b80 0 Sage::ProtoAPI::recordOoprTarget(std::__cxx11::basic_string<char, std::char_traits<char>, std::allocator<char> > const&, std::__cxx11::basic_string<char, std::char_traits<char>, std::allocator<char> > const&, int)
PUBLIC 49b90 0 Sage::ProtoAPI::recordHegDataMsg(hegproto::Data_Type)
PUBLIC 49ba0 0 Sage::ProtoAPI::recordHegVariable(int, std::__cxx11::basic_string<char, std::char_traits<char>, std::allocator<char> > const&, Sage::GenSrcLoc const&)
PUBLIC 49bb0 0 Sage::ProtoAPI::recordHegParameter(int, std::__cxx11::basic_string<char, std::char_traits<char>, std::allocator<char> > const&, Sage::GenSrcLoc const&)
PUBLIC 49bc0 0 Sage::ProtoAPI::recordHegPortDecl(int, std::__cxx11::basic_string<char, std::char_traits<char>, std::allocator<char> > const&, hegproto::PortDecl_Direction, int, Sage::GenSrcLoc const&)
PUBLIC 49bd0 0 Sage::ProtoAPI::startHegModule(int, std::__cxx11::basic_string<char, std::char_traits<char>, std::allocator<char> > const&, Sage::GenSrcLoc const&, std::vector<int, std::allocator<int> > const&, bool)
PUBLIC 49be0 0 Sage::ProtoAPI::recordHegElemRef(int, int, Sage::GenSrcLoc const&)
PUBLIC 49bf0 0 Sage::ProtoAPI::recordHegConstant(int, std::__cxx11::basic_string<char, std::char_traits<char>, std::allocator<char> > const&, Sage::GenSrcLoc const&)
PUBLIC 49c00 0 Sage::ProtoAPI::recordHegInstance(int, int, std::__cxx11::basic_string<char, std::char_traits<char>, std::allocator<char> > const&, std::vector<int, std::allocator<int> > const&, std::vector<int, std::allocator<int> > const&, Sage::GenSrcLoc const&)
PUBLIC 49c10 0 Sage::ProtoAPI::recordHegAssignment(int, hegproto::Assign_Type, int, int, Sage::GenSrcLoc const&)
PUBLIC 49c20 0 Sage::ProtoAPI::recordHegConditional(int, hegproto::ConditionalStmt_Type, int, int, int, Sage::GenSrcLoc const&)
PUBLIC 49c30 0 Sage::ProtoAPI::recordHegSeqBlock(int, std::__cxx11::basic_string<char, std::char_traits<char>, std::allocator<char> > const&, std::vector<int, std::allocator<int> > const&, Sage::GenSrcLoc const&)
PUBLIC 49c40 0 Sage::ProtoAPI::recordHegAlways(int, int, Sage::GenSrcLoc const&)
PUBLIC 49c50 0 Sage::ProtoAPI::recordHegAlwaysEventControl(int, std::vector<int, std::allocator<int> > const&, int, Sage::GenSrcLoc const&)
PUBLIC 49c60 0 Sage::ProtoAPI::recordHegEventExpression(int, hegproto::EventExpression_Type, int, Sage::GenSrcLoc const&)
PUBLIC 49c70 0 Sage::ProtoAPI::recordHegBinaryOp(int, int, int, hegproto::BinaryOperator_Type, Sage::GenSrcLoc const&)
PUBLIC 49c80 0 Sage::ProtoAPI::recordHegIncludeRef(std::__cxx11::basic_string<char, std::char_traits<char>, std::allocator<char> > const&, Sage::GenSrcLoc const&)
PUBLIC 49c90 0 Sage::ProtoAPI::recordHegSourceChunk(std::__cxx11::basic_string<char, std::char_traits<char>, std::allocator<char> > const&, int, int)
PUBLIC 49ca0 0 Sage::ProtoAPI::startHegMacroRef(int, Sage::GenSrcLoc const&, int, int, int, std::__cxx11::basic_string<char, std::char_traits<char>, std::allocator<char> > const&, bool)
PUBLIC 49cb0 0 Sage::ProtoAPI::finishHegMacroRef(hegproto::MacroRef&)
PUBLIC 49cc0 0 Sage::ProtoAPI::startHegMacroArg(Sage::GenSrcLoc const&, hegproto::MacroRef&)
PUBLIC 49cd0 0 Sage::ProtoAPI::recordHegMacroDef(int, std::__cxx11::basic_string<char, std::char_traits<char>, std::allocator<char> > const&, Sage::GenSrcLoc const&, std::__cxx11::basic_string<char, std::char_traits<char>, std::allocator<char> > const&)
PUBLIC 49ce0 0 Sage::ProtoAPI::addHegMacroElem(std::__cxx11::basic_string<char, std::char_traits<char>, std::allocator<char> > const&, hegproto::MacroElement_Type, Sage::GenSrcLoc const&, int, hegproto::MacroRef&)
PUBLIC 49cf0 0 Sage::ProtoAPI::addHegMacroElem(std::__cxx11::basic_string<char, std::char_traits<char>, std::allocator<char> > const&, hegproto::MacroElement_Type, Sage::GenSrcLoc const&, int, hegproto::MacroArg&)
PUBLIC 49d00 0 Sage::ProtoAPI::startHegTextRef()
PUBLIC 49d10 0 Sage::ProtoAPI::addHegTextRef(int, hegproto::TextRef&)
PUBLIC 49d20 0 Sage::ProtoAPI::finishHegTextRef(hegproto::TextRef&)
PUBLIC 49d30 0 Sage::ProtoAPI::recordHegUnhandledType(int, Sage::GenSrcLoc const&)
PUBLIC 49d40 0 std::vector<unsigned long, std::allocator<unsigned long> >::~vector()
PUBLIC 49d60 0 std::vector<sss_root_s*, std::allocator<sss_root_s*> >::~vector()
PUBLIC 49d80 0 std::vector<long*, std::allocator<long*> >::~vector()
PUBLIC 49da0 0 std::vector<std::__cxx11::basic_string<char, std::char_traits<char>, std::allocator<char> >, std::allocator<std::__cxx11::basic_string<char, std::char_traits<char>, std::allocator<char> > > >::~vector()
PUBLIC 49e10 0 std::vector<std::pair<vst_s*, long*>, std::allocator<std::pair<vst_s*, long*> > >::~vector()
PUBLIC 49e30 0 Sage::CompleteProtoAPI::commSignalShutdown(bool)
PUBLIC 49e40 0 Sage::CompleteProtoAPI::commWaitAndCleanup()
PUBLIC 49e50 0 Sage::CompleteProtoAPI::commInit(char const*, bool, bool)
PUBLIC 49e70 0 Sage::CompleteProtoAPI::recordHegUnhandledType(int, Sage::GenSrcLoc const&)
PUBLIC 49e80 0 Sage::CompleteProtoAPI::finishHegTextRef(hegproto::TextRef&)
PUBLIC 49e90 0 Sage::CompleteProtoAPI::addHegTextRef(int, hegproto::TextRef&)
PUBLIC 49ea0 0 Sage::CompleteProtoAPI::startHegTextRef()
PUBLIC 49eb0 0 Sage::CompleteProtoAPI::addHegMacroElem(std::__cxx11::basic_string<char, std::char_traits<char>, std::allocator<char> > const&, hegproto::MacroElement_Type, Sage::GenSrcLoc const&, int, hegproto::MacroArg&)
PUBLIC 49ed0 0 Sage::CompleteProtoAPI::addHegMacroElem(std::__cxx11::basic_string<char, std::char_traits<char>, std::allocator<char> > const&, hegproto::MacroElement_Type, Sage::GenSrcLoc const&, int, hegproto::MacroRef&)
PUBLIC 49ef0 0 Sage::CompleteProtoAPI::recordHegMacroDef(int, std::__cxx11::basic_string<char, std::char_traits<char>, std::allocator<char> > const&, Sage::GenSrcLoc const&, std::__cxx11::basic_string<char, std::char_traits<char>, std::allocator<char> > const&)
PUBLIC 49f00 0 Sage::CompleteProtoAPI::startHegMacroArg(Sage::GenSrcLoc const&, hegproto::MacroRef&)
PUBLIC 49f10 0 Sage::CompleteProtoAPI::finishHegMacroRef(hegproto::MacroRef&)
PUBLIC 49f20 0 Sage::CompleteProtoAPI::startHegMacroRef(int, Sage::GenSrcLoc const&, int, int, int, std::__cxx11::basic_string<char, std::char_traits<char>, std::allocator<char> > const&, bool)
PUBLIC 49f40 0 Sage::CompleteProtoAPI::recordHegSourceChunk(std::__cxx11::basic_string<char, std::char_traits<char>, std::allocator<char> > const&, int, int)
PUBLIC 49f50 0 Sage::CompleteProtoAPI::recordHegIncludeRef(std::__cxx11::basic_string<char, std::char_traits<char>, std::allocator<char> > const&, Sage::GenSrcLoc const&)
PUBLIC 49f60 0 Sage::CompleteProtoAPI::recordHegBinaryOp(int, int, int, hegproto::BinaryOperator_Type, Sage::GenSrcLoc const&)
PUBLIC 49f80 0 Sage::CompleteProtoAPI::recordHegEventExpression(int, hegproto::EventExpression_Type, int, Sage::GenSrcLoc const&)
PUBLIC 49f90 0 Sage::CompleteProtoAPI::recordHegAlwaysEventControl(int, std::vector<int, std::allocator<int> > const&, int, Sage::GenSrcLoc const&)
PUBLIC 49fa0 0 Sage::CompleteProtoAPI::recordHegAlways(int, int, Sage::GenSrcLoc const&)
PUBLIC 49fb0 0 Sage::CompleteProtoAPI::recordHegSeqBlock(int, std::__cxx11::basic_string<char, std::char_traits<char>, std::allocator<char> > const&, std::vector<int, std::allocator<int> > const&, Sage::GenSrcLoc const&)
PUBLIC 49fc0 0 Sage::CompleteProtoAPI::recordHegConditional(int, hegproto::ConditionalStmt_Type, int, int, int, Sage::GenSrcLoc const&)
PUBLIC 49fe0 0 Sage::CompleteProtoAPI::recordHegAssignment(int, hegproto::Assign_Type, int, int, Sage::GenSrcLoc const&)
PUBLIC 4a000 0 Sage::CompleteProtoAPI::recordHegInstance(int, int, std::__cxx11::basic_string<char, std::char_traits<char>, std::allocator<char> > const&, std::vector<int, std::allocator<int> > const&, std::vector<int, std::allocator<int> > const&, Sage::GenSrcLoc const&)
PUBLIC 4a020 0 Sage::CompleteProtoAPI::recordHegConstant(int, std::__cxx11::basic_string<char, std::char_traits<char>, std::allocator<char> > const&, Sage::GenSrcLoc const&)
PUBLIC 4a030 0 Sage::CompleteProtoAPI::recordHegElemRef(int, int, Sage::GenSrcLoc const&)
PUBLIC 4a040 0 Sage::CompleteProtoAPI::startHegModule(int, std::__cxx11::basic_string<char, std::char_traits<char>, std::allocator<char> > const&, Sage::GenSrcLoc const&, std::vector<int, std::allocator<int> > const&, bool)
PUBLIC 4a060 0 Sage::CompleteProtoAPI::recordHegPortDecl(int, std::__cxx11::basic_string<char, std::char_traits<char>, std::allocator<char> > const&, hegproto::PortDecl_Direction, int, Sage::GenSrcLoc const&)
PUBLIC 4a080 0 Sage::CompleteProtoAPI::recordHegParameter(int, std::__cxx11::basic_string<char, std::char_traits<char>, std::allocator<char> > const&, Sage::GenSrcLoc const&)
PUBLIC 4a090 0 Sage::CompleteProtoAPI::recordHegVariable(int, std::__cxx11::basic_string<char, std::char_traits<char>, std::allocator<char> > const&, Sage::GenSrcLoc const&)
PUBLIC 4a0a0 0 Sage::CompleteProtoAPI::recordHegDataMsg(hegproto::Data_Type)
PUBLIC 4a0b0 0 Sage::CompleteProtoAPI::recordOoprTarget(std::__cxx11::basic_string<char, std::char_traits<char>, std::allocator<char> > const&, std::__cxx11::basic_string<char, std::char_traits<char>, std::allocator<char> > const&, int)
PUBLIC 4a0c0 0 Sage::CompleteProtoAPI::recordOoprExtern(int, std::__cxx11::basic_string<char, std::char_traits<char>, std::allocator<char> > const&, std::__cxx11::basic_string<char, std::char_traits<char>, std::allocator<char> > const&, bool, int)
PUBLIC 4a0e0 0 Sage::CompleteProtoAPI::recordAttribute(std::__cxx11::basic_string<char, std::char_traits<char>, std::allocator<char> > const&, std::__cxx11::basic_string<char, std::char_traits<char>, std::allocator<char> > const&)
PUBLIC 4a0f0 0 Sage::CompleteProtoAPI::recordTopInstance(int)
PUBLIC 4a100 0 Sage::CompleteProtoAPI::recordModuleItemPartition(int, std::__cxx11::basic_string<char, std::char_traits<char>, std::allocator<char> > const&, std::__cxx11::basic_string<char, std::char_traits<char>, std::allocator<char> > const&, std::__cxx11::basic_string<char, std::char_traits<char>, std::allocator<char> > const&, std::__cxx11::basic_string<char, std::char_traits<char>, std::allocator<char> > const&, int)
PUBLIC 4a120 0 Sage::CompleteProtoAPI::recordStitchPoint(int, std::__cxx11::basic_string<char, std::char_traits<char>, std::allocator<char> > const&, std::__cxx11::basic_string<char, std::char_traits<char>, std::allocator<char> > const&, std::__cxx11::basic_string<char, std::char_traits<char>, std::allocator<char> > const&, int, Sage::GenSrcLoc const&)
PUBLIC 4a140 0 Sage::CompleteProtoAPI::recordPartitionInfo(int, std::__cxx11::basic_string<char, std::char_traits<char>, std::allocator<char> > const&, std::__cxx11::basic_string<char, std::char_traits<char>, std::allocator<char> > const&, std::__cxx11::basic_string<char, std::char_traits<char>, std::allocator<char> > const&, std::__cxx11::basic_string<char, std::char_traits<char>, std::allocator<char> > const&, std::__cxx11::basic_string<char, std::char_traits<char>, std::allocator<char> > const&, std::__cxx11::basic_string<char, std::char_traits<char>, std::allocator<char> > const&)
PUBLIC 4a170 0 Sage::CompleteProtoAPI::recordGenvar(int, std::__cxx11::basic_string<char, std::char_traits<char>, std::allocator<char> > const&, Sage::GenSrcLoc const&, int)
PUBLIC 4a180 0 Sage::CompleteProtoAPI::recordPrimitiveType(int, std::__cxx11::basic_string<char, std::char_traits<char>, std::allocator<char> > const&, Sage::GenSrcLoc const&, hiertreeproto::NamedBlockCore_NamedBlockKind)
PUBLIC 4a190 0 Sage::CompleteProtoAPI::addStringValue(char*, unsigned long, parameterproto::ValuePack&)
PUBLIC 4a1a0 0 Sage::CompleteProtoAPI::addByteStream(unsigned char*, bool, unsigned long, parameterproto::ValuePack&)
PUBLIC 4a1c0 0 Sage::CompleteProtoAPI::markTypeParam(parameterproto::ValuePack&)
PUBLIC 4a1d0 0 Sage::CompleteProtoAPI::addVirtualInterface(std::__cxx11::basic_string<char, std::char_traits<char>, std::allocator<char> > const&, int, int, Sage::Wrapper<hiertreeproto::Signal>&)
PUBLIC 4a1e0 0 Sage::CompleteProtoAPI::addVirtualInterface(std::__cxx11::basic_string<char, std::char_traits<char>, std::allocator<char> > const&, int, int, Sage::Wrapper<parameterproto::ParameterBasicInfo>&)
PUBLIC 4a1f0 0 Sage::CompleteProtoAPI::addClassHandle(std::__cxx11::basic_string<char, std::char_traits<char>, std::allocator<char> > const&, int, int, typeinfoproto::ClassHandle_Type, typeinfoproto::TypeInfoTree_Type, Sage::Wrapper<hiertreeproto::Signal>&)
PUBLIC 4a210 0 Sage::CompleteProtoAPI::addClassHandle(std::__cxx11::basic_string<char, std::char_traits<char>, std::allocator<char> > const&, int, int, typeinfoproto::ClassHandle_Type, typeinfoproto::TypeInfoTree_Type, Sage::Wrapper<parameterproto::ParameterBasicInfo>&)
PUBLIC 4a230 0 Sage::CompleteProtoAPI::addQDA(std::__cxx11::basic_string<char, std::char_traits<char>, std::allocator<char> > const&, typeinfoproto::QDAArray_Type, typeinfoproto::TypeInfoTree_Type, typeinfoproto::TypeInfoTree_Type, Sage::Wrapper<hiertreeproto::Signal>&)
PUBLIC 4a250 0 Sage::CompleteProtoAPI::addQDA(std::__cxx11::basic_string<char, std::char_traits<char>, std::allocator<char> > const&, typeinfoproto::QDAArray_Type, typeinfoproto::TypeInfoTree_Type, typeinfoproto::TypeInfoTree_Type, Sage::Wrapper<parameterproto::ParameterBasicInfo>&)
PUBLIC 4a270 0 Sage::CompleteProtoAPI::addArray(std::__cxx11::basic_string<char, std::char_traits<char>, std::allocator<char> > const&, std::vector<std::tuple<bool, bool, long, long>, std::allocator<std::tuple<bool, bool, long, long> > > const&, typeinfoproto::TypeInfoTree_Type, bool, bool, Sage::Wrapper<hiertreeproto::Signal>&)
PUBLIC 4a290 0 Sage::CompleteProtoAPI::addArray(std::__cxx11::basic_string<char, std::char_traits<char>, std::allocator<char> > const&, std::vector<std::tuple<bool, bool, long, long>, std::allocator<std::tuple<bool, bool, long, long> > > const&, typeinfoproto::TypeInfoTree_Type, bool, bool, Sage::Wrapper<parameterproto::ParameterBasicInfo>&)
PUBLIC 4a2b0 0 Sage::CompleteProtoAPI::addEnum(std::__cxx11::basic_string<char, std::char_traits<char>, std::allocator<char> > const&, std::vector<std::pair<std::__cxx11::basic_string<char, std::char_traits<char>, std::allocator<char> >, common::ByteStream*>, std::allocator<std::pair<std::__cxx11::basic_string<char, std::char_traits<char>, std::allocator<char> >, common::ByteStream*> > > const&, unsigned long, bool, bool, bool, Sage::Wrapper<hiertreeproto::Signal>&)
PUBLIC 4a2e0 0 Sage::CompleteProtoAPI::addEnum(std::__cxx11::basic_string<char, std::char_traits<char>, std::allocator<char> > const&, std::vector<std::pair<std::__cxx11::basic_string<char, std::char_traits<char>, std::allocator<char> >, common::ByteStream*>, std::allocator<std::pair<std::__cxx11::basic_string<char, std::char_traits<char>, std::allocator<char> >, common::ByteStream*> > > const&, unsigned long, bool, bool, bool, Sage::Wrapper<parameterproto::ParameterBasicInfo>&)
PUBLIC 4a310 0 Sage::CompleteProtoAPI::getByteStream(unsigned char*, unsigned long)
PUBLIC 4a320 0 Sage::CompleteProtoAPI::addField(std::__cxx11::basic_string<char, std::char_traits<char>, std::allocator<char> > const&, typeinfoproto::TypeInfoTree_Type, Sage::Wrapper<hiertreeproto::Signal>&)
PUBLIC 4a330 0 Sage::CompleteProtoAPI::addField(std::__cxx11::basic_string<char, std::char_traits<char>, std::allocator<char> > const&, typeinfoproto::TypeInfoTree_Type, Sage::Wrapper<parameterproto::ParameterBasicInfo>&)
PUBLIC 4a340 0 Sage::CompleteProtoAPI::finishComposite(Sage::Wrapper<hiertreeproto::Signal>&)
PUBLIC 4a350 0 Sage::CompleteProtoAPI::finishComposite(Sage::Wrapper<parameterproto::ParameterBasicInfo>&)
PUBLIC 4a360 0 Sage::CompleteProtoAPI::addUnion(std::__cxx11::basic_string<char, std::char_traits<char>, std::allocator<char> > const&, bool, bool, bool, bool, std::tuple<bool, bool, long, long>&, Sage::Wrapper<hiertreeproto::Signal>&)
PUBLIC 4a390 0 Sage::CompleteProtoAPI::addUnion(std::__cxx11::basic_string<char, std::char_traits<char>, std::allocator<char> > const&, bool, bool, bool, bool, std::tuple<bool, bool, long, long>&, Sage::Wrapper<parameterproto::ParameterBasicInfo>&)
PUBLIC 4a3c0 0 Sage::CompleteProtoAPI::addStruct(std::__cxx11::basic_string<char, std::char_traits<char>, std::allocator<char> > const&, bool, bool, bool, bool, std::tuple<bool, bool, long, long>&, Sage::Wrapper<hiertreeproto::Signal>&)
PUBLIC 4a3f0 0 Sage::CompleteProtoAPI::addStruct(std::__cxx11::basic_string<char, std::char_traits<char>, std::allocator<char> > const&, bool, bool, bool, bool, std::tuple<bool, bool, long, long>&, Sage::Wrapper<parameterproto::ParameterBasicInfo>&)
PUBLIC 4a420 0 Sage::CompleteProtoAPI::addPredefinedType(std::__cxx11::basic_string<char, std::char_traits<char>, std::allocator<char> > const&, bool, bool, bool, typeinfoproto::PredefinedType_Type, Sage::Wrapper<hiertreeproto::Signal>&)
PUBLIC 4a450 0 Sage::CompleteProtoAPI::addPredefinedType(std::__cxx11::basic_string<char, std::char_traits<char>, std::allocator<char> > const&, bool, bool, bool, typeinfoproto::PredefinedType_Type, Sage::Wrapper<parameterproto::ParameterBasicInfo>&)
PUBLIC 4a480 0 Sage::CompleteProtoAPI::startSignal(hiertreeproto::ModuleItem&, int, std::__cxx11::basic_string<char, std::char_traits<char>, std::allocator<char> > const&, Sage::GenSrcLoc const&, bool, bool, bool, hiertreeproto::Signal_SigVis)
PUBLIC 4a4c0 0 Sage::CompleteProtoAPI::finishType(Sage::Wrapper<hiertreeproto::Signal>&)
PUBLIC 4a4d0 0 Sage::CompleteProtoAPI::finishType(Sage::Wrapper<parameterproto::ParameterBasicInfo>&)
PUBLIC 4a4e0 0 Sage::CompleteProtoAPI::startParam(hiertreeproto::ModuleItem&, int, std::__cxx11::basic_string<char, std::char_traits<char>, std::allocator<char> > const&, Sage::GenSrcLoc const&)
PUBLIC 4a4f0 0 Sage::CompleteProtoAPI::finishHierNodeType(hiertreeproto::ModuleItem&)
PUBLIC 4a500 0 Sage::CompleteProtoAPI::startHierNodeType(int, int, std::__cxx11::basic_string<char, std::char_traits<char>, std::allocator<char> > const&, std::__cxx11::basic_string<char, std::char_traits<char>, std::allocator<char> > const&, Sage::GenSrcLoc const&, hiertreeproto::NamedBlockCore_NamedBlockKind)
PUBLIC 4a520 0 Sage::CompleteProtoAPI::recordHierNode(int, std::__cxx11::basic_string<char, std::char_traits<char>, std::allocator<char> > const&, Sage::GenSrcLoc const&)
PUBLIC 4a530 0 Sage::CompleteProtoAPI::recordHierEdge(int, int, hiertreeproto::Edge_EdgeKind)
PUBLIC 4a540 0 std::unordered_map<std::__cxx11::basic_string<char, std::char_traits<char>, std::allocator<char> >, std::unordered_set<std::__cxx11::basic_string<char, std::char_traits<char>, std::allocator<char> >, std::hash<std::__cxx11::basic_string<char, std::char_traits<char>, std::allocator<char> > >, std::equal_to<std::__cxx11::basic_string<char, std::char_traits<char>, std::allocator<char> > >, std::allocator<std::__cxx11::basic_string<char, std::char_traits<char>, std::allocator<char> > > >, std::hash<std::__cxx11::basic_string<char, std::char_traits<char>, std::allocator<char> > >, std::equal_to<std::__cxx11::basic_string<char, std::char_traits<char>, std::allocator<char> > >, std::allocator<std::pair<std::__cxx11::basic_string<char, std::char_traits<char>, std::allocator<char> > const, std::unordered_set<std::__cxx11::basic_string<char, std::char_traits<char>, std::allocator<char> >, std::hash<std::__cxx11::basic_string<char, std::char_traits<char>, std::allocator<char> > >, std::equal_to<std::__cxx11::basic_string<char, std::char_traits<char>, std::allocator<char> > >, std::allocator<std::__cxx11::basic_string<char, std::char_traits<char>, std::allocator<char> > > > > > >::~unordered_map()
PUBLIC 4a670 0 std::unordered_map<xst_s*, std::unordered_set<long*, std::hash<long*>, std::equal_to<long*>, std::allocator<long*> >, std::hash<xst_s*>, std::equal_to<xst_s*>, std::allocator<std::pair<xst_s* const, std::unordered_set<long*, std::hash<long*>, std::equal_to<long*>, std::allocator<long*> > > > >::~unordered_map()
PUBLIC 4a770 0 std::unordered_set<std::__cxx11::basic_string<char, std::char_traits<char>, std::allocator<char> >, std::hash<std::__cxx11::basic_string<char, std::char_traits<char>, std::allocator<char> > >, std::equal_to<std::__cxx11::basic_string<char, std::char_traits<char>, std::allocator<char> > >, std::allocator<std::__cxx11::basic_string<char, std::char_traits<char>, std::allocator<char> > > >::~unordered_set()
PUBLIC 4a810 0 std::unordered_map<std::__cxx11::basic_string<char, std::char_traits<char>, std::allocator<char> >, int, std::hash<std::__cxx11::basic_string<char, std::char_traits<char>, std::allocator<char> > >, std::equal_to<std::__cxx11::basic_string<char, std::char_traits<char>, std::allocator<char> > >, std::allocator<std::pair<std::__cxx11::basic_string<char, std::char_traits<char>, std::allocator<char> > const, int> > >::~unordered_map()
PUBLIC 4a8b0 0 Sage::XmclonePartitionInfo::~XmclonePartitionInfo()
PUBLIC 4ab20 0 Sage::XmclonePartitionInfo::clear()
PUBLIC 4ac60 0 std::pair<std::__cxx11::basic_string<char, std::char_traits<char>, std::allocator<char> >, std::__cxx11::basic_string<char, std::char_traits<char>, std::allocator<char> > >::~pair()
PUBLIC 4aca0 0 std::_Hashtable<std::__cxx11::basic_string<char, std::char_traits<char>, std::allocator<char> >, std::pair<std::__cxx11::basic_string<char, std::char_traits<char>, std::allocator<char> > const, int>, std::allocator<std::pair<std::__cxx11::basic_string<char, std::char_traits<char>, std::allocator<char> > const, int> >, std::__detail::_Select1st, std::equal_to<std::__cxx11::basic_string<char, std::char_traits<char>, std::allocator<char> > >, std::hash<std::__cxx11::basic_string<char, std::char_traits<char>, std::allocator<char> > >, std::__detail::_Mod_range_hashing, std::__detail::_Default_ranged_hash, std::__detail::_Prime_rehash_policy, std::__detail::_Hashtable_traits<true, false, true> >::~_Hashtable()
PUBLIC 4ad40 0 std::_Rb_tree<std::pair<std::__cxx11::basic_string<char, std::char_traits<char>, std::allocator<char> >, int>, std::pair<std::pair<std::__cxx11::basic_string<char, std::char_traits<char>, std::allocator<char> >, int> const, int>, std::_Select1st<std::pair<std::pair<std::__cxx11::basic_string<char, std::char_traits<char>, std::allocator<char> >, int> const, int> >, std::less<std::pair<std::__cxx11::basic_string<char, std::char_traits<char>, std::allocator<char> >, int> >, std::allocator<std::pair<std::pair<std::__cxx11::basic_string<char, std::char_traits<char>, std::allocator<char> >, int> const, int> > >::_M_erase(std::_Rb_tree_node<std::pair<std::pair<std::__cxx11::basic_string<char, std::char_traits<char>, std::allocator<char> >, int> const, int> >*)
PUBLIC 4adb0 0 std::map<std::pair<std::__cxx11::basic_string<char, std::char_traits<char>, std::allocator<char> >, int>, int, std::less<std::pair<std::__cxx11::basic_string<char, std::char_traits<char>, std::allocator<char> >, int> >, std::allocator<std::pair<std::pair<std::__cxx11::basic_string<char, std::char_traits<char>, std::allocator<char> >, int> const, int> > >::~map()
PUBLIC 4ae10 0 std::_Hashtable<std::__cxx11::basic_string<char, std::char_traits<char>, std::allocator<char> >, std::pair<std::__cxx11::basic_string<char, std::char_traits<char>, std::allocator<char> > const, std::unordered_set<std::__cxx11::basic_string<char, std::char_traits<char>, std::allocator<char> >, std::hash<std::__cxx11::basic_string<char, std::char_traits<char>, std::allocator<char> > >, std::equal_to<std::__cxx11::basic_string<char, std::char_traits<char>, std::allocator<char> > >, std::allocator<std::__cxx11::basic_string<char, std::char_traits<char>, std::allocator<char> > > > >, std::allocator<std::pair<std::__cxx11::basic_string<char, std::char_traits<char>, std::allocator<char> > const, std::unordered_set<std::__cxx11::basic_string<char, std::char_traits<char>, std::allocator<char> >, std::hash<std::__cxx11::basic_string<char, std::char_traits<char>, std::allocator<char> > >, std::equal_to<std::__cxx11::basic_string<char, std::char_traits<char>, std::allocator<char> > >, std::allocator<std::__cxx11::basic_string<char, std::char_traits<char>, std::allocator<char> > > > > >, std::__detail::_Select1st, std::equal_to<std::__cxx11::basic_string<char, std::char_traits<char>, std::allocator<char> > >, std::hash<std::__cxx11::basic_string<char, std::char_traits<char>, std::allocator<char> > >, std::__detail::_Mod_range_hashing, std::__detail::_Default_ranged_hash, std::__detail::_Prime_rehash_policy, std::__detail::_Hashtable_traits<true, false, true> >::clear()
PUBLIC 4af20 0 std::_Rb_tree<std::tuple<std::__cxx11::basic_string<char, std::char_traits<char>, std::allocator<char> >, std::__cxx11::basic_string<char, std::char_traits<char>, std::allocator<char> >, std::__cxx11::basic_string<char, std::char_traits<char>, std::allocator<char> >, std::__cxx11::basic_string<char, std::char_traits<char>, std::allocator<char> >, std::__cxx11::basic_string<char, std::char_traits<char>, std::allocator<char> > >, std::tuple<std::__cxx11::basic_string<char, std::char_traits<char>, std::allocator<char> >, std::__cxx11::basic_string<char, std::char_traits<char>, std::allocator<char> >, std::__cxx11::basic_string<char, std::char_traits<char>, std::allocator<char> >, std::__cxx11::basic_string<char, std::char_traits<char>, std::allocator<char> >, std::__cxx11::basic_string<char, std::char_traits<char>, std::allocator<char> > >, std::_Identity<std::tuple<std::__cxx11::basic_string<char, std::char_traits<char>, std::allocator<char> >, std::__cxx11::basic_string<char, std::char_traits<char>, std::allocator<char> >, std::__cxx11::basic_string<char, std::char_traits<char>, std::allocator<char> >, std::__cxx11::basic_string<char, std::char_traits<char>, std::allocator<char> >, std::__cxx11::basic_string<char, std::char_traits<char>, std::allocator<char> > > >, std::less<std::tuple<std::__cxx11::basic_string<char, std::char_traits<char>, std::allocator<char> >, std::__cxx11::basic_string<char, std::char_traits<char>, std::allocator<char> >, std::__cxx11::basic_string<char, std::char_traits<char>, std::allocator<char> >, std::__cxx11::basic_string<char, std::char_traits<char>, std::allocator<char> >, std::__cxx11::basic_string<char, std::char_traits<char>, std::allocator<char> > > >, std::allocator<std::tuple<std::__cxx11::basic_string<char, std::char_traits<char>, std::allocator<char> >, std::__cxx11::basic_string<char, std::char_traits<char>, std::allocator<char> >, std::__cxx11::basic_string<char, std::char_traits<char>, std::allocator<char> >, std::__cxx11::basic_string<char, std::char_traits<char>, std::allocator<char> >, std::__cxx11::basic_string<char, std::char_traits<char>, std::allocator<char> > > > >::_M_erase(std::_Rb_tree_node<std::tuple<std::__cxx11::basic_string<char, std::char_traits<char>, std::allocator<char> >, std::__cxx11::basic_string<char, std::char_traits<char>, std::allocator<char> >, std::__cxx11::basic_string<char, std::char_traits<char>, std::allocator<char> >, std::__cxx11::basic_string<char, std::char_traits<char>, std::allocator<char> >, std::__cxx11::basic_string<char, std::char_traits<char>, std::allocator<char> > > >*)
PUBLIC 4afe0 0 std::set<std::tuple<std::__cxx11::basic_string<char, std::char_traits<char>, std::allocator<char> >, std::__cxx11::basic_string<char, std::char_traits<char>, std::allocator<char> >, std::__cxx11::basic_string<char, std::char_traits<char>, std::allocator<char> >, std::__cxx11::basic_string<char, std::char_traits<char>, std::allocator<char> >, std::__cxx11::basic_string<char, std::char_traits<char>, std::allocator<char> > >, std::less<std::tuple<std::__cxx11::basic_string<char, std::char_traits<char>, std::allocator<char> >, std::__cxx11::basic_string<char, std::char_traits<char>, std::allocator<char> >, std::__cxx11::basic_string<char, std::char_traits<char>, std::allocator<char> >, std::__cxx11::basic_string<char, std::char_traits<char>, std::allocator<char> >, std::__cxx11::basic_string<char, std::char_traits<char>, std::allocator<char> > > >, std::allocator<std::tuple<std::__cxx11::basic_string<char, std::char_traits<char>, std::allocator<char> >, std::__cxx11::basic_string<char, std::char_traits<char>, std::allocator<char> >, std::__cxx11::basic_string<char, std::char_traits<char>, std::allocator<char> >, std::__cxx11::basic_string<char, std::char_traits<char>, std::allocator<char> >, std::__cxx11::basic_string<char, std::char_traits<char>, std::allocator<char> > > > >::~set()
PUBLIC 4b0a0 0 std::_Hashtable<std::__cxx11::basic_string<char, std::char_traits<char>, std::allocator<char> >, std::pair<std::__cxx11::basic_string<char, std::char_traits<char>, std::allocator<char> > const, int>, std::allocator<std::pair<std::__cxx11::basic_string<char, std::char_traits<char>, std::allocator<char> > const, int> >, std::__detail::_Select1st, std::equal_to<std::__cxx11::basic_string<char, std::char_traits<char>, std::allocator<char> > >, std::hash<std::__cxx11::basic_string<char, std::char_traits<char>, std::allocator<char> > >, std::__detail::_Mod_range_hashing, std::__detail::_Default_ranged_hash, std::__detail::_Prime_rehash_policy, std::__detail::_Hashtable_traits<true, false, true> >::find(std::__cxx11::basic_string<char, std::char_traits<char>, std::allocator<char> > const&)
PUBLIC 4b140 0 void std::vector<std::__cxx11::basic_string<char, std::char_traits<char>, std::allocator<char> >, std::allocator<std::__cxx11::basic_string<char, std::char_traits<char>, std::allocator<char> > > >::_M_realloc_insert<std::__cxx11::basic_string<char, std::char_traits<char>, std::allocator<char> > const&>(__gnu_cxx::__normal_iterator<std::__cxx11::basic_string<char, std::char_traits<char>, std::allocator<char> >*, std::vector<std::__cxx11::basic_string<char, std::char_traits<char>, std::allocator<char> >, std::allocator<std::__cxx11::basic_string<char, std::char_traits<char>, std::allocator<char> > > > >, std::__cxx11::basic_string<char, std::char_traits<char>, std::allocator<char> > const&)
PUBLIC 4b390 0 void std::vector<sss_root_s*, std::allocator<sss_root_s*> >::_M_realloc_insert<sss_root_s* const&>(__gnu_cxx::__normal_iterator<sss_root_s**, std::vector<sss_root_s*, std::allocator<sss_root_s*> > >, sss_root_s* const&)
PUBLIC 4b500 0 void std::vector<long*, std::allocator<long*> >::_M_realloc_insert<long* const&>(__gnu_cxx::__normal_iterator<long**, std::vector<long*, std::allocator<long*> > >, long* const&)
PUBLIC 4b670 0 void std::vector<unsigned long, std::allocator<unsigned long> >::_M_realloc_insert<unsigned long const&>(__gnu_cxx::__normal_iterator<unsigned long*, std::vector<unsigned long, std::allocator<unsigned long> > >, unsigned long const&)
PUBLIC 4b7e0 0 std::_Rb_tree<int, int, std::_Identity<int>, std::less<int>, std::allocator<int> >::_M_erase(std::_Rb_tree_node<int>*)
PUBLIC 4b820 0 std::pair<std::_Rb_tree_iterator<int>, bool> std::_Rb_tree<int, int, std::_Identity<int>, std::less<int>, std::allocator<int> >::_M_insert_unique<int>(int&&)
PUBLIC 4b940 0 void std::vector<xst_s*, std::allocator<xst_s*> >::_M_realloc_insert<xst_s* const&>(__gnu_cxx::__normal_iterator<xst_s**, std::vector<xst_s*, std::allocator<xst_s*> > >, xst_s* const&)
PUBLIC 4bab0 0 bool std::operator< <std::__cxx11::basic_string<char, std::char_traits<char>, std::allocator<char> >, std::__cxx11::basic_string<char, std::char_traits<char>, std::allocator<char> > >(std::pair<std::__cxx11::basic_string<char, std::char_traits<char>, std::allocator<char> >, std::__cxx11::basic_string<char, std::char_traits<char>, std::allocator<char> > > const&, std::pair<std::__cxx11::basic_string<char, std::char_traits<char>, std::allocator<char> >, std::__cxx11::basic_string<char, std::char_traits<char>, std::allocator<char> > > const&)
PUBLIC 4bc00 0 std::pair<std::_Rb_tree_iterator<std::pair<std::__cxx11::basic_string<char, std::char_traits<char>, std::allocator<char> >, std::__cxx11::basic_string<char, std::char_traits<char>, std::allocator<char> > > >, bool> std::_Rb_tree<std::pair<std::__cxx11::basic_string<char, std::char_traits<char>, std::allocator<char> >, std::__cxx11::basic_string<char, std::char_traits<char>, std::allocator<char> > >, std::pair<std::__cxx11::basic_string<char, std::char_traits<char>, std::allocator<char> >, std::__cxx11::basic_string<char, std::char_traits<char>, std::allocator<char> > >, std::_Identity<std::pair<std::__cxx11::basic_string<char, std::char_traits<char>, std::allocator<char> >, std::__cxx11::basic_string<char, std::char_traits<char>, std::allocator<char> > > >, std::less<std::pair<std::__cxx11::basic_string<char, std::char_traits<char>, std::allocator<char> >, std::__cxx11::basic_string<char, std::char_traits<char>, std::allocator<char> > > >, std::allocator<std::pair<std::__cxx11::basic_string<char, std::char_traits<char>, std::allocator<char> >, std::__cxx11::basic_string<char, std::char_traits<char>, std::allocator<char> > > > >::_M_insert_unique<std::pair<std::__cxx11::basic_string<char, std::char_traits<char>, std::allocator<char> >, std::__cxx11::basic_string<char, std::char_traits<char>, std::allocator<char> > > >(std::pair<std::__cxx11::basic_string<char, std::char_traits<char>, std::allocator<char> >, std::__cxx11::basic_string<char, std::char_traits<char>, std::allocator<char> > >&&)
PUBLIC 4c030 0 std::_Rb_tree<std::pair<std::__cxx11::basic_string<char, std::char_traits<char>, std::allocator<char> >, int>, std::pair<std::pair<std::__cxx11::basic_string<char, std::char_traits<char>, std::allocator<char> >, int> const, int>, std::_Select1st<std::pair<std::pair<std::__cxx11::basic_string<char, std::char_traits<char>, std::allocator<char> >, int> const, int> >, std::less<std::pair<std::__cxx11::basic_string<char, std::char_traits<char>, std::allocator<char> >, int> >, std::allocator<std::pair<std::pair<std::__cxx11::basic_string<char, std::char_traits<char>, std::allocator<char> >, int> const, int> > >::_M_get_insert_unique_pos(std::pair<std::__cxx11::basic_string<char, std::char_traits<char>, std::allocator<char> >, int> const&)
PUBLIC 4c280 0 std::map<std::pair<std::__cxx11::basic_string<char, std::char_traits<char>, std::allocator<char> >, int>, int, std::less<std::pair<std::__cxx11::basic_string<char, std::char_traits<char>, std::allocator<char> >, int> >, std::allocator<std::pair<std::pair<std::__cxx11::basic_string<char, std::char_traits<char>, std::allocator<char> >, int> const, int> > >::operator[](std::pair<std::__cxx11::basic_string<char, std::char_traits<char>, std::allocator<char> >, int>&&)
PUBLIC 4c470 0 std::pair<std::_Rb_tree_iterator<std::pair<std::pair<std::__cxx11::basic_string<char, std::char_traits<char>, std::allocator<char> >, int> const, int> >, bool> std::_Rb_tree<std::pair<std::__cxx11::basic_string<char, std::char_traits<char>, std::allocator<char> >, int>, std::pair<std::pair<std::__cxx11::basic_string<char, std::char_traits<char>, std::allocator<char> >, int> const, int>, std::_Select1st<std::pair<std::pair<std::__cxx11::basic_string<char, std::char_traits<char>, std::allocator<char> >, int> const, int> >, std::less<std::pair<std::__cxx11::basic_string<char, std::char_traits<char>, std::allocator<char> >, int> >, std::allocator<std::pair<std::pair<std::__cxx11::basic_string<char, std::char_traits<char>, std::allocator<char> >, int> const, int> > >::_M_insert_unique<std::pair<std::pair<std::__cxx11::basic_string<char, std::char_traits<char>, std::allocator<char> >, int> const, int> >(std::pair<std::pair<std::__cxx11::basic_string<char, std::char_traits<char>, std::allocator<char> >, int> const, int>&&)
PUBLIC 4c640 0 std::_Rb_tree_iterator<std::tuple<std::__cxx11::basic_string<char, std::char_traits<char>, std::allocator<char> >, std::__cxx11::basic_string<char, std::char_traits<char>, std::allocator<char> >, std::__cxx11::basic_string<char, std::char_traits<char>, std::allocator<char> >, std::__cxx11::basic_string<char, std::char_traits<char>, std::allocator<char> >, std::__cxx11::basic_string<char, std::char_traits<char>, std::allocator<char> > > > std::_Rb_tree<std::tuple<std::__cxx11::basic_string<char, std::char_traits<char>, std::allocator<char> >, std::__cxx11::basic_string<char, std::char_traits<char>, std::allocator<char> >, std::__cxx11::basic_string<char, std::char_traits<char>, std::allocator<char> >, std::__cxx11::basic_string<char, std::char_traits<char>, std::allocator<char> >, std::__cxx11::basic_string<char, std::char_traits<char>, std::allocator<char> > >, std::tuple<std::__cxx11::basic_string<char, std::char_traits<char>, std::allocator<char> >, std::__cxx11::basic_string<char, std::char_traits<char>, std::allocator<char> >, std::__cxx11::basic_string<char, std::char_traits<char>, std::allocator<char> >, std::__cxx11::basic_string<char, std::char_traits<char>, std::allocator<char> >, std::__cxx11::basic_string<char, std::char_traits<char>, std::allocator<char> > >, std::_Identity<std::tuple<std::__cxx11::basic_string<char, std::char_traits<char>, std::allocator<char> >, std::__cxx11::basic_string<char, std::char_traits<char>, std::allocator<char> >, std::__cxx11::basic_string<char, std::char_traits<char>, std::allocator<char> >, std::__cxx11::basic_string<char, std::char_traits<char>, std::allocator<char> >, std::__cxx11::basic_string<char, std::char_traits<char>, std::allocator<char> > > >, std::less<std::tuple<std::__cxx11::basic_string<char, std::char_traits<char>, std::allocator<char> >, std::__cxx11::basic_string<char, std::char_traits<char>, std::allocator<char> >, std::__cxx11::basic_string<char, std::char_traits<char>, std::allocator<char> >, std::__cxx11::basic_string<char, std::char_traits<char>, std::allocator<char> >, std::__cxx11::basic_string<char, std::char_traits<char>, std::allocator<char> > > >, std::allocator<std::tuple<std::__cxx11::basic_string<char, std::char_traits<char>, std::allocator<char> >, std::__cxx11::basic_string<char, std::char_traits<char>, std::allocator<char> >, std::__cxx11::basic_string<char, std::char_traits<char>, std::allocator<char> >, std::__cxx11::basic_string<char, std::char_traits<char>, std::allocator<char> >, std::__cxx11::basic_string<char, std::char_traits<char>, std::allocator<char> > > > >::_M_insert_<std::tuple<std::__cxx11::basic_string<char, std::char_traits<char>, std::allocator<char> >, std::__cxx11::basic_string<char, std::char_traits<char>, std::allocator<char> >, std::__cxx11::basic_string<char, std::char_traits<char>, std::allocator<char> >, std::__cxx11::basic_string<char, std::char_traits<char>, std::allocator<char> >, std::__cxx11::basic_string<char, std::char_traits<char>, std::allocator<char> > >, std::_Rb_tree<std::tuple<std::__cxx11::basic_string<char, std::char_traits<char>, std::allocator<char> >, std::__cxx11::basic_string<char, std::char_traits<char>, std::allocator<char> >, std::__cxx11::basic_string<char, std::char_traits<char>, std::allocator<char> >, std::__cxx11::basic_string<char, std::char_traits<char>, std::allocator<char> >, std::__cxx11::basic_string<char, std::char_traits<char>, std::allocator<char> > >, std::tuple<std::__cxx11::basic_string<char, std::char_traits<char>, std::allocator<char> >, std::__cxx11::basic_string<char, std::char_traits<char>, std::allocator<char> >, std::__cxx11::basic_string<char, std::char_traits<char>, std::allocator<char> >, std::__cxx11::basic_string<char, std::char_traits<char>, std::allocator<char> >, std::__cxx11::basic_string<char, std::char_traits<char>, std::allocator<char> > >, std::_Identity<std::tuple<std::__cxx11::basic_string<char, std::char_traits<char>, std::allocator<char> >, std::__cxx11::basic_string<char, std::char_traits<char>, std::allocator<char> >, std::__cxx11::basic_string<char, std::char_traits<char>, std::allocator<char> >, std::__cxx11::basic_string<char, std::char_traits<char>, std::allocator<char> >, std::__cxx11::basic_string<char, std::char_traits<char>, std::allocator<char> > > >, std::less<std::tuple<std::__cxx11::basic_string<char, std::char_traits<char>, std::allocator<char> >, std::__cxx11::basic_string<char, std::char_traits<char>, std::allocator<char> >, std::__cxx11::basic_string<char, std::char_traits<char>, std::allocator<char> >, std::__cxx11::basic_string<char, std::char_traits<char>, std::allocator<char> >, std::__cxx11::basic_string<char, std::char_traits<char>, std::allocator<char> > > >, std::allocator<std::tuple<std::__cxx11::basic_string<char, std::char_traits<char>, std::allocator<char> >, std::__cxx11::basic_string<char, std::char_traits<char>, std::allocator<char> >, std::__cxx11::basic_string<char, std::char_traits<char>, std::allocator<char> >, std::__cxx11::basic_string<char, std::char_traits<char>, std::allocator<char> >, std::__cxx11::basic_string<char, std::char_traits<char>, std::allocator<char> > > > >::_Alloc_node>(std::_Rb_tree_node_base*, std::_Rb_tree_node_base*, std::tuple<std::__cxx11::basic_string<char, std::char_traits<char>, std::allocator<char> >, std::__cxx11::basic_string<char, std::char_traits<char>, std::allocator<char> >, std::__cxx11::basic_string<char, std::char_traits<char>, std::allocator<char> >, std::__cxx11::basic_string<char, std::char_traits<char>, std::allocator<char> >, std::__cxx11::basic_string<char, std::char_traits<char>, std::allocator<char> > >&&, std::_Rb_tree<std::tuple<std::__cxx11::basic_string<char, std::char_traits<char>, std::allocator<char> >, std::__cxx11::basic_string<char, std::char_traits<char>, std::allocator<char> >, std::__cxx11::basic_string<char, std::char_traits<char>, std::allocator<char> >, std::__cxx11::basic_string<char, std::char_traits<char>, std::allocator<char> >, std::__cxx11::basic_string<char, std::char_traits<char>, std::allocator<char> > >, std::tuple<std::__cxx11::basic_string<char, std::char_traits<char>, std::allocator<char> >, std::__cxx11::basic_string<char, std::char_traits<char>, std::allocator<char> >, std::__cxx11::basic_string<char, std::char_traits<char>, std::allocator<char> >, std::__cxx11::basic_string<char, std::char_traits<char>, std::allocator<char> >, std::__cxx11::basic_string<char, std::char_traits<char>, std::allocator<char> > >, std::_Identity<std::tuple<std::__cxx11::basic_string<char, std::char_traits<char>, std::allocator<char> >, std::__cxx11::basic_string<char, std::char_traits<char>, std::allocator<char> >, std::__cxx11::basic_string<char, std::char_traits<char>, std::allocator<char> >, std::__cxx11::basic_string<char, std::char_traits<char>, std::allocator<char> >, std::__cxx11::basic_string<char, std::char_traits<char>, std::allocator<char> > > >, std::less<std::tuple<std::__cxx11::basic_string<char, std::char_traits<char>, std::allocator<char> >, std::__cxx11::basic_string<char, std::char_traits<char>, std::allocator<char> >, std::__cxx11::basic_string<char, std::char_traits<char>, std::allocator<char> >, std::__cxx11::basic_string<char, std::char_traits<char>, std::allocator<char> >, std::__cxx11::basic_string<char, std::char_traits<char>, std::allocator<char> > > >, std::allocator<std::tuple<std::__cxx11::basic_string<char, std::char_traits<char>, std::allocator<char> >, std::__cxx11::basic_string<char, std::char_traits<char>, std::allocator<char> >, std::__cxx11::basic_string<char, std::char_traits<char>, std::allocator<char> >, std::__cxx11::basic_string<char, std::char_traits<char>, std::allocator<char> >, std::__cxx11::basic_string<char, std::char_traits<char>, std::allocator<char> > > > >::_Alloc_node&)
PUBLIC 4cab0 0 std::pair<std::_Rb_tree_iterator<std::tuple<std::__cxx11::basic_string<char, std::char_traits<char>, std::allocator<char> >, std::__cxx11::basic_string<char, std::char_traits<char>, std::allocator<char> >, std::__cxx11::basic_string<char, std::char_traits<char>, std::allocator<char> >, std::__cxx11::basic_string<char, std::char_traits<char>, std::allocator<char> >, std::__cxx11::basic_string<char, std::char_traits<char>, std::allocator<char> > > >, bool> std::_Rb_tree<std::tuple<std::__cxx11::basic_string<char, std::char_traits<char>, std::allocator<char> >, std::__cxx11::basic_string<char, std::char_traits<char>, std::allocator<char> >, std::__cxx11::basic_string<char, std::char_traits<char>, std::allocator<char> >, std::__cxx11::basic_string<char, std::char_traits<char>, std::allocator<char> >, std::__cxx11::basic_string<char, std::char_traits<char>, std::allocator<char> > >, std::tuple<std::__cxx11::basic_string<char, std::char_traits<char>, std::allocator<char> >, std::__cxx11::basic_string<char, std::char_traits<char>, std::allocator<char> >, std::__cxx11::basic_string<char, std::char_traits<char>, std::allocator<char> >, std::__cxx11::basic_string<char, std::char_traits<char>, std::allocator<char> >, std::__cxx11::basic_string<char, std::char_traits<char>, std::allocator<char> > >, std::_Identity<std::tuple<std::__cxx11::basic_string<char, std::char_traits<char>, std::allocator<char> >, std::__cxx11::basic_string<char, std::char_traits<char>, std::allocator<char> >, std::__cxx11::basic_string<char, std::char_traits<char>, std::allocator<char> >, std::__cxx11::basic_string<char, std::char_traits<char>, std::allocator<char> >, std::__cxx11::basic_string<char, std::char_traits<char>, std::allocator<char> > > >, std::less<std::tuple<std::__cxx11::basic_string<char, std::char_traits<char>, std::allocator<char> >, std::__cxx11::basic_string<char, std::char_traits<char>, std::allocator<char> >, std::__cxx11::basic_string<char, std::char_traits<char>, std::allocator<char> >, std::__cxx11::basic_string<char, std::char_traits<char>, std::allocator<char> >, std::__cxx11::basic_string<char, std::char_traits<char>, std::allocator<char> > > >, std::allocator<std::tuple<std::__cxx11::basic_string<char, std::char_traits<char>, std::allocator<char> >, std::__cxx11::basic_string<char, std::char_traits<char>, std::allocator<char> >, std::__cxx11::basic_string<char, std::char_traits<char>, std::allocator<char> >, std::__cxx11::basic_string<char, std::char_traits<char>, std::allocator<char> >, std::__cxx11::basic_string<char, std::char_traits<char>, std::allocator<char> > > > >::_M_insert_unique<std::tuple<std::__cxx11::basic_string<char, std::char_traits<char>, std::allocator<char> >, std::__cxx11::basic_string<char, std::char_traits<char>, std::allocator<char> >, std::__cxx11::basic_string<char, std::char_traits<char>, std::allocator<char> >, std::__cxx11::basic_string<char, std::char_traits<char>, std::allocator<char> >, std::__cxx11::basic_string<char, std::char_traits<char>, std::allocator<char> > > >(std::tuple<std::__cxx11::basic_string<char, std::char_traits<char>, std::allocator<char> >, std::__cxx11::basic_string<char, std::char_traits<char>, std::allocator<char> >, std::__cxx11::basic_string<char, std::char_traits<char>, std::allocator<char> >, std::__cxx11::basic_string<char, std::char_traits<char>, std::allocator<char> >, std::__cxx11::basic_string<char, std::char_traits<char>, std::allocator<char> > >&&)
PUBLIC 4d290 0 void std::vector<sss_root_s*, std::allocator<sss_root_s*> >::_M_realloc_insert<sss_root_s*>(__gnu_cxx::__normal_iterator<sss_root_s**, std::vector<sss_root_s*, std::allocator<sss_root_s*> > >, sss_root_s*&&)
PUBLIC 4d400 0 void std::vector<long*, std::allocator<long*> >::_M_realloc_insert<long*>(__gnu_cxx::__normal_iterator<long**, std::vector<long*, std::allocator<long*> > >, long*&&)
PUBLIC 4d570 0 void std::vector<std::pair<vst_s*, long*>, std::allocator<std::pair<vst_s*, long*> > >::_M_realloc_insert<std::pair<vst_s*, long*> >(__gnu_cxx::__normal_iterator<std::pair<vst_s*, long*>*, std::vector<std::pair<vst_s*, long*>, std::allocator<std::pair<vst_s*, long*> > > >, std::pair<vst_s*, long*>&&)
PUBLIC 4d730 0 std::_Hashtable<std::__cxx11::basic_string<char, std::char_traits<char>, std::allocator<char> >, std::pair<std::__cxx11::basic_string<char, std::char_traits<char>, std::allocator<char> > const, int>, std::allocator<std::pair<std::__cxx11::basic_string<char, std::char_traits<char>, std::allocator<char> > const, int> >, std::__detail::_Select1st, std::equal_to<std::__cxx11::basic_string<char, std::char_traits<char>, std::allocator<char> > >, std::hash<std::__cxx11::basic_string<char, std::char_traits<char>, std::allocator<char> > >, std::__detail::_Mod_range_hashing, std::__detail::_Default_ranged_hash, std::__detail::_Prime_rehash_policy, std::__detail::_Hashtable_traits<true, false, true> >::_M_rehash(unsigned long, unsigned long const&)
PUBLIC 4d860 0 std::_Hashtable<std::__cxx11::basic_string<char, std::char_traits<char>, std::allocator<char> >, std::pair<std::__cxx11::basic_string<char, std::char_traits<char>, std::allocator<char> > const, int>, std::allocator<std::pair<std::__cxx11::basic_string<char, std::char_traits<char>, std::allocator<char> > const, int> >, std::__detail::_Select1st, std::equal_to<std::__cxx11::basic_string<char, std::char_traits<char>, std::allocator<char> > >, std::hash<std::__cxx11::basic_string<char, std::char_traits<char>, std::allocator<char> > >, std::__detail::_Mod_range_hashing, std::__detail::_Default_ranged_hash, std::__detail::_Prime_rehash_policy, std::__detail::_Hashtable_traits<true, false, true> >::_M_insert_unique_node(unsigned long, unsigned long, std::__detail::_Hash_node<std::pair<std::__cxx11::basic_string<char, std::char_traits<char>, std::allocator<char> > const, int>, true>*, unsigned long)
PUBLIC 4d960 0 std::__detail::_Map_base<std::__cxx11::basic_string<char, std::char_traits<char>, std::allocator<char> >, std::pair<std::__cxx11::basic_string<char, std::char_traits<char>, std::allocator<char> > const, int>, std::allocator<std::pair<std::__cxx11::basic_string<char, std::char_traits<char>, std::allocator<char> > const, int> >, std::__detail::_Select1st, std::equal_to<std::__cxx11::basic_string<char, std::char_traits<char>, std::allocator<char> > >, std::hash<std::__cxx11::basic_string<char, std::char_traits<char>, std::allocator<char> > >, std::__detail::_Mod_range_hashing, std::__detail::_Default_ranged_hash, std::__detail::_Prime_rehash_policy, std::__detail::_Hashtable_traits<true, false, true>, true>::operator[](std::__cxx11::basic_string<char, std::char_traits<char>, std::allocator<char> > const&)
PUBLIC 4da90 0 std::pair<std::__detail::_Node_iterator<std::pair<std::__cxx11::basic_string<char, std::char_traits<char>, std::allocator<char> > const, int>, false, true>, bool> std::_Hashtable<std::__cxx11::basic_string<char, std::char_traits<char>, std::allocator<char> >, std::pair<std::__cxx11::basic_string<char, std::char_traits<char>, std::allocator<char> > const, int>, std::allocator<std::pair<std::__cxx11::basic_string<char, std::char_traits<char>, std::allocator<char> > const, int> >, std::__detail::_Select1st, std::equal_to<std::__cxx11::basic_string<char, std::char_traits<char>, std::allocator<char> > >, std::hash<std::__cxx11::basic_string<char, std::char_traits<char>, std::allocator<char> > >, std::__detail::_Mod_range_hashing, std::__detail::_Default_ranged_hash, std::__detail::_Prime_rehash_policy, std::__detail::_Hashtable_traits<true, false, true> >::_M_emplace<std::pair<std::__cxx11::basic_string<char, std::char_traits<char>, std::allocator<char> > const, int> >(std::integral_constant<bool, true>, std::pair<std::__cxx11::basic_string<char, std::char_traits<char>, std::allocator<char> > const, int>&&)
PUBLIC 4dbe0 0 std::__detail::_Map_base<std::__cxx11::basic_string<char, std::char_traits<char>, std::allocator<char> >, std::pair<std::__cxx11::basic_string<char, std::char_traits<char>, std::allocator<char> > const, int>, std::allocator<std::pair<std::__cxx11::basic_string<char, std::char_traits<char>, std::allocator<char> > const, int> >, std::__detail::_Select1st, std::equal_to<std::__cxx11::basic_string<char, std::char_traits<char>, std::allocator<char> > >, std::hash<std::__cxx11::basic_string<char, std::char_traits<char>, std::allocator<char> > >, std::__detail::_Mod_range_hashing, std::__detail::_Default_ranged_hash, std::__detail::_Prime_rehash_policy, std::__detail::_Hashtable_traits<true, false, true>, true>::operator[](std::__cxx11::basic_string<char, std::char_traits<char>, std::allocator<char> >&&)
PUBLIC 4dd20 0 std::_Hashtable<xst_s*, std::pair<xst_s* const, std::unordered_set<long*, std::hash<long*>, std::equal_to<long*>, std::allocator<long*> > >, std::allocator<std::pair<xst_s* const, std::unordered_set<long*, std::hash<long*>, std::equal_to<long*>, std::allocator<long*> > > >, std::__detail::_Select1st, std::equal_to<xst_s*>, std::hash<xst_s*>, std::__detail::_Mod_range_hashing, std::__detail::_Default_ranged_hash, std::__detail::_Prime_rehash_policy, std::__detail::_Hashtable_traits<false, false, true> >::_M_rehash(unsigned long, unsigned long const&)
PUBLIC 4de50 0 std::_Hashtable<xst_s*, std::pair<xst_s* const, std::unordered_set<long*, std::hash<long*>, std::equal_to<long*>, std::allocator<long*> > >, std::allocator<std::pair<xst_s* const, std::unordered_set<long*, std::hash<long*>, std::equal_to<long*>, std::allocator<long*> > > >, std::__detail::_Select1st, std::equal_to<xst_s*>, std::hash<xst_s*>, std::__detail::_Mod_range_hashing, std::__detail::_Default_ranged_hash, std::__detail::_Prime_rehash_policy, std::__detail::_Hashtable_traits<false, false, true> >::_M_insert_unique_node(unsigned long, unsigned long, std::__detail::_Hash_node<std::pair<xst_s* const, std::unordered_set<long*, std::hash<long*>, std::equal_to<long*>, std::allocator<long*> > >, false>*, unsigned long)
PUBLIC 4df90 0 std::__detail::_Map_base<xst_s*, std::pair<xst_s* const, std::unordered_set<long*, std::hash<long*>, std::equal_to<long*>, std::allocator<long*> > >, std::allocator<std::pair<xst_s* const, std::unordered_set<long*, std::hash<long*>, std::equal_to<long*>, std::allocator<long*> > > >, std::__detail::_Select1st, std::equal_to<xst_s*>, std::hash<xst_s*>, std::__detail::_Mod_range_hashing, std::__detail::_Default_ranged_hash, std::__detail::_Prime_rehash_policy, std::__detail::_Hashtable_traits<false, false, true>, true>::operator[](xst_s* const&)
PUBLIC 4e080 0 std::_Hashtable<std::__cxx11::basic_string<char, std::char_traits<char>, std::allocator<char> >, std::pair<std::__cxx11::basic_string<char, std::char_traits<char>, std::allocator<char> > const, std::unordered_set<std::__cxx11::basic_string<char, std::char_traits<char>, std::allocator<char> >, std::hash<std::__cxx11::basic_string<char, std::char_traits<char>, std::allocator<char> > >, std::equal_to<std::__cxx11::basic_string<char, std::char_traits<char>, std::allocator<char> > >, std::allocator<std::__cxx11::basic_string<char, std::char_traits<char>, std::allocator<char> > > > >, std::allocator<std::pair<std::__cxx11::basic_string<char, std::char_traits<char>, std::allocator<char> > const, std::unordered_set<std::__cxx11::basic_string<char, std::char_traits<char>, std::allocator<char> >, std::hash<std::__cxx11::basic_string<char, std::char_traits<char>, std::allocator<char> > >, std::equal_to<std::__cxx11::basic_string<char, std::char_traits<char>, std::allocator<char> > >, std::allocator<std::__cxx11::basic_string<char, std::char_traits<char>, std::allocator<char> > > > > >, std::__detail::_Select1st, std::equal_to<std::__cxx11::basic_string<char, std::char_traits<char>, std::allocator<char> > >, std::hash<std::__cxx11::basic_string<char, std::char_traits<char>, std::allocator<char> > >, std::__detail::_Mod_range_hashing, std::__detail::_Default_ranged_hash, std::__detail::_Prime_rehash_policy, std::__detail::_Hashtable_traits<true, false, true> >::_M_rehash(unsigned long, unsigned long const&)
PUBLIC 4e1b0 0 std::_Hashtable<std::__cxx11::basic_string<char, std::char_traits<char>, std::allocator<char> >, std::pair<std::__cxx11::basic_string<char, std::char_traits<char>, std::allocator<char> > const, std::unordered_set<std::__cxx11::basic_string<char, std::char_traits<char>, std::allocator<char> >, std::hash<std::__cxx11::basic_string<char, std::char_traits<char>, std::allocator<char> > >, std::equal_to<std::__cxx11::basic_string<char, std::char_traits<char>, std::allocator<char> > >, std::allocator<std::__cxx11::basic_string<char, std::char_traits<char>, std::allocator<char> > > > >, std::allocator<std::pair<std::__cxx11::basic_string<char, std::char_traits<char>, std::allocator<char> > const, std::unordered_set<std::__cxx11::basic_string<char, std::char_traits<char>, std::allocator<char> >, std::hash<std::__cxx11::basic_string<char, std::char_traits<char>, std::allocator<char> > >, std::equal_to<std::__cxx11::basic_string<char, std::char_traits<char>, std::allocator<char> > >, std::allocator<std::__cxx11::basic_string<char, std::char_traits<char>, std::allocator<char> > > > > >, std::__detail::_Select1st, std::equal_to<std::__cxx11::basic_string<char, std::char_traits<char>, std::allocator<char> > >, std::hash<std::__cxx11::basic_string<char, std::char_traits<char>, std::allocator<char> > >, std::__detail::_Mod_range_hashing, std::__detail::_Default_ranged_hash, std::__detail::_Prime_rehash_policy, std::__detail::_Hashtable_traits<true, false, true> >::_M_insert_unique_node(unsigned long, unsigned long, std::__detail::_Hash_node<std::pair<std::__cxx11::basic_string<char, std::char_traits<char>, std::allocator<char> > const, std::unordered_set<std::__cxx11::basic_string<char, std::char_traits<char>, std::allocator<char> >, std::hash<std::__cxx11::basic_string<char, std::char_traits<char>, std::allocator<char> > >, std::equal_to<std::__cxx11::basic_string<char, std::char_traits<char>, std::allocator<char> > >, std::allocator<std::__cxx11::basic_string<char, std::char_traits<char>, std::allocator<char> > > > >, true>*, unsigned long)
PUBLIC 4e320 0 std::__detail::_Map_base<std::__cxx11::basic_string<char, std::char_traits<char>, std::allocator<char> >, std::pair<std::__cxx11::basic_string<char, std::char_traits<char>, std::allocator<char> > const, std::unordered_set<std::__cxx11::basic_string<char, std::char_traits<char>, std::allocator<char> >, std::hash<std::__cxx11::basic_string<char, std::char_traits<char>, std::allocator<char> > >, std::equal_to<std::__cxx11::basic_string<char, std::char_traits<char>, std::allocator<char> > >, std::allocator<std::__cxx11::basic_string<char, std::char_traits<char>, std::allocator<char> > > > >, std::allocator<std::pair<std::__cxx11::basic_string<char, std::char_traits<char>, std::allocator<char> > const, std::unordered_set<std::__cxx11::basic_string<char, std::char_traits<char>, std::allocator<char> >, std::hash<std::__cxx11::basic_string<char, std::char_traits<char>, std::allocator<char> > >, std::equal_to<std::__cxx11::basic_string<char, std::char_traits<char>, std::allocator<char> > >, std::allocator<std::__cxx11::basic_string<char, std::char_traits<char>, std::allocator<char> > > > > >, std::__detail::_Select1st, std::equal_to<std::__cxx11::basic_string<char, std::char_traits<char>, std::allocator<char> > >, std::hash<std::__cxx11::basic_string<char, std::char_traits<char>, std::allocator<char> > >, std::__detail::_Mod_range_hashing, std::__detail::_Default_ranged_hash, std::__detail::_Prime_rehash_policy, std::__detail::_Hashtable_traits<true, false, true>, true>::operator[](std::__cxx11::basic_string<char, std::char_traits<char>, std::allocator<char> >&&)
PUBLIC 4e4a0 0 std::_Hashtable<xst_s*, std::pair<xst_s* const, std::vector<long*, std::allocator<long*> > >, std::allocator<std::pair<xst_s* const, std::vector<long*, std::allocator<long*> > > >, std::__detail::_Select1st, std::equal_to<xst_s*>, std::hash<xst_s*>, std::__detail::_Mod_range_hashing, std::__detail::_Default_ranged_hash, std::__detail::_Prime_rehash_policy, std::__detail::_Hashtable_traits<false, false, true> >::_M_rehash(unsigned long, unsigned long const&)
PUBLIC 4e5d0 0 std::_Hashtable<xst_s*, std::pair<xst_s* const, std::vector<long*, std::allocator<long*> > >, std::allocator<std::pair<xst_s* const, std::vector<long*, std::allocator<long*> > > >, std::__detail::_Select1st, std::equal_to<xst_s*>, std::hash<xst_s*>, std::__detail::_Mod_range_hashing, std::__detail::_Default_ranged_hash, std::__detail::_Prime_rehash_policy, std::__detail::_Hashtable_traits<false, false, true> >::_M_insert_unique_node(unsigned long, unsigned long, std::__detail::_Hash_node<std::pair<xst_s* const, std::vector<long*, std::allocator<long*> > >, false>*, unsigned long)
PUBLIC 4e6d0 0 std::__detail::_Map_base<xst_s*, std::pair<xst_s* const, std::vector<long*, std::allocator<long*> > >, std::allocator<std::pair<xst_s* const, std::vector<long*, std::allocator<long*> > > >, std::__detail::_Select1st, std::equal_to<xst_s*>, std::hash<xst_s*>, std::__detail::_Mod_range_hashing, std::__detail::_Default_ranged_hash, std::__detail::_Prime_rehash_policy, std::__detail::_Hashtable_traits<false, false, true>, true>::operator[](xst_s* const&)
PUBLIC 4e7a0 0 std::_Rb_tree<std::pair<std::__cxx11::basic_string<char, std::char_traits<char>, std::allocator<char> >, std::__cxx11::basic_string<char, std::char_traits<char>, std::allocator<char> > >, std::pair<std::pair<std::__cxx11::basic_string<char, std::char_traits<char>, std::allocator<char> >, std::__cxx11::basic_string<char, std::char_traits<char>, std::allocator<char> > > const, std::set<std::pair<std::__cxx11::basic_string<char, std::char_traits<char>, std::allocator<char> >, std::__cxx11::basic_string<char, std::char_traits<char>, std::allocator<char> > >, std::less<std::pair<std::__cxx11::basic_string<char, std::char_traits<char>, std::allocator<char> >, std::__cxx11::basic_string<char, std::char_traits<char>, std::allocator<char> > > >, std::allocator<std::pair<std::__cxx11::basic_string<char, std::char_traits<char>, std::allocator<char> >, std::__cxx11::basic_string<char, std::char_traits<char>, std::allocator<char> > > > > >, std::_Select1st<std::pair<std::pair<std::__cxx11::basic_string<char, std::char_traits<char>, std::allocator<char> >, std::__cxx11::basic_string<char, std::char_traits<char>, std::allocator<char> > > const, std::set<std::pair<std::__cxx11::basic_string<char, std::char_traits<char>, std::allocator<char> >, std::__cxx11::basic_string<char, std::char_traits<char>, std::allocator<char> > >, std::less<std::pair<std::__cxx11::basic_string<char, std::char_traits<char>, std::allocator<char> >, std::__cxx11::basic_string<char, std::char_traits<char>, std::allocator<char> > > >, std::allocator<std::pair<std::__cxx11::basic_string<char, std::char_traits<char>, std::allocator<char> >, std::__cxx11::basic_string<char, std::char_traits<char>, std::allocator<char> > > > > > >, std::less<std::pair<std::__cxx11::basic_string<char, std::char_traits<char>, std::allocator<char> >, std::__cxx11::basic_string<char, std::char_traits<char>, std::allocator<char> > > >, std::allocator<std::pair<std::pair<std::__cxx11::basic_string<char, std::char_traits<char>, std::allocator<char> >, std::__cxx11::basic_string<char, std::char_traits<char>, std::allocator<char> > > const, std::set<std::pair<std::__cxx11::basic_string<char, std::char_traits<char>, std::allocator<char> >, std::__cxx11::basic_string<char, std::char_traits<char>, std::allocator<char> > >, std::less<std::pair<std::__cxx11::basic_string<char, std::char_traits<char>, std::allocator<char> >, std::__cxx11::basic_string<char, std::char_traits<char>, std::allocator<char> > > >, std::allocator<std::pair<std::__cxx11::basic_string<char, std::char_traits<char>, std::allocator<char> >, std::__cxx11::basic_string<char, std::char_traits<char>, std::allocator<char> > > > > > > >::_M_get_insert_unique_pos(std::pair<std::__cxx11::basic_string<char, std::char_traits<char>, std::allocator<char> >, std::__cxx11::basic_string<char, std::char_traits<char>, std::allocator<char> > > const&)
PUBLIC 4ea80 0 std::_Rb_tree<std::pair<std::__cxx11::basic_string<char, std::char_traits<char>, std::allocator<char> >, std::__cxx11::basic_string<char, std::char_traits<char>, std::allocator<char> > >, std::pair<std::pair<std::__cxx11::basic_string<char, std::char_traits<char>, std::allocator<char> >, std::__cxx11::basic_string<char, std::char_traits<char>, std::allocator<char> > > const, std::set<std::pair<std::__cxx11::basic_string<char, std::char_traits<char>, std::allocator<char> >, std::__cxx11::basic_string<char, std::char_traits<char>, std::allocator<char> > >, std::less<std::pair<std::__cxx11::basic_string<char, std::char_traits<char>, std::allocator<char> >, std::__cxx11::basic_string<char, std::char_traits<char>, std::allocator<char> > > >, std::allocator<std::pair<std::__cxx11::basic_string<char, std::char_traits<char>, std::allocator<char> >, std::__cxx11::basic_string<char, std::char_traits<char>, std::allocator<char> > > > > >, std::_Select1st<std::pair<std::pair<std::__cxx11::basic_string<char, std::char_traits<char>, std::allocator<char> >, std::__cxx11::basic_string<char, std::char_traits<char>, std::allocator<char> > > const, std::set<std::pair<std::__cxx11::basic_string<char, std::char_traits<char>, std::allocator<char> >, std::__cxx11::basic_string<char, std::char_traits<char>, std::allocator<char> > >, std::less<std::pair<std::__cxx11::basic_string<char, std::char_traits<char>, std::allocator<char> >, std::__cxx11::basic_string<char, std::char_traits<char>, std::allocator<char> > > >, std::allocator<std::pair<std::__cxx11::basic_string<char, std::char_traits<char>, std::allocator<char> >, std::__cxx11::basic_string<char, std::char_traits<char>, std::allocator<char> > > > > > >, std::less<std::pair<std::__cxx11::basic_string<char, std::char_traits<char>, std::allocator<char> >, std::__cxx11::basic_string<char, std::char_traits<char>, std::allocator<char> > > >, std::allocator<std::pair<std::pair<std::__cxx11::basic_string<char, std::char_traits<char>, std::allocator<char> >, std::__cxx11::basic_string<char, std::char_traits<char>, std::allocator<char> > > const, std::set<std::pair<std::__cxx11::basic_string<char, std::char_traits<char>, std::allocator<char> >, std::__cxx11::basic_string<char, std::char_traits<char>, std::allocator<char> > >, std::less<std::pair<std::__cxx11::basic_string<char, std::char_traits<char>, std::allocator<char> >, std::__cxx11::basic_string<char, std::char_traits<char>, std::allocator<char> > > >, std::allocator<std::pair<std::__cxx11::basic_string<char, std::char_traits<char>, std::allocator<char> >, std::__cxx11::basic_string<char, std::char_traits<char>, std::allocator<char> > > > > > > >::_M_get_insert_hint_unique_pos(std::_Rb_tree_const_iterator<std::pair<std::pair<std::__cxx11::basic_string<char, std::char_traits<char>, std::allocator<char> >, std::__cxx11::basic_string<char, std::char_traits<char>, std::allocator<char> > > const, std::set<std::pair<std::__cxx11::basic_string<char, std::char_traits<char>, std::allocator<char> >, std::__cxx11::basic_string<char, std::char_traits<char>, std::allocator<char> > >, std::less<std::pair<std::__cxx11::basic_string<char, std::char_traits<char>, std::allocator<char> >, std::__cxx11::basic_string<char, std::char_traits<char>, std::allocator<char> > > >, std::allocator<std::pair<std::__cxx11::basic_string<char, std::char_traits<char>, std::allocator<char> >, std::__cxx11::basic_string<char, std::char_traits<char>, std::allocator<char> > > > > > >, std::pair<std::__cxx11::basic_string<char, std::char_traits<char>, std::allocator<char> >, std::__cxx11::basic_string<char, std::char_traits<char>, std::allocator<char> > > const&)
PUBLIC 4ecd0 0 std::_Hashtable<xst_s*, xst_s*, std::allocator<xst_s*>, std::__detail::_Identity, std::equal_to<xst_s*>, std::hash<xst_s*>, std::__detail::_Mod_range_hashing, std::__detail::_Default_ranged_hash, std::__detail::_Prime_rehash_policy, std::__detail::_Hashtable_traits<false, true, true> >::_M_rehash(unsigned long, unsigned long const&)
PUBLIC 4ee00 0 std::_Hashtable<xst_s*, xst_s*, std::allocator<xst_s*>, std::__detail::_Identity, std::equal_to<xst_s*>, std::hash<xst_s*>, std::__detail::_Mod_range_hashing, std::__detail::_Default_ranged_hash, std::__detail::_Prime_rehash_policy, std::__detail::_Hashtable_traits<false, true, true> >::_M_insert_unique_node(unsigned long, unsigned long, std::__detail::_Hash_node<xst_s*, false>*, unsigned long)
PUBLIC 4eef0 0 std::_Hashtable<long*, long*, std::allocator<long*>, std::__detail::_Identity, std::equal_to<long*>, std::hash<long*>, std::__detail::_Mod_range_hashing, std::__detail::_Default_ranged_hash, std::__detail::_Prime_rehash_policy, std::__detail::_Hashtable_traits<false, true, true> >::_M_rehash(unsigned long, unsigned long const&)
PUBLIC 4f020 0 std::_Hashtable<long*, long*, std::allocator<long*>, std::__detail::_Identity, std::equal_to<long*>, std::hash<long*>, std::__detail::_Mod_range_hashing, std::__detail::_Default_ranged_hash, std::__detail::_Prime_rehash_policy, std::__detail::_Hashtable_traits<false, true, true> >::_M_insert_unique_node(unsigned long, unsigned long, std::__detail::_Hash_node<long*, false>*, unsigned long)
PUBLIC 4f110 0 void std::__unguarded_linear_insert<__gnu_cxx::__normal_iterator<std::__cxx11::basic_string<char, std::char_traits<char>, std::allocator<char> >*, std::vector<std::__cxx11::basic_string<char, std::char_traits<char>, std::allocator<char> >, std::allocator<std::__cxx11::basic_string<char, std::char_traits<char>, std::allocator<char> > > > >, __gnu_cxx::__ops::_Val_less_iter>(__gnu_cxx::__normal_iterator<std::__cxx11::basic_string<char, std::char_traits<char>, std::allocator<char> >*, std::vector<std::__cxx11::basic_string<char, std::char_traits<char>, std::allocator<char> >, std::allocator<std::__cxx11::basic_string<char, std::char_traits<char>, std::allocator<char> > > > >, __gnu_cxx::__ops::_Val_less_iter)
PUBLIC 4f390 0 void std::__insertion_sort<__gnu_cxx::__normal_iterator<std::__cxx11::basic_string<char, std::char_traits<char>, std::allocator<char> >*, std::vector<std::__cxx11::basic_string<char, std::char_traits<char>, std::allocator<char> >, std::allocator<std::__cxx11::basic_string<char, std::char_traits<char>, std::allocator<char> > > > >, __gnu_cxx::__ops::_Iter_less_iter>(__gnu_cxx::__normal_iterator<std::__cxx11::basic_string<char, std::char_traits<char>, std::allocator<char> >*, std::vector<std::__cxx11::basic_string<char, std::char_traits<char>, std::allocator<char> >, std::allocator<std::__cxx11::basic_string<char, std::char_traits<char>, std::allocator<char> > > > >, __gnu_cxx::__normal_iterator<std::__cxx11::basic_string<char, std::char_traits<char>, std::allocator<char> >*, std::vector<std::__cxx11::basic_string<char, std::char_traits<char>, std::allocator<char> >, std::allocator<std::__cxx11::basic_string<char, std::char_traits<char>, std::allocator<char> > > > >, __gnu_cxx::__ops::_Iter_less_iter)
PUBLIC 4f6b0 0 std::_Hashtable<void*, void*, std::allocator<void*>, std::__detail::_Identity, std::equal_to<void*>, std::hash<void*>, std::__detail::_Mod_range_hashing, std::__detail::_Default_ranged_hash, std::__detail::_Prime_rehash_policy, std::__detail::_Hashtable_traits<false, true, true> >::_M_rehash(unsigned long, unsigned long const&)
PUBLIC 4f7e0 0 std::_Hashtable<void*, void*, std::allocator<void*>, std::__detail::_Identity, std::equal_to<void*>, std::hash<void*>, std::__detail::_Mod_range_hashing, std::__detail::_Default_ranged_hash, std::__detail::_Prime_rehash_policy, std::__detail::_Hashtable_traits<false, true, true> >::_M_insert_unique_node(unsigned long, unsigned long, std::__detail::_Hash_node<void*, false>*, unsigned long)
PUBLIC 4f8d0 0 std::pair<std::__detail::_Node_iterator<void*, true, false>, bool> std::_Hashtable<void*, void*, std::allocator<void*>, std::__detail::_Identity, std::equal_to<void*>, std::hash<void*>, std::__detail::_Mod_range_hashing, std::__detail::_Default_ranged_hash, std::__detail::_Prime_rehash_policy, std::__detail::_Hashtable_traits<false, true, true> >::_M_insert<void*, std::__detail::_AllocNode<std::allocator<std::__detail::_Hash_node<void*, false> > > >(void*&&, std::__detail::_AllocNode<std::allocator<std::__detail::_Hash_node<void*, false> > > const&, std::integral_constant<bool, true>, unsigned long)
PUBLIC 4f980 0 std::_Hashtable<std::__cxx11::basic_string<char, std::char_traits<char>, std::allocator<char> >, std::__cxx11::basic_string<char, std::char_traits<char>, std::allocator<char> >, std::allocator<std::__cxx11::basic_string<char, std::char_traits<char>, std::allocator<char> > >, std::__detail::_Identity, std::equal_to<std::__cxx11::basic_string<char, std::char_traits<char>, std::allocator<char> > >, std::hash<std::__cxx11::basic_string<char, std::char_traits<char>, std::allocator<char> > >, std::__detail::_Mod_range_hashing, std::__detail::_Default_ranged_hash, std::__detail::_Prime_rehash_policy, std::__detail::_Hashtable_traits<true, true, true> >::_M_rehash(unsigned long, unsigned long const&)
PUBLIC 4fab0 0 std::_Hashtable<std::__cxx11::basic_string<char, std::char_traits<char>, std::allocator<char> >, std::__cxx11::basic_string<char, std::char_traits<char>, std::allocator<char> >, std::allocator<std::__cxx11::basic_string<char, std::char_traits<char>, std::allocator<char> > >, std::__detail::_Identity, std::equal_to<std::__cxx11::basic_string<char, std::char_traits<char>, std::allocator<char> > >, std::hash<std::__cxx11::basic_string<char, std::char_traits<char>, std::allocator<char> > >, std::__detail::_Mod_range_hashing, std::__detail::_Default_ranged_hash, std::__detail::_Prime_rehash_policy, std::__detail::_Hashtable_traits<true, true, true> >::_M_insert_unique_node(unsigned long, unsigned long, std::__detail::_Hash_node<std::__cxx11::basic_string<char, std::char_traits<char>, std::allocator<char> >, true>*, unsigned long)
PUBLIC 4fbb0 0 std::pair<std::__detail::_Node_iterator<std::__cxx11::basic_string<char, std::char_traits<char>, std::allocator<char> >, true, true>, bool> std::_Hashtable<std::__cxx11::basic_string<char, std::char_traits<char>, std::allocator<char> >, std::__cxx11::basic_string<char, std::char_traits<char>, std::allocator<char> >, std::allocator<std::__cxx11::basic_string<char, std::char_traits<char>, std::allocator<char> > >, std::__detail::_Identity, std::equal_to<std::__cxx11::basic_string<char, std::char_traits<char>, std::allocator<char> > >, std::hash<std::__cxx11::basic_string<char, std::char_traits<char>, std::allocator<char> > >, std::__detail::_Mod_range_hashing, std::__detail::_Default_ranged_hash, std::__detail::_Prime_rehash_policy, std::__detail::_Hashtable_traits<true, true, true> >::_M_insert<std::__cxx11::basic_string<char, std::char_traits<char>, std::allocator<char> > const&, std::__detail::_AllocNode<std::allocator<std::__detail::_Hash_node<std::__cxx11::basic_string<char, std::char_traits<char>, std::allocator<char> >, true> > > >(std::__cxx11::basic_string<char, std::char_traits<char>, std::allocator<char> > const&, std::__detail::_AllocNode<std::allocator<std::__detail::_Hash_node<std::__cxx11::basic_string<char, std::char_traits<char>, std::allocator<char> >, true> > > const&, std::integral_constant<bool, true>, unsigned long)
PUBLIC 4fcf0 0 void std::_Hashtable<std::__cxx11::basic_string<char, std::char_traits<char>, std::allocator<char> >, std::pair<std::__cxx11::basic_string<char, std::char_traits<char>, std::allocator<char> > const, int>, std::allocator<std::pair<std::__cxx11::basic_string<char, std::char_traits<char>, std::allocator<char> > const, int> >, std::__detail::_Select1st, std::equal_to<std::__cxx11::basic_string<char, std::char_traits<char>, std::allocator<char> > >, std::hash<std::__cxx11::basic_string<char, std::char_traits<char>, std::allocator<char> > >, std::__detail::_Mod_range_hashing, std::__detail::_Default_ranged_hash, std::__detail::_Prime_rehash_policy, std::__detail::_Hashtable_traits<true, false, true> >::_M_assign<std::_Hashtable<std::__cxx11::basic_string<char, std::char_traits<char>, std::allocator<char> >, std::pair<std::__cxx11::basic_string<char, std::char_traits<char>, std::allocator<char> > const, int>, std::allocator<std::pair<std::__cxx11::basic_string<char, std::char_traits<char>, std::allocator<char> > const, int> >, std::__detail::_Select1st, std::equal_to<std::__cxx11::basic_string<char, std::char_traits<char>, std::allocator<char> > >, std::hash<std::__cxx11::basic_string<char, std::char_traits<char>, std::allocator<char> > >, std::__detail::_Mod_range_hashing, std::__detail::_Default_ranged_hash, std::__detail::_Prime_rehash_policy, std::__detail::_Hashtable_traits<true, false, true> >::_M_assign(std::_Hashtable<std::__cxx11::basic_string<char, std::char_traits<char>, std::allocator<char> >, std::pair<std::__cxx11::basic_string<char, std::char_traits<char>, std::allocator<char> > const, int>, std::allocator<std::pair<std::__cxx11::basic_string<char, std::char_traits<char>, std::allocator<char> > const, int> >, std::__detail::_Select1st, std::equal_to<std::__cxx11::basic_string<char, std::char_traits<char>, std::allocator<char> > >, std::hash<std::__cxx11::basic_string<char, std::char_traits<char>, std::allocator<char> > >, std::__detail::_Mod_range_hashing, std::__detail::_Default_ranged_hash, std::__detail::_Prime_rehash_policy, std::__detail::_Hashtable_traits<true, false, true> > const&)::{lambda(std::__detail::_Hash_node<std::pair<std::__cxx11::basic_string<char, std::char_traits<char>, std::allocator<char> > const, int>, true> const*)#1}>(std::_Hashtable<std::__cxx11::basic_string<char, std::char_traits<char>, std::allocator<char> >, std::pair<std::__cxx11::basic_string<char, std::char_traits<char>, std::allocator<char> > const, int>, std::allocator<std::pair<std::__cxx11::basic_string<char, std::char_traits<char>, std::allocator<char> > const, int> >, std::__detail::_Select1st, std::equal_to<std::__cxx11::basic_string<char, std::char_traits<char>, std::allocator<char> > >, std::hash<std::__cxx11::basic_string<char, std::char_traits<char>, std::allocator<char> > >, std::__detail::_Mod_range_hashing, std::__detail::_Default_ranged_hash, std::__detail::_Prime_rehash_policy, std::__detail::_Hashtable_traits<true, false, true> > const&, std::_Hashtable<std::__cxx11::basic_string<char, std::char_traits<char>, std::allocator<char> >, std::pair<std::__cxx11::basic_string<char, std::char_traits<char>, std::allocator<char> > const, int>, std::allocator<std::pair<std::__cxx11::basic_string<char, std::char_traits<char>, std::allocator<char> > const, int> >, std::__detail::_Select1st, std::equal_to<std::__cxx11::basic_string<char, std::char_traits<char>, std::allocator<char> > >, std::hash<std::__cxx11::basic_string<char, std::char_traits<char>, std::allocator<char> > >, std::__detail::_Mod_range_hashing, std::__detail::_Default_ranged_hash, std::__detail::_Prime_rehash_policy, std::__detail::_Hashtable_traits<true, false, true> >::_M_assign(std::_Hashtable<std::__cxx11::basic_string<char, std::char_traits<char>, std::allocator<char> >, std::pair<std::__cxx11::basic_string<char, std::char_traits<char>, std::allocator<char> > const, int>, std::allocator<std::pair<std::__cxx11::basic_string<char, std::char_traits<char>, std::allocator<char> > const, int> >, std::__detail::_Select1st, std::equal_to<std::__cxx11::basic_string<char, std::char_traits<char>, std::allocator<char> > >, std::hash<std::__cxx11::basic_string<char, std::char_traits<char>, std::allocator<char> > >, std::__detail::_Mod_range_hashing, std::__detail::_Default_ranged_hash, std::__detail::_Prime_rehash_policy, std::__detail::_Hashtable_traits<true, false, true> > const&)::{lambda(std::__detail::_Hash_node<std::pair<std::__cxx11::basic_string<char, std::char_traits<char>, std::allocator<char> > const, int>, true> const*)#1} const&)
PUBLIC 4ffe0 0 void std::__adjust_heap<__gnu_cxx::__normal_iterator<std::__cxx11::basic_string<char, std::char_traits<char>, std::allocator<char> >*, std::vector<std::__cxx11::basic_string<char, std::char_traits<char>, std::allocator<char> >, std::allocator<std::__cxx11::basic_string<char, std::char_traits<char>, std::allocator<char> > > > >, long, std::__cxx11::basic_string<char, std::char_traits<char>, std::allocator<char> >, __gnu_cxx::__ops::_Iter_less_iter>(__gnu_cxx::__normal_iterator<std::__cxx11::basic_string<char, std::char_traits<char>, std::allocator<char> >*, std::vector<std::__cxx11::basic_string<char, std::char_traits<char>, std::allocator<char> >, std::allocator<std::__cxx11::basic_string<char, std::char_traits<char>, std::allocator<char> > > > >, long, long, std::__cxx11::basic_string<char, std::char_traits<char>, std::allocator<char> >, __gnu_cxx::__ops::_Iter_less_iter)
PUBLIC 50580 0 void std::__make_heap<__gnu_cxx::__normal_iterator<std::__cxx11::basic_string<char, std::char_traits<char>, std::allocator<char> >*, std::vector<std::__cxx11::basic_string<char, std::char_traits<char>, std::allocator<char> >, std::allocator<std::__cxx11::basic_string<char, std::char_traits<char>, std::allocator<char> > > > >, __gnu_cxx::__ops::_Iter_less_iter>(__gnu_cxx::__normal_iterator<std::__cxx11::basic_string<char, std::char_traits<char>, std::allocator<char> >*, std::vector<std::__cxx11::basic_string<char, std::char_traits<char>, std::allocator<char> >, std::allocator<std::__cxx11::basic_string<char, std::char_traits<char>, std::allocator<char> > > > >, __gnu_cxx::__normal_iterator<std::__cxx11::basic_string<char, std::char_traits<char>, std::allocator<char> >*, std::vector<std::__cxx11::basic_string<char, std::char_traits<char>, std::allocator<char> >, std::allocator<std::__cxx11::basic_string<char, std::char_traits<char>, std::allocator<char> > > > >, __gnu_cxx::__ops::_Iter_less_iter&)
PUBLIC 506e0 0 std::_Rb_tree<std::pair<std::__cxx11::basic_string<char, std::char_traits<char>, std::allocator<char> >, std::__cxx11::basic_string<char, std::char_traits<char>, std::allocator<char> > >, std::pair<std::__cxx11::basic_string<char, std::char_traits<char>, std::allocator<char> >, std::__cxx11::basic_string<char, std::char_traits<char>, std::allocator<char> > >, std::_Identity<std::pair<std::__cxx11::basic_string<char, std::char_traits<char>, std::allocator<char> >, std::__cxx11::basic_string<char, std::char_traits<char>, std::allocator<char> > > >, std::less<std::pair<std::__cxx11::basic_string<char, std::char_traits<char>, std::allocator<char> >, std::__cxx11::basic_string<char, std::char_traits<char>, std::allocator<char> > > >, std::allocator<std::pair<std::__cxx11::basic_string<char, std::char_traits<char>, std::allocator<char> >, std::__cxx11::basic_string<char, std::char_traits<char>, std::allocator<char> > > > >::_M_erase(std::_Rb_tree_node<std::pair<std::__cxx11::basic_string<char, std::char_traits<char>, std::allocator<char> >, std::__cxx11::basic_string<char, std::char_traits<char>, std::allocator<char> > > >*)
PUBLIC 50760 0 std::_Rb_tree<std::pair<std::__cxx11::basic_string<char, std::char_traits<char>, std::allocator<char> >, std::__cxx11::basic_string<char, std::char_traits<char>, std::allocator<char> > >, std::pair<std::pair<std::__cxx11::basic_string<char, std::char_traits<char>, std::allocator<char> >, std::__cxx11::basic_string<char, std::char_traits<char>, std::allocator<char> > > const, std::set<std::pair<std::__cxx11::basic_string<char, std::char_traits<char>, std::allocator<char> >, std::__cxx11::basic_string<char, std::char_traits<char>, std::allocator<char> > >, std::less<std::pair<std::__cxx11::basic_string<char, std::char_traits<char>, std::allocator<char> >, std::__cxx11::basic_string<char, std::char_traits<char>, std::allocator<char> > > >, std::allocator<std::pair<std::__cxx11::basic_string<char, std::char_traits<char>, std::allocator<char> >, std::__cxx11::basic_string<char, std::char_traits<char>, std::allocator<char> > > > > >, std::_Select1st<std::pair<std::pair<std::__cxx11::basic_string<char, std::char_traits<char>, std::allocator<char> >, std::__cxx11::basic_string<char, std::char_traits<char>, std::allocator<char> > > const, std::set<std::pair<std::__cxx11::basic_string<char, std::char_traits<char>, std::allocator<char> >, std::__cxx11::basic_string<char, std::char_traits<char>, std::allocator<char> > >, std::less<std::pair<std::__cxx11::basic_string<char, std::char_traits<char>, std::allocator<char> >, std::__cxx11::basic_string<char, std::char_traits<char>, std::allocator<char> > > >, std::allocator<std::pair<std::__cxx11::basic_string<char, std::char_traits<char>, std::allocator<char> >, std::__cxx11::basic_string<char, std::char_traits<char>, std::allocator<char> > > > > > >, std::less<std::pair<std::__cxx11::basic_string<char, std::char_traits<char>, std::allocator<char> >, std::__cxx11::basic_string<char, std::char_traits<char>, std::allocator<char> > > >, std::allocator<std::pair<std::pair<std::__cxx11::basic_string<char, std::char_traits<char>, std::allocator<char> >, std::__cxx11::basic_string<char, std::char_traits<char>, std::allocator<char> > > const, std::set<std::pair<std::__cxx11::basic_string<char, std::char_traits<char>, std::allocator<char> >, std::__cxx11::basic_string<char, std::char_traits<char>, std::allocator<char> > >, std::less<std::pair<std::__cxx11::basic_string<char, std::char_traits<char>, std::allocator<char> >, std::__cxx11::basic_string<char, std::char_traits<char>, std::allocator<char> > > >, std::allocator<std::pair<std::__cxx11::basic_string<char, std::char_traits<char>, std::allocator<char> >, std::__cxx11::basic_string<char, std::char_traits<char>, std::allocator<char> > > > > > > >::_M_erase(std::_Rb_tree_node<std::pair<std::pair<std::__cxx11::basic_string<char, std::char_traits<char>, std::allocator<char> >, std::__cxx11::basic_string<char, std::char_traits<char>, std::allocator<char> > > const, std::set<std::pair<std::__cxx11::basic_string<char, std::char_traits<char>, std::allocator<char> >, std::__cxx11::basic_string<char, std::char_traits<char>, std::allocator<char> > >, std::less<std::pair<std::__cxx11::basic_string<char, std::char_traits<char>, std::allocator<char> >, std::__cxx11::basic_string<char, std::char_traits<char>, std::allocator<char> > > >, std::allocator<std::pair<std::__cxx11::basic_string<char, std::char_traits<char>, std::allocator<char> >, std::__cxx11::basic_string<char, std::char_traits<char>, std::allocator<char> > > > > > >*)
PUBLIC 50860 0 std::map<std::pair<std::__cxx11::basic_string<char, std::char_traits<char>, std::allocator<char> >, std::__cxx11::basic_string<char, std::char_traits<char>, std::allocator<char> > >, std::set<std::pair<std::__cxx11::basic_string<char, std::char_traits<char>, std::allocator<char> >, std::__cxx11::basic_string<char, std::char_traits<char>, std::allocator<char> > >, std::less<std::pair<std::__cxx11::basic_string<char, std::char_traits<char>, std::allocator<char> >, std::__cxx11::basic_string<char, std::char_traits<char>, std::allocator<char> > > >, std::allocator<std::pair<std::__cxx11::basic_string<char, std::char_traits<char>, std::allocator<char> >, std::__cxx11::basic_string<char, std::char_traits<char>, std::allocator<char> > > > >, std::less<std::pair<std::__cxx11::basic_string<char, std::char_traits<char>, std::allocator<char> >, std::__cxx11::basic_string<char, std::char_traits<char>, std::allocator<char> > > >, std::allocator<std::pair<std::pair<std::__cxx11::basic_string<char, std::char_traits<char>, std::allocator<char> >, std::__cxx11::basic_string<char, std::char_traits<char>, std::allocator<char> > > const, std::set<std::pair<std::__cxx11::basic_string<char, std::char_traits<char>, std::allocator<char> >, std::__cxx11::basic_string<char, std::char_traits<char>, std::allocator<char> > >, std::less<std::pair<std::__cxx11::basic_string<char, std::char_traits<char>, std::allocator<char> >, std::__cxx11::basic_string<char, std::char_traits<char>, std::allocator<char> > > >, std::allocator<std::pair<std::__cxx11::basic_string<char, std::char_traits<char>, std::allocator<char> >, std::__cxx11::basic_string<char, std::char_traits<char>, std::allocator<char> > > > > > > >::~map()
PUBLIC 50870 0 Sage::ProtoAPI::get()
PUBLIC 50b60 0 Sage::Logger::~Logger()
PUBLIC 50bb0 0 Sage::Logger::Logger(bool)
PUBLIC 50be0 0 Sage::Logger::Logger()
PUBLIC 51310 0 std::__cxx11::basic_string<char, std::char_traits<char>, std::allocator<char> > __gnu_cxx::__to_xstring<std::__cxx11::basic_string<char, std::char_traits<char>, std::allocator<char> >, char>(int (*)(char*, unsigned long, char const*, __va_list_tag*), unsigned long, char const*, ...)
PUBLIC 51440 0 void (anonymous namespace)::hash_combine<unsigned int>(unsigned int&, unsigned int const&)
PUBLIC 514a0 0 (anonymous namespace)::emptyFilter(std::__cxx11::basic_string<char, std::char_traits<char>, std::allocator<char> > const&)
PUBLIC 514c0 0 std::__cxx11::basic_string<char, std::char_traits<char>, std::allocator<char> >::basic_string(char const*, std::allocator<char> const&) [clone .isra.0]
PUBLIC 51580 0 (anonymous namespace)::dumpMsgStr(std::__cxx11::basic_string<char, std::char_traits<char>, std::allocator<char> > const&, google::protobuf::Message&)
PUBLIC 51750 0 Sage::checkAllocFailure(void const*, char const*)
PUBLIC 51790 0 (anonymous namespace)::packAnyMsg(google::protobuf::Message&)
PUBLIC 517f0 0 Sage::Proto::markTypeParam(parameterproto::ValuePack&)
PUBLIC 51940 0 Sage::Proto::startHegTextRef()
PUBLIC 51a20 0 Sage::Proto::commWaitAndCleanup()
PUBLIC 51a60 0 (anonymous namespace)::trimPath(std::__cxx11::basic_string<char, std::char_traits<char>, std::allocator<char> > const&, int)
PUBLIC 51d90 0 (anonymous namespace)::pathTrimFilter(std::__cxx11::basic_string<char, std::char_traits<char>, std::allocator<char> > const&)
PUBLIC 51db0 0 (anonymous namespace)::passThroughFilter(std::__cxx11::basic_string<char, std::char_traits<char>, std::allocator<char> > const&)
PUBLIC 51de0 0 Sage::Proto::getByteStream(unsigned char*, unsigned long)
PUBLIC 51f60 0 Sage::Proto::addByteStream(unsigned char*, bool, unsigned long, parameterproto::ValuePack&)
PUBLIC 52170 0 (anonymous namespace)::createNamedBlockCore(std::__cxx11::basic_string<char, std::char_traits<char>, std::allocator<char> > const&, sourcelocproto::SourceLoc*, hiertreeproto::NamedBlockCore_NamedBlockKind, bool)
PUBLIC 52290 0 Sage::Proto::addStringValue(char*, unsigned long, parameterproto::ValuePack&)
PUBLIC 52530 0 std::__detail::_Map_base<std::__cxx11::basic_string<char, std::char_traits<char>, std::allocator<char> >, std::pair<std::__cxx11::basic_string<char, std::char_traits<char>, std::allocator<char> > const, std::__cxx11::basic_string<char, std::char_traits<char>, std::allocator<char> > (*)(std::__cxx11::basic_string<char, std::char_traits<char>, std::allocator<char> > const&)>, std::allocator<std::pair<std::__cxx11::basic_string<char, std::char_traits<char>, std::allocator<char> > const, std::__cxx11::basic_string<char, std::char_traits<char>, std::allocator<char> > (*)(std::__cxx11::basic_string<char, std::char_traits<char>, std::allocator<char> > const&)> >, std::__detail::_Select1st, std::equal_to<std::__cxx11::basic_string<char, std::char_traits<char>, std::allocator<char> > >, std::hash<std::__cxx11::basic_string<char, std::char_traits<char>, std::allocator<char> > >, std::__detail::_Mod_range_hashing, std::__detail::_Default_ranged_hash, std::__detail::_Prime_rehash_policy, std::__detail::_Hashtable_traits<true, false, true>, true>::operator[](std::__cxx11::basic_string<char, std::char_traits<char>, std::allocator<char> >&&) [clone .constprop.0]
PUBLIC 52660 0 Sage::Proto::commInit(char const*, bool, bool)
PUBLIC 53390 0 Sage::Proto::finishType(Sage::Wrapper<parameterproto::ParameterBasicInfo>&)
PUBLIC 53520 0 Sage::Proto::finishType(Sage::Wrapper<hiertreeproto::Signal>&)
PUBLIC 536b0 0 (anonymous namespace)::dumpHegDelayedRefs(int)
PUBLIC 53800 0 (anonymous namespace)::dumpHegRef(int, int, std::__cxx11::basic_string<char, std::char_traits<char>, std::allocator<char> > const&, unsigned int) [clone .constprop.0]
PUBLIC 539f0 0 Sage::Proto::addHegTextRef(int, hegproto::TextRef&)
PUBLIC 53af0 0 (anonymous namespace)::send(google::protobuf::Message&, bool)
PUBLIC 53e10 0 (anonymous namespace)::processHierEdgeMsg(int, int, hiertreeproto::Edge_EdgeKind, bool)
PUBLIC 540f0 0 Sage::Proto::recordHierEdge(int, int, hiertreeproto::Edge_EdgeKind)
PUBLIC 54130 0 (anonymous namespace)::send(google::protobuf::Message&, bool) [clone .constprop.0]
PUBLIC 54340 0 Sage::Proto::recordHegDataMsg(hegproto::Data_Type)
PUBLIC 543c0 0 (anonymous namespace)::processOoprTargetMsg(std::__cxx11::basic_string<char, std::char_traits<char>, std::allocator<char> > const&, std::__cxx11::basic_string<char, std::char_traits<char>, std::allocator<char> > const&, int, bool)
PUBLIC 54630 0 Sage::Proto::recordOoprTarget(std::__cxx11::basic_string<char, std::char_traits<char>, std::allocator<char> > const&, std::__cxx11::basic_string<char, std::char_traits<char>, std::allocator<char> > const&, int)
PUBLIC 54670 0 (anonymous namespace)::processOoprExternMsg(int, std::__cxx11::basic_string<char, std::char_traits<char>, std::allocator<char> > const&, std::__cxx11::basic_string<char, std::char_traits<char>, std::allocator<char> > const&, bool, int, bool)
PUBLIC 54a30 0 Sage::Proto::recordOoprExtern(int, std::__cxx11::basic_string<char, std::char_traits<char>, std::allocator<char> > const&, std::__cxx11::basic_string<char, std::char_traits<char>, std::allocator<char> > const&, bool, int)
PUBLIC 54a90 0 (anonymous namespace)::processTopInstanceMsg(int, bool)
PUBLIC 54c20 0 Sage::Proto::recordTopInstance(int)
PUBLIC 54c50 0 (anonymous namespace)::processModuleItemPartitionMsg(int, std::__cxx11::basic_string<char, std::char_traits<char>, std::allocator<char> > const&, std::__cxx11::basic_string<char, std::char_traits<char>, std::allocator<char> > const&, std::__cxx11::basic_string<char, std::char_traits<char>, std::allocator<char> > const&, std::__cxx11::basic_string<char, std::char_traits<char>, std::allocator<char> > const&, int, bool)
PUBLIC 54fc0 0 Sage::Proto::recordModuleItemPartition(int, std::__cxx11::basic_string<char, std::char_traits<char>, std::allocator<char> > const&, std::__cxx11::basic_string<char, std::char_traits<char>, std::allocator<char> > const&, std::__cxx11::basic_string<char, std::char_traits<char>, std::allocator<char> > const&, std::__cxx11::basic_string<char, std::char_traits<char>, std::allocator<char> > const&, int)
PUBLIC 55030 0 (anonymous namespace)::processPartitionInfoMsg(int, std::__cxx11::basic_string<char, std::char_traits<char>, std::allocator<char> > const&, std::__cxx11::basic_string<char, std::char_traits<char>, std::allocator<char> > const&, std::__cxx11::basic_string<char, std::char_traits<char>, std::allocator<char> > const&, std::__cxx11::basic_string<char, std::char_traits<char>, std::allocator<char> > const&, std::__cxx11::basic_string<char, std::char_traits<char>, std::allocator<char> > const&, std::__cxx11::basic_string<char, std::char_traits<char>, std::allocator<char> > const&, bool)
PUBLIC 55560 0 Sage::Proto::recordPartitionInfo(int, std::__cxx11::basic_string<char, std::char_traits<char>, std::allocator<char> > const&, std::__cxx11::basic_string<char, std::char_traits<char>, std::allocator<char> > const&, std::__cxx11::basic_string<char, std::char_traits<char>, std::allocator<char> > const&, std::__cxx11::basic_string<char, std::char_traits<char>, std::allocator<char> > const&, std::__cxx11::basic_string<char, std::char_traits<char>, std::allocator<char> > const&, std::__cxx11::basic_string<char, std::char_traits<char>, std::allocator<char> > const&)
PUBLIC 555d0 0 Sage::Proto::finishHegTextRef(hegproto::TextRef&)
PUBLIC 55680 0 Sage::Proto::finishHegMacroRef(hegproto::MacroRef&)
PUBLIC 55730 0 (anonymous namespace)::processAttributeMsg(std::__cxx11::basic_string<char, std::char_traits<char>, std::allocator<char> > const&, std::__cxx11::basic_string<char, std::char_traits<char>, std::allocator<char> > const&, bool)
PUBLIC 55a80 0 Sage::Proto::recordAttribute(std::__cxx11::basic_string<char, std::char_traits<char>, std::allocator<char> > const&, std::__cxx11::basic_string<char, std::char_traits<char>, std::allocator<char> > const&)
PUBLIC 55ac0 0 Sage::Proto::finishHierNodeType(hiertreeproto::ModuleItem&)
PUBLIC 55ae0 0 (anonymous namespace)::dumpSrcLoc(Sage::GenSrcLoc const&)
PUBLIC 56030 0 (anonymous namespace)::dumpRegressionMsg(int, std::__cxx11::basic_string<char, std::char_traits<char>, std::allocator<char> > const&, google::protobuf::Message&, Sage::GenSrcLoc const&)
PUBLIC 561e0 0 (anonymous namespace)::dumpRegressionMsg(int, std::__cxx11::basic_string<char, std::char_traits<char>, std::allocator<char> > const&, Sage::GenSrcLoc const&)
PUBLIC 564a0 0 (anonymous namespace)::createSourceLoc(Sage::GenSrcLoc const&, bool) [clone .constprop.0]
PUBLIC 56650 0 (anonymous namespace)::processHierNodeMsg(int, std::__cxx11::basic_string<char, std::char_traits<char>, std::allocator<char> > const&, Sage::GenSrcLoc const&, bool)
PUBLIC 56930 0 Sage::Proto::recordHierNode(int, std::__cxx11::basic_string<char, std::char_traits<char>, std::allocator<char> > const&, Sage::GenSrcLoc const&)
PUBLIC 56970 0 (anonymous namespace)::processHierNodeTypeMsg(int, int, std::__cxx11::basic_string<char, std::char_traits<char>, std::allocator<char> > const&, std::__cxx11::basic_string<char, std::char_traits<char>, std::allocator<char> > const&, Sage::GenSrcLoc const&, hiertreeproto::NamedBlockCore_NamedBlockKind, bool)
PUBLIC 56c80 0 Sage::Proto::startHierNodeType(int, int, std::__cxx11::basic_string<char, std::char_traits<char>, std::allocator<char> > const&, std::__cxx11::basic_string<char, std::char_traits<char>, std::allocator<char> > const&, Sage::GenSrcLoc const&, hiertreeproto::NamedBlockCore_NamedBlockKind)
PUBLIC 56cf0 0 (anonymous namespace)::processPrimitiveTypeMsg(int, std::__cxx11::basic_string<char, std::char_traits<char>, std::allocator<char> > const&, Sage::GenSrcLoc const&, hiertreeproto::NamedBlockCore_NamedBlockKind, bool)
PUBLIC 56f30 0 Sage::Proto::recordPrimitiveType(int, std::__cxx11::basic_string<char, std::char_traits<char>, std::allocator<char> > const&, Sage::GenSrcLoc const&, hiertreeproto::NamedBlockCore_NamedBlockKind)
PUBLIC 56f80 0 (anonymous namespace)::processGenvarMsg(int, std::__cxx11::basic_string<char, std::char_traits<char>, std::allocator<char> > const&, Sage::GenSrcLoc const&, int, bool)
PUBLIC 57270 0 Sage::Proto::recordGenvar(int, std::__cxx11::basic_string<char, std::char_traits<char>, std::allocator<char> > const&, Sage::GenSrcLoc const&, int)
PUBLIC 572c0 0 (anonymous namespace)::processStitchPointMsg(int, std::__cxx11::basic_string<char, std::char_traits<char>, std::allocator<char> > const&, std::__cxx11::basic_string<char, std::char_traits<char>, std::allocator<char> > const&, std::__cxx11::basic_string<char, std::char_traits<char>, std::allocator<char> > const&, int, Sage::GenSrcLoc const&, bool)
PUBLIC 577c0 0 Sage::Proto::recordStitchPoint(int, std::__cxx11::basic_string<char, std::char_traits<char>, std::allocator<char> > const&, std::__cxx11::basic_string<char, std::char_traits<char>, std::allocator<char> > const&, std::__cxx11::basic_string<char, std::char_traits<char>, std::allocator<char> > const&, int, Sage::GenSrcLoc const&)
PUBLIC 57830 0 (anonymous namespace)::processHegMacroElem(std::__cxx11::basic_string<char, std::char_traits<char>, std::allocator<char> > const&, hegproto::MacroElement_Type, Sage::GenSrcLoc const&, int, hegproto::MacroElement*)
PUBLIC 57d20 0 Sage::Proto::addHegMacroElem(std::__cxx11::basic_string<char, std::char_traits<char>, std::allocator<char> > const&, hegproto::MacroElement_Type, Sage::GenSrcLoc const&, int, hegproto::MacroRef&)
PUBLIC 57de0 0 Sage::Proto::addHegMacroElem(std::__cxx11::basic_string<char, std::char_traits<char>, std::allocator<char> > const&, hegproto::MacroElement_Type, Sage::GenSrcLoc const&, int, hegproto::MacroArg&)
PUBLIC 57ed0 0 Sage::Proto::startParam(hiertreeproto::ModuleItem&, int, std::__cxx11::basic_string<char, std::char_traits<char>, std::allocator<char> > const&, Sage::GenSrcLoc const&)
PUBLIC 581d0 0 Sage::Proto::startSignal(hiertreeproto::ModuleItem&, int, std::__cxx11::basic_string<char, std::char_traits<char>, std::allocator<char> > const&, Sage::GenSrcLoc const&, bool, bool, bool, hiertreeproto::Signal_SigVis)
PUBLIC 58510 0 Sage::Proto::startHegMacroRef(int, Sage::GenSrcLoc const&, int, int, int, std::__cxx11::basic_string<char, std::char_traits<char>, std::allocator<char> > const&, bool)
PUBLIC 58700 0 Sage::Proto::startHegMacroArg(Sage::GenSrcLoc const&, hegproto::MacroRef&)
PUBLIC 589f0 0 Sage::Proto::addPredefinedType(std::__cxx11::basic_string<char, std::char_traits<char>, std::allocator<char> > const&, bool, bool, bool, typeinfoproto::PredefinedType_Type, Sage::Wrapper<parameterproto::ParameterBasicInfo>&)
PUBLIC 58c80 0 Sage::Proto::addPredefinedType(std::__cxx11::basic_string<char, std::char_traits<char>, std::allocator<char> > const&, bool, bool, bool, typeinfoproto::PredefinedType_Type, Sage::Wrapper<hiertreeproto::Signal>&)
PUBLIC 58ea0 0 Sage::Proto::addStruct(std::__cxx11::basic_string<char, std::char_traits<char>, std::allocator<char> > const&, bool, bool, bool, bool, std::tuple<bool, bool, long, long>&, Sage::Wrapper<parameterproto::ParameterBasicInfo>&)
PUBLIC 591e0 0 Sage::Proto::addStruct(std::__cxx11::basic_string<char, std::char_traits<char>, std::allocator<char> > const&, bool, bool, bool, bool, std::tuple<bool, bool, long, long>&, Sage::Wrapper<hiertreeproto::Signal>&)
PUBLIC 594e0 0 Sage::Proto::addUnion(std::__cxx11::basic_string<char, std::char_traits<char>, std::allocator<char> > const&, bool, bool, bool, bool, std::tuple<bool, bool, long, long>&, Sage::Wrapper<parameterproto::ParameterBasicInfo>&)
PUBLIC 59810 0 Sage::Proto::addUnion(std::__cxx11::basic_string<char, std::char_traits<char>, std::allocator<char> > const&, bool, bool, bool, bool, std::tuple<bool, bool, long, long>&, Sage::Wrapper<hiertreeproto::Signal>&)
PUBLIC 59b00 0 Sage::Proto::finishComposite(Sage::Wrapper<parameterproto::ParameterBasicInfo>&)
PUBLIC 59d70 0 Sage::Proto::finishComposite(Sage::Wrapper<hiertreeproto::Signal>&)
PUBLIC 59f70 0 Sage::Proto::addField(std::__cxx11::basic_string<char, std::char_traits<char>, std::allocator<char> > const&, typeinfoproto::TypeInfoTree_Type, Sage::Wrapper<parameterproto::ParameterBasicInfo>&)
PUBLIC 5a1c0 0 Sage::Proto::addField(std::__cxx11::basic_string<char, std::char_traits<char>, std::allocator<char> > const&, typeinfoproto::TypeInfoTree_Type, Sage::Wrapper<hiertreeproto::Signal>&)
PUBLIC 5a3a0 0 Sage::Proto::addEnum(std::__cxx11::basic_string<char, std::char_traits<char>, std::allocator<char> > const&, std::vector<std::pair<std::__cxx11::basic_string<char, std::char_traits<char>, std::allocator<char> >, common::ByteStream*>, std::allocator<std::pair<std::__cxx11::basic_string<char, std::char_traits<char>, std::allocator<char> >, common::ByteStream*> > > const&, unsigned long, bool, bool, bool, Sage::Wrapper<hiertreeproto::Signal>&)
PUBLIC 5a740 0 Sage::Proto::addEnum(std::__cxx11::basic_string<char, std::char_traits<char>, std::allocator<char> > const&, std::vector<std::pair<std::__cxx11::basic_string<char, std::char_traits<char>, std::allocator<char> >, common::ByteStream*>, std::allocator<std::pair<std::__cxx11::basic_string<char, std::char_traits<char>, std::allocator<char> >, common::ByteStream*> > > const&, unsigned long, bool, bool, bool, Sage::Wrapper<parameterproto::ParameterBasicInfo>&)
PUBLIC 5ab10 0 Sage::Proto::addArray(std::__cxx11::basic_string<char, std::char_traits<char>, std::allocator<char> > const&, std::vector<std::tuple<bool, bool, long, long>, std::allocator<std::tuple<bool, bool, long, long> > > const&, typeinfoproto::TypeInfoTree_Type, bool, bool, Sage::Wrapper<parameterproto::ParameterBasicInfo>&)
PUBLIC 5afe0 0 Sage::Proto::addArray(std::__cxx11::basic_string<char, std::char_traits<char>, std::allocator<char> > const&, std::vector<std::tuple<bool, bool, long, long>, std::allocator<std::tuple<bool, bool, long, long> > > const&, typeinfoproto::TypeInfoTree_Type, bool, bool, Sage::Wrapper<hiertreeproto::Signal>&)
PUBLIC 5b570 0 Sage::Proto::addQDA(std::__cxx11::basic_string<char, std::char_traits<char>, std::allocator<char> > const&, typeinfoproto::QDAArray_Type, typeinfoproto::TypeInfoTree_Type, typeinfoproto::TypeInfoTree_Type, Sage::Wrapper<parameterproto::ParameterBasicInfo>&)
PUBLIC 5b7e0 0 Sage::Proto::addQDA(std::__cxx11::basic_string<char, std::char_traits<char>, std::allocator<char> > const&, typeinfoproto::QDAArray_Type, typeinfoproto::TypeInfoTree_Type, typeinfoproto::TypeInfoTree_Type, Sage::Wrapper<hiertreeproto::Signal>&)
PUBLIC 5b9e0 0 Sage::Proto::addClassHandle(std::__cxx11::basic_string<char, std::char_traits<char>, std::allocator<char> > const&, int, int, typeinfoproto::ClassHandle_Type, typeinfoproto::TypeInfoTree_Type, Sage::Wrapper<parameterproto::ParameterBasicInfo>&)
PUBLIC 5bd20 0 Sage::Proto::addClassHandle(std::__cxx11::basic_string<char, std::char_traits<char>, std::allocator<char> > const&, int, int, typeinfoproto::ClassHandle_Type, typeinfoproto::TypeInfoTree_Type, Sage::Wrapper<hiertreeproto::Signal>&)
PUBLIC 5c0b0 0 Sage::Proto::addVirtualInterface(std::__cxx11::basic_string<char, std::char_traits<char>, std::allocator<char> > const&, int, int, Sage::Wrapper<parameterproto::ParameterBasicInfo>&)
PUBLIC 5c3d0 0 Sage::Proto::addVirtualInterface(std::__cxx11::basic_string<char, std::char_traits<char>, std::allocator<char> > const&, int, int, Sage::Wrapper<hiertreeproto::Signal>&)
PUBLIC 5c740 0 Sage::Proto::recordHegVariable(int, std::__cxx11::basic_string<char, std::char_traits<char>, std::allocator<char> > const&, Sage::GenSrcLoc const&)
PUBLIC 5c8d0 0 Sage::Proto::recordHegParameter(int, std::__cxx11::basic_string<char, std::char_traits<char>, std::allocator<char> > const&, Sage::GenSrcLoc const&)
PUBLIC 5ca60 0 Sage::Proto::startHegModule(int, std::__cxx11::basic_string<char, std::char_traits<char>, std::allocator<char> > const&, Sage::GenSrcLoc const&, std::vector<int, std::allocator<int> > const&, bool)
PUBLIC 5cd50 0 Sage::Proto::recordHegPortDecl(int, std::__cxx11::basic_string<char, std::char_traits<char>, std::allocator<char> > const&, hegproto::PortDecl_Direction, int, Sage::GenSrcLoc const&)
PUBLIC 5cf10 0 Sage::Proto::recordHegElemRef(int, int, Sage::GenSrcLoc const&)
PUBLIC 5d060 0 Sage::Proto::recordHegConstant(int, std::__cxx11::basic_string<char, std::char_traits<char>, std::allocator<char> > const&, Sage::GenSrcLoc const&)
PUBLIC 5d1f0 0 Sage::Proto::recordHegInstance(int, int, std::__cxx11::basic_string<char, std::char_traits<char>, std::allocator<char> > const&, std::vector<int, std::allocator<int> > const&, std::vector<int, std::allocator<int> > const&, Sage::GenSrcLoc const&)
PUBLIC 5d8b0 0 Sage::Proto::recordHegAssignment(int, hegproto::Assign_Type, int, int, Sage::GenSrcLoc const&)
PUBLIC 5da60 0 Sage::Proto::recordHegConditional(int, hegproto::ConditionalStmt_Type, int, int, int, Sage::GenSrcLoc const&)
PUBLIC 5dc40 0 Sage::Proto::recordHegSeqBlock(int, std::__cxx11::basic_string<char, std::char_traits<char>, std::allocator<char> > const&, std::vector<int, std::allocator<int> > const&, Sage::GenSrcLoc const&)
PUBLIC 5df40 0 Sage::Proto::recordHegAlways(int, int, Sage::GenSrcLoc const&)
PUBLIC 5e090 0 Sage::Proto::recordHegAlwaysEventControl(int, std::vector<int, std::allocator<int> > const&, int, Sage::GenSrcLoc const&)
PUBLIC 5e360 0 Sage::Proto::recordHegEventExpression(int, hegproto::EventExpression_Type, int, Sage::GenSrcLoc const&)
PUBLIC 5e580 0 Sage::Proto::recordHegBinaryOp(int, int, int, hegproto::BinaryOperator_Type, Sage::GenSrcLoc const&)
PUBLIC 5e730 0 Sage::Proto::recordHegIncludeRef(std::__cxx11::basic_string<char, std::char_traits<char>, std::allocator<char> > const&, Sage::GenSrcLoc const&)
PUBLIC 5eb60 0 Sage::Proto::recordHegSourceChunk(std::__cxx11::basic_string<char, std::char_traits<char>, std::allocator<char> > const&, int, int)
PUBLIC 5ee10 0 Sage::Proto::recordHegMacroDef(int, std::__cxx11::basic_string<char, std::char_traits<char>, std::allocator<char> > const&, Sage::GenSrcLoc const&, std::__cxx11::basic_string<char, std::char_traits<char>, std::allocator<char> > const&)
PUBLIC 5eff0 0 Sage::Proto::recordHegUnhandledType(int, Sage::GenSrcLoc const&)
PUBLIC 5f140 0 Sage::Proto::commSignalShutdown(bool)
PUBLIC 5f2a0 0 void google::protobuf::internal::arena_destruct_object<std::__cxx11::basic_string<char, std::char_traits<char>, std::allocator<char> > >(void*)
PUBLIC 5f2c0 0 std::unordered_map<int, unsigned int, std::hash<int>, std::equal_to<int>, std::allocator<std::pair<int const, unsigned int> > >::~unordered_map()
PUBLIC 5f340 0 std::unordered_set<unsigned int, std::hash<unsigned int>, std::equal_to<unsigned int>, std::allocator<unsigned int> >::~unordered_set()
PUBLIC 5f3c0 0 std::unordered_map<int, std::vector<unsigned int, std::allocator<unsigned int> >, std::hash<int>, std::equal_to<int>, std::allocator<std::pair<int const, std::vector<unsigned int, std::allocator<unsigned int> > > > >::~unordered_map()
PUBLIC 5f450 0 std::unordered_map<std::__cxx11::basic_string<char, std::char_traits<char>, std::allocator<char> >, std::__cxx11::basic_string<char, std::char_traits<char>, std::allocator<char> > (*)(std::__cxx11::basic_string<char, std::char_traits<char>, std::allocator<char> > const&), std::hash<std::__cxx11::basic_string<char, std::char_traits<char>, std::allocator<char> > >, std::equal_to<std::__cxx11::basic_string<char, std::char_traits<char>, std::allocator<char> > >, std::allocator<std::pair<std::__cxx11::basic_string<char, std::char_traits<char>, std::allocator<char> > const, std::__cxx11::basic_string<char, std::char_traits<char>, std::allocator<char> > (*)(std::__cxx11::basic_string<char, std::char_traits<char>, std::allocator<char> > const&)> > >::~unordered_map()
PUBLIC 5f4f0 0 google::protobuf::MessageLite::GetArena() const
PUBLIC 5f510 0 parameterproto::ValuePack::set_allocated_typeinfo(google::protobuf::Any*)
PUBLIC 5f590 0 void std::vector<unsigned int, std::allocator<unsigned int> >::_M_realloc_insert<unsigned int const&>(__gnu_cxx::__normal_iterator<unsigned int*, std::vector<unsigned int, std::allocator<unsigned int> > >, unsigned int const&)
PUBLIC 5f700 0 void std::__cxx11::basic_string<char, std::char_traits<char>, std::allocator<char> >::_M_construct<char*>(char*, char*, std::forward_iterator_tag)
PUBLIC 5f7a0 0 google::protobuf::internal::ArenaStringPtr::CreateInstance(google::protobuf::Arena*, std::__cxx11::basic_string<char, std::char_traits<char>, std::allocator<char> > const*)
PUBLIC 5f8f0 0 std::_Hashtable<std::__cxx11::basic_string<char, std::char_traits<char>, std::allocator<char> >, std::pair<std::__cxx11::basic_string<char, std::char_traits<char>, std::allocator<char> > const, std::__cxx11::basic_string<char, std::char_traits<char>, std::allocator<char> > (*)(std::__cxx11::basic_string<char, std::char_traits<char>, std::allocator<char> > const&)>, std::allocator<std::pair<std::__cxx11::basic_string<char, std::char_traits<char>, std::allocator<char> > const, std::__cxx11::basic_string<char, std::char_traits<char>, std::allocator<char> > (*)(std::__cxx11::basic_string<char, std::char_traits<char>, std::allocator<char> > const&)> >, std::__detail::_Select1st, std::equal_to<std::__cxx11::basic_string<char, std::char_traits<char>, std::allocator<char> > >, std::hash<std::__cxx11::basic_string<char, std::char_traits<char>, std::allocator<char> > >, std::__detail::_Mod_range_hashing, std::__detail::_Default_ranged_hash, std::__detail::_Prime_rehash_policy, std::__detail::_Hashtable_traits<true, false, true> >::_M_rehash(unsigned long, unsigned long const&)
PUBLIC 5fa20 0 std::_Hashtable<std::__cxx11::basic_string<char, std::char_traits<char>, std::allocator<char> >, std::pair<std::__cxx11::basic_string<char, std::char_traits<char>, std::allocator<char> > const, std::__cxx11::basic_string<char, std::char_traits<char>, std::allocator<char> > (*)(std::__cxx11::basic_string<char, std::char_traits<char>, std::allocator<char> > const&)>, std::allocator<std::pair<std::__cxx11::basic_string<char, std::char_traits<char>, std::allocator<char> > const, std::__cxx11::basic_string<char, std::char_traits<char>, std::allocator<char> > (*)(std::__cxx11::basic_string<char, std::char_traits<char>, std::allocator<char> > const&)> >, std::__detail::_Select1st, std::equal_to<std::__cxx11::basic_string<char, std::char_traits<char>, std::allocator<char> > >, std::hash<std::__cxx11::basic_string<char, std::char_traits<char>, std::allocator<char> > >, std::__detail::_Mod_range_hashing, std::__detail::_Default_ranged_hash, std::__detail::_Prime_rehash_policy, std::__detail::_Hashtable_traits<true, false, true> >::_M_insert_unique_node(unsigned long, unsigned long, std::__detail::_Hash_node<std::pair<std::__cxx11::basic_string<char, std::char_traits<char>, std::allocator<char> > const, std::__cxx11::basic_string<char, std::char_traits<char>, std::allocator<char> > (*)(std::__cxx11::basic_string<char, std::char_traits<char>, std::allocator<char> > const&)>, true>*, unsigned long)
PUBLIC 5fb20 0 std::__detail::_Map_base<std::__cxx11::basic_string<char, std::char_traits<char>, std::allocator<char> >, std::pair<std::__cxx11::basic_string<char, std::char_traits<char>, std::allocator<char> > const, std::__cxx11::basic_string<char, std::char_traits<char>, std::allocator<char> > (*)(std::__cxx11::basic_string<char, std::char_traits<char>, std::allocator<char> > const&)>, std::allocator<std::pair<std::__cxx11::basic_string<char, std::char_traits<char>, std::allocator<char> > const, std::__cxx11::basic_string<char, std::char_traits<char>, std::allocator<char> > (*)(std::__cxx11::basic_string<char, std::char_traits<char>, std::allocator<char> > const&)> >, std::__detail::_Select1st, std::equal_to<std::__cxx11::basic_string<char, std::char_traits<char>, std::allocator<char> > >, std::hash<std::__cxx11::basic_string<char, std::char_traits<char>, std::allocator<char> > >, std::__detail::_Mod_range_hashing, std::__detail::_Default_ranged_hash, std::__detail::_Prime_rehash_policy, std::__detail::_Hashtable_traits<true, false, true>, true>::operator[](std::__cxx11::basic_string<char, std::char_traits<char>, std::allocator<char> > const&)
PUBLIC 5fc50 0 std::_Hashtable<int, std::pair<int const, unsigned int>, std::allocator<std::pair<int const, unsigned int> >, std::__detail::_Select1st, std::equal_to<int>, std::hash<int>, std::__detail::_Mod_range_hashing, std::__detail::_Default_ranged_hash, std::__detail::_Prime_rehash_policy, std::__detail::_Hashtable_traits<false, false, true> >::_M_rehash(unsigned long, unsigned long const&)
PUBLIC 5fd80 0 std::_Hashtable<int, std::pair<int const, unsigned int>, std::allocator<std::pair<int const, unsigned int> >, std::__detail::_Select1st, std::equal_to<int>, std::hash<int>, std::__detail::_Mod_range_hashing, std::__detail::_Default_ranged_hash, std::__detail::_Prime_rehash_policy, std::__detail::_Hashtable_traits<false, false, true> >::_M_insert_unique_node(unsigned long, unsigned long, std::__detail::_Hash_node<std::pair<int const, unsigned int>, false>*, unsigned long)
PUBLIC 5fe70 0 std::__detail::_Map_base<int, std::pair<int const, unsigned int>, std::allocator<std::pair<int const, unsigned int> >, std::__detail::_Select1st, std::equal_to<int>, std::hash<int>, std::__detail::_Mod_range_hashing, std::__detail::_Default_ranged_hash, std::__detail::_Prime_rehash_policy, std::__detail::_Hashtable_traits<false, false, true>, true>::operator[](int const&)
PUBLIC 5ff30 0 std::__detail::_Map_base<int, std::pair<int const, unsigned int>, std::allocator<std::pair<int const, unsigned int> >, std::__detail::_Select1st, std::equal_to<int>, std::hash<int>, std::__detail::_Mod_range_hashing, std::__detail::_Default_ranged_hash, std::__detail::_Prime_rehash_policy, std::__detail::_Hashtable_traits<false, false, true>, true>::operator[](int&&)
PUBLIC 5fff0 0 std::_Hashtable<int, std::pair<int const, std::vector<unsigned int, std::allocator<unsigned int> > >, std::allocator<std::pair<int const, std::vector<unsigned int, std::allocator<unsigned int> > > >, std::__detail::_Select1st, std::equal_to<int>, std::hash<int>, std::__detail::_Mod_range_hashing, std::__detail::_Default_ranged_hash, std::__detail::_Prime_rehash_policy, std::__detail::_Hashtable_traits<false, false, true> >::_M_rehash(unsigned long, unsigned long const&)
PUBLIC 60120 0 std::_Hashtable<int, std::pair<int const, std::vector<unsigned int, std::allocator<unsigned int> > >, std::allocator<std::pair<int const, std::vector<unsigned int, std::allocator<unsigned int> > > >, std::__detail::_Select1st, std::equal_to<int>, std::hash<int>, std::__detail::_Mod_range_hashing, std::__detail::_Default_ranged_hash, std::__detail::_Prime_rehash_policy, std::__detail::_Hashtable_traits<false, false, true> >::_M_insert_unique_node(unsigned long, unsigned long, std::__detail::_Hash_node<std::pair<int const, std::vector<unsigned int, std::allocator<unsigned int> > >, false>*, unsigned long)
PUBLIC 60220 0 std::__detail::_Map_base<int, std::pair<int const, std::vector<unsigned int, std::allocator<unsigned int> > >, std::allocator<std::pair<int const, std::vector<unsigned int, std::allocator<unsigned int> > > >, std::__detail::_Select1st, std::equal_to<int>, std::hash<int>, std::__detail::_Mod_range_hashing, std::__detail::_Default_ranged_hash, std::__detail::_Prime_rehash_policy, std::__detail::_Hashtable_traits<false, false, true>, true>::operator[](int const&)
PUBLIC 602e0 0 std::_Hashtable<unsigned int, unsigned int, std::allocator<unsigned int>, std::__detail::_Identity, std::equal_to<unsigned int>, std::hash<unsigned int>, std::__detail::_Mod_range_hashing, std::__detail::_Default_ranged_hash, std::__detail::_Prime_rehash_policy, std::__detail::_Hashtable_traits<false, true, true> >::_M_rehash(unsigned long, unsigned long const&)
PUBLIC 60410 0 std::_Hashtable<unsigned int, unsigned int, std::allocator<unsigned int>, std::__detail::_Identity, std::equal_to<unsigned int>, std::hash<unsigned int>, std::__detail::_Mod_range_hashing, std::__detail::_Default_ranged_hash, std::__detail::_Prime_rehash_policy, std::__detail::_Hashtable_traits<false, true, true> >::_M_insert_unique_node(unsigned long, unsigned long, std::__detail::_Hash_node<unsigned int, false>*, unsigned long)
PUBLIC 60500 0 Sage::loadLib(char const*)
PUBLIC 60890 0 Sage::loadFunc(void*, char const*)
PUBLIC 60930 0 Sage::ArrayValue::record(unsigned char*, unsigned long)
PUBLIC 609a0 0 Sage::StructValue::record(unsigned char*, unsigned long)
PUBLIC 609e0 0 Sage::CompoundValue::~CompoundValue()
PUBLIC 609f0 0 Sage::CompoundValue::~CompoundValue()
PUBLIC 60a10 0 Sage::StringValue::record(unsigned char*, unsigned long)
PUBLIC 60d30 0 Sage::BasicValue::record(unsigned char*, unsigned long)
PUBLIC 61070 0 Sage::StringValue::~StringValue()
PUBLIC 61090 0 Sage::StringValue::~StringValue()
PUBLIC 610c0 0 Sage::BasicValue::~BasicValue()
PUBLIC 610e0 0 Sage::BasicValue::~BasicValue()
PUBLIC 61110 0 Sage::ArrayValue::~ArrayValue()
PUBLIC 61140 0 Sage::StructValue::~StructValue()
PUBLIC 611b0 0 Sage::StructValue::~StructValue()
PUBLIC 61230 0 Sage::ArrayValue::~ArrayValue()
PUBLIC 61270 0 (anonymous namespace)::doVectorType<Sage::Wrapper<parameterproto::ParameterBasicInfo> >(std::__cxx11::basic_string<char, std::char_traits<char>, std::allocator<char> > const&, via_external_s, bool, (anonymous namespace)::TypeObj<Sage::Wrapper<parameterproto::ParameterBasicInfo> >&, xst_s*, long*, unsigned long, bool, unsigned char*, unsigned long, bool, bool)::{lambda(via_external_s)#1}::_FUN(via_external_s)
PUBLIC 61290 0 (anonymous namespace)::doVectorType<Sage::Wrapper<parameterproto::ParameterBasicInfo> >(std::__cxx11::basic_string<char, std::char_traits<char>, std::allocator<char> > const&, via_external_s, bool, (anonymous namespace)::TypeObj<Sage::Wrapper<parameterproto::ParameterBasicInfo> >&, xst_s*, long*, unsigned long, bool, unsigned char*, unsigned long, bool, bool)::{lambda(via_external_s)#2}::_FUN(via_external_s)
PUBLIC 612e0 0 (anonymous namespace)::doStaticArrayType<Sage::Wrapper<parameterproto::ParameterBasicInfo> >(std::__cxx11::basic_string<char, std::char_traits<char>, std::allocator<char> > const&, via_external_s, bool, (anonymous namespace)::TypeObj<Sage::Wrapper<parameterproto::ParameterBasicInfo> >&, xst_s*, long*, unsigned char*, unsigned long, bool, bool)::{lambda(via_external_s)#2}::_FUN(via_external_s)
PUBLIC 61300 0 (anonymous namespace)::doStaticArrayType<Sage::Wrapper<hiertreeproto::Signal> >(std::__cxx11::basic_string<char, std::char_traits<char>, std::allocator<char> > const&, via_external_s, bool, (anonymous namespace)::TypeObj<Sage::Wrapper<hiertreeproto::Signal> >&, xst_s*, long*, unsigned char*, unsigned long, bool, bool)::{lambda(via_external_s)#2}::_FUN(via_external_s)
PUBLIC 61320 0 (anonymous namespace)::doVectorType<Sage::Wrapper<hiertreeproto::Signal> >(std::__cxx11::basic_string<char, std::char_traits<char>, std::allocator<char> > const&, via_external_s, bool, (anonymous namespace)::TypeObj<Sage::Wrapper<hiertreeproto::Signal> >&, xst_s*, long*, unsigned long, bool, unsigned char*, unsigned long, bool, bool)::{lambda(via_external_s)#2}::_FUN(via_external_s)
PUBLIC 61370 0 std::__cxx11::basic_string<char, std::char_traits<char>, std::allocator<char> >::basic_string(char const*, std::allocator<char> const&) [clone .isra.0] [clone .constprop.0]
PUBLIC 61390 0 (anonymous namespace)::getTypeName(vst_s*, via_external_s, long*)
PUBLIC 61590 0 (anonymous namespace)::getTypeInfoType(via_external_s)
PUBLIC 617f0 0 Sage::Type::getVisibility(via_external_s)
PUBLIC 61830 0 Sage::Type::recordDanglingTypeRefs(int, std::__cxx11::basic_string<char, std::char_traits<char>, std::allocator<char> > const&, long*)
PUBLIC 61e70 0 (anonymous namespace)::TypeObj<Sage::Wrapper<hiertreeproto::Signal> >::finishComposite() [clone .isra.0]
PUBLIC 62170 0 (anonymous namespace)::TypeObj<Sage::Wrapper<parameterproto::ParameterBasicInfo> >::finishComposite() [clone .isra.0]
PUBLIC 62470 0 std::unique_ptr<Sage::CompoundValue, std::default_delete<Sage::CompoundValue> > (anonymous namespace)::doPredefType<Sage::Wrapper<parameterproto::ParameterBasicInfo> >(std::__cxx11::basic_string<char, std::char_traits<char>, std::allocator<char> > const&, bool, typeinfoproto::PredefinedType_Type, (anonymous namespace)::TypeObj<Sage::Wrapper<parameterproto::ParameterBasicInfo> >&, bool, bool, unsigned long, bool, unsigned char*)
PUBLIC 62900 0 std::unique_ptr<Sage::CompoundValue, std::default_delete<Sage::CompoundValue> > (anonymous namespace)::doPredefType<Sage::Wrapper<hiertreeproto::Signal> >(std::__cxx11::basic_string<char, std::char_traits<char>, std::allocator<char> > const&, bool, typeinfoproto::PredefinedType_Type, (anonymous namespace)::TypeObj<Sage::Wrapper<hiertreeproto::Signal> >&, bool, bool, unsigned long, bool, unsigned char*)
PUBLIC 62d90 0 std::unique_ptr<Sage::CompoundValue, std::default_delete<Sage::CompoundValue> > (anonymous namespace)::doObjTypeAndValue<Sage::Wrapper<parameterproto::ParameterBasicInfo> >(vst_s*, via_external_s, (anonymous namespace)::TypeObj<Sage::Wrapper<parameterproto::ParameterBasicInfo> >&, bool, std::__cxx11::basic_string<char, std::char_traits<char>, std::allocator<char> >, unsigned char*, unsigned long, bool)
PUBLIC 65870 0 void (anonymous namespace)::doClassType<Sage::Wrapper<parameterproto::ParameterBasicInfo> >(std::__cxx11::basic_string<char, std::char_traits<char>, std::allocator<char> > const&, via_external_s, (anonymous namespace)::TypeObj<Sage::Wrapper<parameterproto::ParameterBasicInfo> >&, typeinfoproto::ClassHandle_Type, bool)
PUBLIC 662f0 0 std::unique_ptr<Sage::CompoundValue, std::default_delete<Sage::CompoundValue> > (anonymous namespace)::doStructUnionType<Sage::Wrapper<parameterproto::ParameterBasicInfo> >(std::__cxx11::basic_string<char, std::char_traits<char>, std::allocator<char> > const&, via_external_s, bool, bool, (anonymous namespace)::TypeObj<Sage::Wrapper<parameterproto::ParameterBasicInfo> >&, unsigned long, bool, unsigned char*, unsigned long, bool, bool)
PUBLIC 67040 0 Sage::Type::recordParameter(xst_s*, long*, hiertreeproto::ModuleItem&)
PUBLIC 67910 0 std::unique_ptr<Sage::CompoundValue, std::default_delete<Sage::CompoundValue> > (anonymous namespace)::doStaticArrayType<Sage::Wrapper<hiertreeproto::Signal> >(std::__cxx11::basic_string<char, std::char_traits<char>, std::allocator<char> > const&, via_external_s, bool, (anonymous namespace)::TypeObj<Sage::Wrapper<hiertreeproto::Signal> >&, xst_s*, long*, unsigned char*, unsigned long, bool, bool)
PUBLIC 685d0 0 std::unique_ptr<Sage::CompoundValue, std::default_delete<Sage::CompoundValue> > (anonymous namespace)::doObjTypeAndValue<Sage::Wrapper<hiertreeproto::Signal> >(vst_s*, via_external_s, (anonymous namespace)::TypeObj<Sage::Wrapper<hiertreeproto::Signal> >&, bool, std::__cxx11::basic_string<char, std::char_traits<char>, std::allocator<char> >, unsigned char*, unsigned long, bool)
PUBLIC 6aec0 0 std::unique_ptr<Sage::CompoundValue, std::default_delete<Sage::CompoundValue> > (anonymous namespace)::doVectorType<Sage::Wrapper<hiertreeproto::Signal> >(std::__cxx11::basic_string<char, std::char_traits<char>, std::allocator<char> > const&, via_external_s, bool, (anonymous namespace)::TypeObj<Sage::Wrapper<hiertreeproto::Signal> >&, xst_s*, long*, unsigned long, bool, unsigned char*, unsigned long, bool, bool)
PUBLIC 6b3f0 0 void (anonymous namespace)::doWireType<Sage::Wrapper<hiertreeproto::Signal> >(xst_s*, long*, vst_s*, via_external_s, (anonymous namespace)::TypeObj<Sage::Wrapper<hiertreeproto::Signal> >&)
PUBLIC 6bfb0 0 std::unique_ptr<Sage::CompoundValue, std::default_delete<Sage::CompoundValue> > (anonymous namespace)::doStructUnionType<Sage::Wrapper<hiertreeproto::Signal> >(std::__cxx11::basic_string<char, std::char_traits<char>, std::allocator<char> > const&, via_external_s, bool, bool, (anonymous namespace)::TypeObj<Sage::Wrapper<hiertreeproto::Signal> >&, unsigned long, bool, unsigned char*, unsigned long, bool, bool)
PUBLIC 6cd00 0 Sage::Type::recordSignal(xst_s*, long*, hiertreeproto::ModuleItem&, bool, bool)
PUBLIC 6d550 0 Sage::DummyValue::record(unsigned char*, unsigned long)
PUBLIC 6d560 0 Sage::DummyValue::~DummyValue()
PUBLIC 6d580 0 Sage::DummyValue::~DummyValue()
PUBLIC 6d5b0 0 std::unordered_map<std::__cxx11::basic_string<char, std::char_traits<char>, std::allocator<char> >, std::vector<int, std::allocator<int> >, std::hash<std::__cxx11::basic_string<char, std::char_traits<char>, std::allocator<char> > >, std::equal_to<std::__cxx11::basic_string<char, std::char_traits<char>, std::allocator<char> > >, std::allocator<std::pair<std::__cxx11::basic_string<char, std::char_traits<char>, std::allocator<char> > const, std::vector<int, std::allocator<int> > > > >::~unordered_map()
PUBLIC 6d650 0 std::vector<std::pair<std::__cxx11::basic_string<char, std::char_traits<char>, std::allocator<char> >, common::ByteStream*>, std::allocator<std::pair<std::__cxx11::basic_string<char, std::char_traits<char>, std::allocator<char> >, common::ByteStream*> > >::~vector()
PUBLIC 6d6c0 0 void std::vector<std::pair<std::unique_ptr<Sage::CompoundValue, std::default_delete<Sage::CompoundValue> >, unsigned long>, std::allocator<std::pair<std::unique_ptr<Sage::CompoundValue, std::default_delete<Sage::CompoundValue> >, unsigned long> > >::_M_realloc_insert<std::pair<std::unique_ptr<Sage::CompoundValue, std::default_delete<Sage::CompoundValue> >, unsigned long> >(__gnu_cxx::__normal_iterator<std::pair<std::unique_ptr<Sage::CompoundValue, std::default_delete<Sage::CompoundValue> >, unsigned long>*, std::vector<std::pair<std::unique_ptr<Sage::CompoundValue, std::default_delete<Sage::CompoundValue> >, unsigned long>, std::allocator<std::pair<std::unique_ptr<Sage::CompoundValue, std::default_delete<Sage::CompoundValue> >, unsigned long> > > >, std::pair<std::unique_ptr<Sage::CompoundValue, std::default_delete<Sage::CompoundValue> >, unsigned long>&&)
PUBLIC 6d890 0 void std::vector<std::tuple<bool, bool, long, long>, std::allocator<std::tuple<bool, bool, long, long> > >::_M_realloc_insert<std::tuple<bool, bool, long, long> >(__gnu_cxx::__normal_iterator<std::tuple<bool, bool, long, long>*, std::vector<std::tuple<bool, bool, long, long>, std::allocator<std::tuple<bool, bool, long, long> > > >, std::tuple<bool, bool, long, long>&&)
PUBLIC 6da50 0 void std::vector<std::pair<std::__cxx11::basic_string<char, std::char_traits<char>, std::allocator<char> >, common::ByteStream*>, std::allocator<std::pair<std::__cxx11::basic_string<char, std::char_traits<char>, std::allocator<char> >, common::ByteStream*> > >::_M_realloc_insert<std::pair<std::__cxx11::basic_string<char, std::char_traits<char>, std::allocator<char> >, common::ByteStream*> >(__gnu_cxx::__normal_iterator<std::pair<std::__cxx11::basic_string<char, std::char_traits<char>, std::allocator<char> >, common::ByteStream*>*, std::vector<std::pair<std::__cxx11::basic_string<char, std::char_traits<char>, std::allocator<char> >, common::ByteStream*>, std::allocator<std::pair<std::__cxx11::basic_string<char, std::char_traits<char>, std::allocator<char> >, common::ByteStream*> > > >, std::pair<std::__cxx11::basic_string<char, std::char_traits<char>, std::allocator<char> >, common::ByteStream*>&&)
PUBLIC 6dd60 0 void std::vector<int, std::allocator<int> >::_M_realloc_insert<int const&>(__gnu_cxx::__normal_iterator<int*, std::vector<int, std::allocator<int> > >, int const&)
PUBLIC 6ded0 0 std::_Hashtable<std::__cxx11::basic_string<char, std::char_traits<char>, std::allocator<char> >, std::pair<std::__cxx11::basic_string<char, std::char_traits<char>, std::allocator<char> > const, std::vector<int, std::allocator<int> > >, std::allocator<std::pair<std::__cxx11::basic_string<char, std::char_traits<char>, std::allocator<char> > const, std::vector<int, std::allocator<int> > > >, std::__detail::_Select1st, std::equal_to<std::__cxx11::basic_string<char, std::char_traits<char>, std::allocator<char> > >, std::hash<std::__cxx11::basic_string<char, std::char_traits<char>, std::allocator<char> > >, std::__detail::_Mod_range_hashing, std::__detail::_Default_ranged_hash, std::__detail::_Prime_rehash_policy, std::__detail::_Hashtable_traits<true, false, true> >::_M_rehash(unsigned long, unsigned long const&)
PUBLIC 6e000 0 std::_Hashtable<std::__cxx11::basic_string<char, std::char_traits<char>, std::allocator<char> >, std::pair<std::__cxx11::basic_string<char, std::char_traits<char>, std::allocator<char> > const, std::vector<int, std::allocator<int> > >, std::allocator<std::pair<std::__cxx11::basic_string<char, std::char_traits<char>, std::allocator<char> > const, std::vector<int, std::allocator<int> > > >, std::__detail::_Select1st, std::equal_to<std::__cxx11::basic_string<char, std::char_traits<char>, std::allocator<char> > >, std::hash<std::__cxx11::basic_string<char, std::char_traits<char>, std::allocator<char> > >, std::__detail::_Mod_range_hashing, std::__detail::_Default_ranged_hash, std::__detail::_Prime_rehash_policy, std::__detail::_Hashtable_traits<true, false, true> >::_M_insert_unique_node(unsigned long, unsigned long, std::__detail::_Hash_node<std::pair<std::__cxx11::basic_string<char, std::char_traits<char>, std::allocator<char> > const, std::vector<int, std::allocator<int> > >, true>*, unsigned long)
PUBLIC 6e110 0 std::__detail::_Map_base<std::__cxx11::basic_string<char, std::char_traits<char>, std::allocator<char> >, std::pair<std::__cxx11::basic_string<char, std::char_traits<char>, std::allocator<char> > const, std::vector<int, std::allocator<int> > >, std::allocator<std::pair<std::__cxx11::basic_string<char, std::char_traits<char>, std::allocator<char> > const, std::vector<int, std::allocator<int> > > >, std::__detail::_Select1st, std::equal_to<std::__cxx11::basic_string<char, std::char_traits<char>, std::allocator<char> > >, std::hash<std::__cxx11::basic_string<char, std::char_traits<char>, std::allocator<char> > >, std::__detail::_Mod_range_hashing, std::__detail::_Default_ranged_hash, std::__detail::_Prime_rehash_policy, std::__detail::_Hashtable_traits<true, false, true>, true>::operator[](std::__cxx11::basic_string<char, std::char_traits<char>, std::allocator<char> > const&)
PUBLIC 6e2e0 0 std::_Hashtable<long*, std::pair<long* const, long*>, std::allocator<std::pair<long* const, long*> >, std::__detail::_Select1st, std::equal_to<long*>, std::hash<long*>, std::__detail::_Mod_range_hashing, std::__detail::_Default_ranged_hash, std::__detail::_Prime_rehash_policy, std::__detail::_Hashtable_traits<false, false, true> >::_M_rehash(unsigned long, unsigned long const&)
PUBLIC 6e410 0 std::_Hashtable<long*, std::pair<long* const, long*>, std::allocator<std::pair<long* const, long*> >, std::__detail::_Select1st, std::equal_to<long*>, std::hash<long*>, std::__detail::_Mod_range_hashing, std::__detail::_Default_ranged_hash, std::__detail::_Prime_rehash_policy, std::__detail::_Hashtable_traits<false, false, true> >::_M_insert_unique_node(unsigned long, unsigned long, std::__detail::_Hash_node<std::pair<long* const, long*>, false>*, unsigned long)
PUBLIC 6e500 0 std::__detail::_Map_base<long*, std::pair<long* const, long*>, std::allocator<std::pair<long* const, long*> >, std::__detail::_Select1st, std::equal_to<long*>, std::hash<long*>, std::__detail::_Mod_range_hashing, std::__detail::_Default_ranged_hash, std::__detail::_Prime_rehash_policy, std::__detail::_Hashtable_traits<false, false, true>, true>::operator[](long* const&)
PUBLIC 6e5c0 0 Sage::HDLGraph::hasHegId(void*)
PUBLIC 6e620 0 Sage::HDLGraph::getHegId(void*, bool*, bool)
PUBLIC 6ea70 0 Sage::HDLGraph::doUnhandledType(vst_s*, long*, int)
PUBLIC 6efe0 0 (anonymous namespace)::doElemRef(vst_s*, long*)
PUBLIC 6f4a0 0 (anonymous namespace)::doExpr(vst_s*, long*)
PUBLIC 70470 0 (anonymous namespace)::doAssignment(vst_s*, long*, hegproto::Assign_Type)
PUBLIC 70870 0 (anonymous namespace)::doStatement(vst_s*, long*)
PUBLIC 713c0 0 (anonymous namespace)::doEventControls(vst_s*, std::vector<int, std::allocator<int> >&, long*)
PUBLIC 71b20 0 (anonymous namespace)::doDeclarativeItems(ssl_item_s*) [clone .isra.0]
PUBLIC 73530 0 Sage::HDLGraph::recordHDLGraph(ssl_item_s*)
PUBLIC 74530 0 std::unordered_map<void*, int, std::hash<void*>, std::equal_to<void*>, std::allocator<std::pair<void* const, int> > >::~unordered_map()
PUBLIC 745b0 0 void std::vector<vst_s*, std::allocator<vst_s*> >::_M_realloc_insert<vst_s* const&>(__gnu_cxx::__normal_iterator<vst_s**, std::vector<vst_s*, std::allocator<vst_s*> > >, vst_s* const&)
PUBLIC 74720 0 void std::vector<int, std::allocator<int> >::_M_realloc_insert<int>(__gnu_cxx::__normal_iterator<int*, std::vector<int, std::allocator<int> > >, int&&)
PUBLIC 74890 0 std::_Hashtable<void*, std::pair<void* const, int>, std::allocator<std::pair<void* const, int> >, std::__detail::_Select1st, std::equal_to<void*>, std::hash<void*>, std::__detail::_Mod_range_hashing, std::__detail::_Default_ranged_hash, std::__detail::_Prime_rehash_policy, std::__detail::_Hashtable_traits<false, false, true> >::_M_rehash(unsigned long, unsigned long const&)
PUBLIC 749c0 0 std::_Hashtable<void*, std::pair<void* const, int>, std::allocator<std::pair<void* const, int> >, std::__detail::_Select1st, std::equal_to<void*>, std::hash<void*>, std::__detail::_Mod_range_hashing, std::__detail::_Default_ranged_hash, std::__detail::_Prime_rehash_policy, std::__detail::_Hashtable_traits<false, false, true> >::_M_insert_unique_node(unsigned long, unsigned long, std::__detail::_Hash_node<std::pair<void* const, int>, false>*, unsigned long)
PUBLIC 74ab0 0 (anonymous namespace)::getPrefixOrDecl(vst_s*)
PUBLIC 74c30 0 (anonymous namespace)::getDatatypeFromTypespec(vst_s*, long*, long**)
PUBLIC 74d40 0 (anonymous namespace)::isTaskFuncBuiltin(vst_s*)
PUBLIC 74ee0 0 (anonymous namespace)::sourceLocation32bitFallback(xst_s*)
PUBLIC 74fe0 0 (anonymous namespace)::getNameFromVst(vst_s*)
PUBLIC 750d0 0 (anonymous namespace)::resolveReference(vst_s*, long*, long**)
PUBLIC 75430 0 (anonymous namespace)::getDeclItem(vst_s*, long*, ssl_item_s*) [clone .isra.0]
PUBLIC 75630 0 (anonymous namespace)::isTextRefOfInterest(xst_s*, long*, bool, bool) [clone .constprop.0]
PUBLIC 76b50 0 (anonymous namespace)::getTypespecAndPib(vst_s*, long*, long**)
PUBLIC 77350 0 (anonymous namespace)::getDatatypeAndPib(vst_s*, long*, long**)
PUBLIC 77500 0 (anonymous namespace)::getElementTypespecAndPib(vst_s*, long*, long**)
PUBLIC 775e0 0 Sage::Text::getSrcLoc(xst_s*, long*)
PUBLIC 79f60 0 Sage::Text::getSrcLoc(ssl_item_s*)
PUBLIC 79f80 0 Sage::Text::getSrcLoc(vst_s*, long*)
PUBLIC 79f90 0 Sage::Text::recordSourceChunks(xst_s*)
PUBLIC 7a6b0 0 Sage::Text::recordIncludeRefs(xst_s*)
PUBLIC 7b370 0 Sage::Text::recordTextRefs(ssl_item_s*)
PUBLIC 7bfd0 0 (anonymous namespace)::doMacroDef(mac_def_s*)
PUBLIC 7caf0 0 (anonymous namespace)::doMacroRef(mac_ref_s*, long*)
PUBLIC 7fa60 0 Sage::Text::recordMacroRefs(ssl_item_s*)
PUBLIC 7fb30 0 (anonymous namespace)::launchConsumer(char const*, char const*, char const*, bool, bool, bool, char const*)
PUBLIC 7fc30 0 Sage::IO::IpcStream::close()
PUBLIC 7fc80 0 Sage::IO::IpcStream::~IpcStream()
PUBLIC 80060 0 Sage::IO::cleanFifo()
PUBLIC 800d0 0 Sage::IO::handleConsumerStatus(bool)
PUBLIC 801e0 0 Sage::IO::IpcStream::connect()
PUBLIC 80390 0 Sage::IO::IpcStream::IpcStream()
PUBLIC 80670 0 Sage::IO::connectWriter(std::__cxx11::basic_string<char, std::char_traits<char>, std::allocator<char> >, char const*, bool, bool)
PUBLIC 809b0 0 Sage::IO::IpcStream::IpcStream(std::__cxx11::basic_string<char, std::char_traits<char>, std::allocator<char> > const&)
PUBLIC 80cc0 0 __tcf_0
PUBLIC 80d10 0 std::istreambuf_iterator<char, std::char_traits<char> >::_M_get() const [clone .isra.0]
PUBLIC 80d60 0 void std::__cxx11::basic_string<char, std::char_traits<char>, std::allocator<char> >::_M_construct<char*>(char*, char*, std::forward_iterator_tag) [clone .constprop.0]
PUBLIC 80e00 0 std::__cxx11::basic_string<char, std::char_traits<char>, std::allocator<char> >::basic_string(char const*, std::allocator<char> const&) [clone .isra.0]
PUBLIC 80ec0 0 Sage::PartDsgn::xmcloneDataPrepared(char*)
PUBLIC 81020 0 boost::disable_if<boost::property_tree::detail::is_translator<std::__cxx11::basic_string<char, std::char_traits<char>, std::allocator<char> > >, std::__cxx11::basic_string<char, std::char_traits<char>, std::allocator<char> > >::type boost::property_tree::basic_ptree<std::__cxx11::basic_string<char, std::char_traits<char>, std::allocator<char> >, std::__cxx11::basic_string<char, std::char_traits<char>, std::allocator<char> >, std::less<std::__cxx11::basic_string<char, std::char_traits<char>, std::allocator<char> > > >::get<std::__cxx11::basic_string<char, std::char_traits<char>, std::allocator<char> > >(boost::property_tree::string_path<std::__cxx11::basic_string<char, std::char_traits<char>, std::allocator<char> >, boost::property_tree::id_translator<std::__cxx11::basic_string<char, std::char_traits<char>, std::allocator<char> > > > const&, std::__cxx11::basic_string<char, std::char_traits<char>, std::allocator<char> > const&) const [clone .constprop.0]
PUBLIC 81130 0 bool boost::property_tree::json_parser::detail::source<boost::property_tree::json_parser::detail::encoding<char>, std::istreambuf_iterator<char, std::char_traits<char> >, std::istreambuf_iterator<char, std::char_traits<char> > >::have<boost::property_tree::json_parser::detail::source<boost::property_tree::json_parser::detail::encoding<char>, std::istreambuf_iterator<char, std::char_traits<char> >, std::istreambuf_iterator<char, std::char_traits<char> > >::DoNothing>(bool (boost::property_tree::json_parser::detail::encoding<char>::*)(char) const, boost::property_tree::json_parser::detail::source<boost::property_tree::json_parser::detail::encoding<char>, std::istreambuf_iterator<char, std::char_traits<char> >, std::istreambuf_iterator<char, std::char_traits<char> > >::DoNothing&) [clone .constprop.0]
PUBLIC 811e0 0 boost::property_tree::basic_ptree<std::__cxx11::basic_string<char, std::char_traits<char>, std::allocator<char> >, std::__cxx11::basic_string<char, std::char_traits<char>, std::allocator<char> >, std::less<std::__cxx11::basic_string<char, std::char_traits<char>, std::allocator<char> > > >& boost::property_tree::basic_ptree<std::__cxx11::basic_string<char, std::char_traits<char>, std::allocator<char> >, std::__cxx11::basic_string<char, std::char_traits<char>, std::allocator<char> >, std::less<std::__cxx11::basic_string<char, std::char_traits<char>, std::allocator<char> > > >::put<std::__cxx11::basic_string<char, std::char_traits<char>, std::allocator<char> >, boost::property_tree::id_translator<std::__cxx11::basic_string<char, std::char_traits<char>, std::allocator<char> > > >(boost::property_tree::string_path<std::__cxx11::basic_string<char, std::char_traits<char>, std::allocator<char> >, boost::property_tree::id_translator<std::__cxx11::basic_string<char, std::char_traits<char>, std::allocator<char> > > > const&, std::__cxx11::basic_string<char, std::char_traits<char>, std::allocator<char> > const&, boost::property_tree::id_translator<std::__cxx11::basic_string<char, std::char_traits<char>, std::allocator<char> > >) [clone .constprop.0]
PUBLIC 812b0 0 Sage::PartDsgn::readXmclonePrepareData(char*, std::vector<std::array<std::__cxx11::basic_string<char, std::char_traits<char>, std::allocator<char> >, 6ul>, std::allocator<std::array<std::__cxx11::basic_string<char, std::char_traits<char>, std::allocator<char> >, 6ul> > >&, std::vector<unsigned long, std::allocator<unsigned long> >&, std::map<std::pair<std::__cxx11::basic_string<char, std::char_traits<char>, std::allocator<char> >, std::__cxx11::basic_string<char, std::char_traits<char>, std::allocator<char> > >, std::set<std::pair<std::__cxx11::basic_string<char, std::char_traits<char>, std::allocator<char> >, std::__cxx11::basic_string<char, std::char_traits<char>, std::allocator<char> > >, std::less<std::pair<std::__cxx11::basic_string<char, std::char_traits<char>, std::allocator<char> >, std::__cxx11::basic_string<char, std::char_traits<char>, std::allocator<char> > > >, std::allocator<std::pair<std::__cxx11::basic_string<char, std::char_traits<char>, std::allocator<char> >, std::__cxx11::basic_string<char, std::char_traits<char>, std::allocator<char> > > > >, std::less<std::pair<std::__cxx11::basic_string<char, std::char_traits<char>, std::allocator<char> >, std::__cxx11::basic_string<char, std::char_traits<char>, std::allocator<char> > > >, std::allocator<std::pair<std::pair<std::__cxx11::basic_string<char, std::char_traits<char>, std::allocator<char> >, std::__cxx11::basic_string<char, std::char_traits<char>, std::allocator<char> > > const, std::set<std::pair<std::__cxx11::basic_string<char, std::char_traits<char>, std::allocator<char> >, std::__cxx11::basic_string<char, std::char_traits<char>, std::allocator<char> > >, std::less<std::pair<std::__cxx11::basic_string<char, std::char_traits<char>, std::allocator<char> >, std::__cxx11::basic_string<char, std::char_traits<char>, std::allocator<char> > > >, std::allocator<std::pair<std::__cxx11::basic_string<char, std::char_traits<char>, std::allocator<char> >, std::__cxx11::basic_string<char, std::char_traits<char>, std::allocator<char> > > > > > > >&, std::vector<std::__cxx11::basic_string<char, std::char_traits<char>, std::allocator<char> >, std::allocator<std::__cxx11::basic_string<char, std::char_traits<char>, std::allocator<char> > > >&)
PUBLIC 83c80 0 Sage::PartDsgn::xmclonePrepare(char*, void*, std::vector<unsigned long, std::allocator<unsigned long> >&, std::map<std::pair<std::__cxx11::basic_string<char, std::char_traits<char>, std::allocator<char> >, std::__cxx11::basic_string<char, std::char_traits<char>, std::allocator<char> > >, std::set<std::pair<std::__cxx11::basic_string<char, std::char_traits<char>, std::allocator<char> >, std::__cxx11::basic_string<char, std::char_traits<char>, std::allocator<char> > >, std::less<std::pair<std::__cxx11::basic_string<char, std::char_traits<char>, std::allocator<char> >, std::__cxx11::basic_string<char, std::char_traits<char>, std::allocator<char> > > >, std::allocator<std::pair<std::__cxx11::basic_string<char, std::char_traits<char>, std::allocator<char> >, std::__cxx11::basic_string<char, std::char_traits<char>, std::allocator<char> > > > >, std::less<std::pair<std::__cxx11::basic_string<char, std::char_traits<char>, std::allocator<char> >, std::__cxx11::basic_string<char, std::char_traits<char>, std::allocator<char> > > >, std::allocator<std::pair<std::pair<std::__cxx11::basic_string<char, std::char_traits<char>, std::allocator<char> >, std::__cxx11::basic_string<char, std::char_traits<char>, std::allocator<char> > > const, std::set<std::pair<std::__cxx11::basic_string<char, std::char_traits<char>, std::allocator<char> >, std::__cxx11::basic_string<char, std::char_traits<char>, std::allocator<char> > >, std::less<std::pair<std::__cxx11::basic_string<char, std::char_traits<char>, std::allocator<char> >, std::__cxx11::basic_string<char, std::char_traits<char>, std::allocator<char> > > >, std::allocator<std::pair<std::__cxx11::basic_string<char, std::char_traits<char>, std::allocator<char> >, std::__cxx11::basic_string<char, std::char_traits<char>, std::allocator<char> > > > > > > >&, std::vector<std::__cxx11::basic_string<char, std::char_traits<char>, std::allocator<char> >, std::allocator<std::__cxx11::basic_string<char, std::char_traits<char>, std::allocator<char> > > >&)
PUBLIC 84fd0 0 boost::property_tree::json_parser::detail::external_ascii_superset_encoding::is_ws(char) const
PUBLIC 85000 0 boost::property_tree::json_parser::detail::external_ascii_superset_encoding::is_minus(char) const
PUBLIC 85010 0 boost::property_tree::json_parser::detail::external_ascii_superset_encoding::is_plusminus(char) const
PUBLIC 85020 0 boost::property_tree::json_parser::detail::external_ascii_superset_encoding::is_dot(char) const
PUBLIC 85030 0 boost::property_tree::json_parser::detail::external_ascii_superset_encoding::is_eE(char) const
PUBLIC 85040 0 boost::property_tree::json_parser::detail::external_ascii_superset_encoding::is_0(char) const
PUBLIC 85050 0 boost::property_tree::json_parser::detail::external_ascii_superset_encoding::is_digit(char) const
PUBLIC 85060 0 boost::property_tree::json_parser::detail::external_ascii_superset_encoding::is_digit0(char) const
PUBLIC 85070 0 boost::property_tree::json_parser::detail::external_ascii_superset_encoding::is_quote(char) const
PUBLIC 85080 0 boost::property_tree::json_parser::detail::external_ascii_superset_encoding::is_backslash(char) const
PUBLIC 85090 0 boost::property_tree::json_parser::detail::external_ascii_superset_encoding::is_slash(char) const
PUBLIC 850a0 0 boost::property_tree::json_parser::detail::external_ascii_superset_encoding::is_comma(char) const
PUBLIC 850b0 0 boost::property_tree::json_parser::detail::external_ascii_superset_encoding::is_open_bracket(char) const
PUBLIC 850c0 0 boost::property_tree::json_parser::detail::external_ascii_superset_encoding::is_close_bracket(char) const
PUBLIC 850d0 0 boost::property_tree::json_parser::detail::external_ascii_superset_encoding::is_colon(char) const
PUBLIC 850e0 0 boost::property_tree::json_parser::detail::external_ascii_superset_encoding::is_open_brace(char) const
PUBLIC 850f0 0 boost::property_tree::json_parser::detail::external_ascii_superset_encoding::is_close_brace(char) const
PUBLIC 85100 0 boost::property_tree::json_parser::detail::external_ascii_superset_encoding::is_a(char) const
PUBLIC 85110 0 boost::property_tree::json_parser::detail::external_ascii_superset_encoding::is_b(char) const
PUBLIC 85120 0 boost::property_tree::json_parser::detail::external_ascii_superset_encoding::is_e(char) const
PUBLIC 85130 0 boost::property_tree::json_parser::detail::external_ascii_superset_encoding::is_f(char) const
PUBLIC 85140 0 boost::property_tree::json_parser::detail::external_ascii_superset_encoding::is_l(char) const
PUBLIC 85150 0 boost::property_tree::json_parser::detail::external_ascii_superset_encoding::is_n(char) const
PUBLIC 85160 0 boost::property_tree::json_parser::detail::external_ascii_superset_encoding::is_r(char) const
PUBLIC 85170 0 boost::property_tree::json_parser::detail::external_ascii_superset_encoding::is_s(char) const
PUBLIC 85180 0 boost::property_tree::json_parser::detail::external_ascii_superset_encoding::is_t(char) const
PUBLIC 85190 0 boost::property_tree::json_parser::detail::external_ascii_superset_encoding::is_u(char) const
PUBLIC 851a0 0 boost::property_tree::json_parser::detail::standard_callbacks<boost::property_tree::basic_ptree<std::__cxx11::basic_string<char, std::char_traits<char>, std::allocator<char> >, std::__cxx11::basic_string<char, std::char_traits<char>, std::allocator<char> >, std::less<std::__cxx11::basic_string<char, std::char_traits<char>, std::allocator<char> > > > >::on_code_unit(char)
PUBLIC 851c0 0 boost::any::holder<std::__cxx11::basic_string<char, std::char_traits<char>, std::allocator<char> > >::type() const
PUBLIC 851d0 0 boost::any::holder<boost::property_tree::string_path<std::__cxx11::basic_string<char, std::char_traits<char>, std::allocator<char> >, boost::property_tree::id_translator<std::__cxx11::basic_string<char, std::char_traits<char>, std::allocator<char> > > > >::type() const
PUBLIC 851e0 0 boost::any::holder<std::__cxx11::basic_string<char, std::char_traits<char>, std::allocator<char> > >::~holder()
PUBLIC 85210 0 boost::any::holder<std::__cxx11::basic_string<char, std::char_traits<char>, std::allocator<char> > >::~holder()
PUBLIC 85250 0 boost::any::holder<boost::property_tree::string_path<std::__cxx11::basic_string<char, std::char_traits<char>, std::allocator<char> >, boost::property_tree::id_translator<std::__cxx11::basic_string<char, std::char_traits<char>, std::allocator<char> > > > >::~holder()
PUBLIC 85280 0 boost::any::holder<boost::property_tree::string_path<std::__cxx11::basic_string<char, std::char_traits<char>, std::allocator<char> >, boost::property_tree::id_translator<std::__cxx11::basic_string<char, std::char_traits<char>, std::allocator<char> > > > >::~holder()
PUBLIC 852c0 0 boost::property_tree::ptree_error::~ptree_error()
PUBLIC 852e0 0 boost::property_tree::ptree_error::~ptree_error()
PUBLIC 85310 0 boost::property_tree::ptree_bad_path::~ptree_bad_path()
PUBLIC 85350 0 boost::property_tree::ptree_bad_data::~ptree_bad_data()
PUBLIC 85390 0 boost::property_tree::file_parser_error::~file_parser_error()
PUBLIC 853e0 0 boost::any::holder<std::__cxx11::basic_string<char, std::char_traits<char>, std::allocator<char> > >::clone() const
PUBLIC 85450 0 boost::property_tree::ptree_bad_path::~ptree_bad_path()
PUBLIC 854a0 0 boost::exception_detail::error_info_injector<boost::property_tree::ptree_bad_path>::~error_info_injector()
PUBLIC 85510 0 non-virtual thunk to boost::exception_detail::error_info_injector<boost::property_tree::ptree_bad_path>::~error_info_injector()
PUBLIC 85590 0 boost::property_tree::ptree_bad_data::~ptree_bad_data()
PUBLIC 855e0 0 boost::exception_detail::error_info_injector<boost::property_tree::ptree_bad_data>::~error_info_injector()
PUBLIC 85650 0 non-virtual thunk to boost::exception_detail::error_info_injector<boost::property_tree::ptree_bad_data>::~error_info_injector()
PUBLIC 856d0 0 non-virtual thunk to boost::exception_detail::error_info_injector<boost::property_tree::json_parser::json_parser_error>::~error_info_injector()
PUBLIC 85770 0 boost::exception_detail::error_info_injector<boost::property_tree::json_parser::json_parser_error>::~error_info_injector()
PUBLIC 85800 0 virtual thunk to boost::exception_detail::clone_impl<boost::exception_detail::error_info_injector<boost::property_tree::json_parser::json_parser_error> >::~clone_impl()
PUBLIC 858b0 0 non-virtual thunk to boost::exception_detail::clone_impl<boost::exception_detail::error_info_injector<boost::property_tree::json_parser::json_parser_error> >::~clone_impl()
PUBLIC 85960 0 boost::exception_detail::clone_impl<boost::exception_detail::error_info_injector<boost::property_tree::json_parser::json_parser_error> >::~clone_impl()
PUBLIC 85a00 0 virtual thunk to boost::exception_detail::clone_impl<boost::exception_detail::error_info_injector<boost::property_tree::json_parser::json_parser_error> >::~clone_impl()
PUBLIC 85aa0 0 non-virtual thunk to boost::exception_detail::clone_impl<boost::exception_detail::error_info_injector<boost::property_tree::json_parser::json_parser_error> >::~clone_impl()
PUBLIC 85b40 0 boost::exception_detail::clone_impl<boost::exception_detail::error_info_injector<boost::property_tree::json_parser::json_parser_error> >::~clone_impl()
PUBLIC 85bd0 0 boost::property_tree::json_parser::json_parser_error::~json_parser_error()
PUBLIC 85c20 0 boost::property_tree::file_parser_error::~file_parser_error()
PUBLIC 85c80 0 boost::property_tree::json_parser::json_parser_error::~json_parser_error()
PUBLIC 85ce0 0 non-virtual thunk to boost::exception_detail::error_info_injector<boost::property_tree::json_parser::json_parser_error>::~error_info_injector()
PUBLIC 85d70 0 boost::exception_detail::error_info_injector<boost::property_tree::json_parser::json_parser_error>::~error_info_injector()
PUBLIC 85df0 0 virtual thunk to boost::exception_detail::clone_impl<boost::exception_detail::error_info_injector<boost::property_tree::ptree_bad_data> >::~clone_impl()
PUBLIC 85e80 0 non-virtual thunk to boost::exception_detail::clone_impl<boost::exception_detail::error_info_injector<boost::property_tree::ptree_bad_data> >::~clone_impl()
PUBLIC 85f20 0 boost::exception_detail::clone_impl<boost::exception_detail::error_info_injector<boost::property_tree::ptree_bad_data> >::~clone_impl()
PUBLIC 85fb0 0 virtual thunk to boost::exception_detail::clone_impl<boost::exception_detail::error_info_injector<boost::property_tree::ptree_bad_path> >::~clone_impl()
PUBLIC 86040 0 non-virtual thunk to boost::exception_detail::clone_impl<boost::exception_detail::error_info_injector<boost::property_tree::ptree_bad_path> >::~clone_impl()
PUBLIC 860e0 0 boost::exception_detail::clone_impl<boost::exception_detail::error_info_injector<boost::property_tree::ptree_bad_path> >::~clone_impl()
PUBLIC 86170 0 non-virtual thunk to boost::exception_detail::clone_impl<boost::exception_detail::error_info_injector<boost::property_tree::ptree_bad_data> >::~clone_impl()
PUBLIC 86200 0 virtual thunk to boost::exception_detail::clone_impl<boost::exception_detail::error_info_injector<boost::property_tree::ptree_bad_data> >::~clone_impl()
PUBLIC 86280 0 boost::exception_detail::clone_impl<boost::exception_detail::error_info_injector<boost::property_tree::ptree_bad_data> >::~clone_impl()
PUBLIC 86300 0 non-virtual thunk to boost::exception_detail::error_info_injector<boost::property_tree::ptree_bad_data>::~error_info_injector()
PUBLIC 86390 0 boost::exception_detail::error_info_injector<boost::property_tree::ptree_bad_data>::~error_info_injector()
PUBLIC 86410 0 virtual thunk to boost::exception_detail::clone_impl<boost::exception_detail::error_info_injector<boost::property_tree::ptree_bad_path> >::~clone_impl()
PUBLIC 86490 0 non-virtual thunk to boost::exception_detail::clone_impl<boost::exception_detail::error_info_injector<boost::property_tree::ptree_bad_path> >::~clone_impl()
PUBLIC 86520 0 boost::exception_detail::clone_impl<boost::exception_detail::error_info_injector<boost::property_tree::ptree_bad_path> >::~clone_impl()
PUBLIC 865a0 0 non-virtual thunk to boost::exception_detail::error_info_injector<boost::property_tree::ptree_bad_path>::~error_info_injector()
PUBLIC 86630 0 boost::exception_detail::error_info_injector<boost::property_tree::ptree_bad_path>::~error_info_injector()
PUBLIC 866b0 0 boost::any::holder<boost::property_tree::string_path<std::__cxx11::basic_string<char, std::char_traits<char>, std::allocator<char> >, boost::property_tree::id_translator<std::__cxx11::basic_string<char, std::char_traits<char>, std::allocator<char> > > > >::clone() const
PUBLIC 86730 0 boost::exception_detail::copy_boost_exception(boost::exception*, boost::exception const*)
PUBLIC 86880 0 boost::exception_detail::clone_impl<boost::exception_detail::error_info_injector<boost::property_tree::ptree_bad_data> >::clone() const
PUBLIC 869a0 0 virtual thunk to boost::exception_detail::clone_impl<boost::exception_detail::error_info_injector<boost::property_tree::ptree_bad_data> >::clone() const
PUBLIC 86ac0 0 boost::exception_detail::clone_impl<boost::exception_detail::error_info_injector<boost::property_tree::ptree_bad_path> >::clone() const
PUBLIC 86be0 0 virtual thunk to boost::exception_detail::clone_impl<boost::exception_detail::error_info_injector<boost::property_tree::ptree_bad_path> >::clone() const
PUBLIC 86d00 0 boost::exception_detail::clone_impl<boost::exception_detail::error_info_injector<boost::property_tree::json_parser::json_parser_error> >::clone() const
PUBLIC 86e80 0 virtual thunk to boost::exception_detail::clone_impl<boost::exception_detail::error_info_injector<boost::property_tree::json_parser::json_parser_error> >::clone() const
PUBLIC 87010 0 std::__cxx11::basic_stringbuf<char, std::char_traits<char>, std::allocator<char> >::~basic_stringbuf()
PUBLIC 87050 0 std::__cxx11::basic_stringbuf<char, std::char_traits<char>, std::allocator<char> >::~basic_stringbuf()
PUBLIC 870a0 0 boost::property_tree::file_parser_error::format_what(std::__cxx11::basic_string<char, std::char_traits<char>, std::allocator<char> > const&, std::__cxx11::basic_string<char, std::char_traits<char>, std::allocator<char> > const&, unsigned long)
PUBLIC 875a0 0 boost::property_tree::file_parser_error::file_parser_error(std::__cxx11::basic_string<char, std::char_traits<char>, std::allocator<char> > const&, std::__cxx11::basic_string<char, std::char_traits<char>, std::allocator<char> > const&, unsigned long)
PUBLIC 876a0 0 boost::property_tree::basic_ptree<std::__cxx11::basic_string<char, std::char_traits<char>, std::allocator<char> >, std::__cxx11::basic_string<char, std::char_traits<char>, std::allocator<char> >, std::less<std::__cxx11::basic_string<char, std::char_traits<char>, std::allocator<char> > > >::basic_ptree()
PUBLIC 87750 0 boost::property_tree::basic_ptree<std::__cxx11::basic_string<char, std::char_traits<char>, std::allocator<char> >, std::__cxx11::basic_string<char, std::char_traits<char>, std::allocator<char> >, std::less<std::__cxx11::basic_string<char, std::char_traits<char>, std::allocator<char> > > >::~basic_ptree()
PUBLIC 87810 0 std::pair<std::__cxx11::basic_string<char, std::char_traits<char>, std::allocator<char> > const, boost::property_tree::basic_ptree<std::__cxx11::basic_string<char, std::char_traits<char>, std::allocator<char> >, std::__cxx11::basic_string<char, std::char_traits<char>, std::allocator<char> >, std::less<std::__cxx11::basic_string<char, std::char_traits<char>, std::allocator<char> > > > >::~pair()
PUBLIC 87840 0 std::pair<std::__cxx11::basic_string<char, std::char_traits<char>, std::allocator<char> >, boost::property_tree::basic_ptree<std::__cxx11::basic_string<char, std::char_traits<char>, std::allocator<char> >, std::__cxx11::basic_string<char, std::char_traits<char>, std::allocator<char> >, std::less<std::__cxx11::basic_string<char, std::char_traits<char>, std::allocator<char> > > > >::~pair()
PUBLIC 87870 0 void std::vector<std::array<std::__cxx11::basic_string<char, std::char_traits<char>, std::allocator<char> >, 6ul>, std::allocator<std::array<std::__cxx11::basic_string<char, std::char_traits<char>, std::allocator<char> >, 6ul> > >::_M_realloc_insert<std::array<std::__cxx11::basic_string<char, std::char_traits<char>, std::allocator<char> >, 6ul> const&>(__gnu_cxx::__normal_iterator<std::array<std::__cxx11::basic_string<char, std::char_traits<char>, std::allocator<char> >, 6ul>*, std::vector<std::array<std::__cxx11::basic_string<char, std::char_traits<char>, std::allocator<char> >, 6ul>, std::allocator<std::array<std::__cxx11::basic_string<char, std::char_traits<char>, std::allocator<char> >, 6ul> > > >, std::array<std::__cxx11::basic_string<char, std::char_traits<char>, std::allocator<char> >, 6ul> const&)
PUBLIC 88060 0 boost::enable_if<boost::property_tree::detail::is_translator<boost::property_tree::id_translator<std::__cxx11::basic_string<char, std::char_traits<char>, std::allocator<char> > > >, std::__cxx11::basic_string<char, std::char_traits<char>, std::allocator<char> > >::type boost::property_tree::basic_ptree<std::__cxx11::basic_string<char, std::char_traits<char>, std::allocator<char> >, std::__cxx11::basic_string<char, std::char_traits<char>, std::allocator<char> >, std::less<std::__cxx11::basic_string<char, std::char_traits<char>, std::allocator<char> > > >::get_value<std::__cxx11::basic_string<char, std::char_traits<char>, std::allocator<char> >, boost::property_tree::id_translator<std::__cxx11::basic_string<char, std::char_traits<char>, std::allocator<char> > > >(boost::property_tree::id_translator<std::__cxx11::basic_string<char, std::char_traits<char>, std::allocator<char> > >) const
PUBLIC 88100 0 boost::property_tree::string_path<std::__cxx11::basic_string<char, std::char_traits<char>, std::allocator<char> >, boost::property_tree::id_translator<std::__cxx11::basic_string<char, std::char_traits<char>, std::allocator<char> > > >::reduce()
PUBLIC 883b0 0 boost::property_tree::basic_ptree<std::__cxx11::basic_string<char, std::char_traits<char>, std::allocator<char> >, std::__cxx11::basic_string<char, std::char_traits<char>, std::allocator<char> >, std::less<std::__cxx11::basic_string<char, std::char_traits<char>, std::allocator<char> > > >::walk_path(boost::property_tree::string_path<std::__cxx11::basic_string<char, std::char_traits<char>, std::allocator<char> >, boost::property_tree::id_translator<std::__cxx11::basic_string<char, std::char_traits<char>, std::allocator<char> > > >&) const
PUBLIC 88510 0 boost::property_tree::ptree_bad_path::ptree_bad_path<boost::property_tree::string_path<std::__cxx11::basic_string<char, std::char_traits<char>, std::allocator<char> >, boost::property_tree::id_translator<std::__cxx11::basic_string<char, std::char_traits<char>, std::allocator<char> > > > >(std::__cxx11::basic_string<char, std::char_traits<char>, std::allocator<char> > const&, boost::property_tree::string_path<std::__cxx11::basic_string<char, std::char_traits<char>, std::allocator<char> >, boost::property_tree::id_translator<std::__cxx11::basic_string<char, std::char_traits<char>, std::allocator<char> > > > const&)
PUBLIC 88850 0 std::__cxx11::basic_string<char, std::char_traits<char>, std::allocator<char> > std::operator+<char, std::char_traits<char>, std::allocator<char> >(std::__cxx11::basic_string<char, std::char_traits<char>, std::allocator<char> >&&, char const*)
PUBLIC 888f0 0 void boost::property_tree::basic_ptree<std::__cxx11::basic_string<char, std::char_traits<char>, std::allocator<char> >, std::__cxx11::basic_string<char, std::char_traits<char>, std::allocator<char> >, std::less<std::__cxx11::basic_string<char, std::char_traits<char>, std::allocator<char> > > >::put_value<std::__cxx11::basic_string<char, std::char_traits<char>, std::allocator<char> >, boost::property_tree::id_translator<std::__cxx11::basic_string<char, std::char_traits<char>, std::allocator<char> > > >(std::__cxx11::basic_string<char, std::char_traits<char>, std::allocator<char> > const&, boost::property_tree::id_translator<std::__cxx11::basic_string<char, std::char_traits<char>, std::allocator<char> > >)
PUBLIC 88970 0 boost::exception_detail::error_info_injector<boost::property_tree::json_parser::json_parser_error>::error_info_injector(boost::exception_detail::error_info_injector<boost::property_tree::json_parser::json_parser_error> const&)
PUBLIC 88a90 0 bool boost::property_tree::json_parser::verify_json<boost::property_tree::basic_ptree<std::__cxx11::basic_string<char, std::char_traits<char>, std::allocator<char> >, std::__cxx11::basic_string<char, std::char_traits<char>, std::allocator<char> >, std::less<std::__cxx11::basic_string<char, std::char_traits<char>, std::allocator<char> > > > >(boost::property_tree::basic_ptree<std::__cxx11::basic_string<char, std::char_traits<char>, std::allocator<char> >, std::__cxx11::basic_string<char, std::char_traits<char>, std::allocator<char> >, std::less<std::__cxx11::basic_string<char, std::char_traits<char>, std::allocator<char> > > > const&, int)
PUBLIC 88bd0 0 boost::exception_detail::error_info_injector<boost::property_tree::ptree_bad_path>::error_info_injector(boost::exception_detail::error_info_injector<boost::property_tree::ptree_bad_path> const&)
PUBLIC 88c90 0 boost::exception_detail::error_info_injector<boost::property_tree::ptree_bad_data>::error_info_injector(boost::exception_detail::error_info_injector<boost::property_tree::ptree_bad_data> const&)
PUBLIC 88d50 0 std::_Hashtable<std::__cxx11::basic_string<char, std::char_traits<char>, std::allocator<char> >, std::pair<std::__cxx11::basic_string<char, std::char_traits<char>, std::allocator<char> > const, boost::property_tree::basic_ptree<std::__cxx11::basic_string<char, std::char_traits<char>, std::allocator<char> >, std::__cxx11::basic_string<char, std::char_traits<char>, std::allocator<char> >, std::less<std::__cxx11::basic_string<char, std::char_traits<char>, std::allocator<char> > > > >, std::allocator<std::pair<std::__cxx11::basic_string<char, std::char_traits<char>, std::allocator<char> > const, boost::property_tree::basic_ptree<std::__cxx11::basic_string<char, std::char_traits<char>, std::allocator<char> >, std::__cxx11::basic_string<char, std::char_traits<char>, std::allocator<char> >, std::less<std::__cxx11::basic_string<char, std::char_traits<char>, std::allocator<char> > > > > >, std::__detail::_Select1st, std::equal_to<std::__cxx11::basic_string<char, std::char_traits<char>, std::allocator<char> > >, std::hash<std::__cxx11::basic_string<char, std::char_traits<char>, std::allocator<char> > >, std::__detail::_Mod_range_hashing, std::__detail::_Default_ranged_hash, std::__detail::_Prime_rehash_policy, std::__detail::_Hashtable_traits<true, false, true> >::_M_rehash(unsigned long, unsigned long const&)
PUBLIC 88e80 0 std::_Hashtable<std::__cxx11::basic_string<char, std::char_traits<char>, std::allocator<char> >, std::pair<std::__cxx11::basic_string<char, std::char_traits<char>, std::allocator<char> > const, boost::property_tree::basic_ptree<std::__cxx11::basic_string<char, std::char_traits<char>, std::allocator<char> >, std::__cxx11::basic_string<char, std::char_traits<char>, std::allocator<char> >, std::less<std::__cxx11::basic_string<char, std::char_traits<char>, std::allocator<char> > > > >, std::allocator<std::pair<std::__cxx11::basic_string<char, std::char_traits<char>, std::allocator<char> > const, boost::property_tree::basic_ptree<std::__cxx11::basic_string<char, std::char_traits<char>, std::allocator<char> >, std::__cxx11::basic_string<char, std::char_traits<char>, std::allocator<char> >, std::less<std::__cxx11::basic_string<char, std::char_traits<char>, std::allocator<char> > > > > >, std::__detail::_Select1st, std::equal_to<std::__cxx11::basic_string<char, std::char_traits<char>, std::allocator<char> > >, std::hash<std::__cxx11::basic_string<char, std::char_traits<char>, std::allocator<char> > >, std::__detail::_Mod_range_hashing, std::__detail::_Default_ranged_hash, std::__detail::_Prime_rehash_policy, std::__detail::_Hashtable_traits<true, false, true> >::_M_insert_unique_node(unsigned long, unsigned long, std::__detail::_Hash_node<std::pair<std::__cxx11::basic_string<char, std::char_traits<char>, std::allocator<char> > const, boost::property_tree::basic_ptree<std::__cxx11::basic_string<char, std::char_traits<char>, std::allocator<char> >, std::__cxx11::basic_string<char, std::char_traits<char>, std::allocator<char> >, std::less<std::__cxx11::basic_string<char, std::char_traits<char>, std::allocator<char> > > > >, true>*, unsigned long)
PUBLIC 88f80 0 std::__cxx11::basic_string<char, std::char_traits<char>, std::allocator<char> > boost::property_tree::json_parser::create_escapes<char>(std::__cxx11::basic_string<char, std::char_traits<char>, std::allocator<char> > const&)
PUBLIC 891f0 0 void boost::property_tree::json_parser::write_json_helper<boost::property_tree::basic_ptree<std::__cxx11::basic_string<char, std::char_traits<char>, std::allocator<char> >, std::__cxx11::basic_string<char, std::char_traits<char>, std::allocator<char> >, std::less<std::__cxx11::basic_string<char, std::char_traits<char>, std::allocator<char> > > > >(std::basic_ostream<boost::property_tree::basic_ptree<std::__cxx11::basic_string<char, std::char_traits<char>, std::allocator<char> >, std::__cxx11::basic_string<char, std::char_traits<char>, std::allocator<char> >, std::less<std::__cxx11::basic_string<char, std::char_traits<char>, std::allocator<char> > > >::key_type::value_type, std::char_traits<boost::property_tree::basic_ptree<std::__cxx11::basic_string<char, std::char_traits<char>, std::allocator<char> >, std::__cxx11::basic_string<char, std::char_traits<char>, std::allocator<char> >, std::less<std::__cxx11::basic_string<char, std::char_traits<char>, std::allocator<char> > > >::key_type::value_type> >&, boost::property_tree::basic_ptree<std::__cxx11::basic_string<char, std::char_traits<char>, std::allocator<char> >, std::__cxx11::basic_string<char, std::char_traits<char>, std::allocator<char> >, std::less<std::__cxx11::basic_string<char, std::char_traits<char>, std::allocator<char> > > > const&, int, bool)
PUBLIC 89930 0 boost::exception_detail::clone_impl<boost::exception_detail::error_info_injector<boost::property_tree::json_parser::json_parser_error> >::clone_impl(boost::exception_detail::error_info_injector<boost::property_tree::json_parser::json_parser_error> const&)
PUBLIC 89a90 0 void boost::exception_detail::throw_exception_<boost::property_tree::json_parser::json_parser_error>(boost::property_tree::json_parser::json_parser_error const&, char const*, char const*, int)
PUBLIC 89ba0 0 void boost::property_tree::json_parser::write_json_internal<boost::property_tree::basic_ptree<std::__cxx11::basic_string<char, std::char_traits<char>, std::allocator<char> >, std::__cxx11::basic_string<char, std::char_traits<char>, std::allocator<char> >, std::less<std::__cxx11::basic_string<char, std::char_traits<char>, std::allocator<char> > > > >(std::basic_ostream<boost::property_tree::basic_ptree<std::__cxx11::basic_string<char, std::char_traits<char>, std::allocator<char> >, std::__cxx11::basic_string<char, std::char_traits<char>, std::allocator<char> >, std::less<std::__cxx11::basic_string<char, std::char_traits<char>, std::allocator<char> > > >::key_type::value_type, std::char_traits<boost::property_tree::basic_ptree<std::__cxx11::basic_string<char, std::char_traits<char>, std::allocator<char> >, std::__cxx11::basic_string<char, std::char_traits<char>, std::allocator<char> >, std::less<std::__cxx11::basic_string<char, std::char_traits<char>, std::allocator<char> > > >::key_type::value_type> >&, boost::property_tree::basic_ptree<std::__cxx11::basic_string<char, std::char_traits<char>, std::allocator<char> >, std::__cxx11::basic_string<char, std::char_traits<char>, std::allocator<char> >, std::less<std::__cxx11::basic_string<char, std::char_traits<char>, std::allocator<char> > > > const&, std::__cxx11::basic_string<char, std::char_traits<char>, std::allocator<char> > const&, bool)
PUBLIC 89ce0 0 void boost::property_tree::json_parser::write_json<boost::property_tree::basic_ptree<std::__cxx11::basic_string<char, std::char_traits<char>, std::allocator<char> >, std::__cxx11::basic_string<char, std::char_traits<char>, std::allocator<char> >, std::less<std::__cxx11::basic_string<char, std::char_traits<char>, std::allocator<char> > > > >(std::__cxx11::basic_string<char, std::char_traits<char>, std::allocator<char> > const&, boost::property_tree::basic_ptree<std::__cxx11::basic_string<char, std::char_traits<char>, std::allocator<char> >, std::__cxx11::basic_string<char, std::char_traits<char>, std::allocator<char> >, std::less<std::__cxx11::basic_string<char, std::char_traits<char>, std::allocator<char> > > > const&, std::locale const&, bool)
PUBLIC 8a020 0 boost::exception_detail::clone_impl<boost::exception_detail::error_info_injector<boost::property_tree::ptree_bad_path> >::clone_impl(boost::exception_detail::error_info_injector<boost::property_tree::ptree_bad_path> const&)
PUBLIC 8a120 0 boost::property_tree::basic_ptree<std::__cxx11::basic_string<char, std::char_traits<char>, std::allocator<char> >, std::__cxx11::basic_string<char, std::char_traits<char>, std::allocator<char> >, std::less<std::__cxx11::basic_string<char, std::char_traits<char>, std::allocator<char> > > >::get_child(boost::property_tree::string_path<std::__cxx11::basic_string<char, std::char_traits<char>, std::allocator<char> >, boost::property_tree::id_translator<std::__cxx11::basic_string<char, std::char_traits<char>, std::allocator<char> > > > const&)
PUBLIC 8a2d0 0 boost::exception_detail::clone_impl<boost::exception_detail::error_info_injector<boost::property_tree::ptree_bad_data> >::clone_impl(boost::exception_detail::error_info_injector<boost::property_tree::ptree_bad_data> const&)
PUBLIC 8a3d0 0 void boost::exception_detail::throw_exception_<boost::property_tree::ptree_bad_data>(boost::property_tree::ptree_bad_data const&, char const*, char const*, int)
PUBLIC 8a490 0 void boost::property_tree::basic_ptree<std::__cxx11::basic_string<char, std::char_traits<char>, std::allocator<char> >, std::__cxx11::basic_string<char, std::char_traits<char>, std::allocator<char> >, std::less<std::__cxx11::basic_string<char, std::char_traits<char>, std::allocator<char> > > >::put_value<unsigned long, boost::property_tree::stream_translator<char, std::char_traits<char>, std::allocator<char>, unsigned long> >(unsigned long const&, boost::property_tree::stream_translator<char, std::char_traits<char>, std::allocator<char>, unsigned long>)
PUBLIC 8a960 0 boost::enable_if<boost::property_tree::detail::is_translator<boost::property_tree::stream_translator<char, std::char_traits<char>, std::allocator<char>, unsigned long> >, unsigned long>::type boost::property_tree::basic_ptree<std::__cxx11::basic_string<char, std::char_traits<char>, std::allocator<char> >, std::__cxx11::basic_string<char, std::char_traits<char>, std::allocator<char> >, std::less<std::__cxx11::basic_string<char, std::char_traits<char>, std::allocator<char> > > >::get_value<unsigned long, boost::property_tree::stream_translator<char, std::char_traits<char>, std::allocator<char>, unsigned long> >(boost::property_tree::stream_translator<char, std::char_traits<char>, std::allocator<char>, unsigned long>) const
PUBLIC 8af80 0 boost::property_tree::json_parser::detail::source<boost::property_tree::json_parser::detail::encoding<char>, std::istreambuf_iterator<char, std::char_traits<char> >, std::istreambuf_iterator<char, std::char_traits<char> > >::parse_error(char const*)
PUBLIC 8b020 0 boost::property_tree::json_parser::detail::parser<boost::property_tree::json_parser::detail::standard_callbacks<boost::property_tree::basic_ptree<std::__cxx11::basic_string<char, std::char_traits<char>, std::allocator<char> >, std::__cxx11::basic_string<char, std::char_traits<char>, std::allocator<char> >, std::less<std::__cxx11::basic_string<char, std::char_traits<char>, std::allocator<char> > > > >, boost::property_tree::json_parser::detail::encoding<char>, std::istreambuf_iterator<char, std::char_traits<char> >, std::istreambuf_iterator<char, std::char_traits<char> > >::parse_error(char const*)
PUBLIC 8b030 0 boost::property_tree::json_parser::detail::source<boost::property_tree::json_parser::detail::encoding<char>, std::istreambuf_iterator<char, std::char_traits<char> >, std::istreambuf_iterator<char, std::char_traits<char> > >::next()
PUBLIC 8b090 0 std::istreambuf_iterator<char, std::char_traits<char> >::equal(std::istreambuf_iterator<char, std::char_traits<char> > const&) const
PUBLIC 8b0d0 0 void std::__insertion_sort<boost::multi_index::detail::copy_map_entry<boost::multi_index::detail::sequenced_index_node<boost::multi_index::detail::ordered_index_node<boost::multi_index::detail::null_augment_policy, boost::multi_index::detail::index_node_base<std::pair<std::__cxx11::basic_string<char, std::char_traits<char>, std::allocator<char> > const, boost::property_tree::basic_ptree<std::__cxx11::basic_string<char, std::char_traits<char>, std::allocator<char> >, std::__cxx11::basic_string<char, std::char_traits<char>, std::allocator<char> >, std::less<std::__cxx11::basic_string<char, std::char_traits<char>, std::allocator<char> > > > >, std::allocator<std::pair<std::__cxx11::basic_string<char, std::char_traits<char>, std::allocator<char> > const, boost::property_tree::basic_ptree<std::__cxx11::basic_string<char, std::char_traits<char>, std::allocator<char> >, std::__cxx11::basic_string<char, std::char_traits<char>, std::allocator<char> >, std::less<std::__cxx11::basic_string<char, std::char_traits<char>, std::allocator<char> > > > > > > > > >*, __gnu_cxx::__ops::_Iter_less_iter>(boost::multi_index::detail::copy_map_entry<boost::multi_index::detail::sequenced_index_node<boost::multi_index::detail::ordered_index_node<boost::multi_index::detail::null_augment_policy, boost::multi_index::detail::index_node_base<std::pair<std::__cxx11::basic_string<char, std::char_traits<char>, std::allocator<char> > const, boost::property_tree::basic_ptree<std::__cxx11::basic_string<char, std::char_traits<char>, std::allocator<char> >, std::__cxx11::basic_string<char, std::char_traits<char>, std::allocator<char> >, std::less<std::__cxx11::basic_string<char, std::char_traits<char>, std::allocator<char> > > > >, std::allocator<std::pair<std::__cxx11::basic_string<char, std::char_traits<char>, std::allocator<char> > const, boost::property_tree::basic_ptree<std::__cxx11::basic_string<char, std::char_traits<char>, std::allocator<char> >, std::__cxx11::basic_string<char, std::char_traits<char>, std::allocator<char> >, std::less<std::__cxx11::basic_string<char, std::char_traits<char>, std::allocator<char> > > > > > > > > >*, boost::multi_index::detail::copy_map_entry<boost::multi_index::detail::sequenced_index_node<boost::multi_index::detail::ordered_index_node<boost::multi_index::detail::null_augment_policy, boost::multi_index::detail::index_node_base<std::pair<std::__cxx11::basic_string<char, std::char_traits<char>, std::allocator<char> > const, boost::property_tree::basic_ptree<std::__cxx11::basic_string<char, std::char_traits<char>, std::allocator<char> >, std::__cxx11::basic_string<char, std::char_traits<char>, std::allocator<char> >, std::less<std::__cxx11::basic_string<char, std::char_traits<char>, std::allocator<char> > > > >, std::allocator<std::pair<std::__cxx11::basic_string<char, std::char_traits<char>, std::allocator<char> > const, boost::property_tree::basic_ptree<std::__cxx11::basic_string<char, std::char_traits<char>, std::allocator<char> >, std::__cxx11::basic_string<char, std::char_traits<char>, std::allocator<char> >, std::less<std::__cxx11::basic_string<char, std::char_traits<char>, std::allocator<char> > > > > > > > > >*, __gnu_cxx::__ops::_Iter_less_iter)
PUBLIC 8b190 0 void boost::property_tree::json_parser::detail::source<boost::property_tree::json_parser::detail::encoding<char>, std::istreambuf_iterator<char, std::char_traits<char> >, std::istreambuf_iterator<char, std::char_traits<char> > >::expect<boost::property_tree::json_parser::detail::source<boost::property_tree::json_parser::detail::encoding<char>, std::istreambuf_iterator<char, std::char_traits<char> >, std::istreambuf_iterator<char, std::char_traits<char> > >::DoNothing>(bool (boost::property_tree::json_parser::detail::encoding<char>::*)(char) const, char const*, boost::property_tree::json_parser::detail::source<boost::property_tree::json_parser::detail::encoding<char>, std::istreambuf_iterator<char, std::char_traits<char> >, std::istreambuf_iterator<char, std::char_traits<char> > >::DoNothing&)
PUBLIC 8b240 0 boost::property_tree::json_parser::detail::parser<boost::property_tree::json_parser::detail::standard_callbacks<boost::property_tree::basic_ptree<std::__cxx11::basic_string<char, std::char_traits<char>, std::allocator<char> >, std::__cxx11::basic_string<char, std::char_traits<char>, std::allocator<char> >, std::less<std::__cxx11::basic_string<char, std::char_traits<char>, std::allocator<char> > > > >, boost::property_tree::json_parser::detail::encoding<char>, std::istreambuf_iterator<char, std::char_traits<char> >, std::istreambuf_iterator<char, std::char_traits<char> > >::parse_codepoint_ref()
PUBLIC 8b570 0 boost::property_tree::json_parser::detail::parser<boost::property_tree::json_parser::detail::standard_callbacks<boost::property_tree::basic_ptree<std::__cxx11::basic_string<char, std::char_traits<char>, std::allocator<char> >, std::__cxx11::basic_string<char, std::char_traits<char>, std::allocator<char> >, std::less<std::__cxx11::basic_string<char, std::char_traits<char>, std::allocator<char> > > > >, boost::property_tree::json_parser::detail::encoding<char>, std::istreambuf_iterator<char, std::char_traits<char> >, std::istreambuf_iterator<char, std::char_traits<char> > >::parse_escape()
PUBLIC 8b6a0 0 void std::vector<boost::property_tree::json_parser::detail::standard_callbacks<boost::property_tree::basic_ptree<std::__cxx11::basic_string<char, std::char_traits<char>, std::allocator<char> >, std::__cxx11::basic_string<char, std::char_traits<char>, std::allocator<char> >, std::less<std::__cxx11::basic_string<char, std::char_traits<char>, std::allocator<char> > > > >::layer, std::allocator<boost::property_tree::json_parser::detail::standard_callbacks<boost::property_tree::basic_ptree<std::__cxx11::basic_string<char, std::char_traits<char>, std::allocator<char> >, std::__cxx11::basic_string<char, std::char_traits<char>, std::allocator<char> >, std::less<std::__cxx11::basic_string<char, std::char_traits<char>, std::allocator<char> > > > >::layer> >::_M_realloc_insert<boost::property_tree::json_parser::detail::standard_callbacks<boost::property_tree::basic_ptree<std::__cxx11::basic_string<char, std::char_traits<char>, std::allocator<char> >, std::__cxx11::basic_string<char, std::char_traits<char>, std::allocator<char> >, std::less<std::__cxx11::basic_string<char, std::char_traits<char>, std::allocator<char> > > > >::layer const&>(__gnu_cxx::__normal_iterator<boost::property_tree::json_parser::detail::standard_callbacks<boost::property_tree::basic_ptree<std::__cxx11::basic_string<char, std::char_traits<char>, std::allocator<char> >, std::__cxx11::basic_string<char, std::char_traits<char>, std::allocator<char> >, std::less<std::__cxx11::basic_string<char, std::char_traits<char>, std::allocator<char> > > > >::layer*, std::vector<boost::property_tree::json_parser::detail::standard_callbacks<boost::property_tree::basic_ptree<std::__cxx11::basic_string<char, std::char_traits<char>, std::allocator<char> >, std::__cxx11::basic_string<char, std::char_traits<char>, std::allocator<char> >, std::less<std::__cxx11::basic_string<char, std::char_traits<char>, std::allocator<char> > > > >::layer, std::allocator<boost::property_tree::json_parser::detail::standard_callbacks<boost::property_tree::basic_ptree<std::__cxx11::basic_string<char, std::char_traits<char>, std::allocator<char> >, std::__cxx11::basic_string<char, std::char_traits<char>, std::allocator<char> >, std::less<std::__cxx11::basic_string<char, std::char_traits<char>, std::allocator<char> > > > >::layer> > >, boost::property_tree::json_parser::detail::standard_callbacks<boost::property_tree::basic_ptree<std::__cxx11::basic_string<char, std::char_traits<char>, std::allocator<char> >, std::__cxx11::basic_string<char, std::char_traits<char>, std::allocator<char> >, std::less<std::__cxx11::basic_string<char, std::char_traits<char>, std::allocator<char> > > > >::layer const&)
PUBLIC 8b810 0 boost::multi_index::detail::ordered_index_node_impl<boost::multi_index::detail::null_augment_policy, std::allocator<char> >::rebalance(boost::multi_index::detail::ordered_index_node_impl<boost::multi_index::detail::null_augment_policy, std::allocator<char> >*, boost::multi_index::detail::ordered_index_node_compressed_base<boost::multi_index::detail::null_augment_policy, std::allocator<char> >::parent_ref)
PUBLIC 8bba0 0 void std::__adjust_heap<boost::multi_index::detail::copy_map_entry<boost::multi_index::detail::sequenced_index_node<boost::multi_index::detail::ordered_index_node<boost::multi_index::detail::null_augment_policy, boost::multi_index::detail::index_node_base<std::pair<std::__cxx11::basic_string<char, std::char_traits<char>, std::allocator<char> > const, boost::property_tree::basic_ptree<std::__cxx11::basic_string<char, std::char_traits<char>, std::allocator<char> >, std::__cxx11::basic_string<char, std::char_traits<char>, std::allocator<char> >, std::less<std::__cxx11::basic_string<char, std::char_traits<char>, std::allocator<char> > > > >, std::allocator<std::pair<std::__cxx11::basic_string<char, std::char_traits<char>, std::allocator<char> > const, boost::property_tree::basic_ptree<std::__cxx11::basic_string<char, std::char_traits<char>, std::allocator<char> >, std::__cxx11::basic_string<char, std::char_traits<char>, std::allocator<char> >, std::less<std::__cxx11::basic_string<char, std::char_traits<char>, std::allocator<char> > > > > > > > > >*, long, boost::multi_index::detail::copy_map_entry<boost::multi_index::detail::sequenced_index_node<boost::multi_index::detail::ordered_index_node<boost::multi_index::detail::null_augment_policy, boost::multi_index::detail::index_node_base<std::pair<std::__cxx11::basic_string<char, std::char_traits<char>, std::allocator<char> > const, boost::property_tree::basic_ptree<std::__cxx11::basic_string<char, std::char_traits<char>, std::allocator<char> >, std::__cxx11::basic_string<char, std::char_traits<char>, std::allocator<char> >, std::less<std::__cxx11::basic_string<char, std::char_traits<char>, std::allocator<char> > > > >, std::allocator<std::pair<std::__cxx11::basic_string<char, std::char_traits<char>, std::allocator<char> > const, boost::property_tree::basic_ptree<std::__cxx11::basic_string<char, std::char_traits<char>, std::allocator<char> >, std::__cxx11::basic_string<char, std::char_traits<char>, std::allocator<char> >, std::less<std::__cxx11::basic_string<char, std::char_traits<char>, std::allocator<char> > > > > > > > > >, __gnu_cxx::__ops::_Iter_less_iter>(boost::multi_index::detail::copy_map_entry<boost::multi_index::detail::sequenced_index_node<boost::multi_index::detail::ordered_index_node<boost::multi_index::detail::null_augment_policy, boost::multi_index::detail::index_node_base<std::pair<std::__cxx11::basic_string<char, std::char_traits<char>, std::allocator<char> > const, boost::property_tree::basic_ptree<std::__cxx11::basic_string<char, std::char_traits<char>, std::allocator<char> >, std::__cxx11::basic_string<char, std::char_traits<char>, std::allocator<char> >, std::less<std::__cxx11::basic_string<char, std::char_traits<char>, std::allocator<char> > > > >, std::allocator<std::pair<std::__cxx11::basic_string<char, std::char_traits<char>, std::allocator<char> > const, boost::property_tree::basic_ptree<std::__cxx11::basic_string<char, std::char_traits<char>, std::allocator<char> >, std::__cxx11::basic_string<char, std::char_traits<char>, std::allocator<char> >, std::less<std::__cxx11::basic_string<char, std::char_traits<char>, std::allocator<char> > > > > > > > > >*, long, long, boost::multi_index::detail::copy_map_entry<boost::multi_index::detail::sequenced_index_node<boost::multi_index::detail::ordered_index_node<boost::multi_index::detail::null_augment_policy, boost::multi_index::detail::index_node_base<std::pair<std::__cxx11::basic_string<char, std::char_traits<char>, std::allocator<char> > const, boost::property_tree::basic_ptree<std::__cxx11::basic_string<char, std::char_traits<char>, std::allocator<char> >, std::__cxx11::basic_string<char, std::char_traits<char>, std::allocator<char> >, std::less<std::__cxx11::basic_string<char, std::char_traits<char>, std::allocator<char> > > > >, std::allocator<std::pair<std::__cxx11::basic_string<char, std::char_traits<char>, std::allocator<char> > const, boost::property_tree::basic_ptree<std::__cxx11::basic_string<char, std::char_traits<char>, std::allocator<char> >, std::__cxx11::basic_string<char, std::char_traits<char>, std::allocator<char> >, std::less<std::__cxx11::basic_string<char, std::char_traits<char>, std::allocator<char> > > > > > > > > >, __gnu_cxx::__ops::_Iter_less_iter)
PUBLIC 8bd00 0 void std::__introsort_loop<boost::multi_index::detail::copy_map_entry<boost::multi_index::detail::sequenced_index_node<boost::multi_index::detail::ordered_index_node<boost::multi_index::detail::null_augment_policy, boost::multi_index::detail::index_node_base<std::pair<std::__cxx11::basic_string<char, std::char_traits<char>, std::allocator<char> > const, boost::property_tree::basic_ptree<std::__cxx11::basic_string<char, std::char_traits<char>, std::allocator<char> >, std::__cxx11::basic_string<char, std::char_traits<char>, std::allocator<char> >, std::less<std::__cxx11::basic_string<char, std::char_traits<char>, std::allocator<char> > > > >, std::allocator<std::pair<std::__cxx11::basic_string<char, std::char_traits<char>, std::allocator<char> > const, boost::property_tree::basic_ptree<std::__cxx11::basic_string<char, std::char_traits<char>, std::allocator<char> >, std::__cxx11::basic_string<char, std::char_traits<char>, std::allocator<char> >, std::less<std::__cxx11::basic_string<char, std::char_traits<char>, std::allocator<char> > > > > > > > > >*, long, __gnu_cxx::__ops::_Iter_less_iter>(boost::multi_index::detail::copy_map_entry<boost::multi_index::detail::sequenced_index_node<boost::multi_index::detail::ordered_index_node<boost::multi_index::detail::null_augment_policy, boost::multi_index::detail::index_node_base<std::pair<std::__cxx11::basic_string<char, std::char_traits<char>, std::allocator<char> > const, boost::property_tree::basic_ptree<std::__cxx11::basic_string<char, std::char_traits<char>, std::allocator<char> >, std::__cxx11::basic_string<char, std::char_traits<char>, std::allocator<char> >, std::less<std::__cxx11::basic_string<char, std::char_traits<char>, std::allocator<char> > > > >, std::allocator<std::pair<std::__cxx11::basic_string<char, std::char_traits<char>, std::allocator<char> > const, boost::property_tree::basic_ptree<std::__cxx11::basic_string<char, std::char_traits<char>, std::allocator<char> >, std::__cxx11::basic_string<char, std::char_traits<char>, std::allocator<char> >, std::less<std::__cxx11::basic_string<char, std::char_traits<char>, std::allocator<char> > > > > > > > > >*, boost::multi_index::detail::copy_map_entry<boost::multi_index::detail::sequenced_index_node<boost::multi_index::detail::ordered_index_node<boost::multi_index::detail::null_augment_policy, boost::multi_index::detail::index_node_base<std::pair<std::__cxx11::basic_string<char, std::char_traits<char>, std::allocator<char> > const, boost::property_tree::basic_ptree<std::__cxx11::basic_string<char, std::char_traits<char>, std::allocator<char> >, std::__cxx11::basic_string<char, std::char_traits<char>, std::allocator<char> >, std::less<std::__cxx11::basic_string<char, std::char_traits<char>, std::allocator<char> > > > >, std::allocator<std::pair<std::__cxx11::basic_string<char, std::char_traits<char>, std::allocator<char> > const, boost::property_tree::basic_ptree<std::__cxx11::basic_string<char, std::char_traits<char>, std::allocator<char> >, std::__cxx11::basic_string<char, std::char_traits<char>, std::allocator<char> >, std::less<std::__cxx11::basic_string<char, std::char_traits<char>, std::allocator<char> > > > > > > > > >*, long, __gnu_cxx::__ops::_Iter_less_iter) [clone .isra.0]
PUBLIC 8bf40 0 boost::property_tree::basic_ptree<std::__cxx11::basic_string<char, std::char_traits<char>, std::allocator<char> >, std::__cxx11::basic_string<char, std::char_traits<char>, std::allocator<char> >, std::less<std::__cxx11::basic_string<char, std::char_traits<char>, std::allocator<char> > > >::basic_ptree(boost::property_tree::basic_ptree<std::__cxx11::basic_string<char, std::char_traits<char>, std::allocator<char> >, std::__cxx11::basic_string<char, std::char_traits<char>, std::allocator<char> >, std::less<std::__cxx11::basic_string<char, std::char_traits<char>, std::allocator<char> > > > const&)
PUBLIC 8c6b0 0 boost::multi_index::detail::sequenced_index<boost::multi_index::detail::nth_layer<1, std::pair<std::__cxx11::basic_string<char, std::char_traits<char>, std::allocator<char> > const, boost::property_tree::basic_ptree<std::__cxx11::basic_string<char, std::char_traits<char>, std::allocator<char> >, std::__cxx11::basic_string<char, std::char_traits<char>, std::allocator<char> >, std::less<std::__cxx11::basic_string<char, std::char_traits<char>, std::allocator<char> > > > >, boost::multi_index::indexed_by<boost::multi_index::sequenced<boost::multi_index::tag<mpl_::na, mpl_::na, mpl_::na, mpl_::na, mpl_::na, mpl_::na, mpl_::na, mpl_::na, mpl_::na, mpl_::na, mpl_::na, mpl_::na, mpl_::na, mpl_::na, mpl_::na, mpl_::na, mpl_::na, mpl_::na, mpl_::na, mpl_::na> >, boost::multi_index::ordered_non_unique<boost::multi_index::tag<boost::property_tree::basic_ptree<std::__cxx11::basic_string<char, std::char_traits<char>, std::allocator<char> >, std::__cxx11::basic_string<char, std::char_traits<char>, std::allocator<char> >, std::less<std::__cxx11::basic_string<char, std::char_traits<char>, std::allocator<char> > > >::subs::by_name, mpl_::na, mpl_::na, mpl_::na, mpl_::na, mpl_::na, mpl_::na, mpl_::na, mpl_::na, mpl_::na, mpl_::na, mpl_::na, mpl_::na, mpl_::na, mpl_::na, mpl_::na, mpl_::na, mpl_::na, mpl_::na, mpl_::na>, boost::multi_index::member<std::pair<std::__cxx11::basic_string<char, std::char_traits<char>, std::allocator<char> > const, boost::property_tree::basic_ptree<std::__cxx11::basic_string<char, std::char_traits<char>, std::allocator<char> >, std::__cxx11::basic_string<char, std::char_traits<char>, std::allocator<char> >, std::less<std::__cxx11::basic_string<char, std::char_traits<char>, std::allocator<char> > > > >, std::__cxx11::basic_string<char, std::char_traits<char>, std::allocator<char> > const, &std::pair<std::__cxx11::basic_string<char, std::char_traits<char>, std::allocator<char> > const, boost::property_tree::basic_ptree<std::__cxx11::basic_string<char, std::char_traits<char>, std::allocator<char> >, std::__cxx11::basic_string<char, std::char_traits<char>, std::allocator<char> >, std::less<std::__cxx11::basic_string<char, std::char_traits<char>, std::allocator<char> > > > >::first>, std::less<std::__cxx11::basic_string<char, std::char_traits<char>, std::allocator<char> > > >, mpl_::na, mpl_::na, mpl_::na, mpl_::na, mpl_::na, mpl_::na, mpl_::na, mpl_::na, mpl_::na, mpl_::na, mpl_::na, mpl_::na, mpl_::na, mpl_::na, mpl_::na, mpl_::na, mpl_::na, mpl_::na>, std::allocator<std::pair<std::__cxx11::basic_string<char, std::char_traits<char>, std::allocator<char> > const, boost::property_tree::basic_ptree<std::__cxx11::basic_string<char, std::char_traits<char>, std::allocator<char> >, std::__cxx11::basic_string<char, std::char_traits<char>, std::allocator<char> >, std::less<std::__cxx11::basic_string<char, std::char_traits<char>, std::allocator<char> > > > > > >, boost::mpl::vector0<mpl_::na> >::insert(boost::multi_index::detail::bidir_node_iterator<boost::multi_index::detail::sequenced_index_node<boost::multi_index::detail::ordered_index_node<boost::multi_index::detail::null_augment_policy, boost::multi_index::detail::index_node_base<std::pair<std::__cxx11::basic_string<char, std::char_traits<char>, std::allocator<char> > const, boost::property_tree::basic_ptree<std::__cxx11::basic_string<char, std::char_traits<char>, std::allocator<char> >, std::__cxx11::basic_string<char, std::char_traits<char>, std::allocator<char> >, std::less<std::__cxx11::basic_string<char, std::char_traits<char>, std::allocator<char> > > > >, std::allocator<std::pair<std::__cxx11::basic_string<char, std::char_traits<char>, std::allocator<char> > const, boost::property_tree::basic_ptree<std::__cxx11::basic_string<char, std::char_traits<char>, std::allocator<char> >, std::__cxx11::basic_string<char, std::char_traits<char>, std::allocator<char> >, std::less<std::__cxx11::basic_string<char, std::char_traits<char>, std::allocator<char> > > > > > > > > >, std::pair<std::__cxx11::basic_string<char, std::char_traits<char>, std::allocator<char> > const, boost::property_tree::basic_ptree<std::__cxx11::basic_string<char, std::char_traits<char>, std::allocator<char> >, std::__cxx11::basic_string<char, std::char_traits<char>, std::allocator<char> >, std::less<std::__cxx11::basic_string<char, std::char_traits<char>, std::allocator<char> > > > > const&)
PUBLIC 8c900 0 boost::property_tree::basic_ptree<std::__cxx11::basic_string<char, std::char_traits<char>, std::allocator<char> >, std::__cxx11::basic_string<char, std::char_traits<char>, std::allocator<char> >, std::less<std::__cxx11::basic_string<char, std::char_traits<char>, std::allocator<char> > > >::force_path(boost::property_tree::string_path<std::__cxx11::basic_string<char, std::char_traits<char>, std::allocator<char> >, boost::property_tree::id_translator<std::__cxx11::basic_string<char, std::char_traits<char>, std::allocator<char> > > >&)
PUBLIC 8cc20 0 boost::property_tree::basic_ptree<std::__cxx11::basic_string<char, std::char_traits<char>, std::allocator<char> >, std::__cxx11::basic_string<char, std::char_traits<char>, std::allocator<char> >, std::less<std::__cxx11::basic_string<char, std::char_traits<char>, std::allocator<char> > > >::operator=(boost::property_tree::basic_ptree<std::__cxx11::basic_string<char, std::char_traits<char>, std::allocator<char> >, std::__cxx11::basic_string<char, std::char_traits<char>, std::allocator<char> >, std::less<std::__cxx11::basic_string<char, std::char_traits<char>, std::allocator<char> > > > const&)
PUBLIC 8cc70 0 boost::property_tree::basic_ptree<std::__cxx11::basic_string<char, std::char_traits<char>, std::allocator<char> >, std::__cxx11::basic_string<char, std::char_traits<char>, std::allocator<char> >, std::less<std::__cxx11::basic_string<char, std::char_traits<char>, std::allocator<char> > > >::add_child(boost::property_tree::string_path<std::__cxx11::basic_string<char, std::char_traits<char>, std::allocator<char> >, boost::property_tree::id_translator<std::__cxx11::basic_string<char, std::char_traits<char>, std::allocator<char> > > > const&, boost::property_tree::basic_ptree<std::__cxx11::basic_string<char, std::char_traits<char>, std::allocator<char> >, std::__cxx11::basic_string<char, std::char_traits<char>, std::allocator<char> >, std::less<std::__cxx11::basic_string<char, std::char_traits<char>, std::allocator<char> > > > const&)
PUBLIC 8cdd0 0 boost::property_tree::basic_ptree<std::__cxx11::basic_string<char, std::char_traits<char>, std::allocator<char> >, std::__cxx11::basic_string<char, std::char_traits<char>, std::allocator<char> >, std::less<std::__cxx11::basic_string<char, std::char_traits<char>, std::allocator<char> > > >::put_child(boost::property_tree::string_path<std::__cxx11::basic_string<char, std::char_traits<char>, std::allocator<char> >, boost::property_tree::id_translator<std::__cxx11::basic_string<char, std::char_traits<char>, std::allocator<char> > > > const&, boost::property_tree::basic_ptree<std::__cxx11::basic_string<char, std::char_traits<char>, std::allocator<char> >, std::__cxx11::basic_string<char, std::char_traits<char>, std::allocator<char> >, std::less<std::__cxx11::basic_string<char, std::char_traits<char>, std::allocator<char> > > > const&)
PUBLIC 8d040 0 boost::property_tree::json_parser::detail::standard_callbacks<boost::property_tree::basic_ptree<std::__cxx11::basic_string<char, std::char_traits<char>, std::allocator<char> >, std::__cxx11::basic_string<char, std::char_traits<char>, std::allocator<char> >, std::less<std::__cxx11::basic_string<char, std::char_traits<char>, std::allocator<char> > > > >::new_tree()
PUBLIC 8d4b0 0 boost::property_tree::json_parser::detail::standard_callbacks<boost::property_tree::basic_ptree<std::__cxx11::basic_string<char, std::char_traits<char>, std::allocator<char> >, std::__cxx11::basic_string<char, std::char_traits<char>, std::allocator<char> >, std::less<std::__cxx11::basic_string<char, std::char_traits<char>, std::allocator<char> > > > >::new_value()
PUBLIC 8d510 0 boost::property_tree::json_parser::detail::parser<boost::property_tree::json_parser::detail::standard_callbacks<boost::property_tree::basic_ptree<std::__cxx11::basic_string<char, std::char_traits<char>, std::allocator<char> >, std::__cxx11::basic_string<char, std::char_traits<char>, std::allocator<char> >, std::less<std::__cxx11::basic_string<char, std::char_traits<char>, std::allocator<char> > > > >, boost::property_tree::json_parser::detail::encoding<char>, std::istreambuf_iterator<char, std::char_traits<char> >, std::istreambuf_iterator<char, std::char_traits<char> > >::parse_string()
PUBLIC 8dab0 0 boost::property_tree::json_parser::detail::parser<boost::property_tree::json_parser::detail::standard_callbacks<boost::property_tree::basic_ptree<std::__cxx11::basic_string<char, std::char_traits<char>, std::allocator<char> >, std::__cxx11::basic_string<char, std::char_traits<char>, std::allocator<char> >, std::less<std::__cxx11::basic_string<char, std::char_traits<char>, std::allocator<char> > > > >, boost::property_tree::json_parser::detail::encoding<char>, std::istreambuf_iterator<char, std::char_traits<char> >, std::istreambuf_iterator<char, std::char_traits<char> > >::parse_boolean()
PUBLIC 8dd10 0 boost::property_tree::json_parser::detail::number_callback_adapter<boost::property_tree::json_parser::detail::standard_callbacks<boost::property_tree::basic_ptree<std::__cxx11::basic_string<char, std::char_traits<char>, std::allocator<char> >, std::__cxx11::basic_string<char, std::char_traits<char>, std::allocator<char> >, std::less<std::__cxx11::basic_string<char, std::char_traits<char>, std::allocator<char> > > > >, boost::property_tree::json_parser::detail::encoding<char>, std::istreambuf_iterator<char, std::char_traits<char> >, std::input_iterator_tag>::operator()(char)
PUBLIC 8dd80 0 bool boost::property_tree::json_parser::detail::source<boost::property_tree::json_parser::detail::encoding<char>, std::istreambuf_iterator<char, std::char_traits<char> >, std::istreambuf_iterator<char, std::char_traits<char> > >::have<boost::property_tree::json_parser::detail::number_callback_adapter<boost::property_tree::json_parser::detail::standard_callbacks<boost::property_tree::basic_ptree<std::__cxx11::basic_string<char, std::char_traits<char>, std::allocator<char> >, std::__cxx11::basic_string<char, std::char_traits<char>, std::allocator<char> >, std::less<std::__cxx11::basic_string<char, std::char_traits<char>, std::allocator<char> > > > >, boost::property_tree::json_parser::detail::encoding<char>, std::istreambuf_iterator<char, std::char_traits<char> >, std::input_iterator_tag> >(bool (boost::property_tree::json_parser::detail::encoding<char>::*)(char) const, boost::property_tree::json_parser::detail::number_callback_adapter<boost::property_tree::json_parser::detail::standard_callbacks<boost::property_tree::basic_ptree<std::__cxx11::basic_string<char, std::char_traits<char>, std::allocator<char> >, std::__cxx11::basic_string<char, std::char_traits<char>, std::allocator<char> >, std::less<std::__cxx11::basic_string<char, std::char_traits<char>, std::allocator<char> > > > >, boost::property_tree::json_parser::detail::encoding<char>, std::istreambuf_iterator<char, std::char_traits<char> >, std::input_iterator_tag>&) [clone .constprop.3]
PUBLIC 8de10 0 boost::property_tree::json_parser::detail::parser<boost::property_tree::json_parser::detail::standard_callbacks<boost::property_tree::basic_ptree<std::__cxx11::basic_string<char, std::char_traits<char>, std::allocator<char> >, std::__cxx11::basic_string<char, std::char_traits<char>, std::allocator<char> >, std::less<std::__cxx11::basic_string<char, std::char_traits<char>, std::allocator<char> > > > >, boost::property_tree::json_parser::detail::encoding<char>, std::istreambuf_iterator<char, std::char_traits<char> >, std::istreambuf_iterator<char, std::char_traits<char> > >::parse_number()
PUBLIC 8e3a0 0 boost::property_tree::json_parser::detail::parser<boost::property_tree::json_parser::detail::standard_callbacks<boost::property_tree::basic_ptree<std::__cxx11::basic_string<char, std::char_traits<char>, std::allocator<char> >, std::__cxx11::basic_string<char, std::char_traits<char>, std::allocator<char> >, std::less<std::__cxx11::basic_string<char, std::char_traits<char>, std::allocator<char> > > > >, boost::property_tree::json_parser::detail::encoding<char>, std::istreambuf_iterator<char, std::char_traits<char> >, std::istreambuf_iterator<char, std::char_traits<char> > >::parse_array()
PUBLIC 8e720 0 boost::property_tree::json_parser::detail::parser<boost::property_tree::json_parser::detail::standard_callbacks<boost::property_tree::basic_ptree<std::__cxx11::basic_string<char, std::char_traits<char>, std::allocator<char> >, std::__cxx11::basic_string<char, std::char_traits<char>, std::allocator<char> >, std::less<std::__cxx11::basic_string<char, std::char_traits<char>, std::allocator<char> > > > >, boost::property_tree::json_parser::detail::encoding<char>, std::istreambuf_iterator<char, std::char_traits<char> >, std::istreambuf_iterator<char, std::char_traits<char> > >::parse_value()
PUBLIC 8e850 0 void boost::property_tree::json_parser::detail::read_json_internal<std::istreambuf_iterator<char, std::char_traits<char> >, std::istreambuf_iterator<char, std::char_traits<char> >, boost::property_tree::json_parser::detail::encoding<char>, boost::property_tree::json_parser::detail::standard_callbacks<boost::property_tree::basic_ptree<std::__cxx11::basic_string<char, std::char_traits<char>, std::allocator<char> >, std::__cxx11::basic_string<char, std::char_traits<char>, std::allocator<char> >, std::less<std::__cxx11::basic_string<char, std::char_traits<char>, std::allocator<char> > > > > >(std::istreambuf_iterator<char, std::char_traits<char> >, std::istreambuf_iterator<char, std::char_traits<char> >, boost::property_tree::json_parser::detail::encoding<char>&, boost::property_tree::json_parser::detail::standard_callbacks<boost::property_tree::basic_ptree<std::__cxx11::basic_string<char, std::char_traits<char>, std::allocator<char> >, std::__cxx11::basic_string<char, std::char_traits<char>, std::allocator<char> >, std::less<std::__cxx11::basic_string<char, std::char_traits<char>, std::allocator<char> > > > >&, std::__cxx11::basic_string<char, std::char_traits<char>, std::allocator<char> > const&)
PUBLIC 8ebb0 0 void boost::property_tree::json_parser::read_json<boost::property_tree::basic_ptree<std::__cxx11::basic_string<char, std::char_traits<char>, std::allocator<char> >, std::__cxx11::basic_string<char, std::char_traits<char>, std::allocator<char> >, std::less<std::__cxx11::basic_string<char, std::char_traits<char>, std::allocator<char> > > > >(std::basic_istream<boost::property_tree::basic_ptree<std::__cxx11::basic_string<char, std::char_traits<char>, std::allocator<char> >, std::__cxx11::basic_string<char, std::char_traits<char>, std::allocator<char> >, std::less<std::__cxx11::basic_string<char, std::char_traits<char>, std::allocator<char> > > >::key_type::value_type, std::char_traits<boost::property_tree::basic_ptree<std::__cxx11::basic_string<char, std::char_traits<char>, std::allocator<char> >, std::__cxx11::basic_string<char, std::char_traits<char>, std::allocator<char> >, std::less<std::__cxx11::basic_string<char, std::char_traits<char>, std::allocator<char> > > >::key_type::value_type> >&, boost::property_tree::basic_ptree<std::__cxx11::basic_string<char, std::char_traits<char>, std::allocator<char> >, std::__cxx11::basic_string<char, std::char_traits<char>, std::allocator<char> >, std::less<std::__cxx11::basic_string<char, std::char_traits<char>, std::allocator<char> > > >&)
PUBLIC 8ed00 0 boost::property_tree::json_parser::detail::parser<boost::property_tree::json_parser::detail::standard_callbacks<boost::property_tree::basic_ptree<std::__cxx11::basic_string<char, std::char_traits<char>, std::allocator<char> >, std::__cxx11::basic_string<char, std::char_traits<char>, std::allocator<char> >, std::less<std::__cxx11::basic_string<char, std::char_traits<char>, std::allocator<char> > > > >, boost::property_tree::json_parser::detail::encoding<char>, std::istreambuf_iterator<char, std::char_traits<char> >, std::istreambuf_iterator<char, std::char_traits<char> > >::parse_object()
PUBLIC 8f3c0 0 generalproto::GenericMsg::IsInitialized() const
PUBLIC 8f3d0 0 generalproto::GenericMsg::SetCachedSize(int) const
PUBLIC 8f3e0 0 generalproto::EndOfData::SetCachedSize(int) const
PUBLIC 8f3f0 0 generalproto::GenericMsg::GetMetadata() const
PUBLIC 8f410 0 generalproto::EndOfData::GetMetadata() const
PUBLIC 8f430 0 generalproto::EndOfData::ByteSizeLong() const
PUBLIC 8f460 0 generalproto::EndOfData::_InternalSerialize(unsigned char*, google::protobuf::io::EpsCopyOutputStream*) const
PUBLIC 8f480 0 generalproto::EndOfData::~EndOfData()
PUBLIC 8f580 0 generalproto::EndOfData::~EndOfData()
PUBLIC 8f5a0 0 generalproto::GenericMsg::InitAsDefaultInstance()
PUBLIC 8f5c0 0 generalproto::GenericMsg::_Internal::inner_message(generalproto::GenericMsg const*)
PUBLIC 8f5d0 0 generalproto::GenericMsg::GenericMsg(google::protobuf::Arena*)
PUBLIC 8f620 0 InitDefaultsscc_info_GenericMsg_general_2eproto()
PUBLIC 8f660 0 generalproto::GenericMsg::ArenaDtor(void*)
PUBLIC 8f670 0 generalproto::GenericMsg::default_instance()
PUBLIC 8f6a0 0 generalproto::EndOfData::InitAsDefaultInstance()
PUBLIC 8f6b0 0 generalproto::EndOfData::EndOfData(google::protobuf::Arena*)
PUBLIC 8f6d0 0 InitDefaultsscc_info_EndOfData_general_2eproto()
PUBLIC 8f710 0 generalproto::EndOfData::ArenaDtor(void*)
PUBLIC 8f720 0 generalproto::EndOfData::default_instance()
PUBLIC 8f750 0 generalproto::GenericMsg* google::protobuf::Arena::CreateMaybeMessage<generalproto::GenericMsg>(google::protobuf::Arena*)
PUBLIC 8f7d0 0 generalproto::EndOfData* google::protobuf::Arena::CreateMaybeMessage<generalproto::EndOfData>(google::protobuf::Arena*)
PUBLIC 8f850 0 generalproto::EndOfData::_InternalParse(char const*, google::protobuf::internal::ParseContext*)
PUBLIC 8fa10 0 generalproto::GenericMsg::MergeFrom(generalproto::GenericMsg const&)
PUBLIC 8fb50 0 generalproto::GenericMsg::MergeFrom(google::protobuf::Message const&)
PUBLIC 8fc30 0 generalproto::GenericMsg::InternalSwap(generalproto::GenericMsg*)
PUBLIC 8fce0 0 generalproto::EndOfData::InternalSwap(generalproto::EndOfData*)
PUBLIC 8fd70 0 generalproto::EndOfData::Clear()
PUBLIC 8fda0 0 generalproto::EndOfData::EndOfData(generalproto::EndOfData const&)
PUBLIC 8fe30 0 generalproto::GenericMsg::GenericMsg(generalproto::GenericMsg const&)
PUBLIC 8ff00 0 generalproto::EndOfData::MergeFrom(generalproto::EndOfData const&)
PUBLIC 8fff0 0 generalproto::EndOfData::CopyFrom(generalproto::EndOfData const&)
PUBLIC 90030 0 generalproto::EndOfData::MergeFrom(google::protobuf::Message const&)
PUBLIC 90110 0 generalproto::EndOfData::CopyFrom(google::protobuf::Message const&)
PUBLIC 90150 0 generalproto::GenericMsg::clear_inner_message()
PUBLIC 901a0 0 generalproto::GenericMsg::~GenericMsg()
PUBLIC 902b0 0 generalproto::GenericMsg::~GenericMsg()
PUBLIC 902d0 0 generalproto::GenericMsg::Clear()
PUBLIC 90350 0 generalproto::GenericMsg::CopyFrom(google::protobuf::Message const&)
PUBLIC 90390 0 generalproto::GenericMsg::CopyFrom(generalproto::GenericMsg const&)
PUBLIC 903d0 0 generalproto::GenericMsg::_InternalParse(char const*, google::protobuf::internal::ParseContext*)
PUBLIC 90600 0 generalproto::GenericMsg::_InternalSerialize(unsigned char*, google::protobuf::io::EpsCopyOutputStream*) const
PUBLIC 906f0 0 generalproto::GenericMsg::ByteSizeLong() const
PUBLIC 90760 0 google::protobuf::MessageLite::InternalGetTable() const
PUBLIC 90770 0 generalproto::EndOfData::GetCachedSize() const
PUBLIC 90780 0 generalproto::GenericMsg::GetCachedSize() const
PUBLIC 90790 0 void google::protobuf::internal::arena_destruct_object<google::protobuf::internal::InternalMetadata::Container<google::protobuf::UnknownFieldSet> >(void*)
PUBLIC 907d0 0 generalproto::GenericMsg::New(google::protobuf::Arena*) const
PUBLIC 907e0 0 generalproto::GenericMsg::New() const
PUBLIC 907f0 0 generalproto::EndOfData::New(google::protobuf::Arena*) const
PUBLIC 90800 0 generalproto::EndOfData::New() const
PUBLIC 90810 0 google::protobuf::UnknownFieldSet* google::protobuf::internal::InternalMetadata::mutable_unknown_fields_slow<google::protobuf::UnknownFieldSet>()
PUBLIC 908c0 0 char const* google::protobuf::internal::ParseContext::ParseMessage<google::protobuf::Any>(google::protobuf::Any*, char const*)
PUBLIC 90a10 0 sourcelocproto::SourceLoc_SourceFile::IsInitialized() const
PUBLIC 90a20 0 sourcelocproto::SourceLoc_SourceFile::SetCachedSize(int) const
PUBLIC 90a30 0 sourcelocproto::SourceLoc::SetCachedSize(int) const
PUBLIC 90a40 0 sourcelocproto::SourceLoc_SourceFile::ByteSizeLong() const
PUBLIC 90aa0 0 sourcelocproto::SourceLoc::ByteSizeLong() const
PUBLIC 90b80 0 sourcelocproto::SourceLoc_SourceFile::GetMetadata() const
PUBLIC 90ba0 0 sourcelocproto::SourceLoc::GetMetadata() const
PUBLIC 90bc0 0 sourcelocproto::SourceLoc_SourceFile::_InternalSerialize(unsigned char*, google::protobuf::io::EpsCopyOutputStream*) const
PUBLIC 90ca0 0 sourcelocproto::SourceLoc_SourceFile::~SourceLoc_SourceFile()
PUBLIC 90dd0 0 sourcelocproto::SourceLoc_SourceFile::~SourceLoc_SourceFile()
PUBLIC 90df0 0 sourcelocproto::SourceLoc::~SourceLoc()
PUBLIC 90f00 0 sourcelocproto::SourceLoc::~SourceLoc()
PUBLIC 90f20 0 sourcelocproto::SourceLoc_SourceFile::InitAsDefaultInstance()
PUBLIC 90f30 0 sourcelocproto::SourceLoc_SourceFile::SourceLoc_SourceFile(google::protobuf::Arena*)
PUBLIC 90f90 0 InitDefaultsscc_info_SourceLoc_SourceFile_sourcelocdb_2eproto()
PUBLIC 90fd0 0 sourcelocproto::SourceLoc_SourceFile::ArenaDtor(void*)
PUBLIC 90fe0 0 sourcelocproto::SourceLoc_SourceFile::default_instance()
PUBLIC 91010 0 sourcelocproto::SourceLoc::InitAsDefaultInstance()
PUBLIC 91030 0 sourcelocproto::SourceLoc::_Internal::srcfile(sourcelocproto::SourceLoc const*)
PUBLIC 91040 0 sourcelocproto::SourceLoc::_InternalSerialize(unsigned char*, google::protobuf::io::EpsCopyOutputStream*) const
PUBLIC 913f0 0 sourcelocproto::SourceLoc::SourceLoc(google::protobuf::Arena*)
PUBLIC 91440 0 InitDefaultsscc_info_SourceLoc_sourcelocdb_2eproto()
PUBLIC 91480 0 sourcelocproto::SourceLoc::ArenaDtor(void*)
PUBLIC 91490 0 sourcelocproto::SourceLoc::default_instance()
PUBLIC 914c0 0 sourcelocproto::SourceLoc_SourceFile* google::protobuf::Arena::CreateMaybeMessage<sourcelocproto::SourceLoc_SourceFile>(google::protobuf::Arena*)
PUBLIC 91540 0 sourcelocproto::SourceLoc* google::protobuf::Arena::CreateMaybeMessage<sourcelocproto::SourceLoc>(google::protobuf::Arena*)
PUBLIC 915c0 0 sourcelocproto::SourceLoc::Clear()
PUBLIC 91640 0 sourcelocproto::SourceLoc_SourceFile::InternalSwap(sourcelocproto::SourceLoc_SourceFile*)
PUBLIC 91770 0 sourcelocproto::SourceLoc_SourceFile::_InternalParse(char const*, google::protobuf::internal::ParseContext*)
PUBLIC 919d0 0 sourcelocproto::SourceLoc::_InternalParse(char const*, google::protobuf::internal::ParseContext*)
PUBLIC 91d90 0 sourcelocproto::SourceLoc::InternalSwap(sourcelocproto::SourceLoc*)
PUBLIC 91e50 0 sourcelocproto::SourceLoc_SourceFile::Clear()
PUBLIC 91ea0 0 sourcelocproto::SourceLoc_SourceFile::SourceLoc_SourceFile(sourcelocproto::SourceLoc_SourceFile const&)
PUBLIC 91f70 0 sourcelocproto::SourceLoc::SourceLoc(sourcelocproto::SourceLoc const&)
PUBLIC 92050 0 sourcelocproto::SourceLoc_SourceFile::MergeFrom(sourcelocproto::SourceLoc_SourceFile const&)
PUBLIC 921a0 0 sourcelocproto::SourceLoc_SourceFile::MergeFrom(google::protobuf::Message const&)
PUBLIC 92280 0 sourcelocproto::SourceLoc_SourceFile::CopyFrom(google::protobuf::Message const&)
PUBLIC 922c0 0 sourcelocproto::SourceLoc_SourceFile::CopyFrom(sourcelocproto::SourceLoc_SourceFile const&)
PUBLIC 92300 0 sourcelocproto::SourceLoc::MergeFrom(sourcelocproto::SourceLoc const&)
PUBLIC 92470 0 sourcelocproto::SourceLoc::MergeFrom(google::protobuf::Message const&)
PUBLIC 92550 0 sourcelocproto::SourceLoc::CopyFrom(google::protobuf::Message const&)
PUBLIC 92590 0 sourcelocproto::SourceLoc::CopyFrom(sourcelocproto::SourceLoc const&)
PUBLIC 925d0 0 sourcelocproto::SourceLoc_SourceFile::GetCachedSize() const
PUBLIC 925e0 0 sourcelocproto::SourceLoc::GetCachedSize() const
PUBLIC 925f0 0 sourcelocproto::SourceLoc_SourceFile::New(google::protobuf::Arena*) const
PUBLIC 92600 0 sourcelocproto::SourceLoc_SourceFile::New() const
PUBLIC 92610 0 sourcelocproto::SourceLoc::New(google::protobuf::Arena*) const
PUBLIC 92620 0 sourcelocproto::SourceLoc::New() const
PUBLIC 92630 0 char const* google::protobuf::internal::ParseContext::ParseMessage<sourcelocproto::SourceLoc_SourceFile>(sourcelocproto::SourceLoc_SourceFile*, char const*)
PUBLIC 92780 0 msieproto::ModuleItemPartition::IsInitialized() const
PUBLIC 92790 0 msieproto::Partition::SetCachedSize(int) const
PUBLIC 927a0 0 msieproto::ModuleItemPartition::SetCachedSize(int) const
PUBLIC 927b0 0 msieproto::StitchPoint::SetCachedSize(int) const
PUBLIC 927c0 0 msieproto::TopInstance::SetCachedSize(int) const
PUBLIC 927d0 0 msieproto::OoprExtern::SetCachedSize(int) const
PUBLIC 927e0 0 msieproto::OoprTarget::SetCachedSize(int) const
PUBLIC 927f0 0 msieproto::Partition::ByteSizeLong() const
PUBLIC 92920 0 msieproto::ModuleItemPartition::ByteSizeLong() const
PUBLIC 92a20 0 msieproto::TopInstance::ByteSizeLong() const
PUBLIC 92a70 0 msieproto::OoprExtern::ByteSizeLong() const
PUBLIC 92b40 0 msieproto::OoprTarget::ByteSizeLong() const
PUBLIC 92be0 0 msieproto::Partition::GetMetadata() const
PUBLIC 92c00 0 msieproto::ModuleItemPartition::GetMetadata() const
PUBLIC 92c20 0 msieproto::StitchPoint::GetMetadata() const
PUBLIC 92c40 0 msieproto::TopInstance::GetMetadata() const
PUBLIC 92c60 0 msieproto::OoprExtern::GetMetadata() const
PUBLIC 92c80 0 msieproto::OoprTarget::GetMetadata() const
PUBLIC 92ca0 0 msieproto::TopInstance::~TopInstance()
PUBLIC 92da0 0 msieproto::TopInstance::~TopInstance()
PUBLIC 92dc0 0 msieproto::OoprExtern::~OoprExtern()
PUBLIC 92f20 0 msieproto::OoprExtern::~OoprExtern()
PUBLIC 92f40 0 msieproto::Partition::~Partition()
PUBLIC 93160 0 msieproto::Partition::~Partition()
PUBLIC 93180 0 msieproto::ModuleItemPartition::~ModuleItemPartition()
PUBLIC 93340 0 msieproto::ModuleItemPartition::~ModuleItemPartition()
PUBLIC 93360 0 msieproto::OoprTarget::~OoprTarget()
PUBLIC 934c0 0 msieproto::OoprTarget::~OoprTarget()
PUBLIC 934e0 0 msieproto::TopInstance::_InternalSerialize(unsigned char*, google::protobuf::io::EpsCopyOutputStream*) const
PUBLIC 935b0 0 msieproto::OoprTarget::_InternalSerialize(unsigned char*, google::protobuf::io::EpsCopyOutputStream*) const
PUBLIC 937e0 0 msieproto::OoprExtern::_InternalSerialize(unsigned char*, google::protobuf::io::EpsCopyOutputStream*) const
PUBLIC 93b70 0 msieproto::ModuleItemPartition::_InternalSerialize(unsigned char*, google::protobuf::io::EpsCopyOutputStream*) const
PUBLIC 93f60 0 msieproto::Partition::_InternalSerialize(unsigned char*, google::protobuf::io::EpsCopyOutputStream*) const
PUBLIC 943d0 0 msieproto::Partition::InitAsDefaultInstance()
PUBLIC 943e0 0 msieproto::Partition::Partition(google::protobuf::Arena*)
PUBLIC 94440 0 InitDefaultsscc_info_Partition_msiedb_2eproto()
PUBLIC 94480 0 msieproto::Partition::ArenaDtor(void*)
PUBLIC 94490 0 msieproto::Partition::default_instance()
PUBLIC 944c0 0 msieproto::ModuleItemPartition::InitAsDefaultInstance()
PUBLIC 944d0 0 msieproto::ModuleItemPartition::ModuleItemPartition(google::protobuf::Arena*)
PUBLIC 94530 0 InitDefaultsscc_info_ModuleItemPartition_msiedb_2eproto()
PUBLIC 94570 0 msieproto::ModuleItemPartition::ArenaDtor(void*)
PUBLIC 94580 0 msieproto::ModuleItemPartition::default_instance()
PUBLIC 945b0 0 msieproto::StitchPoint::InitAsDefaultInstance()
PUBLIC 945d0 0 msieproto::StitchPoint::_Internal::instancesrcloc(msieproto::StitchPoint const*)
PUBLIC 945e0 0 msieproto::StitchPoint::StitchPoint(google::protobuf::Arena*)
PUBLIC 94640 0 InitDefaultsscc_info_StitchPoint_msiedb_2eproto()
PUBLIC 94680 0 msieproto::StitchPoint::ArenaDtor(void*)
PUBLIC 94690 0 msieproto::StitchPoint::default_instance()
PUBLIC 946c0 0 msieproto::TopInstance::InitAsDefaultInstance()
PUBLIC 946d0 0 msieproto::TopInstance::TopInstance(google::protobuf::Arena*)
PUBLIC 946f0 0 InitDefaultsscc_info_TopInstance_msiedb_2eproto()
PUBLIC 94730 0 msieproto::TopInstance::ArenaDtor(void*)
PUBLIC 94740 0 msieproto::TopInstance::default_instance()
PUBLIC 94770 0 msieproto::OoprExtern::InitAsDefaultInstance()
PUBLIC 94780 0 msieproto::OoprExtern::OoprExtern(google::protobuf::Arena*)
PUBLIC 947e0 0 InitDefaultsscc_info_OoprExtern_msiedb_2eproto()
PUBLIC 94820 0 msieproto::OoprExtern::ArenaDtor(void*)
PUBLIC 94830 0 msieproto::OoprExtern::default_instance()
PUBLIC 94860 0 msieproto::OoprTarget::InitAsDefaultInstance()
PUBLIC 94870 0 msieproto::OoprTarget::OoprTarget(google::protobuf::Arena*)
PUBLIC 948c0 0 InitDefaultsscc_info_OoprTarget_msiedb_2eproto()
PUBLIC 94900 0 msieproto::OoprTarget::ArenaDtor(void*)
PUBLIC 94910 0 msieproto::OoprTarget::default_instance()
PUBLIC 94940 0 msieproto::Partition* google::protobuf::Arena::CreateMaybeMessage<msieproto::Partition>(google::protobuf::Arena*)
PUBLIC 949c0 0 msieproto::ModuleItemPartition* google::protobuf::Arena::CreateMaybeMessage<msieproto::ModuleItemPartition>(google::protobuf::Arena*)
PUBLIC 94a40 0 msieproto::StitchPoint* google::protobuf::Arena::CreateMaybeMessage<msieproto::StitchPoint>(google::protobuf::Arena*)
PUBLIC 94ac0 0 msieproto::TopInstance* google::protobuf::Arena::CreateMaybeMessage<msieproto::TopInstance>(google::protobuf::Arena*)
PUBLIC 94b40 0 msieproto::OoprExtern* google::protobuf::Arena::CreateMaybeMessage<msieproto::OoprExtern>(google::protobuf::Arena*)
PUBLIC 94bc0 0 msieproto::OoprTarget* google::protobuf::Arena::CreateMaybeMessage<msieproto::OoprTarget>(google::protobuf::Arena*)
PUBLIC 94c40 0 msieproto::TopInstance::_InternalParse(char const*, google::protobuf::internal::ParseContext*)
PUBLIC 94e60 0 msieproto::Partition::Partition(msieproto::Partition const&)
PUBLIC 950b0 0 msieproto::Partition::Clear()
PUBLIC 95170 0 msieproto::Partition::InternalSwap(msieproto::Partition*)
PUBLIC 95560 0 msieproto::Partition::_InternalParse(char const*, google::protobuf::internal::ParseContext*)
PUBLIC 95b80 0 msieproto::ModuleItemPartition::_InternalParse(char const*, google::protobuf::internal::ParseContext*)
PUBLIC 960e0 0 msieproto::OoprExtern::_InternalParse(char const*, google::protobuf::internal::ParseContext*)
PUBLIC 96590 0 msieproto::OoprTarget::_InternalParse(char const*, google::protobuf::internal::ParseContext*)
PUBLIC 96960 0 msieproto::TopInstance::Clear()
PUBLIC 96990 0 msieproto::TopInstance::InternalSwap(msieproto::TopInstance*)
PUBLIC 96a40 0 msieproto::OoprTarget::Clear()
PUBLIC 96ab0 0 msieproto::OoprExtern::Clear()
PUBLIC 96b20 0 msieproto::OoprTarget::InternalSwap(msieproto::OoprTarget*)
PUBLIC 96cd0 0 msieproto::TopInstance::TopInstance(msieproto::TopInstance const&)
PUBLIC 96d60 0 msieproto::OoprExtern::InternalSwap(msieproto::OoprExtern*)
PUBLIC 96f20 0 msieproto::StitchPoint::InternalSwap(msieproto::StitchPoint*)
PUBLIC 97170 0 msieproto::ModuleItemPartition::Clear()
PUBLIC 97210 0 msieproto::ModuleItemPartition::InternalSwap(msieproto::ModuleItemPartition*)
PUBLIC 974e0 0 msieproto::TopInstance::MergeFrom(msieproto::TopInstance const&)
PUBLIC 975d0 0 msieproto::TopInstance::CopyFrom(msieproto::TopInstance const&)
PUBLIC 97610 0 msieproto::TopInstance::MergeFrom(google::protobuf::Message const&)
PUBLIC 976f0 0 msieproto::TopInstance::CopyFrom(google::protobuf::Message const&)
PUBLIC 97730 0 msieproto::OoprTarget::OoprTarget(msieproto::OoprTarget const&)
PUBLIC 97850 0 msieproto::OoprExtern::OoprExtern(msieproto::OoprExtern const&)
PUBLIC 97970 0 msieproto::OoprTarget::MergeFrom(msieproto::OoprTarget const&)
PUBLIC 97b30 0 msieproto::OoprTarget::MergeFrom(google::protobuf::Message const&)
PUBLIC 97c10 0 msieproto::OoprTarget::CopyFrom(google::protobuf::Message const&)
PUBLIC 97c50 0 msieproto::OoprTarget::CopyFrom(msieproto::OoprTarget const&)
PUBLIC 97c90 0 msieproto::OoprExtern::MergeFrom(msieproto::OoprExtern const&)
PUBLIC 97e60 0 msieproto::OoprExtern::MergeFrom(google::protobuf::Message const&)
PUBLIC 97f40 0 msieproto::OoprExtern::CopyFrom(google::protobuf::Message const&)
PUBLIC 97f80 0 msieproto::OoprExtern::CopyFrom(msieproto::OoprExtern const&)
PUBLIC 97fc0 0 msieproto::ModuleItemPartition::MergeFrom(msieproto::ModuleItemPartition const&)
PUBLIC 98260 0 msieproto::ModuleItemPartition::MergeFrom(google::protobuf::Message const&)
PUBLIC 98340 0 msieproto::ModuleItemPartition::CopyFrom(google::protobuf::Message const&)
PUBLIC 98380 0 msieproto::ModuleItemPartition::CopyFrom(msieproto::ModuleItemPartition const&)
PUBLIC 983c0 0 msieproto::ModuleItemPartition::ModuleItemPartition(msieproto::ModuleItemPartition const&)
PUBLIC 98560 0 msieproto::StitchPoint::MergeFrom(msieproto::StitchPoint const&)
PUBLIC 98810 0 msieproto::StitchPoint::MergeFrom(google::protobuf::Message const&)
PUBLIC 988f0 0 msieproto::StitchPoint::StitchPoint(msieproto::StitchPoint const&)
PUBLIC 98a90 0 msieproto::Partition::MergeFrom(msieproto::Partition const&)
PUBLIC 98e10 0 msieproto::Partition::MergeFrom(google::protobuf::Message const&)
PUBLIC 98ef0 0 msieproto::Partition::CopyFrom(google::protobuf::Message const&)
PUBLIC 98f30 0 msieproto::Partition::CopyFrom(msieproto::Partition const&)
PUBLIC 98f70 0 msieproto::StitchPoint::clear_instancesrcloc()
PUBLIC 98fc0 0 msieproto::StitchPoint::~StitchPoint()
PUBLIC 99160 0 msieproto::StitchPoint::~StitchPoint()
PUBLIC 99180 0 msieproto::StitchPoint::Clear()
PUBLIC 99250 0 msieproto::StitchPoint::CopyFrom(google::protobuf::Message const&)
PUBLIC 99290 0 msieproto::StitchPoint::CopyFrom(msieproto::StitchPoint const&)
PUBLIC 992d0 0 msieproto::StitchPoint::_InternalParse(char const*, google::protobuf::internal::ParseContext*)
PUBLIC 99810 0 msieproto::StitchPoint::_InternalSerialize(unsigned char*, google::protobuf::io::EpsCopyOutputStream*) const
PUBLIC 99c30 0 msieproto::StitchPoint::ByteSizeLong() const
PUBLIC 99d50 0 msieproto::OoprTarget::GetCachedSize() const
PUBLIC 99d60 0 msieproto::OoprExtern::GetCachedSize() const
PUBLIC 99d70 0 msieproto::TopInstance::GetCachedSize() const
PUBLIC 99d80 0 msieproto::StitchPoint::GetCachedSize() const
PUBLIC 99d90 0 msieproto::ModuleItemPartition::GetCachedSize() const
PUBLIC 99da0 0 msieproto::Partition::GetCachedSize() const
PUBLIC 99db0 0 msieproto::Partition::New(google::protobuf::Arena*) const
PUBLIC 99dc0 0 msieproto::Partition::New() const
PUBLIC 99dd0 0 msieproto::ModuleItemPartition::New(google::protobuf::Arena*) const
PUBLIC 99de0 0 msieproto::ModuleItemPartition::New() const
PUBLIC 99df0 0 msieproto::StitchPoint::New(google::protobuf::Arena*) const
PUBLIC 99e00 0 msieproto::StitchPoint::New() const
PUBLIC 99e10 0 msieproto::TopInstance::New(google::protobuf::Arena*) const
PUBLIC 99e20 0 msieproto::TopInstance::New() const
PUBLIC 99e30 0 msieproto::OoprExtern::New(google::protobuf::Arena*) const
PUBLIC 99e40 0 msieproto::OoprExtern::New() const
PUBLIC 99e50 0 msieproto::OoprTarget::New(google::protobuf::Arena*) const
PUBLIC 99e60 0 msieproto::OoprTarget::New() const
PUBLIC 99e70 0 char const* google::protobuf::internal::ParseContext::ParseMessage<sourcelocproto::SourceLoc>(sourcelocproto::SourceLoc*, char const*)
PUBLIC 99fc0 0 common::ByteStream::IsInitialized() const
PUBLIC 99fd0 0 common::ByteStream::SetCachedSize(int) const
PUBLIC 99fe0 0 common::ByteStream::ByteSizeLong() const
PUBLIC 9a050 0 common::ByteStream::GetMetadata() const [clone .localalias]
PUBLIC 9a070 0 common::ByteStream::_InternalSerialize(unsigned char*, google::protobuf::io::EpsCopyOutputStream*) const
PUBLIC 9a1c0 0 common::ByteStream::~ByteStream()
PUBLIC 9a2f0 0 common::ByteStream::~ByteStream()
PUBLIC 9a310 0 common::ByteStream::InitAsDefaultInstance()
PUBLIC 9a320 0 common::ByteStream::ByteStream(google::protobuf::Arena*)
PUBLIC 9a370 0 InitDefaultsscc_info_ByteStream_common_2eproto()
PUBLIC 9a3b0 0 common::ByteStream::ArenaDtor(void*)
PUBLIC 9a3c0 0 common::ByteStream::default_instance()
PUBLIC 9a3f0 0 common::ByteStream* google::protobuf::Arena::CreateMaybeMessage<common::ByteStream>(google::protobuf::Arena*)
PUBLIC 9a470 0 common::ByteStream::MergeFrom(common::ByteStream const&)
PUBLIC 9a5d0 0 common::ByteStream::MergeFrom(google::protobuf::Message const&)
PUBLIC 9a6e0 0 common::ByteStream::Clear()
PUBLIC 9a730 0 common::ByteStream::CopyFrom(google::protobuf::Message const&)
PUBLIC 9a770 0 common::ByteStream::CopyFrom(common::ByteStream const&)
PUBLIC 9a7b0 0 common::ByteStream::InternalSwap(common::ByteStream*)
PUBLIC 9a8e0 0 common::ByteStream::_InternalParse(char const*, google::protobuf::internal::ParseContext*)
PUBLIC 9ab90 0 common::ByteStream::ByteStream(common::ByteStream const&)
PUBLIC 9ac70 0 common::ByteStream::GetCachedSize() const
PUBLIC 9ac80 0 common::ByteStream::New(google::protobuf::Arena*) const
PUBLIC 9ac90 0 common::ByteStream::New() const
PUBLIC 9aca0 0 typeinfoproto::Enum_LabelInfo::IsInitialized() const
PUBLIC 9acb0 0 typeinfoproto::TypeInfoTree::GetMetadata() const
PUBLIC 9acd0 0 typeinfoproto::Enum_LabelInfo::GetMetadata() const
PUBLIC 9acf0 0 typeinfoproto::Enum::GetMetadata() const
PUBLIC 9ad10 0 typeinfoproto::DimensionInfo::GetMetadata() const
PUBLIC 9ad30 0 typeinfoproto::PredefinedType::GetMetadata() const
PUBLIC 9ad50 0 typeinfoproto::QDAArray::GetMetadata() const
PUBLIC 9ad70 0 typeinfoproto::ClassHandle::GetMetadata() const
PUBLIC 9ad90 0 typeinfoproto::VirtualInterface::GetMetadata() const
PUBLIC 9adb0 0 typeinfoproto::StaticArray::GetMetadata() const
PUBLIC 9ade0 0 typeinfoproto::Struct::GetMetadata() const
PUBLIC 9ae10 0 typeinfoproto::Field::GetMetadata() const
PUBLIC 9ae40 0 typeinfoproto::Union::GetMetadata() const
PUBLIC 9ae70 0 typeinfoproto::MultiDimensionArray::GetMetadata() const
PUBLIC 9aea0 0 typeinfoproto::Close::GetMetadata() const
PUBLIC 9aed0 0 typeinfoproto::TypeInfoTree::SetCachedSize(int) const
PUBLIC 9aee0 0 typeinfoproto::Enum_LabelInfo::SetCachedSize(int) const
PUBLIC 9aef0 0 typeinfoproto::Enum::SetCachedSize(int) const
PUBLIC 9af00 0 typeinfoproto::DimensionInfo::SetCachedSize(int) const
PUBLIC 9af10 0 typeinfoproto::PredefinedType::SetCachedSize(int) const
PUBLIC 9af20 0 typeinfoproto::QDAArray::SetCachedSize(int) const
PUBLIC 9af30 0 typeinfoproto::ClassHandle::SetCachedSize(int) const
PUBLIC 9af40 0 typeinfoproto::VirtualInterface::SetCachedSize(int) const
PUBLIC 9af50 0 typeinfoproto::StaticArray::SetCachedSize(int) const
PUBLIC 9af60 0 typeinfoproto::Struct::SetCachedSize(int) const
PUBLIC 9af70 0 typeinfoproto::Field::SetCachedSize(int) const
PUBLIC 9af80 0 typeinfoproto::Union::SetCachedSize(int) const
PUBLIC 9af90 0 typeinfoproto::MultiDimensionArray::SetCachedSize(int) const
PUBLIC 9afa0 0 typeinfoproto::Close::SetCachedSize(int) const
PUBLIC 9afb0 0 typeinfoproto::DimensionInfo::ByteSizeLong() const
PUBLIC 9b050 0 typeinfoproto::PredefinedType::ByteSizeLong() const
PUBLIC 9b0f0 0 typeinfoproto::QDAArray::ByteSizeLong() const
PUBLIC 9b1d0 0 typeinfoproto::ClassHandle::ByteSizeLong() const
PUBLIC 9b2b0 0 typeinfoproto::VirtualInterface::ByteSizeLong() const
PUBLIC 9b320 0 typeinfoproto::Field::ByteSizeLong() const
PUBLIC 9b3a0 0 typeinfoproto::StaticArray::ByteSizeLong() const
PUBLIC 9b480 0 typeinfoproto::Struct::ByteSizeLong() const
PUBLIC 9b540 0 typeinfoproto::Union::ByteSizeLong() const
PUBLIC 9b600 0 typeinfoproto::MultiDimensionArray::ByteSizeLong() const
PUBLIC 9b700 0 typeinfoproto::TypeInfoTree::ByteSizeLong() const
PUBLIC 9b730 0 typeinfoproto::Close::ByteSizeLong() const
PUBLIC 9b760 0 typeinfoproto::Close::_InternalSerialize(unsigned char*, google::protobuf::io::EpsCopyOutputStream*) const
PUBLIC 9b780 0 typeinfoproto::TypeInfoTree::_InternalSerialize(unsigned char*, google::protobuf::io::EpsCopyOutputStream*) const
PUBLIC 9b7a0 0 typeinfoproto::VirtualInterface::_InternalSerialize(unsigned char*, google::protobuf::io::EpsCopyOutputStream*) const
PUBLIC 9b930 0 typeinfoproto::DimensionInfo::_InternalSerialize(unsigned char*, google::protobuf::io::EpsCopyOutputStream*) const
PUBLIC 9bb30 0 typeinfoproto::QDAArray::~QDAArray()
PUBLIC 9bc60 0 typeinfoproto::QDAArray::~QDAArray()
PUBLIC 9bc80 0 typeinfoproto::DimensionInfo::~DimensionInfo()
PUBLIC 9bd80 0 typeinfoproto::DimensionInfo::~DimensionInfo()
PUBLIC 9bda0 0 typeinfoproto::Struct::~Struct()
PUBLIC 9bee0 0 typeinfoproto::Struct::~Struct()
PUBLIC 9bf00 0 typeinfoproto::VirtualInterface::~VirtualInterface()
PUBLIC 9c000 0 typeinfoproto::VirtualInterface::~VirtualInterface()
PUBLIC 9c020 0 typeinfoproto::TypeInfoTree::~TypeInfoTree()
PUBLIC 9c120 0 typeinfoproto::TypeInfoTree::~TypeInfoTree()
PUBLIC 9c140 0 typeinfoproto::Field::~Field()
PUBLIC 9c270 0 typeinfoproto::Field::~Field()
PUBLIC 9c290 0 typeinfoproto::Close::~Close()
PUBLIC 9c390 0 typeinfoproto::Close::~Close()
PUBLIC 9c3b0 0 typeinfoproto::PredefinedType::~PredefinedType()
PUBLIC 9c4e0 0 typeinfoproto::PredefinedType::~PredefinedType()
PUBLIC 9c500 0 typeinfoproto::Union::~Union()
PUBLIC 9c640 0 typeinfoproto::Union::~Union()
PUBLIC 9c660 0 typeinfoproto::StaticArray::~StaticArray()
PUBLIC 9c7a0 0 typeinfoproto::StaticArray::~StaticArray()
PUBLIC 9c7c0 0 typeinfoproto::ClassHandle::~ClassHandle()
PUBLIC 9c8f0 0 typeinfoproto::ClassHandle::~ClassHandle()
PUBLIC 9c910 0 typeinfoproto::MultiDimensionArray::~MultiDimensionArray()
PUBLIC 9cae0 0 typeinfoproto::MultiDimensionArray::~MultiDimensionArray()
PUBLIC 9cb00 0 typeinfoproto::ClassHandle::_InternalSerialize(unsigned char*, google::protobuf::io::EpsCopyOutputStream*) const
PUBLIC 9cea0 0 typeinfoproto::Field::_InternalSerialize(unsigned char*, google::protobuf::io::EpsCopyOutputStream*) const
PUBLIC 9d050 0 typeinfoproto::QDAArray::_InternalSerialize(unsigned char*, google::protobuf::io::EpsCopyOutputStream*) const
PUBLIC 9d360 0 typeinfoproto::PredefinedType::_InternalSerialize(unsigned char*, google::protobuf::io::EpsCopyOutputStream*) const
PUBLIC 9d5c0 0 typeinfoproto::MultiDimensionArray::_InternalSerialize(unsigned char*, google::protobuf::io::EpsCopyOutputStream*) const
PUBLIC 9d950 0 typeinfoproto::TypeInfoTree_Type_descriptor()
PUBLIC 9d970 0 typeinfoproto::TypeInfoTree_Type_IsValid(int)
PUBLIC 9d980 0 typeinfoproto::PredefinedType_Type_descriptor()
PUBLIC 9d9a0 0 typeinfoproto::PredefinedType_Type_IsValid(int)
PUBLIC 9d9b0 0 typeinfoproto::QDAArray_Type_descriptor()
PUBLIC 9d9d0 0 typeinfoproto::QDAArray_Type_IsValid(int)
PUBLIC 9d9e0 0 typeinfoproto::ClassHandle_Type_descriptor()
PUBLIC 9da00 0 typeinfoproto::ClassHandle_Type_IsValid(int)
PUBLIC 9da10 0 typeinfoproto::TypeInfoTree::InitAsDefaultInstance()
PUBLIC 9da20 0 typeinfoproto::TypeInfoTree::TypeInfoTree(google::protobuf::Arena*)
PUBLIC 9da40 0 InitDefaultsscc_info_TypeInfoTree_typeinfo_2eproto()
PUBLIC 9da80 0 typeinfoproto::TypeInfoTree::ArenaDtor(void*)
PUBLIC 9da90 0 typeinfoproto::TypeInfoTree::default_instance()
PUBLIC 9dac0 0 typeinfoproto::Enum_LabelInfo::InitAsDefaultInstance()
PUBLIC 9dae0 0 typeinfoproto::Enum_LabelInfo::_Internal::value(typeinfoproto::Enum_LabelInfo const*)
PUBLIC 9daf0 0 typeinfoproto::Enum_LabelInfo::Enum_LabelInfo(google::protobuf::Arena*)
PUBLIC 9db40 0 InitDefaultsscc_info_Enum_LabelInfo_typeinfo_2eproto()
PUBLIC 9db80 0 typeinfoproto::Enum_LabelInfo::ArenaDtor(void*)
PUBLIC 9db90 0 typeinfoproto::Enum_LabelInfo::default_instance()
PUBLIC 9dbc0 0 typeinfoproto::Enum::InitAsDefaultInstance()
PUBLIC 9dbd0 0 typeinfoproto::Enum::ArenaDtor(void*)
PUBLIC 9dbe0 0 typeinfoproto::Enum::default_instance()
PUBLIC 9dc10 0 typeinfoproto::DimensionInfo::InitAsDefaultInstance()
PUBLIC 9dc20 0 typeinfoproto::DimensionInfo::DimensionInfo(google::protobuf::Arena*)
PUBLIC 9dc50 0 InitDefaultsscc_info_DimensionInfo_typeinfo_2eproto()
PUBLIC 9dc90 0 typeinfoproto::DimensionInfo::ArenaDtor(void*)
PUBLIC 9dca0 0 typeinfoproto::DimensionInfo::default_instance()
PUBLIC 9dcd0 0 typeinfoproto::PredefinedType::InitAsDefaultInstance()
PUBLIC 9dce0 0 typeinfoproto::PredefinedType::PredefinedType(google::protobuf::Arena*)
PUBLIC 9dd40 0 InitDefaultsscc_info_PredefinedType_typeinfo_2eproto()
PUBLIC 9dd80 0 typeinfoproto::PredefinedType::ArenaDtor(void*)
PUBLIC 9dd90 0 typeinfoproto::PredefinedType::default_instance()
PUBLIC 9ddc0 0 typeinfoproto::QDAArray::InitAsDefaultInstance()
PUBLIC 9ddd0 0 typeinfoproto::QDAArray::QDAArray(google::protobuf::Arena*)
PUBLIC 9de30 0 InitDefaultsscc_info_QDAArray_typeinfo_2eproto()
PUBLIC 9de70 0 typeinfoproto::QDAArray::ArenaDtor(void*)
PUBLIC 9de80 0 typeinfoproto::QDAArray::default_instance()
PUBLIC 9deb0 0 typeinfoproto::ClassHandle::InitAsDefaultInstance()
PUBLIC 9dec0 0 typeinfoproto::ClassHandle::ClassHandle(google::protobuf::Arena*)
PUBLIC 9df10 0 InitDefaultsscc_info_ClassHandle_typeinfo_2eproto()
PUBLIC 9df50 0 typeinfoproto::ClassHandle::ArenaDtor(void*)
PUBLIC 9df60 0 typeinfoproto::ClassHandle::default_instance()
PUBLIC 9df90 0 typeinfoproto::VirtualInterface::InitAsDefaultInstance()
PUBLIC 9dfa0 0 typeinfoproto::VirtualInterface::VirtualInterface(google::protobuf::Arena*)
PUBLIC 9dfd0 0 InitDefaultsscc_info_VirtualInterface_typeinfo_2eproto()
PUBLIC 9e010 0 typeinfoproto::VirtualInterface::ArenaDtor(void*)
PUBLIC 9e020 0 typeinfoproto::VirtualInterface::default_instance()
PUBLIC 9e050 0 typeinfoproto::StaticArray::InitAsDefaultInstance()
PUBLIC 9e070 0 typeinfoproto::StaticArray::_Internal::dimensions(typeinfoproto::StaticArray const*)
PUBLIC 9e080 0 typeinfoproto::StaticArray::_InternalSerialize(unsigned char*, google::protobuf::io::EpsCopyOutputStream*) const
PUBLIC 9e350 0 typeinfoproto::StaticArray::StaticArray(google::protobuf::Arena*)
PUBLIC 9e3b0 0 InitDefaultsscc_info_StaticArray_typeinfo_2eproto()
PUBLIC 9e3f0 0 typeinfoproto::StaticArray::ArenaDtor(void*)
PUBLIC 9e400 0 typeinfoproto::StaticArray::default_instance()
PUBLIC 9e430 0 typeinfoproto::Struct::InitAsDefaultInstance()
PUBLIC 9e450 0 typeinfoproto::Struct::_Internal::dimensions(typeinfoproto::Struct const*)
PUBLIC 9e460 0 typeinfoproto::Struct::_InternalSerialize(unsigned char*, google::protobuf::io::EpsCopyOutputStream*) const
PUBLIC 9e700 0 typeinfoproto::Struct::Struct(google::protobuf::Arena*)
PUBLIC 9e760 0 InitDefaultsscc_info_Struct_typeinfo_2eproto()
PUBLIC 9e7a0 0 typeinfoproto::Struct::ArenaDtor(void*)
PUBLIC 9e7b0 0 typeinfoproto::Struct::default_instance()
PUBLIC 9e7e0 0 typeinfoproto::Field::InitAsDefaultInstance()
PUBLIC 9e7f0 0 typeinfoproto::Field::Field(google::protobuf::Arena*)
PUBLIC 9e840 0 InitDefaultsscc_info_Field_typeinfo_2eproto()
PUBLIC 9e880 0 typeinfoproto::Field::ArenaDtor(void*)
PUBLIC 9e890 0 typeinfoproto::Field::default_instance()
PUBLIC 9e8c0 0 typeinfoproto::Union::InitAsDefaultInstance()
PUBLIC 9e8e0 0 typeinfoproto::Union::_Internal::dimensions(typeinfoproto::Union const*)
PUBLIC 9e8f0 0 typeinfoproto::Union::_InternalSerialize(unsigned char*, google::protobuf::io::EpsCopyOutputStream*) const
PUBLIC 9eb90 0 typeinfoproto::Union::Union(google::protobuf::Arena*)
PUBLIC 9ebf0 0 InitDefaultsscc_info_Union_typeinfo_2eproto()
PUBLIC 9ec30 0 typeinfoproto::Union::ArenaDtor(void*)
PUBLIC 9ec40 0 typeinfoproto::Union::default_instance()
PUBLIC 9ec70 0 typeinfoproto::MultiDimensionArray::InitAsDefaultInstance()
PUBLIC 9ec80 0 typeinfoproto::MultiDimensionArray::ArenaDtor(void*)
PUBLIC 9ec90 0 typeinfoproto::MultiDimensionArray::default_instance()
PUBLIC 9ecc0 0 typeinfoproto::Close::InitAsDefaultInstance()
PUBLIC 9ecd0 0 typeinfoproto::Close::Close(google::protobuf::Arena*)
PUBLIC 9ecf0 0 InitDefaultsscc_info_Close_typeinfo_2eproto()
PUBLIC 9ed30 0 typeinfoproto::Close::ArenaDtor(void*)
PUBLIC 9ed40 0 typeinfoproto::Close::default_instance()
PUBLIC 9ed70 0 typeinfoproto::TypeInfoTree* google::protobuf::Arena::CreateMaybeMessage<typeinfoproto::TypeInfoTree>(google::protobuf::Arena*)
PUBLIC 9edf0 0 typeinfoproto::Enum_LabelInfo* google::protobuf::Arena::CreateMaybeMessage<typeinfoproto::Enum_LabelInfo>(google::protobuf::Arena*)
PUBLIC 9ee70 0 typeinfoproto::DimensionInfo* google::protobuf::Arena::CreateMaybeMessage<typeinfoproto::DimensionInfo>(google::protobuf::Arena*)
PUBLIC 9eef0 0 typeinfoproto::PredefinedType* google::protobuf::Arena::CreateMaybeMessage<typeinfoproto::PredefinedType>(google::protobuf::Arena*)
PUBLIC 9ef70 0 typeinfoproto::QDAArray* google::protobuf::Arena::CreateMaybeMessage<typeinfoproto::QDAArray>(google::protobuf::Arena*)
PUBLIC 9eff0 0 typeinfoproto::ClassHandle* google::protobuf::Arena::CreateMaybeMessage<typeinfoproto::ClassHandle>(google::protobuf::Arena*)
PUBLIC 9f070 0 typeinfoproto::VirtualInterface* google::protobuf::Arena::CreateMaybeMessage<typeinfoproto::VirtualInterface>(google::protobuf::Arena*)
PUBLIC 9f0f0 0 typeinfoproto::StaticArray* google::protobuf::Arena::CreateMaybeMessage<typeinfoproto::StaticArray>(google::protobuf::Arena*)
PUBLIC 9f170 0 typeinfoproto::Struct* google::protobuf::Arena::CreateMaybeMessage<typeinfoproto::Struct>(google::protobuf::Arena*)
PUBLIC 9f1f0 0 typeinfoproto::Field* google::protobuf::Arena::CreateMaybeMessage<typeinfoproto::Field>(google::protobuf::Arena*)
PUBLIC 9f270 0 typeinfoproto::Union* google::protobuf::Arena::CreateMaybeMessage<typeinfoproto::Union>(google::protobuf::Arena*)
PUBLIC 9f2f0 0 typeinfoproto::Close* google::protobuf::Arena::CreateMaybeMessage<typeinfoproto::Close>(google::protobuf::Arena*)
PUBLIC 9f370 0 typeinfoproto::MultiDimensionArray::MultiDimensionArray(google::protobuf::Arena*)
PUBLIC 9f3f0 0 InitDefaultsscc_info_MultiDimensionArray_typeinfo_2eproto()
PUBLIC 9f430 0 typeinfoproto::MultiDimensionArray* google::protobuf::Arena::CreateMaybeMessage<typeinfoproto::MultiDimensionArray>(google::protobuf::Arena*)
PUBLIC 9f4b0 0 typeinfoproto::TypeInfoTree::_InternalParse(char const*, google::protobuf::internal::ParseContext*)
PUBLIC 9f670 0 typeinfoproto::DimensionInfo::_InternalParse(char const*, google::protobuf::internal::ParseContext*)
PUBLIC 9f9f0 0 typeinfoproto::VirtualInterface::_InternalParse(char const*, google::protobuf::internal::ParseContext*)
PUBLIC 9fc90 0 typeinfoproto::Close::_InternalParse(char const*, google::protobuf::internal::ParseContext*)
PUBLIC 9fe50 0 typeinfoproto::Union::Clear()
PUBLIC 9fef0 0 typeinfoproto::PredefinedType::InternalSwap(typeinfoproto::PredefinedType*)
PUBLIC a0030 0 typeinfoproto::PredefinedType::_InternalParse(char const*, google::protobuf::internal::ParseContext*)
PUBLIC a0480 0 typeinfoproto::QDAArray::_InternalParse(char const*, google::protobuf::internal::ParseContext*)
PUBLIC a0860 0 typeinfoproto::ClassHandle::_InternalParse(char const*, google::protobuf::internal::ParseContext*)
PUBLIC a0c70 0 typeinfoproto::StaticArray::_InternalParse(char const*, google::protobuf::internal::ParseContext*)
PUBLIC a10b0 0 typeinfoproto::Struct::_InternalParse(char const*, google::protobuf::internal::ParseContext*)
PUBLIC a1560 0 typeinfoproto::Field::_InternalParse(char const*, google::protobuf::internal::ParseContext*)
PUBLIC a1850 0 typeinfoproto::Union::_InternalParse(char const*, google::protobuf::internal::ParseContext*)
PUBLIC a1d00 0 typeinfoproto::MultiDimensionArray::_InternalParse(char const*, google::protobuf::internal::ParseContext*)
PUBLIC a2190 0 typeinfoproto::TypeInfoTree::InternalSwap(typeinfoproto::TypeInfoTree*)
PUBLIC a2220 0 typeinfoproto::Close::InternalSwap(typeinfoproto::Close*)
PUBLIC a22b0 0 typeinfoproto::TypeInfoTree::Clear()
PUBLIC a22e0 0 typeinfoproto::Close::Clear()
PUBLIC a2310 0 typeinfoproto::VirtualInterface::InternalSwap(typeinfoproto::VirtualInterface*)
PUBLIC a23c0 0 typeinfoproto::DimensionInfo::InternalSwap(typeinfoproto::DimensionInfo*)
PUBLIC a2480 0 typeinfoproto::DimensionInfo::Clear()
PUBLIC a24c0 0 typeinfoproto::VirtualInterface::Clear()
PUBLIC a24f0 0 typeinfoproto::Field::Clear()
PUBLIC a2540 0 typeinfoproto::PredefinedType::Clear()
PUBLIC a25a0 0 typeinfoproto::QDAArray::Clear()
PUBLIC a25f0 0 typeinfoproto::ClassHandle::Clear()
PUBLIC a2640 0 typeinfoproto::Enum_LabelInfo::InternalSwap(typeinfoproto::Enum_LabelInfo*)
PUBLIC a2770 0 typeinfoproto::Field::InternalSwap(typeinfoproto::Field*)
PUBLIC a28a0 0 typeinfoproto::ClassHandle::InternalSwap(typeinfoproto::ClassHandle*)
PUBLIC a29e0 0 typeinfoproto::QDAArray::InternalSwap(typeinfoproto::QDAArray*)
PUBLIC a2b10 0 typeinfoproto::Union::InternalSwap(typeinfoproto::Union*)
PUBLIC a2c40 0 typeinfoproto::Struct::InternalSwap(typeinfoproto::Struct*)
PUBLIC a2d70 0 typeinfoproto::MultiDimensionArray::Clear()
PUBLIC a2dd0 0 typeinfoproto::Close::Close(typeinfoproto::Close const&)
PUBLIC a2e60 0 typeinfoproto::TypeInfoTree::TypeInfoTree(typeinfoproto::TypeInfoTree const&)
PUBLIC a2ef0 0 typeinfoproto::MultiDimensionArray::InternalSwap(typeinfoproto::MultiDimensionArray*)
PUBLIC a3140 0 typeinfoproto::Enum::InternalSwap(typeinfoproto::Enum*)
PUBLIC a3390 0 typeinfoproto::StaticArray::InternalSwap(typeinfoproto::StaticArray*)
PUBLIC a34d0 0 typeinfoproto::VirtualInterface::VirtualInterface(typeinfoproto::VirtualInterface const&)
PUBLIC a3560 0 typeinfoproto::DimensionInfo::DimensionInfo(typeinfoproto::DimensionInfo const&)
PUBLIC a35f0 0 typeinfoproto::StaticArray::Clear()
PUBLIC a3680 0 typeinfoproto::Struct::Clear()
PUBLIC a3720 0 typeinfoproto::Field::Field(typeinfoproto::Field const&)
PUBLIC a3800 0 typeinfoproto::ClassHandle::ClassHandle(typeinfoproto::ClassHandle const&)
PUBLIC a38e0 0 typeinfoproto::PredefinedType::PredefinedType(typeinfoproto::PredefinedType const&)
PUBLIC a39c0 0 typeinfoproto::QDAArray::QDAArray(typeinfoproto::QDAArray const&)
PUBLIC a3aa0 0 typeinfoproto::Close::MergeFrom(typeinfoproto::Close const&)
PUBLIC a3b90 0 typeinfoproto::Close::CopyFrom(typeinfoproto::Close const&)
PUBLIC a3bd0 0 typeinfoproto::Close::MergeFrom(google::protobuf::Message const&)
PUBLIC a3cb0 0 typeinfoproto::Close::CopyFrom(google::protobuf::Message const&)
PUBLIC a3cf0 0 typeinfoproto::TypeInfoTree::MergeFrom(typeinfoproto::TypeInfoTree const&)
PUBLIC a3de0 0 typeinfoproto::TypeInfoTree::CopyFrom(typeinfoproto::TypeInfoTree const&)
PUBLIC a3e20 0 typeinfoproto::TypeInfoTree::MergeFrom(google::protobuf::Message const&)
PUBLIC a3f00 0 typeinfoproto::TypeInfoTree::CopyFrom(google::protobuf::Message const&)
PUBLIC a3f40 0 typeinfoproto::Field::MergeFrom(typeinfoproto::Field const&)
PUBLIC a40a0 0 typeinfoproto::Field::MergeFrom(google::protobuf::Message const&)
PUBLIC a4180 0 typeinfoproto::Field::CopyFrom(google::protobuf::Message const&)
PUBLIC a41c0 0 typeinfoproto::Field::CopyFrom(typeinfoproto::Field const&)
PUBLIC a4200 0 typeinfoproto::VirtualInterface::MergeFrom(typeinfoproto::VirtualInterface const&)
PUBLIC a4300 0 typeinfoproto::VirtualInterface::CopyFrom(typeinfoproto::VirtualInterface const&)
PUBLIC a4340 0 typeinfoproto::VirtualInterface::MergeFrom(google::protobuf::Message const&)
PUBLIC a4420 0 typeinfoproto::VirtualInterface::CopyFrom(google::protobuf::Message const&)
PUBLIC a4460 0 typeinfoproto::Enum_LabelInfo::Enum_LabelInfo(typeinfoproto::Enum_LabelInfo const&)
PUBLIC a4580 0 typeinfoproto::Struct::Struct(typeinfoproto::Struct const&)
PUBLIC a46b0 0 typeinfoproto::Union::Union(typeinfoproto::Union const&)
PUBLIC a47e0 0 typeinfoproto::StaticArray::StaticArray(typeinfoproto::StaticArray const&)
PUBLIC a4910 0 typeinfoproto::QDAArray::MergeFrom(typeinfoproto::QDAArray const&)
PUBLIC a4a80 0 typeinfoproto::QDAArray::MergeFrom(google::protobuf::Message const&)
PUBLIC a4b60 0 typeinfoproto::QDAArray::CopyFrom(google::protobuf::Message const&)
PUBLIC a4ba0 0 typeinfoproto::QDAArray::CopyFrom(typeinfoproto::QDAArray const&)
PUBLIC a4be0 0 typeinfoproto::DimensionInfo::MergeFrom(typeinfoproto::DimensionInfo const&)
PUBLIC a4d00 0 typeinfoproto::DimensionInfo::CopyFrom(typeinfoproto::DimensionInfo const&)
PUBLIC a4d40 0 typeinfoproto::DimensionInfo::MergeFrom(google::protobuf::Message const&)
PUBLIC a4e20 0 typeinfoproto::DimensionInfo::CopyFrom(google::protobuf::Message const&)
PUBLIC a4e60 0 typeinfoproto::Union::MergeFrom(typeinfoproto::Union const&)
PUBLIC a5040 0 typeinfoproto::Union::MergeFrom(google::protobuf::Message const&)
PUBLIC a5120 0 typeinfoproto::Union::CopyFrom(google::protobuf::Message const&)
PUBLIC a5160 0 typeinfoproto::Union::CopyFrom(typeinfoproto::Union const&)
PUBLIC a51a0 0 typeinfoproto::Enum_LabelInfo::MergeFrom(typeinfoproto::Enum_LabelInfo const&)
PUBLIC a5350 0 typeinfoproto::Enum_LabelInfo::MergeFrom(google::protobuf::Message const&)
PUBLIC a5430 0 typeinfoproto::ClassHandle::MergeFrom(typeinfoproto::ClassHandle const&)
PUBLIC a55b0 0 typeinfoproto::ClassHandle::MergeFrom(google::protobuf::Message const&)
PUBLIC a5690 0 typeinfoproto::ClassHandle::CopyFrom(google::protobuf::Message const&)
PUBLIC a56d0 0 typeinfoproto::ClassHandle::CopyFrom(typeinfoproto::ClassHandle const&)
PUBLIC a5710 0 typeinfoproto::PredefinedType::MergeFrom(typeinfoproto::PredefinedType const&)
PUBLIC a5890 0 typeinfoproto::PredefinedType::MergeFrom(google::protobuf::Message const&)
PUBLIC a5970 0 typeinfoproto::PredefinedType::CopyFrom(google::protobuf::Message const&)
PUBLIC a59b0 0 typeinfoproto::PredefinedType::CopyFrom(typeinfoproto::PredefinedType const&)
PUBLIC a59f0 0 typeinfoproto::StaticArray::MergeFrom(typeinfoproto::StaticArray const&)
PUBLIC a5bc0 0 typeinfoproto::StaticArray::MergeFrom(google::protobuf::Message const&)
PUBLIC a5ca0 0 typeinfoproto::StaticArray::CopyFrom(google::protobuf::Message const&)
PUBLIC a5ce0 0 typeinfoproto::StaticArray::CopyFrom(typeinfoproto::StaticArray const&)
PUBLIC a5d20 0 typeinfoproto::Struct::MergeFrom(typeinfoproto::Struct const&)
PUBLIC a5f00 0 typeinfoproto::Struct::MergeFrom(google::protobuf::Message const&)
PUBLIC a5fe0 0 typeinfoproto::Struct::CopyFrom(google::protobuf::Message const&)
PUBLIC a6020 0 typeinfoproto::Struct::CopyFrom(typeinfoproto::Struct const&)
PUBLIC a6060 0 typeinfoproto::Enum::MergeFrom(typeinfoproto::Enum const&)
PUBLIC a6330 0 typeinfoproto::Enum::MergeFrom(google::protobuf::Message const&)
PUBLIC a6410 0 typeinfoproto::MultiDimensionArray::MergeFrom(typeinfoproto::MultiDimensionArray const&)
PUBLIC a66e0 0 typeinfoproto::MultiDimensionArray::MergeFrom(google::protobuf::Message const&)
PUBLIC a67c0 0 typeinfoproto::MultiDimensionArray::CopyFrom(google::protobuf::Message const&)
PUBLIC a6800 0 typeinfoproto::MultiDimensionArray::CopyFrom(typeinfoproto::MultiDimensionArray const&)
PUBLIC a6840 0 typeinfoproto::MultiDimensionArray::MultiDimensionArray(typeinfoproto::MultiDimensionArray const&)
PUBLIC a6ac0 0 typeinfoproto::Enum_LabelInfo::clear_value()
PUBLIC a6b10 0 typeinfoproto::Enum_LabelInfo::~Enum_LabelInfo()
PUBLIC a6c50 0 typeinfoproto::Enum_LabelInfo::~Enum_LabelInfo()
PUBLIC a6c70 0 typeinfoproto::Enum::Enum(google::protobuf::Arena*)
PUBLIC a6ce0 0 InitDefaultsscc_info_Enum_typeinfo_2eproto()
PUBLIC a6d20 0 typeinfoproto::Enum* google::protobuf::Arena::CreateMaybeMessage<typeinfoproto::Enum>(google::protobuf::Arena*)
PUBLIC a6da0 0 typeinfoproto::Enum::Enum(typeinfoproto::Enum const&)
PUBLIC a7020 0 typeinfoproto::Enum::~Enum()
PUBLIC a71f0 0 typeinfoproto::Enum::~Enum()
PUBLIC a7210 0 typeinfoproto::Enum_LabelInfo::Clear()
PUBLIC a72a0 0 typeinfoproto::Enum_LabelInfo::CopyFrom(google::protobuf::Message const&)
PUBLIC a72e0 0 typeinfoproto::Enum_LabelInfo::CopyFrom(typeinfoproto::Enum_LabelInfo const&)
PUBLIC a7320 0 typeinfoproto::Enum::Clear()
PUBLIC a7380 0 typeinfoproto::Enum::CopyFrom(google::protobuf::Message const&)
PUBLIC a73c0 0 typeinfoproto::Enum::CopyFrom(typeinfoproto::Enum const&)
PUBLIC a7400 0 typeinfoproto::Enum_LabelInfo::_InternalParse(char const*, google::protobuf::internal::ParseContext*)
PUBLIC a77e0 0 typeinfoproto::Enum::_InternalParse(char const*, google::protobuf::internal::ParseContext*)
PUBLIC a7d90 0 typeinfoproto::Enum_LabelInfo::_InternalSerialize(unsigned char*, google::protobuf::io::EpsCopyOutputStream*) const
PUBLIC a7f30 0 typeinfoproto::Enum::_InternalSerialize(unsigned char*, google::protobuf::io::EpsCopyOutputStream*) const
PUBLIC a8260 0 typeinfoproto::Enum_LabelInfo::ByteSizeLong() const
PUBLIC a8300 0 typeinfoproto::Enum::ByteSizeLong() const
PUBLIC a83e0 0 typeinfoproto::Enum_LabelInfo::GetCachedSize() const
PUBLIC a83f0 0 typeinfoproto::DimensionInfo::GetCachedSize() const
PUBLIC a8400 0 typeinfoproto::Close::GetCachedSize() const
PUBLIC a8410 0 typeinfoproto::MultiDimensionArray::GetCachedSize() const
PUBLIC a8420 0 typeinfoproto::Union::GetCachedSize() const
PUBLIC a8430 0 typeinfoproto::Field::GetCachedSize() const
PUBLIC a8440 0 typeinfoproto::Struct::GetCachedSize() const
PUBLIC a8450 0 typeinfoproto::StaticArray::GetCachedSize() const
PUBLIC a8460 0 typeinfoproto::VirtualInterface::GetCachedSize() const
PUBLIC a8470 0 typeinfoproto::ClassHandle::GetCachedSize() const
PUBLIC a8480 0 typeinfoproto::QDAArray::GetCachedSize() const
PUBLIC a8490 0 typeinfoproto::PredefinedType::GetCachedSize() const
PUBLIC a84a0 0 typeinfoproto::Enum::GetCachedSize() const
PUBLIC a84b0 0 typeinfoproto::TypeInfoTree::GetCachedSize() const
PUBLIC a84c0 0 typeinfoproto::TypeInfoTree::New(google::protobuf::Arena*) const
PUBLIC a84d0 0 typeinfoproto::TypeInfoTree::New() const
PUBLIC a84e0 0 typeinfoproto::Enum_LabelInfo::New(google::protobuf::Arena*) const
PUBLIC a84f0 0 typeinfoproto::Enum_LabelInfo::New() const
PUBLIC a8500 0 typeinfoproto::DimensionInfo::New(google::protobuf::Arena*) const
PUBLIC a8510 0 typeinfoproto::DimensionInfo::New() const
PUBLIC a8520 0 typeinfoproto::PredefinedType::New(google::protobuf::Arena*) const
PUBLIC a8530 0 typeinfoproto::PredefinedType::New() const
PUBLIC a8540 0 typeinfoproto::QDAArray::New(google::protobuf::Arena*) const
PUBLIC a8550 0 typeinfoproto::QDAArray::New() const
PUBLIC a8560 0 typeinfoproto::ClassHandle::New(google::protobuf::Arena*) const
PUBLIC a8570 0 typeinfoproto::ClassHandle::New() const
PUBLIC a8580 0 typeinfoproto::VirtualInterface::New(google::protobuf::Arena*) const
PUBLIC a8590 0 typeinfoproto::VirtualInterface::New() const
PUBLIC a85a0 0 typeinfoproto::StaticArray::New(google::protobuf::Arena*) const
PUBLIC a85b0 0 typeinfoproto::StaticArray::New() const
PUBLIC a85c0 0 typeinfoproto::Struct::New(google::protobuf::Arena*) const
PUBLIC a85d0 0 typeinfoproto::Struct::New() const
PUBLIC a85e0 0 typeinfoproto::Field::New(google::protobuf::Arena*) const
PUBLIC a85f0 0 typeinfoproto::Field::New() const
PUBLIC a8600 0 typeinfoproto::Union::New(google::protobuf::Arena*) const
PUBLIC a8610 0 typeinfoproto::Union::New() const
PUBLIC a8620 0 typeinfoproto::Close::New(google::protobuf::Arena*) const
PUBLIC a8630 0 typeinfoproto::Close::New() const
PUBLIC a8640 0 google::protobuf::RepeatedPtrField<typeinfoproto::DimensionInfo>::~RepeatedPtrField()
PUBLIC a86d0 0 typeinfoproto::MultiDimensionArray::New(google::protobuf::Arena*) const
PUBLIC a86e0 0 typeinfoproto::MultiDimensionArray::New() const
PUBLIC a86f0 0 char const* google::protobuf::internal::ParseContext::ParseMessage<typeinfoproto::DimensionInfo>(typeinfoproto::DimensionInfo*, char const*)
PUBLIC a8840 0 void google::protobuf::internal::RepeatedPtrFieldBase::Clear<google::protobuf::RepeatedPtrField<typeinfoproto::DimensionInfo>::TypeHandler>()
PUBLIC a8900 0 google::protobuf::internal::GenericTypeHandler<typeinfoproto::Enum_LabelInfo>::Merge(typeinfoproto::Enum_LabelInfo const&, typeinfoproto::Enum_LabelInfo*)
PUBLIC a8910 0 void google::protobuf::internal::RepeatedPtrFieldBase::MergeFromInnerLoop<google::protobuf::RepeatedPtrField<typeinfoproto::Enum_LabelInfo>::TypeHandler>(void**, void**, int, int)
PUBLIC a89d0 0 google::protobuf::internal::GenericTypeHandler<typeinfoproto::DimensionInfo>::Merge(typeinfoproto::DimensionInfo const&, typeinfoproto::DimensionInfo*)
PUBLIC a89e0 0 void google::protobuf::internal::RepeatedPtrFieldBase::MergeFromInnerLoop<google::protobuf::RepeatedPtrField<typeinfoproto::DimensionInfo>::TypeHandler>(void**, void**, int, int)
PUBLIC a8aa0 0 google::protobuf::RepeatedPtrField<typeinfoproto::Enum_LabelInfo>::~RepeatedPtrField()
PUBLIC a8b30 0 typeinfoproto::Enum::New(google::protobuf::Arena*) const
PUBLIC a8b40 0 typeinfoproto::Enum::New() const
PUBLIC a8b50 0 void google::protobuf::internal::RepeatedPtrFieldBase::Clear<google::protobuf::RepeatedPtrField<typeinfoproto::Enum_LabelInfo>::TypeHandler>()
PUBLIC a8c10 0 parameterproto::ParameterValue::IsInitialized() const
PUBLIC a8c20 0 parameterproto::ParameterValue::GetMetadata() const
PUBLIC a8c40 0 parameterproto::ValuePack::GetMetadata() const
PUBLIC a8c60 0 parameterproto::ParameterBasicInfo::GetMetadata() const
PUBLIC a8c80 0 parameterproto::ParameterValue::SetCachedSize(int) const
PUBLIC a8c90 0 parameterproto::ValuePack::SetCachedSize(int) const
PUBLIC a8ca0 0 parameterproto::ParameterBasicInfo::SetCachedSize(int) const
PUBLIC a8cb0 0 parameterproto::ParameterValue_Type_descriptor()
PUBLIC a8cd0 0 parameterproto::ParameterValue_Type_IsValid(int)
PUBLIC a8ce0 0 parameterproto::ParameterValue::InitAsDefaultInstance()
PUBLIC a8d00 0 parameterproto::ParameterValue::_Internal::stream(parameterproto::ParameterValue const*)
PUBLIC a8d10 0 parameterproto::ParameterValue::ParameterValue(google::protobuf::Arena*)
PUBLIC a8d70 0 InitDefaultsscc_info_ParameterValue_parameter_2eproto()
PUBLIC a8db0 0 parameterproto::ParameterValue::ArenaDtor(void*)
PUBLIC a8dc0 0 parameterproto::ParameterValue::default_instance()
PUBLIC a8df0 0 parameterproto::ValuePack::InitAsDefaultInstance()
PUBLIC a8e10 0 parameterproto::ValuePack::_Internal::typeinfo(parameterproto::ValuePack const*)
PUBLIC a8e20 0 parameterproto::ValuePack::ArenaDtor(void*)
PUBLIC a8e30 0 parameterproto::ValuePack::default_instance()
PUBLIC a8e60 0 parameterproto::ParameterBasicInfo::InitAsDefaultInstance()
PUBLIC a8e80 0 parameterproto::ParameterBasicInfo::_Internal::srcloc(parameterproto::ParameterBasicInfo const*)
PUBLIC a8e90 0 parameterproto::ParameterBasicInfo::ArenaDtor(void*)
PUBLIC a8ea0 0 parameterproto::ParameterBasicInfo::default_instance()
PUBLIC a8ed0 0 parameterproto::ParameterValue* google::protobuf::Arena::CreateMaybeMessage<parameterproto::ParameterValue>(google::protobuf::Arena*)
PUBLIC a8f50 0 parameterproto::ParameterBasicInfo::InternalSwap(parameterproto::ParameterBasicInfo*)
PUBLIC a91a0 0 parameterproto::ValuePack::InternalSwap(parameterproto::ValuePack*)
PUBLIC a9350 0 parameterproto::ParameterValue::InternalSwap(parameterproto::ParameterValue*)
PUBLIC a9480 0 parameterproto::ParameterValue::ParameterValue(parameterproto::ParameterValue const&)
PUBLIC a95b0 0 parameterproto::ParameterValue::MergeFrom(parameterproto::ParameterValue const&)
PUBLIC a9770 0 parameterproto::ParameterValue::MergeFrom(google::protobuf::Message const&)
PUBLIC a9850 0 parameterproto::ValuePack::MergeFrom(parameterproto::ValuePack const&)
PUBLIC a9b00 0 parameterproto::ValuePack::MergeFrom(google::protobuf::Message const&)
PUBLIC a9be0 0 parameterproto::ParameterValue::clear_stream()
PUBLIC a9c30 0 parameterproto::ParameterValue::~ParameterValue()
PUBLIC a9d70 0 parameterproto::ParameterValue::~ParameterValue()
PUBLIC a9d90 0 parameterproto::ValuePack::ValuePack(google::protobuf::Arena*)
PUBLIC a9e10 0 InitDefaultsscc_info_ValuePack_parameter_2eproto()
PUBLIC a9e50 0 parameterproto::ValuePack* google::protobuf::Arena::CreateMaybeMessage<parameterproto::ValuePack>(google::protobuf::Arena*)
PUBLIC a9ed0 0 parameterproto::ParameterBasicInfo::MergeFrom(parameterproto::ParameterBasicInfo const&)
PUBLIC aa1f0 0 parameterproto::ParameterBasicInfo::MergeFrom(google::protobuf::Message const&)
PUBLIC aa2d0 0 parameterproto::ValuePack::ValuePack(parameterproto::ValuePack const&)
PUBLIC aa550 0 parameterproto::ParameterValue::Clear()
PUBLIC aa5f0 0 parameterproto::ParameterValue::CopyFrom(google::protobuf::Message const&)
PUBLIC aa630 0 parameterproto::ParameterValue::CopyFrom(parameterproto::ParameterValue const&)
PUBLIC aa670 0 parameterproto::ParameterValue::_InternalParse(char const*, google::protobuf::internal::ParseContext*)
PUBLIC aaad0 0 parameterproto::ParameterValue::_InternalSerialize(unsigned char*, google::protobuf::io::EpsCopyOutputStream*) const
PUBLIC aad30 0 parameterproto::ParameterValue::ByteSizeLong() const
PUBLIC aadf0 0 parameterproto::ValuePack::clear_typeinfo()
PUBLIC aae40 0 parameterproto::ValuePack::~ValuePack()
PUBLIC aaff0 0 parameterproto::ValuePack::~ValuePack()
PUBLIC ab010 0 parameterproto::ParameterBasicInfo::ParameterBasicInfo(google::protobuf::Arena*)
PUBLIC ab090 0 InitDefaultsscc_info_ParameterBasicInfo_parameter_2eproto()
PUBLIC ab0d0 0 parameterproto::ParameterBasicInfo* google::protobuf::Arena::CreateMaybeMessage<parameterproto::ParameterBasicInfo>(google::protobuf::Arena*)
PUBLIC ab150 0 parameterproto::ParameterBasicInfo::ParameterBasicInfo(parameterproto::ParameterBasicInfo const&)
PUBLIC ab400 0 parameterproto::ValuePack::Clear()
PUBLIC ab480 0 parameterproto::ValuePack::CopyFrom(google::protobuf::Message const&)
PUBLIC ab4c0 0 parameterproto::ValuePack::CopyFrom(parameterproto::ValuePack const&)
PUBLIC ab500 0 parameterproto::ValuePack::_InternalParse(char const*, google::protobuf::internal::ParseContext*)
PUBLIC aba20 0 parameterproto::ValuePack::_InternalSerialize(unsigned char*, google::protobuf::io::EpsCopyOutputStream*) const
PUBLIC abcc0 0 parameterproto::ValuePack::ByteSizeLong() const
PUBLIC abd90 0 parameterproto::ParameterBasicInfo::clear_srcloc()
PUBLIC abde0 0 parameterproto::ParameterBasicInfo::~ParameterBasicInfo()
PUBLIC abfc0 0 parameterproto::ParameterBasicInfo::~ParameterBasicInfo()
PUBLIC abfe0 0 parameterproto::ParameterBasicInfo::Clear()
PUBLIC ac080 0 parameterproto::ParameterBasicInfo::CopyFrom(google::protobuf::Message const&)
PUBLIC ac0c0 0 parameterproto::ParameterBasicInfo::CopyFrom(parameterproto::ParameterBasicInfo const&)
PUBLIC ac100 0 parameterproto::ParameterBasicInfo::_InternalParse(char const*, google::protobuf::internal::ParseContext*)
PUBLIC ac750 0 parameterproto::ParameterBasicInfo::_InternalSerialize(unsigned char*, google::protobuf::io::EpsCopyOutputStream*) const
PUBLIC acb40 0 parameterproto::ParameterBasicInfo::ByteSizeLong() const
PUBLIC acc50 0 parameterproto::ParameterValue::GetCachedSize() const
PUBLIC acc60 0 parameterproto::ValuePack::GetCachedSize() const
PUBLIC acc70 0 parameterproto::ParameterBasicInfo::GetCachedSize() const
PUBLIC acc80 0 parameterproto::ParameterValue::New(google::protobuf::Arena*) const
PUBLIC acc90 0 parameterproto::ParameterValue::New() const
PUBLIC acca0 0 google::protobuf::internal::GenericTypeHandler<parameterproto::ParameterValue>::Merge(parameterproto::ParameterValue const&, parameterproto::ParameterValue*)
PUBLIC accb0 0 void google::protobuf::internal::RepeatedPtrFieldBase::MergeFromInnerLoop<google::protobuf::RepeatedPtrField<parameterproto::ParameterValue>::TypeHandler>(void**, void**, int, int)
PUBLIC acd70 0 google::protobuf::internal::GenericTypeHandler<parameterproto::ValuePack>::Merge(parameterproto::ValuePack const&, parameterproto::ValuePack*)
PUBLIC acd80 0 google::protobuf::RepeatedPtrField<parameterproto::ParameterValue>::~RepeatedPtrField()
PUBLIC ace10 0 parameterproto::ValuePack::New(google::protobuf::Arena*) const
PUBLIC ace20 0 parameterproto::ValuePack::New() const
PUBLIC ace30 0 void google::protobuf::internal::RepeatedPtrFieldBase::MergeFromInnerLoop<google::protobuf::RepeatedPtrField<parameterproto::ValuePack>::TypeHandler>(void**, void**, int, int)
PUBLIC acef0 0 void google::protobuf::internal::RepeatedPtrFieldBase::Clear<google::protobuf::RepeatedPtrField<parameterproto::ParameterValue>::TypeHandler>()
PUBLIC acfb0 0 google::protobuf::RepeatedPtrField<parameterproto::ValuePack>::~RepeatedPtrField()
PUBLIC ad040 0 parameterproto::ParameterBasicInfo::New(google::protobuf::Arena*) const
PUBLIC ad050 0 parameterproto::ParameterBasicInfo::New() const
PUBLIC ad060 0 void google::protobuf::internal::RepeatedPtrFieldBase::Clear<google::protobuf::RepeatedPtrField<parameterproto::ValuePack>::TypeHandler>()
PUBLIC ad120 0 hegproto::Assign::IsInitialized() const
PUBLIC ad130 0 hegproto::Variable::GetMetadata() const
PUBLIC ad150 0 hegproto::Constant::GetMetadata() const
PUBLIC ad170 0 hegproto::Parameter::GetMetadata() const
PUBLIC ad190 0 hegproto::UnhandledType::GetMetadata() const
PUBLIC ad1b0 0 hegproto::ElemRef::GetMetadata() const
PUBLIC ad1d0 0 hegproto::Block::GetMetadata() const
PUBLIC ad1f0 0 hegproto::EventCtrlStmt::GetMetadata() const
PUBLIC ad210 0 hegproto::EventExpression::GetMetadata() const
PUBLIC ad230 0 hegproto::AlwaysConstruct::GetMetadata() const
PUBLIC ad260 0 hegproto::Assign::GetMetadata() const
PUBLIC ad290 0 hegproto::ConditionalStmt::GetMetadata() const
PUBLIC ad2c0 0 hegproto::BinaryOperator::GetMetadata() const
PUBLIC ad2f0 0 hegproto::ModuleInstantiation::GetMetadata() const
PUBLIC ad320 0 hegproto::InstantiationInfo::GetMetadata() const
PUBLIC ad350 0 hegproto::PortDecl::GetMetadata() const
PUBLIC ad380 0 hegproto::IndexedExpression::GetMetadata() const
PUBLIC ad3b0 0 hegproto::DimensionInfo::GetMetadata() const
PUBLIC ad3e0 0 hegproto::NamePrefix::GetMetadata() const
PUBLIC ad410 0 hegproto::Module::GetMetadata() const
PUBLIC ad440 0 hegproto::UnhandledConstruct::GetMetadata() const
PUBLIC ad470 0 hegproto::Data::GetMetadata() const
PUBLIC ad4a0 0 hegproto::SourceChunk::GetMetadata() const
PUBLIC ad4d0 0 hegproto::IncludeRef::GetMetadata() const
PUBLIC ad500 0 hegproto::MacroElement::GetMetadata() const
PUBLIC ad530 0 hegproto::MacroArg::GetMetadata() const
PUBLIC ad560 0 hegproto::MacroRef::GetMetadata() const
PUBLIC ad590 0 hegproto::MacroDefinition::GetMetadata() const
PUBLIC ad5c0 0 hegproto::TextRef::GetMetadata() const
PUBLIC ad5f0 0 hegproto::Variable::SetCachedSize(int) const
PUBLIC ad600 0 hegproto::Constant::SetCachedSize(int) const
PUBLIC ad610 0 hegproto::Parameter::SetCachedSize(int) const
PUBLIC ad620 0 hegproto::UnhandledType::SetCachedSize(int) const
PUBLIC ad630 0 hegproto::ElemRef::SetCachedSize(int) const
PUBLIC ad640 0 hegproto::Block::SetCachedSize(int) const
PUBLIC ad650 0 hegproto::EventCtrlStmt::SetCachedSize(int) const
PUBLIC ad660 0 hegproto::EventExpression::SetCachedSize(int) const
PUBLIC ad670 0 hegproto::AlwaysConstruct::SetCachedSize(int) const
PUBLIC ad680 0 hegproto::Assign::SetCachedSize(int) const
PUBLIC ad690 0 hegproto::ConditionalStmt::SetCachedSize(int) const
PUBLIC ad6a0 0 hegproto::BinaryOperator::SetCachedSize(int) const
PUBLIC ad6b0 0 hegproto::ModuleInstantiation::SetCachedSize(int) const
PUBLIC ad6c0 0 hegproto::InstantiationInfo::SetCachedSize(int) const
PUBLIC ad6d0 0 hegproto::PortDecl::SetCachedSize(int) const
PUBLIC ad6e0 0 hegproto::IndexedExpression::SetCachedSize(int) const
PUBLIC ad6f0 0 hegproto::DimensionInfo::SetCachedSize(int) const
PUBLIC ad700 0 hegproto::NamePrefix::SetCachedSize(int) const
PUBLIC ad710 0 hegproto::Module::SetCachedSize(int) const
PUBLIC ad720 0 hegproto::UnhandledConstruct::SetCachedSize(int) const
PUBLIC ad730 0 hegproto::Data::SetCachedSize(int) const
PUBLIC ad740 0 hegproto::SourceChunk::SetCachedSize(int) const
PUBLIC ad750 0 hegproto::IncludeRef::SetCachedSize(int) const
PUBLIC ad760 0 hegproto::MacroElement::SetCachedSize(int) const
PUBLIC ad770 0 hegproto::MacroArg::SetCachedSize(int) const
PUBLIC ad780 0 hegproto::MacroRef::SetCachedSize(int) const
PUBLIC ad790 0 hegproto::MacroDefinition::SetCachedSize(int) const
PUBLIC ad7a0 0 hegproto::TextRef::SetCachedSize(int) const
PUBLIC ad7b0 0 hegproto::TextRef::_InternalSerialize(unsigned char*, google::protobuf::io::EpsCopyOutputStream*) const
PUBLIC ad970 0 hegproto::Data::ByteSizeLong() const
PUBLIC ad9d0 0 hegproto::UnhandledConstruct::ByteSizeLong() const
PUBLIC ada70 0 hegproto::TextRef::ByteSizeLong() const
PUBLIC adb00 0 google::protobuf::io::CodedOutputStream::WriteVarint32ToArray(unsigned int, unsigned char*) [clone .part.0]
PUBLIC adb50 0 google::protobuf::io::EpsCopyOutputStream::WriteStringMaybeAliased(unsigned int, std::__cxx11::basic_string<char, std::char_traits<char>, std::allocator<char> > const&, unsigned char*) [clone .constprop.0]
PUBLIC adba0 0 hegproto::Data::_InternalSerialize(unsigned char*, google::protobuf::io::EpsCopyOutputStream*) const
PUBLIC adc80 0 hegproto::Data::~Data()
PUBLIC add80 0 hegproto::Data::~Data()
PUBLIC adda0 0 hegproto::UnhandledConstruct::~UnhandledConstruct()
PUBLIC adea0 0 hegproto::UnhandledConstruct::~UnhandledConstruct()
PUBLIC adec0 0 hegproto::TextRef::~TextRef()
PUBLIC adfc0 0 hegproto::TextRef::~TextRef()
PUBLIC adfe0 0 hegproto::UnhandledConstruct::_InternalSerialize(unsigned char*, google::protobuf::io::EpsCopyOutputStream*) const
PUBLIC ae220 0 hegproto::EventExpression_Type_descriptor()
PUBLIC ae240 0 hegproto::EventExpression_Type_IsValid(int)
PUBLIC ae250 0 hegproto::Assign_Type_descriptor()
PUBLIC ae270 0 hegproto::Assign_Type_IsValid(int)
PUBLIC ae280 0 hegproto::ConditionalStmt_Type_descriptor()
PUBLIC ae2a0 0 hegproto::ConditionalStmt_Type_IsValid(int)
PUBLIC ae2b0 0 hegproto::BinaryOperator_Type_descriptor()
PUBLIC ae2d0 0 hegproto::BinaryOperator_Type_IsValid(int)
PUBLIC ae2e0 0 hegproto::PortDecl_Direction_descriptor()
PUBLIC ae300 0 hegproto::PortDecl_Direction_IsValid(int)
PUBLIC ae310 0 hegproto::Data_Type_descriptor()
PUBLIC ae330 0 hegproto::Data_Type_IsValid(int)
PUBLIC ae340 0 hegproto::MacroElement_Type_descriptor()
PUBLIC ae360 0 hegproto::MacroElement_Type_IsValid(int)
PUBLIC ae370 0 hegproto::Variable::InitAsDefaultInstance()
PUBLIC ae390 0 hegproto::Variable::_Internal::srcloc(hegproto::Variable const*)
PUBLIC ae3a0 0 hegproto::Variable::Variable(google::protobuf::Arena*)
PUBLIC ae400 0 InitDefaultsscc_info_Variable_hegdb_2eproto()
PUBLIC ae440 0 hegproto::Variable::ArenaDtor(void*)
PUBLIC ae450 0 hegproto::Variable::default_instance()
PUBLIC ae480 0 hegproto::Constant::InitAsDefaultInstance()
PUBLIC ae4a0 0 hegproto::Constant::_Internal::srcloc(hegproto::Constant const*)
PUBLIC ae4b0 0 hegproto::Constant::Constant(google::protobuf::Arena*)
PUBLIC ae510 0 InitDefaultsscc_info_Constant_hegdb_2eproto()
PUBLIC ae550 0 hegproto::Constant::ArenaDtor(void*)
PUBLIC ae560 0 hegproto::Constant::default_instance()
PUBLIC ae590 0 hegproto::Parameter::InitAsDefaultInstance()
PUBLIC ae5b0 0 hegproto::Parameter::_Internal::srcloc(hegproto::Parameter const*)
PUBLIC ae5c0 0 hegproto::Parameter::Parameter(google::protobuf::Arena*)
PUBLIC ae620 0 InitDefaultsscc_info_Parameter_hegdb_2eproto()
PUBLIC ae660 0 hegproto::Parameter::ArenaDtor(void*)
PUBLIC ae670 0 hegproto::Parameter::default_instance()
PUBLIC ae6a0 0 hegproto::UnhandledType::InitAsDefaultInstance()
PUBLIC ae6c0 0 hegproto::UnhandledType::_Internal::srcloc(hegproto::UnhandledType const*)
PUBLIC ae6d0 0 hegproto::UnhandledType::UnhandledType(google::protobuf::Arena*)
PUBLIC ae720 0 InitDefaultsscc_info_UnhandledType_hegdb_2eproto()
PUBLIC ae760 0 hegproto::UnhandledType::ArenaDtor(void*)
PUBLIC ae770 0 hegproto::UnhandledType::default_instance()
PUBLIC ae7a0 0 hegproto::ElemRef::InitAsDefaultInstance()
PUBLIC ae7c0 0 hegproto::ElemRef::_Internal::srcloc(hegproto::ElemRef const*)
PUBLIC ae7d0 0 hegproto::ElemRef::ElemRef(google::protobuf::Arena*)
PUBLIC ae820 0 InitDefaultsscc_info_ElemRef_hegdb_2eproto()
PUBLIC ae860 0 hegproto::ElemRef::ArenaDtor(void*)
PUBLIC ae870 0 hegproto::ElemRef::default_instance()
PUBLIC ae8a0 0 hegproto::Block::InitAsDefaultInstance()
PUBLIC ae8c0 0 hegproto::Block::_Internal::srcloc(hegproto::Block const*)
PUBLIC ae8d0 0 hegproto::Block::Block(google::protobuf::Arena*)
PUBLIC ae940 0 InitDefaultsscc_info_Block_hegdb_2eproto()
PUBLIC ae980 0 hegproto::Block::ArenaDtor(void*)
PUBLIC ae990 0 hegproto::Block::default_instance()
PUBLIC ae9c0 0 hegproto::EventCtrlStmt::InitAsDefaultInstance()
PUBLIC ae9e0 0 hegproto::EventCtrlStmt::_Internal::srcloc(hegproto::EventCtrlStmt const*)
PUBLIC ae9f0 0 hegproto::EventCtrlStmt::EventCtrlStmt(google::protobuf::Arena*)
PUBLIC aea60 0 InitDefaultsscc_info_EventCtrlStmt_hegdb_2eproto()
PUBLIC aeaa0 0 hegproto::EventCtrlStmt::ArenaDtor(void*)
PUBLIC aeab0 0 hegproto::EventCtrlStmt::default_instance()
PUBLIC aeae0 0 hegproto::EventExpression::InitAsDefaultInstance()
PUBLIC aeb00 0 hegproto::EventExpression::_Internal::srcloc(hegproto::EventExpression const*)
PUBLIC aeb10 0 hegproto::EventExpression::EventExpression(google::protobuf::Arena*)
PUBLIC aeb80 0 InitDefaultsscc_info_EventExpression_hegdb_2eproto()
PUBLIC aebc0 0 hegproto::EventExpression::ArenaDtor(void*)
PUBLIC aebd0 0 hegproto::EventExpression::default_instance()
PUBLIC aec00 0 hegproto::AlwaysConstruct::InitAsDefaultInstance()
PUBLIC aec20 0 hegproto::AlwaysConstruct::_Internal::srcloc(hegproto::AlwaysConstruct const*)
PUBLIC aec30 0 hegproto::AlwaysConstruct::AlwaysConstruct(google::protobuf::Arena*)
PUBLIC aec80 0 InitDefaultsscc_info_AlwaysConstruct_hegdb_2eproto()
PUBLIC aecc0 0 hegproto::AlwaysConstruct::ArenaDtor(void*)
PUBLIC aecd0 0 hegproto::AlwaysConstruct::default_instance()
PUBLIC aed00 0 hegproto::Assign::InitAsDefaultInstance()
PUBLIC aed20 0 hegproto::Assign::_Internal::srcloc(hegproto::Assign const*)
PUBLIC aed30 0 hegproto::Assign::Assign(google::protobuf::Arena*)
PUBLIC aed80 0 InitDefaultsscc_info_Assign_hegdb_2eproto()
PUBLIC aedc0 0 hegproto::Assign::ArenaDtor(void*)
PUBLIC aedd0 0 hegproto::Assign::default_instance()
PUBLIC aee00 0 hegproto::ConditionalStmt::InitAsDefaultInstance()
PUBLIC aee20 0 hegproto::ConditionalStmt::_Internal::srcloc(hegproto::ConditionalStmt const*)
PUBLIC aee30 0 hegproto::ConditionalStmt::ConditionalStmt(google::protobuf::Arena*)
PUBLIC aee80 0 InitDefaultsscc_info_ConditionalStmt_hegdb_2eproto()
PUBLIC aeec0 0 hegproto::ConditionalStmt::ArenaDtor(void*)
PUBLIC aeed0 0 hegproto::ConditionalStmt::default_instance()
PUBLIC aef00 0 hegproto::BinaryOperator::InitAsDefaultInstance()
PUBLIC aef20 0 hegproto::BinaryOperator::_Internal::srcloc(hegproto::BinaryOperator const*)
PUBLIC aef30 0 hegproto::BinaryOperator::BinaryOperator(google::protobuf::Arena*)
PUBLIC aef80 0 InitDefaultsscc_info_BinaryOperator_hegdb_2eproto()
PUBLIC aefc0 0 hegproto::BinaryOperator::ArenaDtor(void*)
PUBLIC aefd0 0 hegproto::BinaryOperator::default_instance()
PUBLIC af000 0 hegproto::ModuleInstantiation::InitAsDefaultInstance()
