MODULE Linux x86_64 9492D0C93E9B8C0BCD8A515FEAE38E690 libdsngen.so
INFO CODE_ID C9D092949B3E0B8CCD8A515FEAE38E696E118F02
PUBLIC c000 0 _init
PUBLIC d180 0 deregister_tm_clones
PUBLIC d1b0 0 register_tm_clones
PUBLIC d1f0 0 __do_global_dtors_aux
PUBLIC d230 0 frame_dummy
PUBLIC d235 0 dsngen_process_xst_items
PUBLIC db1d 0 dsngen_traverse_design_all
PUBLIC ec70 0 dsngen_generate
PUBLIC ee8c 0 dsnStringBuffer2
PUBLIC ef6d 0 dsnStringBufferByNum
PUBLIC f058 0 dsnGetContainingScope
PUBLIC f424 0 dsnRecordFileId
PUBLIC f488 0 addToFileObjList
PUBLIC f552 0 dsnGetFileInfo
PUBLIC f666 0 dsnVpiIterate
PUBLIC f674 0 dsnAddCpfSourceChunks
PUBLIC f801 0 dsnConcatNameBufferAppend
PUBLIC f8de 0 dsnFullHierName.localalias
PUBLIC fbde 0 dsnConcatName.localalias
PUBLIC fd9a 0 dsnVhpiGetPortDir
PUBLIC fe2c 0 dsnFormalPortPosition
PUBLIC 10239 0 dsnCheckPortFormals
PUBLIC 1029b 0 dsnPortPosInCompInst
PUBLIC 106f1 0 dsnPortSpec
PUBLIC 10ea1 0 dsnIterateForPortSpec
PUBLIC 10f4a 0 dsnIterateForName
PUBLIC 11145 0 dsnIterateForBoundaryPortProps
PUBLIC 111b9 0 dsnNominalCondBasicProps
PUBLIC 11242 0 dsnGetNominalConditions
PUBLIC 112b5 0 dsnPwrModeBasicProps
PUBLIC 113e5 0 dsnGetPwrModes
PUBLIC 11458 0 dsnIterateForMappedDomainProps
PUBLIC 11595 0 dsnRecordTextRef
PUBLIC 11961 0 dsnProcessTextRefs
PUBLIC 11a84 0 dsnRecordLPFileAttribute
PUBLIC 11b53 0 dsnIterateForDomainTextRefs
PUBLIC 11be0 0 create_list
PUBLIC 11c31 0 addToList
PUBLIC 11c9a 0 dsnPwrSwitchBasicProps
PUBLIC 11f29 0 dsnPwrSupplyNetBasicProps
PUBLIC 122a0 0 dsnIterateForSupplySetHandlesProps
PUBLIC 12372 0 dsnGetIsolationRules
PUBLIC 12a16 0 dsnPwrSupplyPortBasicProps
PUBLIC 12b29 0 dsnPwrSupplySetBasicProps
PUBLIC 12c8d 0 dsnGetPwrSupplyPorts
PUBLIC 12d42 0 dsnGetPwrLPFiles
PUBLIC 12e08 0 dsnGetPwrSupplyNets
PUBLIC 12ee2 0 dsnGetPwrSupplySets
PUBLIC 12faf 0 dsnGetPwrSwitches
PUBLIC 13064 0 dsnGetPwrDomains
PUBLIC 13b75 0 dsnOpString
PUBLIC 1400d 0 dsnGetLang
PUBLIC 1406f 0 dsnInstance.localalias
PUBLIC 14271 0 dsnIsWithinPackage
PUBLIC 142a1 0 dsnIsArrayMember
PUBLIC 14402 0 dsnIsStructUnionMember
PUBLIC 144fc 0 dsnIsArrayOfStructMember
PUBLIC 1454b 0 dsnPwrPortConnection.localalias
PUBLIC 159cd 0 cmpfunc
PUBLIC 15a0f 0 cleanup
PUBLIC 15a45 0 dsngen_prof_write
PUBLIC 15beb 0 stack_array_new
PUBLIC 15c44 0 dsngen_prof_push
PUBLIC 15dce 0 dsngen_prof_pop
PUBLIC 15f14 0 (anonymous namespace)::dsngen_calc_expr_value_recur(vst_s*, long*, int*)
PUBLIC 160fa 0 (anonymous namespace)::dsngen_get_module(ssl_item_s*, ssl_item_s*, ssl_item_s*)
PUBLIC 161ca 0 std::_Hashtable<std::pair<xst_s*, long*>, std::pair<std::pair<xst_s*, long*> const, std::unordered_map<std::__cxx11::basic_string<char, std::char_traits<char>, std::allocator<char> >, vst_s*, std::hash<std::__cxx11::basic_string<char, std::char_traits<char>, std::allocator<char> > >, std::equal_to<std::__cxx11::basic_string<char, std::char_traits<char>, std::allocator<char> > >, std::allocator<std::pair<std::__cxx11::basic_string<char, std::char_traits<char>, std::allocator<char> > const, vst_s*> > > >, std::allocator<std::pair<std::pair<xst_s*, long*> const, std::unordered_map<std::__cxx11::basic_string<char, std::char_traits<char>, std::allocator<char> >, vst_s*, std::hash<std::__cxx11::basic_string<char, std::char_traits<char>, std::allocator<char> > >, std::equal_to<std::__cxx11::basic_string<char, std::char_traits<char>, std::allocator<char> > >, std::allocator<std::pair<std::__cxx11::basic_string<char, std::char_traits<char>, std::allocator<char> > const, vst_s*> > > > >, std::__detail::_Select1st, std::equal_to<std::pair<xst_s*, long*> >, (anonymous namespace)::PointerPairHash, std::__detail::_Mod_range_hashing, std::__detail::_Default_ranged_hash, std::__detail::_Prime_rehash_policy, std::__detail::_Hashtable_traits<true, false, true> >::_M_find_before_node(unsigned long, std::pair<xst_s*, long*> const&, unsigned long) const
PUBLIC 1622b 0 (anonymous namespace)::dsngen_idaDesignRecordClassAName(char const*, char const*)
PUBLIC 1626f 0 (anonymous namespace)::dsngen_idaDesignRecordClassExtends(char const*, char const*)
PUBLIC 162b3 0 (anonymous namespace)::dsnGetEnvInt(char*)
PUBLIC 162e4 0 (anonymous namespace)::dsngenEnablePortHash()
PUBLIC 16326 0 (anonymous namespace)::dsnRecordSourceFile(char*, char*, int)
PUBLIC 167d4 0 (anonymous namespace)::dsngen_append_dstr((anonymous namespace)::dstr*, char const*)
PUBLIC 168d9 0 (anonymous namespace)::dsngen_remove_directory(char const*)
PUBLIC 168f8 0 (anonymous namespace)::dsngen_remove_files_and_directories(char const*, stat const*, int, FTW*)
PUBLIC 169a4 0 (anonymous namespace)::dsngen_remove_file(char const*, stat const*, int, FTW*)
PUBLIC 169b8 0 std::_Hashtable<std::pair<xst_s*, long*>, std::pair<std::pair<xst_s*, long*> const, std::unordered_map<std::__cxx11::basic_string<char, std::char_traits<char>, std::allocator<char> >, vst_s*, std::hash<std::__cxx11::basic_string<char, std::char_traits<char>, std::allocator<char> > >, std::equal_to<std::__cxx11::basic_string<char, std::char_traits<char>, std::allocator<char> > >, std::allocator<std::pair<std::__cxx11::basic_string<char, std::char_traits<char>, std::allocator<char> > const, vst_s*> > > >, std::allocator<std::pair<std::pair<xst_s*, long*> const, std::unordered_map<std::__cxx11::basic_string<char, std::char_traits<char>, std::allocator<char> >, vst_s*, std::hash<std::__cxx11::basic_string<char, std::char_traits<char>, std::allocator<char> > >, std::equal_to<std::__cxx11::basic_string<char, std::char_traits<char>, std::allocator<char> > >, std::allocator<std::pair<std::__cxx11::basic_string<char, std::char_traits<char>, std::allocator<char> > const, vst_s*> > > > >, std::__detail::_Select1st, std::equal_to<std::pair<xst_s*, long*> >, (anonymous namespace)::PointerPairHash, std::__detail::_Mod_range_hashing, std::__detail::_Default_ranged_hash, std::__detail::_Prime_rehash_policy, std::__detail::_Hashtable_traits<true, false, true> >::_M_rehash(unsigned long, unsigned long const&)
PUBLIC 16ace 0 dsngen_idaDesignRecordOOPREntry
PUBLIC 16b3b 0 (anonymous namespace)::dsngen_ida_record_ooxr(char const*, char const*, char const*, char const*, char const*, ssl_item_s*, ssl_item_s*, std::function<._866 (ssl_item_s*, xst_s*, ssl_item_s*, char const*, char const*, char const*, char const*, char const*)>*, xst_s*)
PUBLIC 16c3c 0 dsngen_idaDesignRecordSupplyNetHDLLoad
PUBLIC 16c80 0 dsngen_idaDesignRecordSupplyNetHDLDriver
PUBLIC 16cc7 0 dsngen_idaDesignRecordLibertyExtendedData
PUBLIC 16d0e 0 dsngen_idaDesignRecordLPPowerSwitchHDLLoad
PUBLIC 16d52 0 dsngen_idaDesignRecordLPFileScopeId
PUBLIC 16dab 0 dsngen_idaDesignRecordHdlScopeToLPDomain
PUBLIC 16df2 0 dsngen_idaDesignRecordLPConnectSupplyNetSrcInfo
PUBLIC 16e4b 0 dsngen_idaDesignRecordLPConnectSupplyNetDestInfo
PUBLIC 16ea2 0 dsngen_idaDesignRecordLPConnectLogicNet
PUBLIC 16efd 0 dsngen_idaDesignRecordLPTextRef
PUBLIC 16f70 0 dsngen_open_ida_db
PUBLIC 16f92 0 dsngen_close_ida_db
PUBLIC 16fbf 0 dsngen_record_upf_command_info
PUBLIC 17048 0 dsngen_record_liberty_cell_info
PUBLIC 170d4 0 dsngen_record_liberty_lib_info
PUBLIC 17172 0 dsngen_close_search
PUBLIC 171d3 0 dsngen_idaDesignRecordLPScope
PUBLIC 17229 0 dsngen_idaDesignRecordHierarchyEntry
PUBLIC 172bb 0 dsngen_idaGetCoercedPartitionBoundaryPorts
PUBLIC 17328 0 dsngen_make_string
PUBLIC 17393 0 dsngen_get_pth_sv_name
PUBLIC 17465 0 dsngen_record_oomr_bitmem_sel
PUBLIC 17980 0 dsngen_print_item_to_asrt_file
PUBLIC 17a0b 0 dsngen_create_fsm
PUBLIC 17dab 0 dsngen_add_interface_oomr
PUBLIC 17e14 0 dsngen_get_pth_full_flag
PUBLIC 17e28 0 (anonymous namespace)::dsngen_get_pth_name(ssl_item_s*, void*)
PUBLIC 17f03 0 dsngen_vhdl_scope_assertions
PUBLIC 17fb4 0 dsngen_get_pth_simple_flag
PUBLIC 17fc5 0 dsngen_add_module_search
PUBLIC 182d0 0 dsngen_print_scope_path_to_buf
PUBLIC 185a5 0 dsngen_record_sva_data
PUBLIC 1867e 0 (anonymous namespace)::dsnCreateAnamesTable(bool)
PUBLIC 18a73 0 dsngen_restore_partial_db
PUBLIC 18be0 0 dsngen_remove_debug_db
PUBLIC 18d65 0 dsngen_backup_partial_db
PUBLIC 18f28 0 (anonymous namespace)::VersionProperties_s::isInitialized()
PUBLIC 193a2 0 (anonymous namespace)::dsngen_copy_file(char const*, stat const*, int, FTW*)
PUBLIC 19984 0 dsngen_lcvname
PUBLIC 1a396 0 dsngen_process_source_table
PUBLIC 1a4b9 0 (anonymous namespace)::initCoercionHash()
PUBLIC 1a529 0 (anonymous namespace)::dsngen_search_init(char*, int)
PUBLIC 1a9ac 0 (anonymous namespace)::dsngenPortHashLookup(ssl_item_s*, ssl_item_s*)
PUBLIC 1b027 0 dsngenAddSrcToHash
PUBLIC 1b0c0 0 dsngen_record_upf_file
PUBLIC 1b109 0 dsngen_record_upf_commands_file
PUBLIC 1b152 0 dsngen_record_pdf
PUBLIC 1b227 0 dsngen_record_pgpin
PUBLIC 1b2eb 0 dsnCreateSourceTable
PUBLIC 1b3cb 0 dsngen_record_include_to_db
PUBLIC 1b507 0 dsngen_create_xprop
PUBLIC 1b8b4 0 dsngen_record_class_inheritance
PUBLIC 1b9c6 0 (anonymous namespace)::dsngen_mark_inputs_in_expr(vst_s*, long*, char*)
PUBLIC 1bc56 0 dsngen_propagate_coercion
PUBLIC 1c09c 0 dsngen_process_scope_oomrs_internal
PUBLIC 1f3bb 0 dsngen_process_scope_oomrs
PUBLIC 1f3d4 0 dsngen_process_coercion
PUBLIC 1f575 0 dsngen_record_aname_to_db
PUBLIC 1f776 0 (anonymous namespace)::VersionProperties_s::~VersionProperties_s()
PUBLIC 1f796 0 (anonymous namespace)::dsngen_create_version()
PUBLIC 2097d 0 dsngen_close
PUBLIC 20cc9 0 dsngen_init
PUBLIC 222db 0 _GLOBAL__sub_I_dsngen_export.cc
PUBLIC 223d4 0 boost::property_tree::ptree_error::~ptree_error()
PUBLIC 223f0 0 boost::property_tree::ptree_error::~ptree_error()
PUBLIC 22416 0 boost::property_tree::ptree_bad_path::~ptree_bad_path()
PUBLIC 22450 0 boost::property_tree::ptree_bad_data::~ptree_bad_data()
PUBLIC 2248a 0 boost::property_tree::file_parser_error::~file_parser_error()
PUBLIC 224d8 0 boost::property_tree::ptree_bad_data::~ptree_bad_data()
PUBLIC 2251e 0 boost::property_tree::ptree_bad_path::~ptree_bad_path()
PUBLIC 22564 0 boost::property_tree::json_parser::json_parser_error::~json_parser_error()
PUBLIC 225b2 0 boost::property_tree::file_parser_error::~file_parser_error()
PUBLIC 2260e 0 boost::property_tree::json_parser::json_parser_error::~json_parser_error()
PUBLIC 2266a 0 non-virtual thunk to boost::exception_detail::clone_impl<boost::exception_detail::error_info_injector<boost::property_tree::json_parser::json_parser_error> >::~clone_impl()
PUBLIC 22713 0 virtual thunk to boost::exception_detail::clone_impl<boost::exception_detail::error_info_injector<boost::property_tree::json_parser::json_parser_error> >::~clone_impl()
PUBLIC 227b6 0 boost::exception_detail::clone_impl<boost::exception_detail::error_info_injector<boost::property_tree::json_parser::json_parser_error> >::~clone_impl()
PUBLIC 22852 0 non-virtual thunk to boost::exception_detail::clone_impl<boost::exception_detail::error_info_injector<boost::property_tree::json_parser::json_parser_error> >::~clone_impl()
PUBLIC 228ee 0 virtual thunk to boost::exception_detail::clone_impl<boost::exception_detail::error_info_injector<boost::property_tree::json_parser::json_parser_error> >::~clone_impl()
PUBLIC 22984 0 boost::exception_detail::clone_impl<boost::exception_detail::error_info_injector<boost::property_tree::json_parser::json_parser_error> >::~clone_impl()
PUBLIC 22a14 0 non-virtual thunk to boost::exception_detail::error_info_injector<boost::property_tree::json_parser::json_parser_error>::~error_info_injector()
PUBLIC 22aac 0 boost::exception_detail::error_info_injector<boost::property_tree::json_parser::json_parser_error>::~error_info_injector()
PUBLIC 22b34 0 non-virtual thunk to boost::exception_detail::error_info_injector<boost::property_tree::json_parser::json_parser_error>::~error_info_injector()
PUBLIC 22bbe 0 boost::exception_detail::error_info_injector<boost::property_tree::json_parser::json_parser_error>::~error_info_injector()
PUBLIC 22c38 0 boost::property_tree::file_parser_error::format_what(std::__cxx11::basic_string<char, std::char_traits<char>, std::allocator<char> > const&, std::__cxx11::basic_string<char, std::char_traits<char>, std::allocator<char> > const&, unsigned long)
PUBLIC 23148 0 void std::__cxx11::basic_string<char, std::char_traits<char>, std::allocator<char> >::_M_construct<char const*>(char const*, char const*, std::forward_iterator_tag)
PUBLIC 231de 0 void std::__cxx11::basic_string<char, std::char_traits<char>, std::allocator<char> >::_M_construct<char*>(char*, char*, std::forward_iterator_tag)
PUBLIC 23274 0 std::__cxx11::basic_string<char, std::char_traits<char>, std::allocator<char> > __gnu_cxx::__to_xstring<std::__cxx11::basic_string<char, std::char_traits<char>, std::allocator<char> >, char>(int (*)(char*, unsigned long, char const*, __va_list_tag*), unsigned long, char const*, ...)
PUBLIC 23336 0 boost::property_tree::file_parser_error::file_parser_error(std::__cxx11::basic_string<char, std::char_traits<char>, std::allocator<char> > const&, std::__cxx11::basic_string<char, std::char_traits<char>, std::allocator<char> > const&, unsigned long)
PUBLIC 23430 0 boost::property_tree::string_path<std::__cxx11::basic_string<char, std::char_traits<char>, std::allocator<char> >, boost::property_tree::id_translator<std::__cxx11::basic_string<char, std::char_traits<char>, std::allocator<char> > > >::reduce()
PUBLIC 23680 0 void boost::property_tree::basic_ptree<std::__cxx11::basic_string<char, std::char_traits<char>, std::allocator<char> >, std::__cxx11::basic_string<char, std::char_traits<char>, std::allocator<char> >, std::less<std::__cxx11::basic_string<char, std::char_traits<char>, std::allocator<char> > > >::put_value<std::__cxx11::basic_string<char, std::char_traits<char>, std::allocator<char> >, boost::property_tree::id_translator<std::__cxx11::basic_string<char, std::char_traits<char>, std::allocator<char> > > >(std::__cxx11::basic_string<char, std::char_traits<char>, std::allocator<char> > const&, boost::property_tree::id_translator<std::__cxx11::basic_string<char, std::char_traits<char>, std::allocator<char> > >)
PUBLIC 23706 0 void std::vector<std::__cxx11::basic_string<char, std::char_traits<char>, std::allocator<char> >, std::allocator<std::__cxx11::basic_string<char, std::char_traits<char>, std::allocator<char> > > >::_M_realloc_insert<std::__cxx11::basic_string<char, std::char_traits<char>, std::allocator<char> > const&>(__gnu_cxx::__normal_iterator<std::__cxx11::basic_string<char, std::char_traits<char>, std::allocator<char> >*, std::vector<std::__cxx11::basic_string<char, std::char_traits<char>, std::allocator<char> >, std::allocator<std::__cxx11::basic_string<char, std::char_traits<char>, std::allocator<char> > > > >, std::__cxx11::basic_string<char, std::char_traits<char>, std::allocator<char> > const&)
PUBLIC 23916 0 boost::exception_detail::error_info_injector<boost::property_tree::json_parser::json_parser_error>::error_info_injector(boost::exception_detail::error_info_injector<boost::property_tree::json_parser::json_parser_error> const&)
PUBLIC 23a2c 0 boost::exception_detail::clone_impl<boost::exception_detail::error_info_injector<boost::property_tree::json_parser::json_parser_error> >::rethrow() const
PUBLIC 23aac 0 virtual thunk to boost::exception_detail::clone_impl<boost::exception_detail::error_info_injector<boost::property_tree::json_parser::json_parser_error> >::rethrow() const
PUBLIC 23b34 0 virtual thunk to boost::exception_detail::clone_impl<boost::exception_detail::error_info_injector<boost::property_tree::json_parser::json_parser_error> >::clone() const
PUBLIC 23d8e 0 boost::exception_detail::clone_impl<boost::exception_detail::error_info_injector<boost::property_tree::json_parser::json_parser_error> >::clone() const
PUBLIC 23fe0 0 boost::property_tree::basic_ptree<std::__cxx11::basic_string<char, std::char_traits<char>, std::allocator<char> >, std::__cxx11::basic_string<char, std::char_traits<char>, std::allocator<char> >, std::less<std::__cxx11::basic_string<char, std::char_traits<char>, std::allocator<char> > > >::walk_path(boost::property_tree::string_path<std::__cxx11::basic_string<char, std::char_traits<char>, std::allocator<char> >, boost::property_tree::id_translator<std::__cxx11::basic_string<char, std::char_traits<char>, std::allocator<char> > > >&) const
PUBLIC 2414c 0 boost::property_tree::basic_ptree<std::__cxx11::basic_string<char, std::char_traits<char>, std::allocator<char> >, std::__cxx11::basic_string<char, std::char_traits<char>, std::allocator<char> >, std::less<std::__cxx11::basic_string<char, std::char_traits<char>, std::allocator<char> > > >::get_child_optional(boost::property_tree::string_path<std::__cxx11::basic_string<char, std::char_traits<char>, std::allocator<char> >, boost::property_tree::id_translator<std::__cxx11::basic_string<char, std::char_traits<char>, std::allocator<char> > > > const&)
PUBLIC 241f2 0 std::__cxx11::basic_string<char, std::char_traits<char>, std::allocator<char> > boost::property_tree::json_parser::create_escapes<char>(std::__cxx11::basic_string<char, std::char_traits<char>, std::allocator<char> > const&)
PUBLIC 24ae4 0 std::__detail::_Hashtable_alloc<std::allocator<std::__detail::_Hash_node<std::__cxx11::basic_string<char, std::char_traits<char>, std::allocator<char> >, true> > >::_M_deallocate_node(std::__detail::_Hash_node<std::__cxx11::basic_string<char, std::char_traits<char>, std::allocator<char> >, true>*)
PUBLIC 24b04 0 std::_Hashtable<std::__cxx11::basic_string<char, std::char_traits<char>, std::allocator<char> >, std::__cxx11::basic_string<char, std::char_traits<char>, std::allocator<char> >, std::allocator<std::__cxx11::basic_string<char, std::char_traits<char>, std::allocator<char> > >, std::__detail::_Identity, std::equal_to<std::__cxx11::basic_string<char, std::char_traits<char>, std::allocator<char> > >, std::hash<std::__cxx11::basic_string<char, std::char_traits<char>, std::allocator<char> > >, std::__detail::_Mod_range_hashing, std::__detail::_Default_ranged_hash, std::__detail::_Prime_rehash_policy, std::__detail::_Hashtable_traits<true, true, true> >::~_Hashtable()
PUBLIC 24b6c 0 std::_Hashtable<std::__cxx11::basic_string<char, std::char_traits<char>, std::allocator<char> >, std::__cxx11::basic_string<char, std::char_traits<char>, std::allocator<char> >, std::allocator<std::__cxx11::basic_string<char, std::char_traits<char>, std::allocator<char> > >, std::__detail::_Identity, std::equal_to<std::__cxx11::basic_string<char, std::char_traits<char>, std::allocator<char> > >, std::hash<std::__cxx11::basic_string<char, std::char_traits<char>, std::allocator<char> > >, std::__detail::_Mod_range_hashing, std::__detail::_Default_ranged_hash, std::__detail::_Prime_rehash_policy, std::__detail::_Hashtable_traits<true, true, true> >::_M_rehash(unsigned long, unsigned long const&)
PUBLIC 24c82 0 std::_Hashtable<std::__cxx11::basic_string<char, std::char_traits<char>, std::allocator<char> >, std::__cxx11::basic_string<char, std::char_traits<char>, std::allocator<char> >, std::allocator<std::__cxx11::basic_string<char, std::char_traits<char>, std::allocator<char> > >, std::__detail::_Identity, std::equal_to<std::__cxx11::basic_string<char, std::char_traits<char>, std::allocator<char> > >, std::hash<std::__cxx11::basic_string<char, std::char_traits<char>, std::allocator<char> > >, std::__detail::_Mod_range_hashing, std::__detail::_Default_ranged_hash, std::__detail::_Prime_rehash_policy, std::__detail::_Hashtable_traits<true, true, true> >::rehash(unsigned long)
PUBLIC 24d6a 0 std::_Hashtable<std::__cxx11::basic_string<char, std::char_traits<char>, std::allocator<char> >, std::__cxx11::basic_string<char, std::char_traits<char>, std::allocator<char> >, std::allocator<std::__cxx11::basic_string<char, std::char_traits<char>, std::allocator<char> > >, std::__detail::_Identity, std::equal_to<std::__cxx11::basic_string<char, std::char_traits<char>, std::allocator<char> > >, std::hash<std::__cxx11::basic_string<char, std::char_traits<char>, std::allocator<char> > >, std::__detail::_Mod_range_hashing, std::__detail::_Default_ranged_hash, std::__detail::_Prime_rehash_policy, std::__detail::_Hashtable_traits<true, true, true> >::_M_insert_unique_node(unsigned long, unsigned long, std::__detail::_Hash_node<std::__cxx11::basic_string<char, std::char_traits<char>, std::allocator<char> >, true>*, unsigned long)
PUBLIC 24e5a 0 std::_Hashtable<std::__cxx11::basic_string<char, std::char_traits<char>, std::allocator<char> >, std::pair<std::__cxx11::basic_string<char, std::char_traits<char>, std::allocator<char> > const, vst_s*>, std::allocator<std::pair<std::__cxx11::basic_string<char, std::char_traits<char>, std::allocator<char> > const, vst_s*> >, std::__detail::_Select1st, std::equal_to<std::__cxx11::basic_string<char, std::char_traits<char>, std::allocator<char> > >, std::hash<std::__cxx11::basic_string<char, std::char_traits<char>, std::allocator<char> > >, std::__detail::_Mod_range_hashing, std::__detail::_Default_ranged_hash, std::__detail::_Prime_rehash_policy, std::__detail::_Hashtable_traits<true, false, true> >::_M_find_before_node(unsigned long, std::__cxx11::basic_string<char, std::char_traits<char>, std::allocator<char> > const&, unsigned long) const
PUBLIC 24eea 0 std::_Hashtable<std::__cxx11::basic_string<char, std::char_traits<char>, std::allocator<char> >, std::pair<std::__cxx11::basic_string<char, std::char_traits<char>, std::allocator<char> > const, vst_s*>, std::allocator<std::pair<std::__cxx11::basic_string<char, std::char_traits<char>, std::allocator<char> > const, vst_s*> >, std::__detail::_Select1st, std::equal_to<std::__cxx11::basic_string<char, std::char_traits<char>, std::allocator<char> > >, std::hash<std::__cxx11::basic_string<char, std::char_traits<char>, std::allocator<char> > >, std::__detail::_Mod_range_hashing, std::__detail::_Default_ranged_hash, std::__detail::_Prime_rehash_policy, std::__detail::_Hashtable_traits<true, false, true> >::_M_rehash(unsigned long, unsigned long const&)
PUBLIC 25000 0 std::_Hashtable<std::__cxx11::basic_string<char, std::char_traits<char>, std::allocator<char> >, std::pair<std::__cxx11::basic_string<char, std::char_traits<char>, std::allocator<char> > const, vst_s*>, std::allocator<std::pair<std::__cxx11::basic_string<char, std::char_traits<char>, std::allocator<char> > const, vst_s*> >, std::__detail::_Select1st, std::equal_to<std::__cxx11::basic_string<char, std::char_traits<char>, std::allocator<char> > >, std::hash<std::__cxx11::basic_string<char, std::char_traits<char>, std::allocator<char> > >, std::__detail::_Mod_range_hashing, std::__detail::_Default_ranged_hash, std::__detail::_Prime_rehash_policy, std::__detail::_Hashtable_traits<true, false, true> >::_M_insert_unique_node(unsigned long, unsigned long, std::__detail::_Hash_node<std::pair<std::__cxx11::basic_string<char, std::char_traits<char>, std::allocator<char> > const, vst_s*>, true>*, unsigned long)
PUBLIC 25100 0 std::__detail::_Map_base<std::__cxx11::basic_string<char, std::char_traits<char>, std::allocator<char> >, std::pair<std::__cxx11::basic_string<char, std::char_traits<char>, std::allocator<char> > const, vst_s*>, std::allocator<std::pair<std::__cxx11::basic_string<char, std::char_traits<char>, std::allocator<char> > const, vst_s*> >, std::__detail::_Select1st, std::equal_to<std::__cxx11::basic_string<char, std::char_traits<char>, std::allocator<char> > >, std::hash<std::__cxx11::basic_string<char, std::char_traits<char>, std::allocator<char> > >, std::__detail::_Mod_range_hashing, std::__detail::_Default_ranged_hash, std::__detail::_Prime_rehash_policy, std::__detail::_Hashtable_traits<true, false, true>, true>::operator[](std::__cxx11::basic_string<char, std::char_traits<char>, std::allocator<char> >&&)
PUBLIC 251d6 0 std::_Hashtable<xst_s*, xst_s*, std::allocator<xst_s*>, std::__detail::_Identity, std::equal_to<xst_s*>, std::hash<xst_s*>, std::__detail::_Mod_range_hashing, std::__detail::_Default_ranged_hash, std::__detail::_Prime_rehash_policy, std::__detail::_Hashtable_traits<false, true, true> >::_M_rehash(unsigned long, unsigned long const&)
PUBLIC 252ec 0 std::__detail::_Hashtable_alloc<std::allocator<std::__detail::_Hash_node<std::pair<std::pair<xst_s*, long*> const, std::unordered_map<std::__cxx11::basic_string<char, std::char_traits<char>, std::allocator<char> >, vst_s*, std::hash<std::__cxx11::basic_string<char, std::char_traits<char>, std::allocator<char> > >, std::equal_to<std::__cxx11::basic_string<char, std::char_traits<char>, std::allocator<char> > >, std::allocator<std::pair<std::__cxx11::basic_string<char, std::char_traits<char>, std::allocator<char> > const, vst_s*> > > >, true> > >::_M_deallocate_node(std::__detail::_Hash_node<std::pair<std::pair<xst_s*, long*> const, std::unordered_map<std::__cxx11::basic_string<char, std::char_traits<char>, std::allocator<char> >, vst_s*, std::hash<std::__cxx11::basic_string<char, std::char_traits<char>, std::allocator<char> > >, std::equal_to<std::__cxx11::basic_string<char, std::char_traits<char>, std::allocator<char> > >, std::allocator<std::pair<std::__cxx11::basic_string<char, std::char_traits<char>, std::allocator<char> > const, vst_s*> > > >, true>*)
PUBLIC 25370 0 std::_Hashtable<xst_s*, xst_s*, std::allocator<xst_s*>, std::__detail::_Identity, std::equal_to<xst_s*>, std::hash<xst_s*>, std::__detail::_Mod_range_hashing, std::__detail::_Default_ranged_hash, std::__detail::_Prime_rehash_policy, std::__detail::_Hashtable_traits<false, true, true> >::_M_find_before_node(unsigned long, xst_s* const&, unsigned long) const
PUBLIC 253ba 0 std::_Hashtable<xst_s*, xst_s*, std::allocator<xst_s*>, std::__detail::_Identity, std::equal_to<xst_s*>, std::hash<xst_s*>, std::__detail::_Mod_range_hashing, std::__detail::_Default_ranged_hash, std::__detail::_Prime_rehash_policy, std::__detail::_Hashtable_traits<false, true, true> >::_M_insert_unique_node(unsigned long, unsigned long, std::__detail::_Hash_node<xst_s*, false>*, unsigned long)
PUBLIC 254a4 0 boost::exception_detail::clone_impl<boost::exception_detail::error_info_injector<boost::property_tree::json_parser::json_parser_error> >::clone_impl(boost::exception_detail::error_info_injector<boost::property_tree::json_parser::json_parser_error> const&)
PUBLIC 256d5 0 void boost::throw_exception<boost::exception_detail::error_info_injector<boost::property_tree::json_parser::json_parser_error> >(boost::exception_detail::error_info_injector<boost::property_tree::json_parser::json_parser_error> const&)
PUBLIC 25742 0 void boost::exception_detail::throw_exception_<boost::property_tree::json_parser::json_parser_error>(boost::property_tree::json_parser::json_parser_error const&, char const*, char const*, int)
PUBLIC 25840 0 boost::enable_if<boost::property_tree::detail::is_translator<boost::property_tree::id_translator<std::__cxx11::basic_string<char, std::char_traits<char>, std::allocator<char> > > >, std::__cxx11::basic_string<char, std::char_traits<char>, std::allocator<char> > >::type boost::property_tree::basic_ptree<std::__cxx11::basic_string<char, std::char_traits<char>, std::allocator<char> >, std::__cxx11::basic_string<char, std::char_traits<char>, std::allocator<char> >, std::less<std::__cxx11::basic_string<char, std::char_traits<char>, std::allocator<char> > > >::get_value<std::__cxx11::basic_string<char, std::char_traits<char>, std::allocator<char> >, boost::property_tree::id_translator<std::__cxx11::basic_string<char, std::char_traits<char>, std::allocator<char> > > >(boost::property_tree::id_translator<std::__cxx11::basic_string<char, std::char_traits<char>, std::allocator<char> > >) const
PUBLIC 258d5 0 bool boost::property_tree::json_parser::verify_json<boost::property_tree::basic_ptree<std::__cxx11::basic_string<char, std::char_traits<char>, std::allocator<char> >, std::__cxx11::basic_string<char, std::char_traits<char>, std::allocator<char> >, std::less<std::__cxx11::basic_string<char, std::char_traits<char>, std::allocator<char> > > > >(boost::property_tree::basic_ptree<std::__cxx11::basic_string<char, std::char_traits<char>, std::allocator<char> >, std::__cxx11::basic_string<char, std::char_traits<char>, std::allocator<char> >, std::less<std::__cxx11::basic_string<char, std::char_traits<char>, std::allocator<char> > > > const&, int)
PUBLIC 259f3 0 void boost::property_tree::json_parser::write_json_helper<boost::property_tree::basic_ptree<std::__cxx11::basic_string<char, std::char_traits<char>, std::allocator<char> >, std::__cxx11::basic_string<char, std::char_traits<char>, std::allocator<char> >, std::less<std::__cxx11::basic_string<char, std::char_traits<char>, std::allocator<char> > > > >(std::basic_ostream<boost::property_tree::basic_ptree<std::__cxx11::basic_string<char, std::char_traits<char>, std::allocator<char> >, std::__cxx11::basic_string<char, std::char_traits<char>, std::allocator<char> >, std::less<std::__cxx11::basic_string<char, std::char_traits<char>, std::allocator<char> > > >::key_type::value_type, std::char_traits<boost::property_tree::basic_ptree<std::__cxx11::basic_string<char, std::char_traits<char>, std::allocator<char> >, std::__cxx11::basic_string<char, std::char_traits<char>, std::allocator<char> >, std::less<std::__cxx11::basic_string<char, std::char_traits<char>, std::allocator<char> > > >::key_type::value_type> >&, boost::property_tree::basic_ptree<std::__cxx11::basic_string<char, std::char_traits<char>, std::allocator<char> >, std::__cxx11::basic_string<char, std::char_traits<char>, std::allocator<char> >, std::less<std::__cxx11::basic_string<char, std::char_traits<char>, std::allocator<char> > > > const&, int, bool)
PUBLIC 2617e 0 void boost::property_tree::json_parser::write_json_internal<boost::property_tree::basic_ptree<std::__cxx11::basic_string<char, std::char_traits<char>, std::allocator<char> >, std::__cxx11::basic_string<char, std::char_traits<char>, std::allocator<char> >, std::less<std::__cxx11::basic_string<char, std::char_traits<char>, std::allocator<char> > > > >(std::basic_ostream<boost::property_tree::basic_ptree<std::__cxx11::basic_string<char, std::char_traits<char>, std::allocator<char> >, std::__cxx11::basic_string<char, std::char_traits<char>, std::allocator<char> >, std::less<std::__cxx11::basic_string<char, std::char_traits<char>, std::allocator<char> > > >::key_type::value_type, std::char_traits<boost::property_tree::basic_ptree<std::__cxx11::basic_string<char, std::char_traits<char>, std::allocator<char> >, std::__cxx11::basic_string<char, std::char_traits<char>, std::allocator<char> >, std::less<std::__cxx11::basic_string<char, std::char_traits<char>, std::allocator<char> > > >::key_type::value_type> >&, boost::property_tree::basic_ptree<std::__cxx11::basic_string<char, std::char_traits<char>, std::allocator<char> >, std::__cxx11::basic_string<char, std::char_traits<char>, std::allocator<char> >, std::less<std::__cxx11::basic_string<char, std::char_traits<char>, std::allocator<char> > > > const&, std::__cxx11::basic_string<char, std::char_traits<char>, std::allocator<char> > const&, bool)
PUBLIC 26367 0 void boost::property_tree::json_parser::write_json<boost::property_tree::basic_ptree<std::__cxx11::basic_string<char, std::char_traits<char>, std::allocator<char> >, std::__cxx11::basic_string<char, std::char_traits<char>, std::allocator<char> >, std::less<std::__cxx11::basic_string<char, std::char_traits<char>, std::allocator<char> > > > >(std::__cxx11::basic_string<char, std::char_traits<char>, std::allocator<char> > const&, boost::property_tree::basic_ptree<std::__cxx11::basic_string<char, std::char_traits<char>, std::allocator<char> >, std::__cxx11::basic_string<char, std::char_traits<char>, std::allocator<char> >, std::less<std::__cxx11::basic_string<char, std::char_traits<char>, std::allocator<char> > > > const&, std::locale const&, bool)
PUBLIC 266ea 0 std::_Hashtable<std::__cxx11::basic_string<char, std::char_traits<char>, std::allocator<char> >, std::__cxx11::basic_string<char, std::char_traits<char>, std::allocator<char> >, std::allocator<std::__cxx11::basic_string<char, std::char_traits<char>, std::allocator<char> > >, std::__detail::_Identity, std::equal_to<std::__cxx11::basic_string<char, std::char_traits<char>, std::allocator<char> > >, std::hash<std::__cxx11::basic_string<char, std::char_traits<char>, std::allocator<char> > >, std::__detail::_Mod_range_hashing, std::__detail::_Default_ranged_hash, std::__detail::_Prime_rehash_policy, std::__detail::_Hashtable_traits<true, true, true> >::_M_find_before_node(unsigned long, std::__cxx11::basic_string<char, std::char_traits<char>, std::allocator<char> > const&, unsigned long) const
PUBLIC 2677a 0 std::pair<std::__detail::_Node_iterator<std::__cxx11::basic_string<char, std::char_traits<char>, std::allocator<char> >, true, true>, bool> std::_Hashtable<std::__cxx11::basic_string<char, std::char_traits<char>, std::allocator<char> >, std::__cxx11::basic_string<char, std::char_traits<char>, std::allocator<char> >, std::allocator<std::__cxx11::basic_string<char, std::char_traits<char>, std::allocator<char> > >, std::__detail::_Identity, std::equal_to<std::__cxx11::basic_string<char, std::char_traits<char>, std::allocator<char> > >, std::hash<std::__cxx11::basic_string<char, std::char_traits<char>, std::allocator<char> > >, std::__detail::_Mod_range_hashing, std::__detail::_Default_ranged_hash, std::__detail::_Prime_rehash_policy, std::__detail::_Hashtable_traits<true, true, true> >::_M_emplace<char*&>(std::integral_constant<bool, true>, char*&)
PUBLIC 26878 0 std::pair<std::__detail::_Node_iterator<std::__cxx11::basic_string<char, std::char_traits<char>, std::allocator<char> >, true, true>, bool> std::_Hashtable<std::__cxx11::basic_string<char, std::char_traits<char>, std::allocator<char> >, std::__cxx11::basic_string<char, std::char_traits<char>, std::allocator<char> >, std::allocator<std::__cxx11::basic_string<char, std::char_traits<char>, std::allocator<char> > >, std::__detail::_Identity, std::equal_to<std::__cxx11::basic_string<char, std::char_traits<char>, std::allocator<char> > >, std::hash<std::__cxx11::basic_string<char, std::char_traits<char>, std::allocator<char> > >, std::__detail::_Mod_range_hashing, std::__detail::_Default_ranged_hash, std::__detail::_Prime_rehash_policy, std::__detail::_Hashtable_traits<true, true, true> >::_M_emplace<char const*>(std::integral_constant<bool, true>, char const*&&)
PUBLIC 26975 0 void boost::detail::allocator::destroy<std::pair<std::__cxx11::basic_string<char, std::char_traits<char>, std::allocator<char> > const, boost::property_tree::basic_ptree<std::__cxx11::basic_string<char, std::char_traits<char>, std::allocator<char> >, std::__cxx11::basic_string<char, std::char_traits<char>, std::allocator<char> >, std::less<std::__cxx11::basic_string<char, std::char_traits<char>, std::allocator<char> > > > > >(std::pair<std::__cxx11::basic_string<char, std::char_traits<char>, std::allocator<char> > const, boost::property_tree::basic_ptree<std::__cxx11::basic_string<char, std::char_traits<char>, std::allocator<char> >, std::__cxx11::basic_string<char, std::char_traits<char>, std::allocator<char> >, std::less<std::__cxx11::basic_string<char, std::char_traits<char>, std::allocator<char> > > > > const*)
PUBLIC 26996 0 boost::property_tree::basic_ptree<std::__cxx11::basic_string<char, std::char_traits<char>, std::allocator<char> >, std::__cxx11::basic_string<char, std::char_traits<char>, std::allocator<char> >, std::less<std::__cxx11::basic_string<char, std::char_traits<char>, std::allocator<char> > > >::~basic_ptree()
PUBLIC 26a22 0 std::pair<std::__cxx11::basic_string<char, std::char_traits<char>, std::allocator<char> > const, boost::property_tree::basic_ptree<std::__cxx11::basic_string<char, std::char_traits<char>, std::allocator<char> >, std::__cxx11::basic_string<char, std::char_traits<char>, std::allocator<char> >, std::less<std::__cxx11::basic_string<char, std::char_traits<char>, std::allocator<char> > > > >::~pair()
PUBLIC 26a42 0 boost::property_tree::basic_ptree<std::__cxx11::basic_string<char, std::char_traits<char>, std::allocator<char> >, std::__cxx11::basic_string<char, std::char_traits<char>, std::allocator<char> >, std::less<std::__cxx11::basic_string<char, std::char_traits<char>, std::allocator<char> > > >::clear()
PUBLIC 26b1a 0 boost::multi_index::detail::copy_map_entry<boost::multi_index::detail::sequenced_index_node<boost::multi_index::detail::ordered_index_node<boost::multi_index::detail::null_augment_policy, boost::multi_index::detail::index_node_base<std::pair<std::__cxx11::basic_string<char, std::char_traits<char>, std::allocator<char> > const, boost::property_tree::basic_ptree<std::__cxx11::basic_string<char, std::char_traits<char>, std::allocator<char> >, std::__cxx11::basic_string<char, std::char_traits<char>, std::allocator<char> >, std::less<std::__cxx11::basic_string<char, std::char_traits<char>, std::allocator<char> > > > >, std::allocator<std::pair<std::__cxx11::basic_string<char, std::char_traits<char>, std::allocator<char> > const, boost::property_tree::basic_ptree<std::__cxx11::basic_string<char, std::char_traits<char>, std::allocator<char> >, std::__cxx11::basic_string<char, std::char_traits<char>, std::allocator<char> >, std::less<std::__cxx11::basic_string<char, std::char_traits<char>, std::allocator<char> > > > > > > > > > const* std::__lower_bound<boost::multi_index::detail::copy_map_entry<boost::multi_index::detail::sequenced_index_node<boost::multi_index::detail::ordered_index_node<boost::multi_index::detail::null_augment_policy, boost::multi_index::detail::index_node_base<std::pair<std::__cxx11::basic_string<char, std::char_traits<char>, std::allocator<char> > const, boost::property_tree::basic_ptree<std::__cxx11::basic_string<char, std::char_traits<char>, std::allocator<char> >, std::__cxx11::basic_string<char, std::char_traits<char>, std::allocator<char> >, std::less<std::__cxx11::basic_string<char, std::char_traits<char>, std::allocator<char> > > > >, std::allocator<std::pair<std::__cxx11::basic_string<char, std::char_traits<char>, std::allocator<char> > const, boost::property_tree::basic_ptree<std::__cxx11::basic_string<char, std::char_traits<char>, std::allocator<char> >, std::__cxx11::basic_string<char, std::char_traits<char>, std::allocator<char> >, std::less<std::__cxx11::basic_string<char, std::char_traits<char>, std::allocator<char> > > > > > > > > > const*, boost::multi_index::detail::copy_map_entry<boost::multi_index::detail::sequenced_index_node<boost::multi_index::detail::ordered_index_node<boost::multi_index::detail::null_augment_policy, boost::multi_index::detail::index_node_base<std::pair<std::__cxx11::basic_string<char, std::char_traits<char>, std::allocator<char> > const, boost::property_tree::basic_ptree<std::__cxx11::basic_string<char, std::char_traits<char>, std::allocator<char> >, std::__cxx11::basic_string<char, std::char_traits<char>, std::allocator<char> >, std::less<std::__cxx11::basic_string<char, std::char_traits<char>, std::allocator<char> > > > >, std::allocator<std::pair<std::__cxx11::basic_string<char, std::char_traits<char>, std::allocator<char> > const, boost::property_tree::basic_ptree<std::__cxx11::basic_string<char, std::char_traits<char>, std::allocator<char> >, std::__cxx11::basic_string<char, std::char_traits<char>, std::allocator<char> >, std::less<std::__cxx11::basic_string<char, std::char_traits<char>, std::allocator<char> > > > > > > > > >, __gnu_cxx::__ops::_Iter_less_val>(boost::multi_index::detail::copy_map_entry<boost::multi_index::detail::sequenced_index_node<boost::multi_index::detail::ordered_index_node<boost::multi_index::detail::null_augment_policy, boost::multi_index::detail::index_node_base<std::pair<std::__cxx11::basic_string<char, std::char_traits<char>, std::allocator<char> > const, boost::property_tree::basic_ptree<std::__cxx11::basic_string<char, std::char_traits<char>, std::allocator<char> >, std::__cxx11::basic_string<char, std::char_traits<char>, std::allocator<char> >, std::less<std::__cxx11::basic_string<char, std::char_traits<char>, std::allocator<char> > > > >, std::allocator<std::pair<std::__cxx11::basic_string<char, std::char_traits<char>, std::allocator<char> > const, boost::property_tree::basic_ptree<std::__cxx11::basic_string<char, std::char_traits<char>, std::allocator<char> >, std::__cxx11::basic_string<char, std::char_traits<char>, std::allocator<char> >, std::less<std::__cxx11::basic_string<char, std::char_traits<char>, std::allocator<char> > > > > > > > > > const*, boost::multi_index::detail::copy_map_entry<boost::multi_index::detail::sequenced_index_node<boost::multi_index::detail::ordered_index_node<boost::multi_index::detail::null_augment_policy, boost::multi_index::detail::index_node_base<std::pair<std::__cxx11::basic_string<char, std::char_traits<char>, std::allocator<char> > const, boost::property_tree::basic_ptree<std::__cxx11::basic_string<char, std::char_traits<char>, std::allocator<char> >, std::__cxx11::basic_string<char, std::char_traits<char>, std::allocator<char> >, std::less<std::__cxx11::basic_string<char, std::char_traits<char>, std::allocator<char> > > > >, std::allocator<std::pair<std::__cxx11::basic_string<char, std::char_traits<char>, std::allocator<char> > const, boost::property_tree::basic_ptree<std::__cxx11::basic_string<char, std::char_traits<char>, std::allocator<char> >, std::__cxx11::basic_string<char, std::char_traits<char>, std::allocator<char> >, std::less<std::__cxx11::basic_string<char, std::char_traits<char>, std::allocator<char> > > > > > > > > > const*, boost::multi_index::detail::copy_map_entry<boost::multi_index::detail::sequenced_index_node<boost::multi_index::detail::ordered_index_node<boost::multi_index::detail::null_augment_policy, boost::multi_index::detail::index_node_base<std::pair<std::__cxx11::basic_string<char, std::char_traits<char>, std::allocator<char> > const, boost::property_tree::basic_ptree<std::__cxx11::basic_string<char, std::char_traits<char>, std::allocator<char> >, std::__cxx11::basic_string<char, std::char_traits<char>, std::allocator<char> >, std::less<std::__cxx11::basic_string<char, std::char_traits<char>, std::allocator<char> > > > >, std::allocator<std::pair<std::__cxx11::basic_string<char, std::char_traits<char>, std::allocator<char> > const, boost::property_tree::basic_ptree<std::__cxx11::basic_string<char, std::char_traits<char>, std::allocator<char> >, std::__cxx11::basic_string<char, std::char_traits<char>, std::allocator<char> >, std::less<std::__cxx11::basic_string<char, std::char_traits<char>, std::allocator<char> > > > > > > > > > const&, __gnu_cxx::__ops::_Iter_less_val)
PUBLIC 26b54 0 void std::__unguarded_linear_insert<boost::multi_index::detail::copy_map_entry<boost::multi_index::detail::sequenced_index_node<boost::multi_index::detail::ordered_index_node<boost::multi_index::detail::null_augment_policy, boost::multi_index::detail::index_node_base<std::pair<std::__cxx11::basic_string<char, std::char_traits<char>, std::allocator<char> > const, boost::property_tree::basic_ptree<std::__cxx11::basic_string<char, std::char_traits<char>, std::allocator<char> >, std::__cxx11::basic_string<char, std::char_traits<char>, std::allocator<char> >, std::less<std::__cxx11::basic_string<char, std::char_traits<char>, std::allocator<char> > > > >, std::allocator<std::pair<std::__cxx11::basic_string<char, std::char_traits<char>, std::allocator<char> > const, boost::property_tree::basic_ptree<std::__cxx11::basic_string<char, std::char_traits<char>, std::allocator<char> >, std::__cxx11::basic_string<char, std::char_traits<char>, std::allocator<char> >, std::less<std::__cxx11::basic_string<char, std::char_traits<char>, std::allocator<char> > > > > > > > > >*, __gnu_cxx::__ops::_Val_less_iter>(boost::multi_index::detail::copy_map_entry<boost::multi_index::detail::sequenced_index_node<boost::multi_index::detail::ordered_index_node<boost::multi_index::detail::null_augment_policy, boost::multi_index::detail::index_node_base<std::pair<std::__cxx11::basic_string<char, std::char_traits<char>, std::allocator<char> > const, boost::property_tree::basic_ptree<std::__cxx11::basic_string<char, std::char_traits<char>, std::allocator<char> >, std::__cxx11::basic_string<char, std::char_traits<char>, std::allocator<char> >, std::less<std::__cxx11::basic_string<char, std::char_traits<char>, std::allocator<char> > > > >, std::allocator<std::pair<std::__cxx11::basic_string<char, std::char_traits<char>, std::allocator<char> > const, boost::property_tree::basic_ptree<std::__cxx11::basic_string<char, std::char_traits<char>, std::allocator<char> >, std::__cxx11::basic_string<char, std::char_traits<char>, std::allocator<char> >, std::less<std::__cxx11::basic_string<char, std::char_traits<char>, std::allocator<char> > > > > > > > > >*, __gnu_cxx::__ops::_Val_less_iter)
PUBLIC 26b84 0 void std::__insertion_sort<boost::multi_index::detail::copy_map_entry<boost::multi_index::detail::sequenced_index_node<boost::multi_index::detail::ordered_index_node<boost::multi_index::detail::null_augment_policy, boost::multi_index::detail::index_node_base<std::pair<std::__cxx11::basic_string<char, std::char_traits<char>, std::allocator<char> > const, boost::property_tree::basic_ptree<std::__cxx11::basic_string<char, std::char_traits<char>, std::allocator<char> >, std::__cxx11::basic_string<char, std::char_traits<char>, std::allocator<char> >, std::less<std::__cxx11::basic_string<char, std::char_traits<char>, std::allocator<char> > > > >, std::allocator<std::pair<std::__cxx11::basic_string<char, std::char_traits<char>, std::allocator<char> > const, boost::property_tree::basic_ptree<std::__cxx11::basic_string<char, std::char_traits<char>, std::allocator<char> >, std::__cxx11::basic_string<char, std::char_traits<char>, std::allocator<char> >, std::less<std::__cxx11::basic_string<char, std::char_traits<char>, std::allocator<char> > > > > > > > > >*, __gnu_cxx::__ops::_Iter_less_iter>(boost::multi_index::detail::copy_map_entry<boost::multi_index::detail::sequenced_index_node<boost::multi_index::detail::ordered_index_node<boost::multi_index::detail::null_augment_policy, boost::multi_index::detail::index_node_base<std::pair<std::__cxx11::basic_string<char, std::char_traits<char>, std::allocator<char> > const, boost::property_tree::basic_ptree<std::__cxx11::basic_string<char, std::char_traits<char>, std::allocator<char> >, std::__cxx11::basic_string<char, std::char_traits<char>, std::allocator<char> >, std::less<std::__cxx11::basic_string<char, std::char_traits<char>, std::allocator<char> > > > >, std::allocator<std::pair<std::__cxx11::basic_string<char, std::char_traits<char>, std::allocator<char> > const, boost::property_tree::basic_ptree<std::__cxx11::basic_string<char, std::char_traits<char>, std::allocator<char> >, std::__cxx11::basic_string<char, std::char_traits<char>, std::allocator<char> >, std::less<std::__cxx11::basic_string<char, std::char_traits<char>, std::allocator<char> > > > > > > > > >*, boost::multi_index::detail::copy_map_entry<boost::multi_index::detail::sequenced_index_node<boost::multi_index::detail::ordered_index_node<boost::multi_index::detail::null_augment_policy, boost::multi_index::detail::index_node_base<std::pair<std::__cxx11::basic_string<char, std::char_traits<char>, std::allocator<char> > const, boost::property_tree::basic_ptree<std::__cxx11::basic_string<char, std::char_traits<char>, std::allocator<char> >, std::__cxx11::basic_string<char, std::char_traits<char>, std::allocator<char> >, std::less<std::__cxx11::basic_string<char, std::char_traits<char>, std::allocator<char> > > > >, std::allocator<std::pair<std::__cxx11::basic_string<char, std::char_traits<char>, std::allocator<char> > const, boost::property_tree::basic_ptree<std::__cxx11::basic_string<char, std::char_traits<char>, std::allocator<char> >, std::__cxx11::basic_string<char, std::char_traits<char>, std::allocator<char> >, std::less<std::__cxx11::basic_string<char, std::char_traits<char>, std::allocator<char> > > > > > > > > >*, __gnu_cxx::__ops::_Iter_less_iter)
PUBLIC 26beb 0 boost::multi_index::detail::ordered_index_node_impl<boost::multi_index::detail::null_augment_policy, std::allocator<char> >::rebalance(boost::multi_index::detail::ordered_index_node_impl<boost::multi_index::detail::null_augment_policy, std::allocator<char> >*, boost::multi_index::detail::ordered_index_node_compressed_base<boost::multi_index::detail::null_augment_policy, std::allocator<char> >::parent_ref)
PUBLIC 26f11 0 void std::__adjust_heap<boost::multi_index::detail::copy_map_entry<boost::multi_index::detail::sequenced_index_node<boost::multi_index::detail::ordered_index_node<boost::multi_index::detail::null_augment_policy, boost::multi_index::detail::index_node_base<std::pair<std::__cxx11::basic_string<char, std::char_traits<char>, std::allocator<char> > const, boost::property_tree::basic_ptree<std::__cxx11::basic_string<char, std::char_traits<char>, std::allocator<char> >, std::__cxx11::basic_string<char, std::char_traits<char>, std::allocator<char> >, std::less<std::__cxx11::basic_string<char, std::char_traits<char>, std::allocator<char> > > > >, std::allocator<std::pair<std::__cxx11::basic_string<char, std::char_traits<char>, std::allocator<char> > const, boost::property_tree::basic_ptree<std::__cxx11::basic_string<char, std::char_traits<char>, std::allocator<char> >, std::__cxx11::basic_string<char, std::char_traits<char>, std::allocator<char> >, std::less<std::__cxx11::basic_string<char, std::char_traits<char>, std::allocator<char> > > > > > > > > >*, long, boost::multi_index::detail::copy_map_entry<boost::multi_index::detail::sequenced_index_node<boost::multi_index::detail::ordered_index_node<boost::multi_index::detail::null_augment_policy, boost::multi_index::detail::index_node_base<std::pair<std::__cxx11::basic_string<char, std::char_traits<char>, std::allocator<char> > const, boost::property_tree::basic_ptree<std::__cxx11::basic_string<char, std::char_traits<char>, std::allocator<char> >, std::__cxx11::basic_string<char, std::char_traits<char>, std::allocator<char> >, std::less<std::__cxx11::basic_string<char, std::char_traits<char>, std::allocator<char> > > > >, std::allocator<std::pair<std::__cxx11::basic_string<char, std::char_traits<char>, std::allocator<char> > const, boost::property_tree::basic_ptree<std::__cxx11::basic_string<char, std::char_traits<char>, std::allocator<char> >, std::__cxx11::basic_string<char, std::char_traits<char>, std::allocator<char> >, std::less<std::__cxx11::basic_string<char, std::char_traits<char>, std::allocator<char> > > > > > > > > >, __gnu_cxx::__ops::_Iter_less_iter>(boost::multi_index::detail::copy_map_entry<boost::multi_index::detail::sequenced_index_node<boost::multi_index::detail::ordered_index_node<boost::multi_index::detail::null_augment_policy, boost::multi_index::detail::index_node_base<std::pair<std::__cxx11::basic_string<char, std::char_traits<char>, std::allocator<char> > const, boost::property_tree::basic_ptree<std::__cxx11::basic_string<char, std::char_traits<char>, std::allocator<char> >, std::__cxx11::basic_string<char, std::char_traits<char>, std::allocator<char> >, std::less<std::__cxx11::basic_string<char, std::char_traits<char>, std::allocator<char> > > > >, std::allocator<std::pair<std::__cxx11::basic_string<char, std::char_traits<char>, std::allocator<char> > const, boost::property_tree::basic_ptree<std::__cxx11::basic_string<char, std::char_traits<char>, std::allocator<char> >, std::__cxx11::basic_string<char, std::char_traits<char>, std::allocator<char> >, std::less<std::__cxx11::basic_string<char, std::char_traits<char>, std::allocator<char> > > > > > > > > >*, long, long, boost::multi_index::detail::copy_map_entry<boost::multi_index::detail::sequenced_index_node<boost::multi_index::detail::ordered_index_node<boost::multi_index::detail::null_augment_policy, boost::multi_index::detail::index_node_base<std::pair<std::__cxx11::basic_string<char, std::char_traits<char>, std::allocator<char> > const, boost::property_tree::basic_ptree<std::__cxx11::basic_string<char, std::char_traits<char>, std::allocator<char> >, std::__cxx11::basic_string<char, std::char_traits<char>, std::allocator<char> >, std::less<std::__cxx11::basic_string<char, std::char_traits<char>, std::allocator<char> > > > >, std::allocator<std::pair<std::__cxx11::basic_string<char, std::char_traits<char>, std::allocator<char> > const, boost::property_tree::basic_ptree<std::__cxx11::basic_string<char, std::char_traits<char>, std::allocator<char> >, std::__cxx11::basic_string<char, std::char_traits<char>, std::allocator<char> >, std::less<std::__cxx11::basic_string<char, std::char_traits<char>, std::allocator<char> > > > > > > > > >, __gnu_cxx::__ops::_Iter_less_iter)
PUBLIC 27018 0 void std::__introsort_loop<boost::multi_index::detail::copy_map_entry<boost::multi_index::detail::sequenced_index_node<boost::multi_index::detail::ordered_index_node<boost::multi_index::detail::null_augment_policy, boost::multi_index::detail::index_node_base<std::pair<std::__cxx11::basic_string<char, std::char_traits<char>, std::allocator<char> > const, boost::property_tree::basic_ptree<std::__cxx11::basic_string<char, std::char_traits<char>, std::allocator<char> >, std::__cxx11::basic_string<char, std::char_traits<char>, std::allocator<char> >, std::less<std::__cxx11::basic_string<char, std::char_traits<char>, std::allocator<char> > > > >, std::allocator<std::pair<std::__cxx11::basic_string<char, std::char_traits<char>, std::allocator<char> > const, boost::property_tree::basic_ptree<std::__cxx11::basic_string<char, std::char_traits<char>, std::allocator<char> >, std::__cxx11::basic_string<char, std::char_traits<char>, std::allocator<char> >, std::less<std::__cxx11::basic_string<char, std::char_traits<char>, std::allocator<char> > > > > > > > > >*, long, __gnu_cxx::__ops::_Iter_less_iter>(boost::multi_index::detail::copy_map_entry<boost::multi_index::detail::sequenced_index_node<boost::multi_index::detail::ordered_index_node<boost::multi_index::detail::null_augment_policy, boost::multi_index::detail::index_node_base<std::pair<std::__cxx11::basic_string<char, std::char_traits<char>, std::allocator<char> > const, boost::property_tree::basic_ptree<std::__cxx11::basic_string<char, std::char_traits<char>, std::allocator<char> >, std::__cxx11::basic_string<char, std::char_traits<char>, std::allocator<char> >, std::less<std::__cxx11::basic_string<char, std::char_traits<char>, std::allocator<char> > > > >, std::allocator<std::pair<std::__cxx11::basic_string<char, std::char_traits<char>, std::allocator<char> > const, boost::property_tree::basic_ptree<std::__cxx11::basic_string<char, std::char_traits<char>, std::allocator<char> >, std::__cxx11::basic_string<char, std::char_traits<char>, std::allocator<char> >, std::less<std::__cxx11::basic_string<char, std::char_traits<char>, std::allocator<char> > > > > > > > > >*, boost::multi_index::detail::copy_map_entry<boost::multi_index::detail::sequenced_index_node<boost::multi_index::detail::ordered_index_node<boost::multi_index::detail::null_augment_policy, boost::multi_index::detail::index_node_base<std::pair<std::__cxx11::basic_string<char, std::char_traits<char>, std::allocator<char> > const, boost::property_tree::basic_ptree<std::__cxx11::basic_string<char, std::char_traits<char>, std::allocator<char> >, std::__cxx11::basic_string<char, std::char_traits<char>, std::allocator<char> >, std::less<std::__cxx11::basic_string<char, std::char_traits<char>, std::allocator<char> > > > >, std::allocator<std::pair<std::__cxx11::basic_string<char, std::char_traits<char>, std::allocator<char> > const, boost::property_tree::basic_ptree<std::__cxx11::basic_string<char, std::char_traits<char>, std::allocator<char> >, std::__cxx11::basic_string<char, std::char_traits<char>, std::allocator<char> >, std::less<std::__cxx11::basic_string<char, std::char_traits<char>, std::allocator<char> > > > > > > > > >*, long, __gnu_cxx::__ops::_Iter_less_iter)
PUBLIC 2723a 0 boost::property_tree::basic_ptree<std::__cxx11::basic_string<char, std::char_traits<char>, std::allocator<char> >, std::__cxx11::basic_string<char, std::char_traits<char>, std::allocator<char> >, std::less<std::__cxx11::basic_string<char, std::char_traits<char>, std::allocator<char> > > >::basic_ptree(boost::property_tree::basic_ptree<std::__cxx11::basic_string<char, std::char_traits<char>, std::allocator<char> >, std::__cxx11::basic_string<char, std::char_traits<char>, std::allocator<char> >, std::less<std::__cxx11::basic_string<char, std::char_traits<char>, std::allocator<char> > > > const&)
PUBLIC 277b0 0 void boost::detail::allocator::construct<std::pair<std::__cxx11::basic_string<char, std::char_traits<char>, std::allocator<char> > const, boost::property_tree::basic_ptree<std::__cxx11::basic_string<char, std::char_traits<char>, std::allocator<char> >, std::__cxx11::basic_string<char, std::char_traits<char>, std::allocator<char> >, std::less<std::__cxx11::basic_string<char, std::char_traits<char>, std::allocator<char> > > > > >(void*, std::pair<std::__cxx11::basic_string<char, std::char_traits<char>, std::allocator<char> > const, boost::property_tree::basic_ptree<std::__cxx11::basic_string<char, std::char_traits<char>, std::allocator<char> >, std::__cxx11::basic_string<char, std::char_traits<char>, std::allocator<char> >, std::less<std::__cxx11::basic_string<char, std::char_traits<char>, std::allocator<char> > > > > const&)
PUBLIC 277fe 0 boost::property_tree::basic_ptree<std::__cxx11::basic_string<char, std::char_traits<char>, std::allocator<char> >, std::__cxx11::basic_string<char, std::char_traits<char>, std::allocator<char> >, std::less<std::__cxx11::basic_string<char, std::char_traits<char>, std::allocator<char> > > >::force_path(boost::property_tree::string_path<std::__cxx11::basic_string<char, std::char_traits<char>, std::allocator<char> >, boost::property_tree::id_translator<std::__cxx11::basic_string<char, std::char_traits<char>, std::allocator<char> > > >&)
PUBLIC 27d56 0 boost::property_tree::basic_ptree<std::__cxx11::basic_string<char, std::char_traits<char>, std::allocator<char> >, std::__cxx11::basic_string<char, std::char_traits<char>, std::allocator<char> >, std::less<std::__cxx11::basic_string<char, std::char_traits<char>, std::allocator<char> > > >::put_child(boost::property_tree::string_path<std::__cxx11::basic_string<char, std::char_traits<char>, std::allocator<char> >, boost::property_tree::id_translator<std::__cxx11::basic_string<char, std::char_traits<char>, std::allocator<char> > > > const&, boost::property_tree::basic_ptree<std::__cxx11::basic_string<char, std::char_traits<char>, std::allocator<char> >, std::__cxx11::basic_string<char, std::char_traits<char>, std::allocator<char> >, std::less<std::__cxx11::basic_string<char, std::char_traits<char>, std::allocator<char> > > > const&)
PUBLIC 281be 0 boost::property_tree::basic_ptree<std::__cxx11::basic_string<char, std::char_traits<char>, std::allocator<char> >, std::__cxx11::basic_string<char, std::char_traits<char>, std::allocator<char> >, std::less<std::__cxx11::basic_string<char, std::char_traits<char>, std::allocator<char> > > >& boost::property_tree::basic_ptree<std::__cxx11::basic_string<char, std::char_traits<char>, std::allocator<char> >, std::__cxx11::basic_string<char, std::char_traits<char>, std::allocator<char> >, std::less<std::__cxx11::basic_string<char, std::char_traits<char>, std::allocator<char> > > >::put<std::__cxx11::basic_string<char, std::char_traits<char>, std::allocator<char> >, boost::property_tree::id_translator<std::__cxx11::basic_string<char, std::char_traits<char>, std::allocator<char> > > >(boost::property_tree::string_path<std::__cxx11::basic_string<char, std::char_traits<char>, std::allocator<char> >, boost::property_tree::id_translator<std::__cxx11::basic_string<char, std::char_traits<char>, std::allocator<char> > > > const&, std::__cxx11::basic_string<char, std::char_traits<char>, std::allocator<char> > const&, boost::property_tree::id_translator<std::__cxx11::basic_string<char, std::char_traits<char>, std::allocator<char> > >)
PUBLIC 282fe 0 boost::property_tree::basic_ptree<std::__cxx11::basic_string<char, std::char_traits<char>, std::allocator<char> >, std::__cxx11::basic_string<char, std::char_traits<char>, std::allocator<char> >, std::less<std::__cxx11::basic_string<char, std::char_traits<char>, std::allocator<char> > > >::add_child(boost::property_tree::string_path<std::__cxx11::basic_string<char, std::char_traits<char>, std::allocator<char> >, boost::property_tree::id_translator<std::__cxx11::basic_string<char, std::char_traits<char>, std::allocator<char> > > > const&, boost::property_tree::basic_ptree<std::__cxx11::basic_string<char, std::char_traits<char>, std::allocator<char> >, std::__cxx11::basic_string<char, std::char_traits<char>, std::allocator<char> >, std::less<std::__cxx11::basic_string<char, std::char_traits<char>, std::allocator<char> > > > const&)
PUBLIC 28618 0 _fini
STACK CFI INIT c020 1150 .cfa: $rsp 16 + .ra: .cfa -8 + ^
STACK CFI c026 .cfa: $rsp 24 +
STACK CFI INIT d170 10 .cfa: $rsp 8 + .ra: .cfa -8 + ^
STACK CFI INIT d235 8e8 .cfa: $rsp 8 + .ra: .cfa -8 + ^
STACK CFI d237 $r15: .cfa -16 + ^ .cfa: $rsp 16 +
STACK CFI d239 $r14: .cfa -24 + ^ .cfa: $rsp 24 +
STACK CFI d23b $r13: .cfa -32 + ^ .cfa: $rsp 32 +
STACK CFI d23d $r12: .cfa -40 + ^ .cfa: $rsp 40 +
STACK CFI d23e $rbp: .cfa -48 + ^ .cfa: $rsp 48 +
STACK CFI d23f $rbx: .cfa -56 + ^ .cfa: $rsp 56 +
STACK CFI d243 .cfa: $rsp 128 +
STACK CFI d40c .cfa: $rsp 136 +
STACK CFI d40e .cfa: $rsp 144 +
STACK CFI d410 .cfa: $rsp 152 +
STACK CFI d412 .cfa: $rsp 160 +
STACK CFI d414 .cfa: $rsp 168 +
STACK CFI d416 .cfa: $rsp 176 +
STACK CFI d437 .cfa: $rsp 128 +
STACK CFI d755 .cfa: $rsp 136 +
STACK CFI d757 .cfa: $rsp 144 +
STACK CFI d759 .cfa: $rsp 152 +
STACK CFI d75b .cfa: $rsp 160 +
STACK CFI d75d .cfa: $rsp 168 +
STACK CFI d761 .cfa: $rsp 176 +
STACK CFI d780 .cfa: $rsp 128 +
STACK CFI d87c .cfa: $rsp 136 +
STACK CFI d87e .cfa: $rsp 144 +
STACK CFI d880 .cfa: $rsp 152 +
STACK CFI d882 .cfa: $rsp 160 +
STACK CFI d884 .cfa: $rsp 168 +
STACK CFI d888 .cfa: $rsp 176 +
STACK CFI d8aa .cfa: $rsp 128 +
STACK CFI da4d .cfa: $rsp 136 +
STACK CFI da4f .cfa: $rsp 144 +
STACK CFI da51 .cfa: $rsp 152 +
STACK CFI da53 .cfa: $rsp 160 +
STACK CFI da55 .cfa: $rsp 168 +
STACK CFI da59 .cfa: $rsp 176 +
STACK CFI da78 .cfa: $rsp 128 +
STACK CFI daaf .cfa: $rsp 56 +
STACK CFI dab0 .cfa: $rsp 48 +
STACK CFI dab1 .cfa: $rsp 40 +
STACK CFI dab3 .cfa: $rsp 32 +
STACK CFI dab5 .cfa: $rsp 24 +
STACK CFI dab7 .cfa: $rsp 16 +
STACK CFI dab9 .cfa: $rsp 8 +
STACK CFI daba .cfa: $rsp 128 +
STACK CFI INIT db1d 1153 .cfa: $rsp 8 + .ra: .cfa -8 + ^
STACK CFI db1f $r15: .cfa -16 + ^ .cfa: $rsp 16 +
STACK CFI db21 $r14: .cfa -24 + ^ .cfa: $rsp 24 +
STACK CFI db23 $r13: .cfa -32 + ^ .cfa: $rsp 32 +
STACK CFI db25 $r12: .cfa -40 + ^ .cfa: $rsp 40 +
STACK CFI db26 $rbp: .cfa -48 + ^ .cfa: $rsp 48 +
STACK CFI db27 $rbx: .cfa -56 + ^ .cfa: $rsp 56 +
STACK CFI db2b .cfa: $rsp 176 +
STACK CFI dc35 .cfa: $rsp 56 +
STACK CFI dc36 .cfa: $rsp 48 +
STACK CFI dc37 .cfa: $rsp 40 +
STACK CFI dc39 .cfa: $rsp 32 +
STACK CFI dc3b .cfa: $rsp 24 +
STACK CFI dc3d .cfa: $rsp 16 +
STACK CFI dc3f .cfa: $rsp 8 +
STACK CFI dc40 .cfa: $rsp 176 +
STACK CFI de68 .cfa: $rsp 184 +
STACK CFI de6a .cfa: $rsp 192 +
STACK CFI de6c .cfa: $rsp 200 +
STACK CFI de6e .cfa: $rsp 208 +
STACK CFI de70 .cfa: $rsp 216 +
STACK CFI de72 .cfa: $rsp 224 +
STACK CFI de96 .cfa: $rsp 176 +
STACK CFI e5f4 .cfa: $rsp 184 +
STACK CFI e5f6 .cfa: $rsp 192 +
STACK CFI e5f8 .cfa: $rsp 200 +
STACK CFI e5fa .cfa: $rsp 208 +
STACK CFI e5fb .cfa: $rsp 216 +
STACK CFI e5fd .cfa: $rsp 224 +
STACK CFI e626 .cfa: $rsp 176 +
STACK CFI e83a .cfa: $rsp 184 +
STACK CFI e83c .cfa: $rsp 192 +
STACK CFI e83e .cfa: $rsp 200 +
STACK CFI e840 .cfa: $rsp 208 +
STACK CFI e842 .cfa: $rsp 216 +
STACK CFI e844 .cfa: $rsp 224 +
STACK CFI e862 .cfa: $rsp 176 +
STACK CFI e92b .cfa: $rsp 184 +
STACK CFI e92d .cfa: $rsp 192 +
STACK CFI e92f .cfa: $rsp 200 +
STACK CFI e931 .cfa: $rsp 208 +
STACK CFI e933 .cfa: $rsp 216 +
STACK CFI e935 .cfa: $rsp 224 +
STACK CFI e959 .cfa: $rsp 176 +
STACK CFI e9f3 .cfa: $rsp 184 +
STACK CFI e9f5 .cfa: $rsp 192 +
STACK CFI e9f7 .cfa: $rsp 200 +
STACK CFI e9f9 .cfa: $rsp 208 +
STACK CFI e9fb .cfa: $rsp 216 +
STACK CFI e9fd .cfa: $rsp 224 +
STACK CFI ea21 .cfa: $rsp 176 +
STACK CFI eb77 .cfa: $rsp 184 +
STACK CFI eb79 .cfa: $rsp 192 +
STACK CFI eb7b .cfa: $rsp 200 +
STACK CFI eb7d .cfa: $rsp 208 +
STACK CFI eb7f .cfa: $rsp 216 +
STACK CFI eb81 .cfa: $rsp 224 +
STACK CFI eba5 .cfa: $rsp 176 +
STACK CFI INIT ec70 21c .cfa: $rsp 8 + .ra: .cfa -8 + ^
STACK CFI ec72 $r15: .cfa -16 + ^ .cfa: $rsp 16 +
STACK CFI ec74 $r14: .cfa -24 + ^ .cfa: $rsp 24 +
STACK CFI ec76 $r13: .cfa -32 + ^ .cfa: $rsp 32 +
STACK CFI ec78 $r12: .cfa -40 + ^ .cfa: $rsp 40 +
STACK CFI ec79 $rbp: .cfa -48 + ^ .cfa: $rsp 48 +
STACK CFI ec7a $rbx: .cfa -56 + ^ .cfa: $rsp 56 +
STACK CFI ec7e .cfa: $rsp 112 +
STACK CFI ecdc .cfa: $rsp 120 +
STACK CFI ecde .cfa: $rsp 128 +
STACK CFI ece0 .cfa: $rsp 136 +
STACK CFI ece8 .cfa: $rsp 144 +
STACK CFI ecee .cfa: $rsp 152 +
STACK CFI ecf4 .cfa: $rsp 160 +
STACK CFI ecfb .cfa: $rsp 168 +
STACK CFI ecfc .cfa: $rsp 176 +
STACK CFI ed1c .cfa: $rsp 112 +
STACK CFI ee38 .cfa: $rsp 56 +
STACK CFI ee39 .cfa: $rsp 48 +
STACK CFI ee3a .cfa: $rsp 40 +
STACK CFI ee3c .cfa: $rsp 32 +
STACK CFI ee3e .cfa: $rsp 24 +
STACK CFI ee40 .cfa: $rsp 16 +
STACK CFI ee42 .cfa: $rsp 8 +
STACK CFI ee43 .cfa: $rsp 112 +
STACK CFI INIT ee8c e1 .cfa: $rsp 8 + .ra: .cfa -8 + ^
STACK CFI ee8e $r15: .cfa -16 + ^ .cfa: $rsp 16 +
STACK CFI ee90 $r14: .cfa -24 + ^ .cfa: $rsp 24 +
STACK CFI ee92 $r13: .cfa -32 + ^ .cfa: $rsp 32 +
STACK CFI ee94 $r12: .cfa -40 + ^ .cfa: $rsp 40 +
STACK CFI ee95 $rbp: .cfa -48 + ^ .cfa: $rsp 48 +
STACK CFI ee96 $rbx: .cfa -56 + ^ .cfa: $rsp 56 +
STACK CFI ee9a .cfa: $rsp 64 +
STACK CFI ef36 .cfa: $rsp 56 +
STACK CFI ef37 .cfa: $rsp 48 +
STACK CFI ef38 .cfa: $rsp 40 +
STACK CFI ef3a .cfa: $rsp 32 +
STACK CFI ef3c .cfa: $rsp 24 +
STACK CFI ef3e .cfa: $rsp 16 +
STACK CFI ef40 .cfa: $rsp 8 +
STACK CFI ef41 .cfa: $rsp 64 +
STACK CFI INIT ef6d eb .cfa: $rsp 8 + .ra: .cfa -8 + ^
STACK CFI ef6f $r13: .cfa -16 + ^ .cfa: $rsp 16 +
STACK CFI ef71 $r12: .cfa -24 + ^ .cfa: $rsp 24 +
STACK CFI ef72 $rbp: .cfa -32 + ^ .cfa: $rsp 32 +
STACK CFI ef73 $rbx: .cfa -40 + ^ .cfa: $rsp 40 +
STACK CFI ef77 .cfa: $rsp 48 +
STACK CFI f00f .cfa: $rsp 40 +
STACK CFI f010 .cfa: $rsp 32 +
STACK CFI f011 .cfa: $rsp 24 +
STACK CFI f013 .cfa: $rsp 16 +
STACK CFI f015 .cfa: $rsp 8 +
STACK CFI f016 .cfa: $rsp 48 +
STACK CFI INIT f058 3cc .cfa: $rsp 8 + .ra: .cfa -8 + ^
STACK CFI f059 $rbx: .cfa -16 + ^ .cfa: $rsp 16 +
STACK CFI f1e0 .cfa: $rsp 8 +
STACK CFI f1e1 .cfa: $rsp 16 +
STACK CFI INIT f424 64 .cfa: $rsp 8 + .ra: .cfa -8 + ^
STACK CFI f426 $r12: .cfa -16 + ^ .cfa: $rsp 16 +
STACK CFI f427 $rbp: .cfa -24 + ^ .cfa: $rsp 24 +
STACK CFI f428 $rbx: .cfa -32 + ^ .cfa: $rsp 32 +
STACK CFI f484 .cfa: $rsp 24 +
STACK CFI f485 .cfa: $rsp 16 +
STACK CFI f487 .cfa: $rsp 8 +
STACK CFI INIT f488 ca .cfa: $rsp 8 + .ra: .cfa -8 + ^
STACK CFI f489 $rbp: .cfa -16 + ^ .cfa: $rsp 16 +
STACK CFI f48a $rbx: .cfa -24 + ^ .cfa: $rsp 24 +
STACK CFI f48e .cfa: $rsp 32 +
STACK CFI f4fd .cfa: $rsp 24 +
STACK CFI f4fe .cfa: $rsp 16 +
STACK CFI f4ff .cfa: $rsp 8 +
STACK CFI f500 .cfa: $rsp 32 +
STACK CFI INIT f552 114 .cfa: $rsp 8 + .ra: .cfa -8 + ^
STACK CFI f554 $r13: .cfa -16 + ^ .cfa: $rsp 16 +
STACK CFI f556 $r12: .cfa -24 + ^ .cfa: $rsp 24 +
STACK CFI f557 $rbp: .cfa -32 + ^ .cfa: $rsp 32 +
STACK CFI f558 $rbx: .cfa -40 + ^ .cfa: $rsp 40 +
STACK CFI f55f .cfa: $rsp 1216 +
STACK CFI f575 .cfa: $rsp 40 +
STACK CFI f576 .cfa: $rsp 32 +
STACK CFI f577 .cfa: $rsp 24 +
STACK CFI f579 .cfa: $rsp 16 +
STACK CFI f57b .cfa: $rsp 8 +
STACK CFI f57c .cfa: $rsp 1216 +
STACK CFI INIT f666 e .cfa: $rsp 8 + .ra: .cfa -8 + ^
STACK CFI f66a .cfa: $rsp 16 +
STACK CFI f673 .cfa: $rsp 8 +
STACK CFI INIT f674 18d .cfa: $rsp 8 + .ra: .cfa -8 + ^
STACK CFI f676 $r13: .cfa -16 + ^ .cfa: $rsp 16 +
STACK CFI f678 $r12: .cfa -24 + ^ .cfa: $rsp 24 +
STACK CFI f679 $rbp: .cfa -32 + ^ .cfa: $rsp 32 +
STACK CFI f67a $rbx: .cfa -40 + ^ .cfa: $rsp 40 +
STACK CFI f67e .cfa: $rsp 48 +
STACK CFI f7fa .cfa: $rsp 40 +
STACK CFI f7fb .cfa: $rsp 32 +
STACK CFI f7fc .cfa: $rsp 24 +
STACK CFI f7fe .cfa: $rsp 16 +
STACK CFI f800 .cfa: $rsp 8 +
STACK CFI INIT f801 dd .cfa: $rsp 8 + .ra: .cfa -8 + ^
STACK CFI f803 $r13: .cfa -16 + ^ .cfa: $rsp 16 +
STACK CFI f805 $r12: .cfa -24 + ^ .cfa: $rsp 24 +
STACK CFI f806 $rbp: .cfa -32 + ^ .cfa: $rsp 32 +
STACK CFI f807 $rbx: .cfa -40 + ^ .cfa: $rsp 40 +
STACK CFI f80b .cfa: $rsp 48 +
STACK CFI f8b0 .cfa: $rsp 40 +
STACK CFI f8b1 .cfa: $rsp 32 +
STACK CFI f8b2 .cfa: $rsp 24 +
STACK CFI f8b4 .cfa: $rsp 16 +
STACK CFI f8b6 .cfa: $rsp 8 +
STACK CFI f8b7 .cfa: $rsp 48 +
STACK CFI INIT f8de 300 .cfa: $rsp 8 + .ra: .cfa -8 + ^
STACK CFI f8e0 $r12: .cfa -16 + ^ .cfa: $rsp 16 +
STACK CFI f8e1 $rbp: .cfa -24 + ^ .cfa: $rsp 24 +
STACK CFI f8e2 $rbx: .cfa -32 + ^ .cfa: $rsp 32 +
STACK CFI f906 .cfa: $rsp 24 +
STACK CFI f907 .cfa: $rsp 16 +
STACK CFI f909 .cfa: $rsp 8 +
STACK CFI f90a .cfa: $rsp 32 +
STACK CFI INIT fbde 1bc .cfa: $rsp 8 + .ra: .cfa -8 + ^
STACK CFI fbe0 $r14: .cfa -16 + ^ .cfa: $rsp 16 +
STACK CFI fbe2 $r13: .cfa -24 + ^ .cfa: $rsp 24 +
STACK CFI fbe4 $r12: .cfa -32 + ^ .cfa: $rsp 32 +
STACK CFI fbe5 $rbp: .cfa -40 + ^ .cfa: $rsp 40 +
STACK CFI fbe6 $rbx: .cfa -48 + ^ .cfa: $rsp 48 +
STACK CFI fd3c .cfa: $rsp 40 +
STACK CFI fd3d .cfa: $rsp 32 +
STACK CFI fd3f .cfa: $rsp 24 +
STACK CFI fd41 .cfa: $rsp 16 +
STACK CFI fd43 .cfa: $rsp 8 +
STACK CFI fd44 .cfa: $rsp 48 +
STACK CFI INIT fd9a 92 .cfa: $rsp 8 + .ra: .cfa -8 + ^
STACK CFI fda9 $rbx: .cfa -16 + ^ .cfa: $rsp 16 +
STACK CFI fdd6 .cfa: $rsp 8 +
STACK CFI fdd7 .cfa: $rsp 16 +
STACK CFI fe2b $rbx: $rbx .cfa: $rsp 8 +
STACK CFI INIT fe2c 40d .cfa: $rsp 8 + .ra: .cfa -8 + ^
STACK CFI fe2e $r14: .cfa -16 + ^ .cfa: $rsp 16 +
STACK CFI fe30 $r13: .cfa -24 + ^ .cfa: $rsp 24 +
STACK CFI fe32 $r12: .cfa -32 + ^ .cfa: $rsp 32 +
STACK CFI fe33 $rbp: .cfa -40 + ^ .cfa: $rsp 40 +
STACK CFI fe34 $rbx: .cfa -48 + ^ .cfa: $rsp 48 +
STACK CFI 10231 .cfa: $rsp 40 +
STACK CFI 10232 .cfa: $rsp 32 +
STACK CFI 10234 .cfa: $rsp 24 +
STACK CFI 10236 .cfa: $rsp 16 +
STACK CFI 10238 .cfa: $rsp 8 +
STACK CFI INIT 10239 62 .cfa: $rsp 8 + .ra: .cfa -8 + ^
STACK CFI 1023a $rbp: .cfa -16 + ^ .cfa: $rsp 16 +
STACK CFI 1023b $rbx: .cfa -24 + ^ .cfa: $rsp 24 +
STACK CFI 1023f .cfa: $rsp 32 +
STACK CFI 10298 .cfa: $rsp 24 +
STACK CFI 10299 .cfa: $rsp 16 +
STACK CFI 1029a .cfa: $rsp 8 +
STACK CFI INIT 1029b 456 .cfa: $rsp 8 + .ra: .cfa -8 + ^
STACK CFI 1029d $r15: .cfa -16 + ^ .cfa: $rsp 16 +
STACK CFI 1029f $r14: .cfa -24 + ^ .cfa: $rsp 24 +
STACK CFI 102a1 $r13: .cfa -32 + ^ .cfa: $rsp 32 +
STACK CFI 102a3 $r12: .cfa -40 + ^ .cfa: $rsp 40 +
STACK CFI 102a4 $rbp: .cfa -48 + ^ .cfa: $rsp 48 +
STACK CFI 102a5 $rbx: .cfa -56 + ^ .cfa: $rsp 56 +
STACK CFI 102a9 .cfa: $rsp 144 +
STACK CFI 10303 .cfa: $rsp 56 +
STACK CFI 10304 .cfa: $rsp 48 +
STACK CFI 10305 .cfa: $rsp 40 +
STACK CFI 10307 .cfa: $rsp 32 +
STACK CFI 10309 .cfa: $rsp 24 +
STACK CFI 1030b .cfa: $rsp 16 +
STACK CFI 1030d .cfa: $rsp 8 +
STACK CFI 1030e .cfa: $rsp 144 +
STACK CFI INIT 106f1 7b0 .cfa: $rsp 8 + .ra: .cfa -8 + ^
STACK CFI 106f3 $r15: .cfa -16 + ^ .cfa: $rsp 16 +
STACK CFI 106f5 $r14: .cfa -24 + ^ .cfa: $rsp 24 +
STACK CFI 106f7 $r13: .cfa -32 + ^ .cfa: $rsp 32 +
STACK CFI 106f9 $r12: .cfa -40 + ^ .cfa: $rsp 40 +
STACK CFI 106fa $rbp: .cfa -48 + ^ .cfa: $rsp 48 +
STACK CFI 106fb $rbx: .cfa -56 + ^ .cfa: $rsp 56 +
STACK CFI 106ff .cfa: $rsp 112 +
STACK CFI 10734 .cfa: $rsp 56 +
STACK CFI 10735 .cfa: $rsp 48 +
STACK CFI 10736 .cfa: $rsp 40 +
STACK CFI 10738 .cfa: $rsp 32 +
STACK CFI 1073a .cfa: $rsp 24 +
STACK CFI 1073c .cfa: $rsp 16 +
STACK CFI 1073e .cfa: $rsp 8 +
STACK CFI 1073f .cfa: $rsp 112 +
STACK CFI INIT 10ea1 a9 .cfa: $rsp 8 + .ra: .cfa -8 + ^
STACK CFI 10ea3 $r14: .cfa -16 + ^ .cfa: $rsp 16 +
STACK CFI 10ea5 $r13: .cfa -24 + ^ .cfa: $rsp 24 +
STACK CFI 10ea7 $r12: .cfa -32 + ^ .cfa: $rsp 32 +
STACK CFI 10ea8 $rbp: .cfa -40 + ^ .cfa: $rsp 40 +
STACK CFI 10ea9 $rbx: .cfa -48 + ^ .cfa: $rsp 48 +
STACK CFI 10f42 .cfa: $rsp 40 +
STACK CFI 10f43 .cfa: $rsp 32 +
STACK CFI 10f45 .cfa: $rsp 24 +
STACK CFI 10f47 .cfa: $rsp 16 +
STACK CFI 10f49 .cfa: $rsp 8 +
STACK CFI INIT 10f4a 1fb .cfa: $rsp 8 + .ra: .cfa -8 + ^
STACK CFI 10f4c $r15: .cfa -16 + ^ .cfa: $rsp 16 +
STACK CFI 10f4e $r14: .cfa -24 + ^ .cfa: $rsp 24 +
STACK CFI 10f50 $r13: .cfa -32 + ^ .cfa: $rsp 32 +
STACK CFI 10f52 $r12: .cfa -40 + ^ .cfa: $rsp 40 +
STACK CFI 10f53 $rbp: .cfa -48 + ^ .cfa: $rsp 48 +
STACK CFI 10f54 $rbx: .cfa -56 + ^ .cfa: $rsp 56 +
STACK CFI 10f58 .cfa: $rsp 96 +
STACK CFI 11094 .cfa: $rsp 56 +
STACK CFI 11095 .cfa: $rsp 48 +
STACK CFI 11096 .cfa: $rsp 40 +
STACK CFI 11098 .cfa: $rsp 32 +
STACK CFI 1109a .cfa: $rsp 24 +
STACK CFI 1109c .cfa: $rsp 16 +
STACK CFI 1109e .cfa: $rsp 8 +
STACK CFI 1109f .cfa: $rsp 96 +
STACK CFI INIT 11145 74 .cfa: $rsp 8 + .ra: .cfa -8 + ^
STACK CFI 11147 $r12: .cfa -16 + ^ .cfa: $rsp 16 +
STACK CFI 11148 $rbp: .cfa -24 + ^ .cfa: $rsp 24 +
STACK CFI 11149 $rbx: .cfa -32 + ^ .cfa: $rsp 32 +
STACK CFI 1119f .cfa: $rsp 24 +
STACK CFI 111a0 .cfa: $rsp 16 +
STACK CFI 111a2 .cfa: $rsp 8 +
STACK CFI 111a3 .cfa: $rsp 32 +
STACK CFI INIT 111b9 89 .cfa: $rsp 8 + .ra: .cfa -8 + ^
STACK CFI 111c4 $rbp: .cfa -16 + ^ .cfa: $rsp 16 +
STACK CFI 111c5 $rbx: .cfa -24 + ^ .cfa: $rsp 24 +
STACK CFI 111c9 .cfa: $rsp 32 +
STACK CFI 111ec .cfa: $rsp 24 +
STACK CFI 111ed .cfa: $rsp 16 +
STACK CFI 111ee .cfa: $rsp 8 +
STACK CFI 111ef .cfa: $rsp 32 +
STACK CFI 11241 $rbp: $rbp $rbx: $rbx .cfa: $rsp 8 +
STACK CFI INIT 11242 73 .cfa: $rsp 8 + .ra: .cfa -8 + ^
STACK CFI 11244 $r12: .cfa -16 + ^ .cfa: $rsp 16 +
STACK CFI 11245 $rbp: .cfa -24 + ^ .cfa: $rsp 24 +
STACK CFI 11246 $rbx: .cfa -32 + ^ .cfa: $rsp 32 +
STACK CFI 112b1 .cfa: $rsp 24 +
STACK CFI 112b2 .cfa: $rsp 16 +
STACK CFI 112b4 .cfa: $rsp 8 +
STACK CFI INIT 112b5 130 .cfa: $rsp 8 + .ra: .cfa -8 + ^
STACK CFI 112c5 $r13: .cfa -16 + ^ .cfa: $rsp 16 +
STACK CFI 112c7 $r12: .cfa -24 + ^ .cfa: $rsp 24 +
STACK CFI 112c8 $rbp: .cfa -32 + ^ .cfa: $rsp 32 +
STACK CFI 112c9 $rbx: .cfa -40 + ^ .cfa: $rsp 40 +
STACK CFI 112cd .cfa: $rsp 48 +
STACK CFI 112f0 .cfa: $rsp 40 +
STACK CFI 112f1 .cfa: $rsp 32 +
STACK CFI 112f2 .cfa: $rsp 24 +
STACK CFI 112f4 .cfa: $rsp 16 +
STACK CFI 112f6 .cfa: $rsp 8 +
STACK CFI 112f7 .cfa: $rsp 48 +
STACK CFI 113e4 $r12: $r12 $r13: $r13 $rbp: $rbp $rbx: $rbx .cfa: $rsp 8 +
STACK CFI INIT 113e5 73 .cfa: $rsp 8 + .ra: .cfa -8 + ^
STACK CFI 113e7 $r12: .cfa -16 + ^ .cfa: $rsp 16 +
STACK CFI 113e8 $rbp: .cfa -24 + ^ .cfa: $rsp 24 +
STACK CFI 113e9 $rbx: .cfa -32 + ^ .cfa: $rsp 32 +
STACK CFI 11454 .cfa: $rsp 24 +
STACK CFI 11455 .cfa: $rsp 16 +
STACK CFI 11457 .cfa: $rsp 8 +
STACK CFI INIT 11458 13d .cfa: $rsp 8 + .ra: .cfa -8 + ^
STACK CFI 1145a $r12: .cfa -16 + ^ .cfa: $rsp 16 +
STACK CFI 1145b $rbp: .cfa -24 + ^ .cfa: $rsp 24 +
STACK CFI 1145c $rbx: .cfa -32 + ^ .cfa: $rsp 32 +
STACK CFI 114aa .cfa: $rsp 24 +
STACK CFI 114ab .cfa: $rsp 16 +
STACK CFI 114ad .cfa: $rsp 8 +
STACK CFI 114ae .cfa: $rsp 32 +
STACK CFI INIT 11595 3cc .cfa: $rsp 8 + .ra: .cfa -8 + ^
STACK CFI 11597 $r15: .cfa -16 + ^ .cfa: $rsp 16 +
STACK CFI 11599 $r14: .cfa -24 + ^ .cfa: $rsp 24 +
STACK CFI 1159b $r13: .cfa -32 + ^ .cfa: $rsp 32 +
STACK CFI 1159d $r12: .cfa -40 + ^ .cfa: $rsp 40 +
STACK CFI 1159e $rbp: .cfa -48 + ^ .cfa: $rsp 48 +
STACK CFI 1159f $rbx: .cfa -56 + ^ .cfa: $rsp 56 +
STACK CFI 115a3 .cfa: $rsp 80 +
STACK CFI 115ea .cfa: $rsp 56 +
STACK CFI 115eb .cfa: $rsp 48 +
STACK CFI 115ec .cfa: $rsp 40 +
STACK CFI 115ee .cfa: $rsp 32 +
STACK CFI 115f0 .cfa: $rsp 24 +
STACK CFI 115f2 .cfa: $rsp 16 +
STACK CFI 115f4 .cfa: $rsp 8 +
STACK CFI 115f5 .cfa: $rsp 80 +
STACK CFI INIT 11961 123 .cfa: $rsp 8 + .ra: .cfa -8 + ^
STACK CFI 11963 $r15: .cfa -16 + ^ .cfa: $rsp 16 +
STACK CFI 11965 $r14: .cfa -24 + ^ .cfa: $rsp 24 +
STACK CFI 11967 $r13: .cfa -32 + ^ .cfa: $rsp 32 +
STACK CFI 11969 $r12: .cfa -40 + ^ .cfa: $rsp 40 +
STACK CFI 1196a $rbp: .cfa -48 + ^ .cfa: $rsp 48 +
STACK CFI 1196b $rbx: .cfa -56 + ^ .cfa: $rsp 56 +
STACK CFI 1196f .cfa: $rsp 64 +
STACK CFI 11a79 .cfa: $rsp 56 +
STACK CFI 11a7a .cfa: $rsp 48 +
STACK CFI 11a7b .cfa: $rsp 40 +
STACK CFI 11a7d .cfa: $rsp 32 +
STACK CFI 11a7f .cfa: $rsp 24 +
STACK CFI 11a81 .cfa: $rsp 16 +
STACK CFI 11a83 .cfa: $rsp 8 +
STACK CFI INIT 11a84 cf .cfa: $rsp 8 + .ra: .cfa -8 + ^
STACK CFI 11a86 $r14: .cfa -16 + ^ .cfa: $rsp 16 +
STACK CFI 11a88 $r13: .cfa -24 + ^ .cfa: $rsp 24 +
STACK CFI 11a8a $r12: .cfa -32 + ^ .cfa: $rsp 32 +
STACK CFI 11a8b $rbp: .cfa -40 + ^ .cfa: $rsp 40 +
STACK CFI 11a8c $rbx: .cfa -48 + ^ .cfa: $rsp 48 +
STACK CFI 11aa7 .cfa: $rsp 40 +
STACK CFI 11aa8 .cfa: $rsp 32 +
STACK CFI 11aaa .cfa: $rsp 24 +
STACK CFI 11aac .cfa: $rsp 16 +
STACK CFI 11aae .cfa: $rsp 8 +
STACK CFI 11aaf .cfa: $rsp 48 +
STACK CFI INIT 11b53 8d .cfa: $rsp 8 + .ra: .cfa -8 + ^
STACK CFI 11b55 $r12: .cfa -16 + ^ .cfa: $rsp 16 +
STACK CFI 11b56 $rbp: .cfa -24 + ^ .cfa: $rsp 24 +
STACK CFI 11b57 $rbx: .cfa -32 + ^ .cfa: $rsp 32 +
STACK CFI 11bdc .cfa: $rsp 24 +
STACK CFI 11bdd .cfa: $rsp 16 +
STACK CFI 11bdf .cfa: $rsp 8 +
STACK CFI INIT 11be0 51 .cfa: $rsp 8 + .ra: .cfa -8 + ^
STACK CFI 11be1 $rbp: .cfa -16 + ^ .cfa: $rsp 16 +
STACK CFI 11be2 $rbx: .cfa -24 + ^ .cfa: $rsp 24 +
STACK CFI 11be6 .cfa: $rsp 32 +
STACK CFI 11c20 .cfa: $rsp 24 +
STACK CFI 11c21 .cfa: $rsp 16 +
STACK CFI 11c22 .cfa: $rsp 8 +
STACK CFI 11c23 .cfa: $rsp 32 +
STACK CFI INIT 11c31 69 .cfa: $rsp 8 + .ra: .cfa -8 + ^
STACK CFI 11c32 $rbp: .cfa -16 + ^ .cfa: $rsp 16 +
STACK CFI 11c33 $rbx: .cfa -24 + ^ .cfa: $rsp 24 +
STACK CFI 11c37 .cfa: $rsp 32 +
STACK CFI 11c7f .cfa: $rsp 24 +
STACK CFI 11c80 .cfa: $rsp 16 +
STACK CFI 11c81 .cfa: $rsp 8 +
STACK CFI 11c82 .cfa: $rsp 32 +
STACK CFI INIT 11c9a 28f .cfa: $rsp 8 + .ra: .cfa -8 + ^
STACK CFI 11c9c $r15: .cfa -16 + ^ .cfa: $rsp 16 +
STACK CFI 11c9e $r14: .cfa -24 + ^ .cfa: $rsp 24 +
STACK CFI 11ca0 $r13: .cfa -32 + ^ .cfa: $rsp 32 +
STACK CFI 11ca2 $r12: .cfa -40 + ^ .cfa: $rsp 40 +
STACK CFI 11ca3 $rbp: .cfa -48 + ^ .cfa: $rsp 48 +
STACK CFI 11ca4 $rbx: .cfa -56 + ^ .cfa: $rsp 56 +
STACK CFI 11ca8 .cfa: $rsp 80 +
STACK CFI 11cf4 .cfa: $rsp 56 +
STACK CFI 11cf5 .cfa: $rsp 48 +
STACK CFI 11cf6 .cfa: $rsp 40 +
STACK CFI 11cf8 .cfa: $rsp 32 +
STACK CFI 11cfa .cfa: $rsp 24 +
STACK CFI 11cfc .cfa: $rsp 16 +
STACK CFI 11cfe .cfa: $rsp 8 +
STACK CFI 11cff .cfa: $rsp 80 +
STACK CFI INIT 11f29 377 .cfa: $rsp 8 + .ra: .cfa -8 + ^
STACK CFI 11f39 $r15: .cfa -16 + ^ .cfa: $rsp 16 +
STACK CFI 11f3b $r14: .cfa -24 + ^ .cfa: $rsp 24 +
STACK CFI 11f3d $r13: .cfa -32 + ^ .cfa: $rsp 32 +
STACK CFI 11f3f $r12: .cfa -40 + ^ .cfa: $rsp 40 +
STACK CFI 11f40 $rbp: .cfa -48 + ^ .cfa: $rsp 48 +
STACK CFI 11f41 $rbx: .cfa -56 + ^ .cfa: $rsp 56 +
STACK CFI 11f45 .cfa: $rsp 80 +
STACK CFI 11f68 .cfa: $rsp 56 +
STACK CFI 11f69 .cfa: $rsp 48 +
STACK CFI 11f6a .cfa: $rsp 40 +
STACK CFI 11f6c .cfa: $rsp 32 +
STACK CFI 11f6e .cfa: $rsp 24 +
STACK CFI 11f70 .cfa: $rsp 16 +
STACK CFI 11f72 .cfa: $rsp 8 +
STACK CFI 11f73 .cfa: $rsp 80 +
STACK CFI 1229f $r12: $r12 $r13: $r13 $r14: $r14 $r15: $r15 $rbp: $rbp $rbx: $rbx .cfa: $rsp 8 +
STACK CFI INIT 122a0 d2 .cfa: $rsp 8 + .ra: .cfa -8 + ^
STACK CFI 122a2 $r12: .cfa -16 + ^ .cfa: $rsp 16 +
STACK CFI 122a3 $rbp: .cfa -24 + ^ .cfa: $rsp 24 +
STACK CFI 122a4 $rbx: .cfa -32 + ^ .cfa: $rsp 32 +
STACK CFI 1236e .cfa: $rsp 24 +
STACK CFI 1236f .cfa: $rsp 16 +
STACK CFI 12371 .cfa: $rsp 8 +
STACK CFI INIT 12372 6a4 .cfa: $rsp 8 + .ra: .cfa -8 + ^
STACK CFI 12374 $r13: .cfa -16 + ^ .cfa: $rsp 16 +
STACK CFI 12376 $r12: .cfa -24 + ^ .cfa: $rsp 24 +
STACK CFI 12377 $rbp: .cfa -32 + ^ .cfa: $rsp 32 +
STACK CFI 12378 $rbx: .cfa -40 + ^ .cfa: $rsp 40 +
STACK CFI 1237c .cfa: $rsp 64 +
STACK CFI 123ca .cfa: $rsp 40 +
STACK CFI 123cb .cfa: $rsp 32 +
STACK CFI 123cc .cfa: $rsp 24 +
STACK CFI 123ce .cfa: $rsp 16 +
STACK CFI 123d0 .cfa: $rsp 8 +
STACK CFI 123d1 .cfa: $rsp 64 +
STACK CFI INIT 12a16 113 .cfa: $rsp 8 + .ra: .cfa -8 + ^
STACK CFI 12a26 $r12: .cfa -16 + ^ .cfa: $rsp 16 +
STACK CFI 12a27 $rbp: .cfa -24 + ^ .cfa: $rsp 24 +
STACK CFI 12a28 $rbx: .cfa -32 + ^ .cfa: $rsp 32 +
STACK CFI 12a48 .cfa: $rsp 24 +
STACK CFI 12a49 .cfa: $rsp 16 +
STACK CFI 12a4b .cfa: $rsp 8 +
STACK CFI 12a4c .cfa: $rsp 32 +
STACK CFI 12b28 $r12: $r12 $rbp: $rbp $rbx: $rbx .cfa: $rsp 8 +
STACK CFI INIT 12b29 164 .cfa: $rsp 8 + .ra: .cfa -8 + ^
STACK CFI 12b39 $r13: .cfa -16 + ^ .cfa: $rsp 16 +
STACK CFI 12b3b $r12: .cfa -24 + ^ .cfa: $rsp 24 +
STACK CFI 12b3c $rbp: .cfa -32 + ^ .cfa: $rsp 32 +
STACK CFI 12b3d $rbx: .cfa -40 + ^ .cfa: $rsp 40 +
STACK CFI 12b41 .cfa: $rsp 48 +
STACK CFI 12b64 .cfa: $rsp 40 +
STACK CFI 12b65 .cfa: $rsp 32 +
STACK CFI 12b66 .cfa: $rsp 24 +
STACK CFI 12b68 .cfa: $rsp 16 +
STACK CFI 12b6a .cfa: $rsp 8 +
STACK CFI 12b6b .cfa: $rsp 48 +
STACK CFI 12c8c $r12: $r12 $r13: $r13 $rbp: $rbp $rbx: $rbx .cfa: $rsp 8 +
STACK CFI INIT 12c8d b5 .cfa: $rsp 8 + .ra: .cfa -8 + ^
STACK CFI 12c8f $r13: .cfa -16 + ^ .cfa: $rsp 16 +
STACK CFI 12c91 $r12: .cfa -24 + ^ .cfa: $rsp 24 +
STACK CFI 12c92 $rbp: .cfa -32 + ^ .cfa: $rsp 32 +
STACK CFI 12c93 $rbx: .cfa -40 + ^ .cfa: $rsp 40 +
STACK CFI 12c97 .cfa: $rsp 48 +
STACK CFI 12d3b .cfa: $rsp 40 +
STACK CFI 12d3c .cfa: $rsp 32 +
STACK CFI 12d3d .cfa: $rsp 24 +
STACK CFI 12d3f .cfa: $rsp 16 +
STACK CFI 12d41 .cfa: $rsp 8 +
STACK CFI INIT 12d42 c6 .cfa: $rsp 8 + .ra: .cfa -8 + ^
STACK CFI 12d44 $r13: .cfa -16 + ^ .cfa: $rsp 16 +
STACK CFI 12d46 $r12: .cfa -24 + ^ .cfa: $rsp 24 +
STACK CFI 12d47 $rbp: .cfa -32 + ^ .cfa: $rsp 32 +
STACK CFI 12d48 $rbx: .cfa -40 + ^ .cfa: $rsp 40 +
STACK CFI 12d4c .cfa: $rsp 48 +
STACK CFI 12e01 .cfa: $rsp 40 +
STACK CFI 12e02 .cfa: $rsp 32 +
STACK CFI 12e03 .cfa: $rsp 24 +
STACK CFI 12e05 .cfa: $rsp 16 +
STACK CFI 12e07 .cfa: $rsp 8 +
STACK CFI INIT 12e08 da .cfa: $rsp 8 + .ra: .cfa -8 + ^
STACK CFI 12e0a $r14: .cfa -16 + ^ .cfa: $rsp 16 +
STACK CFI 12e0c $r13: .cfa -24 + ^ .cfa: $rsp 24 +
STACK CFI 12e0e $r12: .cfa -32 + ^ .cfa: $rsp 32 +
STACK CFI 12e0f $rbp: .cfa -40 + ^ .cfa: $rsp 40 +
STACK CFI 12e10 $rbx: .cfa -48 + ^ .cfa: $rsp 48 +
STACK CFI 12ec4 .cfa: $rsp 40 +
STACK CFI 12ec5 .cfa: $rsp 32 +
STACK CFI 12ec7 .cfa: $rsp 24 +
STACK CFI 12ec9 .cfa: $rsp 16 +
STACK CFI 12ecb .cfa: $rsp 8 +
STACK CFI 12ecc .cfa: $rsp 48 +
STACK CFI INIT 12ee2 cd .cfa: $rsp 8 + .ra: .cfa -8 + ^
STACK CFI 12ee4 $r14: .cfa -16 + ^ .cfa: $rsp 16 +
STACK CFI 12ee6 $r13: .cfa -24 + ^ .cfa: $rsp 24 +
STACK CFI 12ee8 $r12: .cfa -32 + ^ .cfa: $rsp 32 +
STACK CFI 12ee9 $rbp: .cfa -40 + ^ .cfa: $rsp 40 +
STACK CFI 12eea $rbx: .cfa -48 + ^ .cfa: $rsp 48 +
STACK CFI 12fa7 .cfa: $rsp 40 +
STACK CFI 12fa8 .cfa: $rsp 32 +
STACK CFI 12faa .cfa: $rsp 24 +
STACK CFI 12fac .cfa: $rsp 16 +
STACK CFI 12fae .cfa: $rsp 8 +
STACK CFI INIT 12faf b5 .cfa: $rsp 8 + .ra: .cfa -8 + ^
STACK CFI 12fb1 $r13: .cfa -16 + ^ .cfa: $rsp 16 +
STACK CFI 12fb3 $r12: .cfa -24 + ^ .cfa: $rsp 24 +
STACK CFI 12fb4 $rbp: .cfa -32 + ^ .cfa: $rsp 32 +
STACK CFI 12fb5 $rbx: .cfa -40 + ^ .cfa: $rsp 40 +
STACK CFI 12fb9 .cfa: $rsp 48 +
STACK CFI 1305d .cfa: $rsp 40 +
STACK CFI 1305e .cfa: $rsp 32 +
STACK CFI 1305f .cfa: $rsp 24 +
STACK CFI 13061 .cfa: $rsp 16 +
STACK CFI 13063 .cfa: $rsp 8 +
STACK CFI INIT 13064 b11 .cfa: $rsp 8 + .ra: .cfa -8 + ^
STACK CFI 13066 $r15: .cfa -16 + ^ .cfa: $rsp 16 +
STACK CFI 13068 $r14: .cfa -24 + ^ .cfa: $rsp 24 +
STACK CFI 1306a $r13: .cfa -32 + ^ .cfa: $rsp 32 +
STACK CFI 1306c $r12: .cfa -40 + ^ .cfa: $rsp 40 +
STACK CFI 1306d $rbp: .cfa -48 + ^ .cfa: $rsp 48 +
STACK CFI 1306e $rbx: .cfa -56 + ^ .cfa: $rsp 56 +
STACK CFI 13072 .cfa: $rsp 128 +
STACK CFI 13a30 .cfa: $rsp 56 +
STACK CFI 13a31 .cfa: $rsp 48 +
STACK CFI 13a32 .cfa: $rsp 40 +
STACK CFI 13a34 .cfa: $rsp 32 +
STACK CFI 13a36 .cfa: $rsp 24 +
STACK CFI 13a38 .cfa: $rsp 16 +
STACK CFI 13a3a .cfa: $rsp 8 +
STACK CFI 13a3b .cfa: $rsp 128 +
STACK CFI INIT 13b75 498 .cfa: $rsp 8 + .ra: .cfa -8 + ^
STACK CFI 13b82 $rbx: .cfa -16 + ^ .cfa: $rsp 16 +
STACK CFI 14006 .cfa: $rsp 8 +
STACK CFI 14007 $rbx: $rbx
STACK CFI INIT 1400d 62 .cfa: $rsp 8 + .ra: .cfa -8 + ^
STACK CFI 14013 $rbx: .cfa -16 + ^ .cfa: $rsp 16 +
STACK CFI 14061 .cfa: $rsp 8 +
STACK CFI 14062 $rbx: $rbx
STACK CFI 14068 $rbx: .cfa -16 + ^ .cfa: $rsp 16 +
STACK CFI INIT 1406f 202 .cfa: $rsp 8 + .ra: .cfa -8 + ^
STACK CFI 14070 $rbp: .cfa -16 + ^ .cfa: $rsp 16 +
STACK CFI 14071 $rbx: .cfa -24 + ^ .cfa: $rsp 24 +
STACK CFI 14075 .cfa: $rsp 32 +
STACK CFI 1426e .cfa: $rsp 24 +
STACK CFI 1426f .cfa: $rsp 16 +
STACK CFI 14270 .cfa: $rsp 8 +
STACK CFI INIT 14271 30 .cfa: $rsp 8 + .ra: .cfa -8 + ^
STACK CFI 14275 .cfa: $rsp 16 +
STACK CFI 142a0 .cfa: $rsp 8 +
STACK CFI INIT 142a1 161 .cfa: $rsp 8 + .ra: .cfa -8 + ^
STACK CFI 142b0 $rbx: .cfa -16 + ^ .cfa: $rsp 16 +
STACK CFI 14341 .cfa: $rsp 8 +
STACK CFI 14342 .cfa: $rsp 16 +
STACK CFI 143f8 $rbx: $rbx .cfa: $rsp 8 +
STACK CFI INIT 14402 fa .cfa: $rsp 8 + .ra: .cfa -8 + ^
STACK CFI 14411 $rbx: .cfa -16 + ^ .cfa: $rsp 16 +
STACK CFI 144d9 .cfa: $rsp 8 +
STACK CFI 144da .cfa: $rsp 16 +
STACK CFI 144f2 $rbx: $rbx .cfa: $rsp 8 +
STACK CFI INIT 144fc 4f .cfa: $rsp 8 + .ra: .cfa -8 + ^
STACK CFI 144fd $rbx: .cfa -16 + ^ .cfa: $rsp 16 +
STACK CFI 1450a .cfa: $rsp 8 +
STACK CFI 1450b .cfa: $rsp 16 +
STACK CFI INIT 1454b 1482 .cfa: $rsp 8 + .ra: .cfa -8 + ^
STACK CFI 1454d $r15: .cfa -16 + ^ .cfa: $rsp 16 +
STACK CFI 1454f $r14: .cfa -24 + ^ .cfa: $rsp 24 +
STACK CFI 14551 $r13: .cfa -32 + ^ .cfa: $rsp 32 +
STACK CFI 14553 $r12: .cfa -40 + ^ .cfa: $rsp 40 +
STACK CFI 14554 $rbp: .cfa -48 + ^ .cfa: $rsp 48 +
STACK CFI 14555 $rbx: .cfa -56 + ^ .cfa: $rsp 56 +
STACK CFI 1455c .cfa: $rsp 1104 +
STACK CFI 15926 .cfa: $rsp 56 +
STACK CFI 15927 .cfa: $rsp 48 +
STACK CFI 15928 .cfa: $rsp 40 +
STACK CFI 1592a .cfa: $rsp 32 +
STACK CFI 1592c .cfa: $rsp 24 +
STACK CFI 1592e .cfa: $rsp 16 +
STACK CFI 15930 .cfa: $rsp 8 +
STACK CFI 15931 .cfa: $rsp 1104 +
STACK CFI INIT 159cd 42 .cfa: $rsp 8 + .ra: .cfa -8 + ^
STACK CFI INIT 15a0f 36 .cfa: $rsp 8 + .ra: .cfa -8 + ^
STACK CFI INIT 15a45 1a6 .cfa: $rsp 8 + .ra: .cfa -8 + ^
STACK CFI 15a47 $r12: .cfa -16 + ^ .cfa: $rsp 16 +
STACK CFI 15a48 $rbp: .cfa -24 + ^ .cfa: $rsp 24 +
STACK CFI 15a49 $rbx: .cfa -32 + ^ .cfa: $rsp 32 +
STACK CFI 15a50 .cfa: $rsp 1888 +
STACK CFI 15a69 .cfa: $rsp 32 +
STACK CFI 15a6a .cfa: $rsp 24 +
STACK CFI 15a6b .cfa: $rsp 16 +
STACK CFI 15a6d .cfa: $rsp 8 +
STACK CFI 15a6e .cfa: $rsp 1888 +
STACK CFI 15b6b .cfa: $rsp 1896 +
STACK CFI 15b7a .cfa: $rsp 1904 +
STACK CFI 15b9d .cfa: $rsp 1888 +
STACK CFI INIT 15beb 59 .cfa: $rsp 8 + .ra: .cfa -8 + ^
STACK CFI 15bec $rbp: .cfa -16 + ^ .cfa: $rsp 16 +
STACK CFI 15bed $rbx: .cfa -24 + ^ .cfa: $rsp 24 +
STACK CFI 15bf1 .cfa: $rsp 32 +
STACK CFI 15c34 .cfa: $rsp 24 +
STACK CFI 15c35 .cfa: $rsp 16 +
STACK CFI 15c36 .cfa: $rsp 8 +
STACK CFI 15c37 .cfa: $rsp 32 +
STACK CFI INIT 15c44 18a .cfa: $rsp 8 + .ra: .cfa -8 + ^
STACK CFI 15c46 $r12: .cfa -16 + ^ .cfa: $rsp 16 +
STACK CFI 15c47 $rbp: .cfa -24 + ^ .cfa: $rsp 24 +
STACK CFI 15c48 $rbx: .cfa -32 + ^ .cfa: $rsp 32 +
STACK CFI 15c61 .cfa: $rsp 24 +
STACK CFI 15c62 .cfa: $rsp 16 +
STACK CFI 15c64 .cfa: $rsp 8 +
STACK CFI 15c65 .cfa: $rsp 32 +
STACK CFI INIT 15dce 145 .cfa: $rsp 8 + .ra: .cfa -8 + ^
STACK CFI 15dcf $rbp: .cfa -16 + ^ .cfa: $rsp 16 +
STACK CFI 15dd0 $rbx: .cfa -24 + ^ .cfa: $rsp 24 +
STACK CFI 15dd4 .cfa: $rsp 48 +
STACK CFI 15dea .cfa: $rsp 24 +
STACK CFI 15deb .cfa: $rsp 16 +
STACK CFI 15dec .cfa: $rsp 8 +
STACK CFI 15ded .cfa: $rsp 48 +
STACK CFI INIT 15f14 1e6 .cfa: $rsp 8 + .ra: .cfa -8 + ^
STACK CFI 15f16 $r13: .cfa -16 + ^ .cfa: $rsp 16 +
STACK CFI 15f18 $r12: .cfa -24 + ^ .cfa: $rsp 24 +
STACK CFI 15f19 $rbp: .cfa -32 + ^ .cfa: $rsp 32 +
STACK CFI 15f1a $rbx: .cfa -40 + ^ .cfa: $rsp 40 +
STACK CFI 15f1e .cfa: $rsp 64 +
STACK CFI 15fb5 .cfa: $rsp 40 +
STACK CFI 15fb6 .cfa: $rsp 32 +
STACK CFI 15fb7 .cfa: $rsp 24 +
STACK CFI 15fb9 .cfa: $rsp 16 +
STACK CFI 15fbb .cfa: $rsp 8 +
STACK CFI 15fbc .cfa: $rsp 64 +
STACK CFI INIT 160fa cf .cfa: $rsp 8 + .ra: .cfa -8 + ^
STACK CFI 160fc $r12: .cfa -16 + ^ .cfa: $rsp 16 +
STACK CFI 160fd $rbp: .cfa -24 + ^ .cfa: $rsp 24 +
STACK CFI 160fe $rbx: .cfa -32 + ^ .cfa: $rsp 32 +
STACK CFI 16102 .cfa: $rsp 64 +
STACK CFI 161ab .cfa: $rsp 32 +
STACK CFI 161ac .cfa: $rsp 24 +
STACK CFI 161ad .cfa: $rsp 16 +
STACK CFI 161af .cfa: $rsp 8 +
STACK CFI 161b0 .cfa: $rsp 64 +
STACK CFI INIT 161ca 61 .cfa: $rsp 8 + .ra: .cfa -8 + ^
STACK CFI INIT 1622b 44 .cfa: $rsp 8 + .ra: .cfa -8 + ^
STACK CFI 1622d $r12: .cfa -16 + ^ .cfa: $rsp 16 +
STACK CFI 1622e $rbp: .cfa -24 + ^ .cfa: $rsp 24 +
STACK CFI 1622f $rbx: .cfa -32 + ^ .cfa: $rsp 32 +
STACK CFI 1626b .cfa: $rsp 24 +
STACK CFI 1626c .cfa: $rsp 16 +
STACK CFI 1626e .cfa: $rsp 8 +
STACK CFI INIT 1626f 44 .cfa: $rsp 8 + .ra: .cfa -8 + ^
STACK CFI 16271 $r12: .cfa -16 + ^ .cfa: $rsp 16 +
STACK CFI 16272 $rbp: .cfa -24 + ^ .cfa: $rsp 24 +
STACK CFI 16273 $rbx: .cfa -32 + ^ .cfa: $rsp 32 +
STACK CFI 162af .cfa: $rsp 24 +
STACK CFI 162b0 .cfa: $rsp 16 +
STACK CFI 162b2 .cfa: $rsp 8 +
STACK CFI INIT 162b3 31 .cfa: $rsp 8 + .ra: .cfa -8 + ^
STACK CFI 162b7 .cfa: $rsp 16 +
STACK CFI 162d2 .cfa: $rsp 8 +
STACK CFI 162d3 .cfa: $rsp 16 +
STACK CFI INIT 162e4 42 .cfa: $rsp 8 + .ra: .cfa -8 + ^
STACK CFI 162f9 .cfa: $rsp 16 +
STACK CFI 1631c .cfa: $rsp 8 +
STACK CFI 1631d .cfa: $rsp 16 +
STACK CFI INIT 16326 4ae .cfa: $rsp 8 + .ra: .cfa -8 + ^
STACK CFI 16331 $r15: .cfa -16 + ^ .cfa: $rsp 16 +
STACK CFI 16333 $r14: .cfa -24 + ^ .cfa: $rsp 24 +
STACK CFI 16335 $r13: .cfa -32 + ^ .cfa: $rsp 32 +
STACK CFI 16337 $r12: .cfa -40 + ^ .cfa: $rsp 40 +
STACK CFI 16338 $rbp: .cfa -48 + ^ .cfa: $rsp 48 +
STACK CFI 16339 $rbx: .cfa -56 + ^ .cfa: $rsp 56 +
STACK CFI 16340 .cfa: $rsp 8416 +
STACK CFI 167a1 .cfa: $rsp 56 +
STACK CFI 167a2 .cfa: $rsp 48 +
STACK CFI 167a3 .cfa: $rsp 40 +
STACK CFI 167a5 .cfa: $rsp 32 +
STACK CFI 167a7 .cfa: $rsp 24 +
STACK CFI 167a9 .cfa: $rsp 16 +
STACK CFI 167ab .cfa: $rsp 8 +
STACK CFI 167ac .cfa: $rsp 8416 +
STACK CFI 167d3 $r12: $r12 $r13: $r13 $r14: $r14 $r15: $r15 $rbp: $rbp $rbx: $rbx .cfa: $rsp 8 +
STACK CFI INIT 167d4 105 .cfa: $rsp 8 + .ra: .cfa -8 + ^
STACK CFI 167d6 $r15: .cfa -16 + ^ .cfa: $rsp 16 +
STACK CFI 167d8 $r14: .cfa -24 + ^ .cfa: $rsp 24 +
STACK CFI 167da $r13: .cfa -32 + ^ .cfa: $rsp 32 +
STACK CFI 167dc $r12: .cfa -40 + ^ .cfa: $rsp 40 +
STACK CFI 167dd $rbp: .cfa -48 + ^ .cfa: $rsp 48 +
STACK CFI 167de $rbx: .cfa -56 + ^ .cfa: $rsp 56 +
STACK CFI 167e2 .cfa: $rsp 80 +
STACK CFI 1688b .cfa: $rsp 56 +
STACK CFI 1688c .cfa: $rsp 48 +
STACK CFI 1688d .cfa: $rsp 40 +
STACK CFI 1688f .cfa: $rsp 32 +
STACK CFI 16891 .cfa: $rsp 24 +
STACK CFI 16893 .cfa: $rsp 16 +
STACK CFI 16895 .cfa: $rsp 8 +
STACK CFI 16896 .cfa: $rsp 80 +
STACK CFI INIT 223d4 1c .cfa: $rsp 8 + .ra: .cfa -8 + ^
STACK CFI 223d8 .cfa: $rsp 16 +
STACK CFI 223ef .cfa: $rsp 8 +
STACK CFI INIT 223f0 26 .cfa: $rsp 8 + .ra: .cfa -8 + ^
STACK CFI 223f1 $rbx: .cfa -16 + ^ .cfa: $rsp 16 +
STACK CFI 22415 .cfa: $rsp 8 +
STACK CFI INIT 22416 39 .cfa: $rsp 8 + .ra: .cfa -8 + ^
STACK CFI 22417 $rbx: .cfa -16 + ^ .cfa: $rsp 16 +
STACK CFI 2244e .cfa: $rsp 8 +
STACK CFI INIT 22450 39 .cfa: $rsp 8 + .ra: .cfa -8 + ^
STACK CFI 22451 $rbx: .cfa -16 + ^ .cfa: $rsp 16 +
STACK CFI 22488 .cfa: $rsp 8 +
STACK CFI INIT 2248a 4e .cfa: $rsp 8 + .ra: .cfa -8 + ^
STACK CFI 2248b $rbx: .cfa -16 + ^ .cfa: $rsp 16 +
STACK CFI 224d7 .cfa: $rsp 8 +
STACK CFI INIT 168d9 1f .cfa: $rsp 8 + .ra: .cfa -8 + ^
STACK CFI 168dd .cfa: $rsp 16 +
STACK CFI 168f7 .cfa: $rsp 8 +
STACK CFI INIT 168f8 ac .cfa: $rsp 8 + .ra: .cfa -8 + ^
STACK CFI 168f9 $rbp: .cfa -16 + ^ .cfa: $rsp 16 +
STACK CFI 168fa $rbx: .cfa -24 + ^ .cfa: $rsp 24 +
STACK CFI 168fe .cfa: $rsp 32 +
STACK CFI 16921 .cfa: $rsp 24 +
STACK CFI 16922 .cfa: $rsp 16 +
STACK CFI 16923 .cfa: $rsp 8 +
STACK CFI 16924 .cfa: $rsp 32 +
STACK CFI INIT 169a4 13 .cfa: $rsp 8 + .ra: .cfa -8 + ^
STACK CFI 169a8 .cfa: $rsp 16 +
STACK CFI 169b6 .cfa: $rsp 8 +
STACK CFI INIT 224d8 46 .cfa: $rsp 8 + .ra: .cfa -8 + ^
STACK CFI 224d9 $rbx: .cfa -16 + ^ .cfa: $rsp 16 +
STACK CFI 2251d .cfa: $rsp 8 +
STACK CFI INIT 2251e 46 .cfa: $rsp 8 + .ra: .cfa -8 + ^
STACK CFI 2251f $rbx: .cfa -16 + ^ .cfa: $rsp 16 +
STACK CFI 22563 .cfa: $rsp 8 +
STACK CFI INIT 22564 4e .cfa: $rsp 8 + .ra: .cfa -8 + ^
STACK CFI 22565 $rbx: .cfa -16 + ^ .cfa: $rsp 16 +
STACK CFI 225b1 .cfa: $rsp 8 +
STACK CFI INIT 225b2 5b .cfa: $rsp 8 + .ra: .cfa -8 + ^
STACK CFI 225b3 $rbx: .cfa -16 + ^ .cfa: $rsp 16 +
STACK CFI 2260c .cfa: $rsp 8 +
STACK CFI INIT 2260e 5b .cfa: $rsp 8 + .ra: .cfa -8 + ^
STACK CFI 2260f $rbx: .cfa -16 + ^ .cfa: $rsp 16 +
STACK CFI 22668 .cfa: $rsp 8 +
STACK CFI INIT 2266a a9 .cfa: $rsp 8 + .ra: .cfa -8 + ^
STACK CFI 2266b $rbp: .cfa -16 + ^ .cfa: $rsp 16 +
STACK CFI 2266c $rbx: .cfa -24 + ^ .cfa: $rsp 24 +
STACK CFI 22670 .cfa: $rsp 32 +
STACK CFI 22710 .cfa: $rsp 24 +
STACK CFI 22711 .cfa: $rsp 16 +
STACK CFI 22712 .cfa: $rsp 8 +
STACK CFI INIT 22713 a3 .cfa: $rsp 8 + .ra: .cfa -8 + ^
STACK CFI 22714 $rbx: .cfa -16 + ^ .cfa: $rsp 16 +
STACK CFI 227b5 .cfa: $rsp 8 +
STACK CFI INIT 22852 9c .cfa: $rsp 8 + .ra: .cfa -8 + ^
STACK CFI 22853 $rbp: .cfa -16 + ^ .cfa: $rsp 16 +
STACK CFI 22854 $rbx: .cfa -24 + ^ .cfa: $rsp 24 +
STACK CFI 22858 .cfa: $rsp 32 +
STACK CFI 228eb .cfa: $rsp 24 +
STACK CFI 228ec .cfa: $rsp 16 +
STACK CFI 228ed .cfa: $rsp 8 +
STACK CFI INIT 22a14 97 .cfa: $rsp 8 + .ra: .cfa -8 + ^
STACK CFI 22a16 $r12: .cfa -16 + ^ .cfa: $rsp 16 +
STACK CFI 22a17 $rbp: .cfa -24 + ^ .cfa: $rsp 24 +
STACK CFI 22a18 $rbx: .cfa -32 + ^ .cfa: $rsp 32 +
STACK CFI 22aa7 .cfa: $rsp 24 +
STACK CFI 22aa8 .cfa: $rsp 16 +
STACK CFI 22aaa .cfa: $rsp 8 +
STACK CFI INIT 228ee 96 .cfa: $rsp 8 + .ra: .cfa -8 + ^
STACK CFI 228ef $rbx: .cfa -16 + ^ .cfa: $rsp 16 +
STACK CFI 22983 .cfa: $rsp 8 +
STACK CFI INIT 22aac 87 .cfa: $rsp 8 + .ra: .cfa -8 + ^
STACK CFI 22aad $rbx: .cfa -16 + ^ .cfa: $rsp 16 +
STACK CFI 22b32 .cfa: $rsp 8 +
STACK CFI INIT 22984 8f .cfa: $rsp 8 + .ra: .cfa -8 + ^
STACK CFI 22985 $rbx: .cfa -16 + ^ .cfa: $rsp 16 +
STACK CFI 22a12 .cfa: $rsp 8 +
STACK CFI INIT 22b34 8a .cfa: $rsp 8 + .ra: .cfa -8 + ^
STACK CFI 22b35 $rbp: .cfa -16 + ^ .cfa: $rsp 16 +
STACK CFI 22b36 $rbx: .cfa -24 + ^ .cfa: $rsp 24 +
STACK CFI 22b3a .cfa: $rsp 32 +
STACK CFI 22bbb .cfa: $rsp 24 +
STACK CFI 22bbc .cfa: $rsp 16 +
STACK CFI 22bbd .cfa: $rsp 8 +
STACK CFI INIT 22bbe 7a .cfa: $rsp 8 + .ra: .cfa -8 + ^
STACK CFI 22bbf $rbx: .cfa -16 + ^ .cfa: $rsp 16 +
STACK CFI 22c37 .cfa: $rsp 8 +
STACK CFI INIT 227b6 9c .cfa: $rsp 8 + .ra: .cfa -8 + ^
STACK CFI 227b7 $rbx: .cfa -16 + ^ .cfa: $rsp 16 +
STACK CFI 22851 .cfa: $rsp 8 +
STACK CFI INIT 169b8 116 .cfa: $rsp 8 + .ra: .cfa -8 + ^
STACK CFI 169ba $r13: .cfa -16 + ^ .cfa: $rsp 16 +
STACK CFI 169bc $r12: .cfa -24 + ^ .cfa: $rsp 24 +
STACK CFI 169bd $rbp: .cfa -32 + ^ .cfa: $rsp 32 +
STACK CFI 169be $rbx: .cfa -40 + ^ .cfa: $rsp 40 +
STACK CFI 169c2 .cfa: $rsp 48 +
STACK CFI 16ac7 .cfa: $rsp 40 +
STACK CFI 16ac8 .cfa: $rsp 32 +
STACK CFI 16ac9 .cfa: $rsp 24 +
STACK CFI 16acb .cfa: $rsp 16 +
STACK CFI 16acd .cfa: $rsp 8 +
STACK CFI INIT 16ace 6d .cfa: $rsp 8 + .ra: .cfa -8 + ^
STACK CFI 16ad0 $r15: .cfa -16 + ^ .cfa: $rsp 16 +
STACK CFI 16ad2 $r14: .cfa -24 + ^ .cfa: $rsp 24 +
STACK CFI 16ad4 $r13: .cfa -32 + ^ .cfa: $rsp 32 +
STACK CFI 16ad6 $r12: .cfa -40 + ^ .cfa: $rsp 40 +
STACK CFI 16ad7 $rbp: .cfa -48 + ^ .cfa: $rsp 48 +
STACK CFI 16ad8 $rbx: .cfa -56 + ^ .cfa: $rsp 56 +
STACK CFI 16adc .cfa: $rsp 64 +
STACK CFI 16b30 .cfa: $rsp 56 +
STACK CFI 16b31 .cfa: $rsp 48 +
STACK CFI 16b32 .cfa: $rsp 40 +
STACK CFI 16b34 .cfa: $rsp 32 +
STACK CFI 16b36 .cfa: $rsp 24 +
STACK CFI 16b38 .cfa: $rsp 16 +
STACK CFI 16b3a .cfa: $rsp 8 +
STACK CFI INIT 16b3b 101 .cfa: $rsp 8 + .ra: .cfa -8 + ^
STACK CFI 16b3d $r14: .cfa -16 + ^ .cfa: $rsp 16 +
STACK CFI 16b3f $r13: .cfa -24 + ^ .cfa: $rsp 24 +
STACK CFI 16b41 $r12: .cfa -32 + ^ .cfa: $rsp 32 +
STACK CFI 16b42 $rbp: .cfa -40 + ^ .cfa: $rsp 40 +
STACK CFI 16b43 $rbx: .cfa -48 + ^ .cfa: $rsp 48 +
STACK CFI 16b47 .cfa: $rsp 112 +
STACK CFI 16bb4 .cfa: $rsp 120 +
STACK CFI 16bba .cfa: $rsp 128 +
STACK CFI 16bc0 .cfa: $rsp 136 +
STACK CFI 16bc6 .cfa: $rsp 144 +
STACK CFI 16bda .cfa: $rsp 112 +
STACK CFI 16c33 .cfa: $rsp 48 +
STACK CFI 16c34 .cfa: $rsp 40 +
STACK CFI 16c35 .cfa: $rsp 32 +
STACK CFI 16c37 .cfa: $rsp 24 +
STACK CFI 16c39 .cfa: $rsp 16 +
STACK CFI 16c3b .cfa: $rsp 8 +
STACK CFI INIT 16c3c 44 .cfa: $rsp 8 + .ra: .cfa -8 + ^
STACK CFI 16c3e $r12: .cfa -16 + ^ .cfa: $rsp 16 +
STACK CFI 16c3f $rbp: .cfa -24 + ^ .cfa: $rsp 24 +
STACK CFI 16c40 $rbx: .cfa -32 + ^ .cfa: $rsp 32 +
STACK CFI 16c7c .cfa: $rsp 24 +
STACK CFI 16c7d .cfa: $rsp 16 +
STACK CFI 16c7f .cfa: $rsp 8 +
STACK CFI INIT 16c80 47 .cfa: $rsp 8 + .ra: .cfa -8 + ^
STACK CFI 16c82 $r12: .cfa -16 + ^ .cfa: $rsp 16 +
STACK CFI 16c83 $rbp: .cfa -24 + ^ .cfa: $rsp 24 +
STACK CFI 16c84 $rbx: .cfa -32 + ^ .cfa: $rsp 32 +
STACK CFI 16cc3 .cfa: $rsp 24 +
STACK CFI 16cc4 .cfa: $rsp 16 +
STACK CFI 16cc6 .cfa: $rsp 8 +
STACK CFI INIT 16cc7 47 .cfa: $rsp 8 + .ra: .cfa -8 + ^
STACK CFI 16cc9 $r12: .cfa -16 + ^ .cfa: $rsp 16 +
STACK CFI 16cca $rbp: .cfa -24 + ^ .cfa: $rsp 24 +
STACK CFI 16ccb $rbx: .cfa -32 + ^ .cfa: $rsp 32 +
STACK CFI 16d0a .cfa: $rsp 24 +
STACK CFI 16d0b .cfa: $rsp 16 +
STACK CFI 16d0d .cfa: $rsp 8 +
STACK CFI INIT 16d0e 44 .cfa: $rsp 8 + .ra: .cfa -8 + ^
STACK CFI 16d10 $r12: .cfa -16 + ^ .cfa: $rsp 16 +
STACK CFI 16d11 $rbp: .cfa -24 + ^ .cfa: $rsp 24 +
STACK CFI 16d12 $rbx: .cfa -32 + ^ .cfa: $rsp 32 +
STACK CFI 16d4e .cfa: $rsp 24 +
STACK CFI 16d4f .cfa: $rsp 16 +
STACK CFI 16d51 .cfa: $rsp 8 +
STACK CFI INIT 16d52 59 .cfa: $rsp 8 + .ra: .cfa -8 + ^
STACK CFI 16d54 $r13: .cfa -16 + ^ .cfa: $rsp 16 +
STACK CFI 16d56 $r12: .cfa -24 + ^ .cfa: $rsp 24 +
STACK CFI 16d57 $rbp: .cfa -32 + ^ .cfa: $rsp 32 +
STACK CFI 16d58 $rbx: .cfa -40 + ^ .cfa: $rsp 40 +
STACK CFI 16d5c .cfa: $rsp 48 +
STACK CFI 16da4 .cfa: $rsp 40 +
STACK CFI 16da5 .cfa: $rsp 32 +
STACK CFI 16da6 .cfa: $rsp 24 +
STACK CFI 16da8 .cfa: $rsp 16 +
STACK CFI 16daa .cfa: $rsp 8 +
STACK CFI INIT 16dab 47 .cfa: $rsp 8 + .ra: .cfa -8 + ^
STACK CFI 16dad $r12: .cfa -16 + ^ .cfa: $rsp 16 +
STACK CFI 16dae $rbp: .cfa -24 + ^ .cfa: $rsp 24 +
STACK CFI 16daf $rbx: .cfa -32 + ^ .cfa: $rsp 32 +
STACK CFI 16dee .cfa: $rsp 24 +
STACK CFI 16def .cfa: $rsp 16 +
STACK CFI 16df1 .cfa: $rsp 8 +
STACK CFI INIT 16df2 59 .cfa: $rsp 8 + .ra: .cfa -8 + ^
STACK CFI 16df4 $r14: .cfa -16 + ^ .cfa: $rsp 16 +
STACK CFI 16df6 $r13: .cfa -24 + ^ .cfa: $rsp 24 +
STACK CFI 16df8 $r12: .cfa -32 + ^ .cfa: $rsp 32 +
STACK CFI 16df9 $rbp: .cfa -40 + ^ .cfa: $rsp 40 +
STACK CFI 16dfa $rbx: .cfa -48 + ^ .cfa: $rsp 48 +
STACK CFI 16e43 .cfa: $rsp 40 +
STACK CFI 16e44 .cfa: $rsp 32 +
STACK CFI 16e46 .cfa: $rsp 24 +
STACK CFI 16e48 .cfa: $rsp 16 +
STACK CFI 16e4a .cfa: $rsp 8 +
STACK CFI INIT 16e4b 57 .cfa: $rsp 8 + .ra: .cfa -8 + ^
STACK CFI 16e4d $r13: .cfa -16 + ^ .cfa: $rsp 16 +
STACK CFI 16e4f $r12: .cfa -24 + ^ .cfa: $rsp 24 +
STACK CFI 16e50 $rbp: .cfa -32 + ^ .cfa: $rsp 32 +
STACK CFI 16e51 $rbx: .cfa -40 + ^ .cfa: $rsp 40 +
STACK CFI 16e55 .cfa: $rsp 48 +
STACK CFI 16e9b .cfa: $rsp 40 +
STACK CFI 16e9c .cfa: $rsp 32 +
STACK CFI 16e9d .cfa: $rsp 24 +
STACK CFI 16e9f .cfa: $rsp 16 +
STACK CFI 16ea1 .cfa: $rsp 8 +
STACK CFI INIT 16ea2 5b .cfa: $rsp 8 + .ra: .cfa -8 + ^
STACK CFI 16ea4 $r14: .cfa -16 + ^ .cfa: $rsp 16 +
STACK CFI 16ea6 $r13: .cfa -24 + ^ .cfa: $rsp 24 +
STACK CFI 16ea8 $r12: .cfa -32 + ^ .cfa: $rsp 32 +
STACK CFI 16ea9 $rbp: .cfa -40 + ^ .cfa: $rsp 40 +
STACK CFI 16eaa $rbx: .cfa -48 + ^ .cfa: $rsp 48 +
STACK CFI 16ef5 .cfa: $rsp 40 +
STACK CFI 16ef6 .cfa: $rsp 32 +
STACK CFI 16ef8 .cfa: $rsp 24 +
STACK CFI 16efa .cfa: $rsp 16 +
STACK CFI 16efc .cfa: $rsp 8 +
STACK CFI INIT 16efd 73 .cfa: $rsp 8 + .ra: .cfa -8 + ^
STACK CFI 16eff $r15: .cfa -16 + ^ .cfa: $rsp 16 +
STACK CFI 16f01 $r14: .cfa -24 + ^ .cfa: $rsp 24 +
STACK CFI 16f03 $r13: .cfa -32 + ^ .cfa: $rsp 32 +
STACK CFI 16f05 $r12: .cfa -40 + ^ .cfa: $rsp 40 +
STACK CFI 16f06 $rbp: .cfa -48 + ^ .cfa: $rsp 48 +
STACK CFI 16f07 $rbx: .cfa -56 + ^ .cfa: $rsp 56 +
STACK CFI 16f0b .cfa: $rsp 80 +
STACK CFI 16f65 .cfa: $rsp 56 +
STACK CFI 16f66 .cfa: $rsp 48 +
STACK CFI 16f67 .cfa: $rsp 40 +
STACK CFI 16f69 .cfa: $rsp 32 +
STACK CFI 16f6b .cfa: $rsp 24 +
STACK CFI 16f6d .cfa: $rsp 16 +
STACK CFI 16f6f .cfa: $rsp 8 +
STACK CFI INIT 16f70 22 .cfa: $rsp 8 + .ra: .cfa -8 + ^
STACK CFI 16f80 .cfa: $rsp 16 +
STACK CFI 16f8b .cfa: $rsp 8 +
STACK CFI INIT 16f92 2d .cfa: $rsp 8 + .ra: .cfa -8 + ^
STACK CFI 16fa0 .cfa: $rsp 16 +
STACK CFI 16fbd .cfa: $rsp 8 +
STACK CFI INIT 16fbf 89 .cfa: $rsp 8 + .ra: .cfa -8 + ^
STACK CFI 16fcb $r15: .cfa -16 + ^ .cfa: $rsp 16 +
STACK CFI 16fcd $r14: .cfa -24 + ^ .cfa: $rsp 24 +
STACK CFI 16fcf $r13: .cfa -32 + ^ .cfa: $rsp 32 +
STACK CFI 16fd1 $r12: .cfa -40 + ^ .cfa: $rsp 40 +
STACK CFI 16fd2 $rbp: .cfa -48 + ^ .cfa: $rsp 48 +
STACK CFI 16fd3 $rbx: .cfa -56 + ^ .cfa: $rsp 56 +
STACK CFI 16fd7 .cfa: $rsp 64 +
STACK CFI 1700e .cfa: $rsp 72 +
STACK CFI 17012 .cfa: $rsp 80 +
STACK CFI 17029 .cfa: $rsp 64 +
STACK CFI 17037 .cfa: $rsp 56 +
STACK CFI 17038 .cfa: $rsp 48 +
STACK CFI 17039 .cfa: $rsp 40 +
STACK CFI 1703b .cfa: $rsp 32 +
STACK CFI 1703d .cfa: $rsp 24 +
STACK CFI 1703f .cfa: $rsp 16 +
STACK CFI 17041 .cfa: $rsp 8 +
STACK CFI 17042 $r12: $r12 $r13: $r13 $r14: $r14 $r15: $r15 $rbp: $rbp $rbx: $rbx
STACK CFI INIT 17048 8c .cfa: $rsp 8 + .ra: .cfa -8 + ^
STACK CFI 17054 $r15: .cfa -16 + ^ .cfa: $rsp 16 +
STACK CFI 17056 $r14: .cfa -24 + ^ .cfa: $rsp 24 +
STACK CFI 17058 $r13: .cfa -32 + ^ .cfa: $rsp 32 +
STACK CFI 1705a $r12: .cfa -40 + ^ .cfa: $rsp 40 +
STACK CFI 1705b $rbp: .cfa -48 + ^ .cfa: $rsp 48 +
STACK CFI 1705c $rbx: .cfa -56 + ^ .cfa: $rsp 56 +
STACK CFI 17060 .cfa: $rsp 64 +
STACK CFI 17098 .cfa: $rsp 72 +
STACK CFI 1709d .cfa: $rsp 80 +
STACK CFI 170b5 .cfa: $rsp 64 +
STACK CFI 170c3 .cfa: $rsp 56 +
STACK CFI 170c4 .cfa: $rsp 48 +
STACK CFI 170c5 .cfa: $rsp 40 +
STACK CFI 170c7 .cfa: $rsp 32 +
STACK CFI 170c9 .cfa: $rsp 24 +
STACK CFI 170cb .cfa: $rsp 16 +
STACK CFI 170cd .cfa: $rsp 8 +
STACK CFI 170ce $r12: $r12 $r13: $r13 $r14: $r14 $r15: $r15 $rbp: $rbp $rbx: $rbx
STACK CFI INIT 170d4 9e .cfa: $rsp 8 + .ra: .cfa -8 + ^
STACK CFI 170e4 $r12: .cfa -16 + ^ .cfa: $rsp 16 +
STACK CFI 170e5 $rbp: .cfa -24 + ^ .cfa: $rsp 24 +
STACK CFI 170e6 $rbx: .cfa -32 + ^ .cfa: $rsp 32 +
STACK CFI 17138 .cfa: $rsp 24 +
STACK CFI 17139 .cfa: $rsp 16 +
STACK CFI 1713b .cfa: $rsp 8 +
STACK CFI 1713c .cfa: $rsp 32 +
STACK CFI 1716c $r12: $r12 $rbp: $rbp $rbx: $rbx .cfa: $rsp 8 +
STACK CFI INIT 17172 61 .cfa: $rsp 8 + .ra: .cfa -8 + ^
STACK CFI 17173 $rbx: .cfa -16 + ^ .cfa: $rsp 16 +
STACK CFI 171c3 .cfa: $rsp 8 +
STACK CFI 171c4 .cfa: $rsp 16 +
STACK CFI INIT 171d3 56 .cfa: $rsp 8 + .ra: .cfa -8 + ^
STACK CFI 171d5 $r13: .cfa -16 + ^ .cfa: $rsp 16 +
STACK CFI 171d7 $r12: .cfa -24 + ^ .cfa: $rsp 24 +
STACK CFI 171d8 $rbp: .cfa -32 + ^ .cfa: $rsp 32 +
STACK CFI 171d9 $rbx: .cfa -40 + ^ .cfa: $rsp 40 +
STACK CFI 171dd .cfa: $rsp 48 +
STACK CFI 17222 .cfa: $rsp 40 +
STACK CFI 17223 .cfa: $rsp 32 +
STACK CFI 17224 .cfa: $rsp 24 +
STACK CFI 17226 .cfa: $rsp 16 +
STACK CFI 17228 .cfa: $rsp 8 +
STACK CFI INIT 17229 92 .cfa: $rsp 8 + .ra: .cfa -8 + ^
STACK CFI 1722b $r15: .cfa -16 + ^ .cfa: $rsp 16 +
STACK CFI 1722d $r14: .cfa -24 + ^ .cfa: $rsp 24 +
STACK CFI 1722f $r13: .cfa -32 + ^ .cfa: $rsp 32 +
STACK CFI 17231 $r12: .cfa -40 + ^ .cfa: $rsp 40 +
STACK CFI 17232 $rbp: .cfa -48 + ^ .cfa: $rsp 48 +
STACK CFI 17233 $rbx: .cfa -56 + ^ .cfa: $rsp 56 +
STACK CFI 17237 .cfa: $rsp 80 +
STACK CFI 17273 .cfa: $rsp 88 +
STACK CFI 17278 .cfa: $rsp 96 +
STACK CFI 1727d .cfa: $rsp 104 +
STACK CFI 17281 .cfa: $rsp 112 +
STACK CFI 17285 .cfa: $rsp 120 +
STACK CFI 17289 .cfa: $rsp 128 +
STACK CFI 172a5 .cfa: $rsp 80 +
STACK CFI 172b0 .cfa: $rsp 56 +
STACK CFI 172b1 .cfa: $rsp 48 +
STACK CFI 172b2 .cfa: $rsp 40 +
STACK CFI 172b4 .cfa: $rsp 32 +
STACK CFI 172b6 .cfa: $rsp 24 +
STACK CFI 172b8 .cfa: $rsp 16 +
STACK CFI 172ba .cfa: $rsp 8 +
STACK CFI INIT 172bb 6d .cfa: $rsp 8 + .ra: .cfa -8 + ^
STACK CFI 172bd $r15: .cfa -16 + ^ .cfa: $rsp 16 +
STACK CFI 172bf $r14: .cfa -24 + ^ .cfa: $rsp 24 +
STACK CFI 172c1 $r13: .cfa -32 + ^ .cfa: $rsp 32 +
STACK CFI 172c3 $r12: .cfa -40 + ^ .cfa: $rsp 40 +
STACK CFI 172c4 $rbp: .cfa -48 + ^ .cfa: $rsp 48 +
STACK CFI 172c5 $rbx: .cfa -56 + ^ .cfa: $rsp 56 +
STACK CFI 172c9 .cfa: $rsp 64 +
STACK CFI 1731d .cfa: $rsp 56 +
STACK CFI 1731e .cfa: $rsp 48 +
STACK CFI 1731f .cfa: $rsp 40 +
STACK CFI 17321 .cfa: $rsp 32 +
STACK CFI 17323 .cfa: $rsp 24 +
STACK CFI 17325 .cfa: $rsp 16 +
STACK CFI 17327 .cfa: $rsp 8 +
STACK CFI INIT 17328 6b .cfa: $rsp 8 + .ra: .cfa -8 + ^
STACK CFI 1732a $r12: .cfa -16 + ^ .cfa: $rsp 16 +
STACK CFI 1732b $rbp: .cfa -24 + ^ .cfa: $rsp 24 +
STACK CFI 1732c $rbx: .cfa -32 + ^ .cfa: $rsp 32 +
STACK CFI 17373 .cfa: $rsp 24 +
STACK CFI 17374 .cfa: $rsp 16 +
STACK CFI 17376 .cfa: $rsp 8 +
STACK CFI 17377 .cfa: $rsp 32 +
STACK CFI INIT 17393 d2 .cfa: $rsp 8 + .ra: .cfa -8 + ^
STACK CFI 17395 $r12: .cfa -16 + ^ .cfa: $rsp 16 +
STACK CFI 17396 $rbp: .cfa -24 + ^ .cfa: $rsp 24 +
STACK CFI 17397 $rbx: .cfa -32 + ^ .cfa: $rsp 32 +
STACK CFI 17407 .cfa: $rsp 24 +
STACK CFI 17408 .cfa: $rsp 16 +
STACK CFI 1740a .cfa: $rsp 8 +
STACK CFI 1740b .cfa: $rsp 32 +
STACK CFI INIT 17465 51b .cfa: $rsp 8 + .ra: .cfa -8 + ^
STACK CFI 17467 $r15: .cfa -16 + ^ .cfa: $rsp 16 +
STACK CFI 17469 $r14: .cfa -24 + ^ .cfa: $rsp 24 +
STACK CFI 1746b $r13: .cfa -32 + ^ .cfa: $rsp 32 +
STACK CFI 1746d $r12: .cfa -40 + ^ .cfa: $rsp 40 +
STACK CFI 1746e $rbp: .cfa -48 + ^ .cfa: $rsp 48 +
STACK CFI 1746f $rbx: .cfa -56 + ^ .cfa: $rsp 56 +
STACK CFI 17473 .cfa: $rsp 64 +
STACK CFI 1792f .cfa: $rsp 72 +
STACK CFI 17933 .cfa: $rsp 80 +
STACK CFI 17937 .cfa: $rsp 88 +
STACK CFI 1793b .cfa: $rsp 96 +
STACK CFI 17969 .cfa: $rsp 56 +
STACK CFI 1796a .cfa: $rsp 48 +
STACK CFI 1796b .cfa: $rsp 40 +
STACK CFI 1796d .cfa: $rsp 32 +
STACK CFI 1796f .cfa: $rsp 24 +
STACK CFI 17971 .cfa: $rsp 16 +
STACK CFI 17973 .cfa: $rsp 8 +
STACK CFI 17974 .cfa: $rsp 64 +
STACK CFI INIT 17980 8b .cfa: $rsp 8 + .ra: .cfa -8 + ^
STACK CFI 17981 $rbp: .cfa -16 + ^ .cfa: $rsp 16 +
STACK CFI 17982 $rbx: .cfa -24 + ^ .cfa: $rsp 24 +
STACK CFI 17986 .cfa: $rsp 32 +
STACK CFI 179e9 .cfa: $rsp 24 +
STACK CFI 179ea .cfa: $rsp 16 +
STACK CFI 179eb .cfa: $rsp 8 +
STACK CFI 179ec .cfa: $rsp 32 +
STACK CFI INIT 17a0b 3a0 .cfa: $rsp 8 + .ra: .cfa -8 + ^
STACK CFI 17a0d $r15: .cfa -16 + ^ .cfa: $rsp 16 +
STACK CFI 17a0f $r14: .cfa -24 + ^ .cfa: $rsp 24 +
STACK CFI 17a11 $r13: .cfa -32 + ^ .cfa: $rsp 32 +
STACK CFI 17a13 $r12: .cfa -40 + ^ .cfa: $rsp 40 +
STACK CFI 17a14 $rbp: .cfa -48 + ^ .cfa: $rsp 48 +
STACK CFI 17a15 $rbx: .cfa -56 + ^ .cfa: $rsp 56 +
STACK CFI 17a19 .cfa: $rsp 112 +
STACK CFI 17da0 .cfa: $rsp 56 +
STACK CFI 17da1 .cfa: $rsp 48 +
STACK CFI 17da2 .cfa: $rsp 40 +
STACK CFI 17da4 .cfa: $rsp 32 +
STACK CFI 17da6 .cfa: $rsp 24 +
STACK CFI 17da8 .cfa: $rsp 16 +
STACK CFI 17daa .cfa: $rsp 8 +
STACK CFI INIT 17dab 69 .cfa: $rsp 8 + .ra: .cfa -8 + ^
STACK CFI 17dbf $rbp: .cfa -16 + ^ .cfa: $rsp 16 +
STACK CFI 17dc0 $rbx: .cfa -24 + ^ .cfa: $rsp 24 +
STACK CFI 17dc4 .cfa: $rsp 32 +
STACK CFI 17deb .cfa: $rsp 40 +
STACK CFI 17ded .cfa: $rsp 48 +
STACK CFI 17def .cfa: $rsp 56 +
STACK CFI 17df1 .cfa: $rsp 64 +
STACK CFI 17e0c .cfa: $rsp 32 +
STACK CFI 17e10 .cfa: $rsp 24 +
STACK CFI 17e11 .cfa: $rsp 16 +
STACK CFI 17e12 .cfa: $rsp 8 +
STACK CFI 17e13 $rbp: $rbp $rbx: $rbx
STACK CFI INIT 17e14 14 .cfa: $rsp 8 + .ra: .cfa -8 + ^
STACK CFI INIT 17e28 db .cfa: $rsp 8 + .ra: .cfa -8 + ^
STACK CFI 17e2a $r12: .cfa -16 + ^ .cfa: $rsp 16 +
STACK CFI 17e2b $rbp: .cfa -24 + ^ .cfa: $rsp 24 +
STACK CFI 17e2c $rbx: .cfa -32 + ^ .cfa: $rsp 32 +
STACK CFI 17ea5 .cfa: $rsp 24 +
STACK CFI 17ea6 .cfa: $rsp 16 +
STACK CFI 17ea8 .cfa: $rsp 8 +
STACK CFI 17ea9 .cfa: $rsp 32 +
STACK CFI INIT 17f03 b1 .cfa: $rsp 8 + .ra: .cfa -8 + ^
STACK CFI 17f04 $rbp: .cfa -16 + ^ .cfa: $rsp 16 +
STACK CFI 17f05 $rbx: .cfa -24 + ^ .cfa: $rsp 24 +
STACK CFI 17f09 .cfa: $rsp 48 +
STACK CFI 17f66 .cfa: $rsp 24 +
STACK CFI 17f67 .cfa: $rsp 16 +
STACK CFI 17f68 .cfa: $rsp 8 +
STACK CFI 17f69 .cfa: $rsp 48 +
STACK CFI INIT 17fb4 11 .cfa: $rsp 8 + .ra: .cfa -8 + ^
STACK CFI INIT 17fc5 30b .cfa: $rsp 8 + .ra: .cfa -8 + ^
STACK CFI 17fc7 $r15: .cfa -16 + ^ .cfa: $rsp 16 +
STACK CFI 17fc9 $r14: .cfa -24 + ^ .cfa: $rsp 24 +
STACK CFI 17fcb $r13: .cfa -32 + ^ .cfa: $rsp 32 +
STACK CFI 17fcd $r12: .cfa -40 + ^ .cfa: $rsp 40 +
STACK CFI 17fce $rbp: .cfa -48 + ^ .cfa: $rsp 48 +
STACK CFI 17fcf $rbx: .cfa -56 + ^ .cfa: $rsp 56 +
STACK CFI 17fd3 .cfa: $rsp 112 +
STACK CFI 180ed .cfa: $rsp 120 +
STACK CFI 180ef .cfa: $rsp 128 +
STACK CFI 180f1 .cfa: $rsp 136 +
STACK CFI 180f3 .cfa: $rsp 144 +
STACK CFI 180f4 .cfa: $rsp 152 +
STACK CFI 180f6 .cfa: $rsp 160 +
STACK CFI 18120 .cfa: $rsp 112 +
STACK CFI 181e3 .cfa: $rsp 120 +
STACK CFI 181e5 .cfa: $rsp 128 +
STACK CFI 181e7 .cfa: $rsp 136 +
STACK CFI 181e9 .cfa: $rsp 144 +
STACK CFI 181ea .cfa: $rsp 152 +
STACK CFI 181ec .cfa: $rsp 160 +
STACK CFI 18216 .cfa: $rsp 112 +
STACK CFI 18236 .cfa: $rsp 56 +
STACK CFI 18237 .cfa: $rsp 48 +
STACK CFI 18238 .cfa: $rsp 40 +
STACK CFI 1823a .cfa: $rsp 32 +
STACK CFI 1823c .cfa: $rsp 24 +
STACK CFI 1823e .cfa: $rsp 16 +
STACK CFI 18240 .cfa: $rsp 8 +
STACK CFI 18241 .cfa: $rsp 112 +
STACK CFI INIT 182d0 2d5 .cfa: $rsp 8 + .ra: .cfa -8 + ^
STACK CFI 182d2 $r14: .cfa -16 + ^ .cfa: $rsp 16 +
STACK CFI 182d4 $r13: .cfa -24 + ^ .cfa: $rsp 24 +
STACK CFI 182d6 $r12: .cfa -32 + ^ .cfa: $rsp 32 +
STACK CFI 182d7 $rbp: .cfa -40 + ^ .cfa: $rsp 40 +
STACK CFI 182d8 $rbx: .cfa -48 + ^ .cfa: $rsp 48 +
STACK CFI 183df .cfa: $rsp 40 +
STACK CFI 183e0 .cfa: $rsp 32 +
STACK CFI 183e2 .cfa: $rsp 24 +
STACK CFI 183e4 .cfa: $rsp 16 +
STACK CFI 183e6 .cfa: $rsp 8 +
STACK CFI 183e7 .cfa: $rsp 48 +
STACK CFI INIT 185a5 d9 .cfa: $rsp 8 + .ra: .cfa -8 + ^
STACK CFI 185a7 $r15: .cfa -16 + ^ .cfa: $rsp 16 +
STACK CFI 185a9 $r14: .cfa -24 + ^ .cfa: $rsp 24 +
STACK CFI 185ab $r13: .cfa -32 + ^ .cfa: $rsp 32 +
STACK CFI 185ad $r12: .cfa -40 + ^ .cfa: $rsp 40 +
STACK CFI 185ae $rbp: .cfa -48 + ^ .cfa: $rsp 48 +
STACK CFI 185af $rbx: .cfa -56 + ^ .cfa: $rsp 56 +
STACK CFI 185b3 .cfa: $rsp 80 +
STACK CFI 185f5 .cfa: $rsp 56 +
STACK CFI 185f6 .cfa: $rsp 48 +
STACK CFI 185f7 .cfa: $rsp 40 +
STACK CFI 185f9 .cfa: $rsp 32 +
STACK CFI 185fb .cfa: $rsp 24 +
STACK CFI 185fd .cfa: $rsp 16 +
STACK CFI 185ff .cfa: $rsp 8 +
STACK CFI 18600 .cfa: $rsp 80 +
STACK CFI 18650 .cfa: $rsp 88 +
STACK CFI 18652 .cfa: $rsp 96 +
STACK CFI 18654 .cfa: $rsp 104 +
STACK CFI 18656 .cfa: $rsp 112 +
STACK CFI 18658 .cfa: $rsp 120 +
STACK CFI 1865a .cfa: $rsp 128 +
STACK CFI 18679 .cfa: $rsp 80 +
STACK CFI INIT 22c38 50f .cfa: $rsp 8 + .ra: .cfa -8 + ^
STACK CFI 22c3a $r15: .cfa -16 + ^ .cfa: $rsp 16 +
STACK CFI 22c3c $r14: .cfa -24 + ^ .cfa: $rsp 24 +
STACK CFI 22c3e $r13: .cfa -32 + ^ .cfa: $rsp 32 +
STACK CFI 22c40 $r12: .cfa -40 + ^ .cfa: $rsp 40 +
STACK CFI 22c41 $rbp: .cfa -48 + ^ .cfa: $rsp 48 +
STACK CFI 22c42 $rbx: .cfa -56 + ^ .cfa: $rsp 56 +
STACK CFI 22c49 .cfa: $rsp 512 +
STACK CFI 23115 .cfa: $rsp 56 +
STACK CFI 23116 .cfa: $rsp 48 +
STACK CFI 23117 .cfa: $rsp 40 +
STACK CFI 23119 .cfa: $rsp 32 +
STACK CFI 2311b .cfa: $rsp 24 +
STACK CFI 2311d .cfa: $rsp 16 +
STACK CFI 2311f .cfa: $rsp 8 +
STACK CFI 23120 .cfa: $rsp 512 +
STACK CFI INIT 23148 96 .cfa: $rsp 8 + .ra: .cfa -8 + ^
STACK CFI 2314a $r12: .cfa -16 + ^ .cfa: $rsp 16 +
STACK CFI 2314b $rbp: .cfa -24 + ^ .cfa: $rsp 24 +
STACK CFI 2314c $rbx: .cfa -32 + ^ .cfa: $rsp 32 +
STACK CFI 23150 .cfa: $rsp 48 +
STACK CFI 23197 .cfa: $rsp 32 +
STACK CFI 23198 .cfa: $rsp 24 +
STACK CFI 23199 .cfa: $rsp 16 +
STACK CFI 2319b .cfa: $rsp 8 +
STACK CFI 2319c .cfa: $rsp 48 +
STACK CFI INIT 1867e 3f5 .cfa: $rsp 8 + .ra: .cfa -8 + ^
STACK CFI 18680 $r15: .cfa -16 + ^ .cfa: $rsp 16 +
STACK CFI 18682 $r14: .cfa -24 + ^ .cfa: $rsp 24 +
STACK CFI 18684 $r13: .cfa -32 + ^ .cfa: $rsp 32 +
STACK CFI 18686 $r12: .cfa -40 + ^ .cfa: $rsp 40 +
STACK CFI 18687 $rbp: .cfa -48 + ^ .cfa: $rsp 48 +
STACK CFI 18688 $rbx: .cfa -56 + ^ .cfa: $rsp 56 +
STACK CFI 1868f .cfa: $rsp 4320 +
STACK CFI 18a49 .cfa: $rsp 56 +
STACK CFI 18a4a .cfa: $rsp 48 +
STACK CFI 18a4b .cfa: $rsp 40 +
STACK CFI 18a4d .cfa: $rsp 32 +
STACK CFI 18a4f .cfa: $rsp 24 +
STACK CFI 18a51 .cfa: $rsp 16 +
STACK CFI 18a53 .cfa: $rsp 8 +
STACK CFI 18a54 .cfa: $rsp 4320 +
STACK CFI INIT 18a73 16d .cfa: $rsp 8 + .ra: .cfa -8 + ^
STACK CFI 18a7d $rbp: .cfa -16 + ^ .cfa: $rsp 16 +
STACK CFI 18a7e $rbx: .cfa -24 + ^ .cfa: $rsp 24 +
STACK CFI 18a82 .cfa: $rsp 64 +
STACK CFI 18bcd .cfa: $rsp 24 +
STACK CFI 18bce .cfa: $rsp 16 +
STACK CFI 18bcf .cfa: $rsp 8 +
STACK CFI 18bd0 .cfa: $rsp 64 +
STACK CFI 18bdf $rbp: $rbp $rbx: $rbx .cfa: $rsp 8 +
STACK CFI INIT 18be0 185 .cfa: $rsp 8 + .ra: .cfa -8 + ^
STACK CFI 18bea $rbx: .cfa -16 + ^ .cfa: $rsp 16 +
STACK CFI 18bee .cfa: $rsp 80 +
STACK CFI 18d57 .cfa: $rsp 16 +
STACK CFI 18d58 .cfa: $rsp 8 +
STACK CFI 18d59 .cfa: $rsp 80 +
STACK CFI 18d64 $rbx: $rbx .cfa: $rsp 8 +
STACK CFI INIT 18d65 1c3 .cfa: $rsp 8 + .ra: .cfa -8 + ^
STACK CFI 18d6f $rbx: .cfa -16 + ^ .cfa: $rsp 16 +
STACK CFI 18d73 .cfa: $rsp 80 +
STACK CFI 18eea .cfa: $rsp 16 +
STACK CFI 18eeb .cfa: $rsp 8 +
STACK CFI 18eec .cfa: $rsp 80 +
STACK CFI 18f27 $rbx: $rbx .cfa: $rsp 8 +
STACK CFI INIT 18f28 47a .cfa: $rsp 8 + .ra: .cfa -8 + ^
STACK CFI 18f2a $r15: .cfa -16 + ^ .cfa: $rsp 16 +
STACK CFI 18f2c $r14: .cfa -24 + ^ .cfa: $rsp 24 +
STACK CFI 18f2e $r13: .cfa -32 + ^ .cfa: $rsp 32 +
STACK CFI 18f30 $r12: .cfa -40 + ^ .cfa: $rsp 40 +
STACK CFI 18f31 $rbp: .cfa -48 + ^ .cfa: $rsp 48 +
STACK CFI 18f32 $rbx: .cfa -56 + ^ .cfa: $rsp 56 +
STACK CFI 18f39 .cfa: $rsp 192 +
STACK CFI 19332 .cfa: $rsp 56 +
STACK CFI 19333 .cfa: $rsp 48 +
STACK CFI 19334 .cfa: $rsp 40 +
STACK CFI 19336 .cfa: $rsp 32 +
STACK CFI 19338 .cfa: $rsp 24 +
STACK CFI 1933a .cfa: $rsp 16 +
STACK CFI 1933c .cfa: $rsp 8 +
STACK CFI 1933d .cfa: $rsp 192 +
STACK CFI INIT 193a2 5e2 .cfa: $rsp 8 + .ra: .cfa -8 + ^
STACK CFI 193a4 $r14: .cfa -16 + ^ .cfa: $rsp 16 +
STACK CFI 193a6 $r13: .cfa -24 + ^ .cfa: $rsp 24 +
STACK CFI 193a8 $r12: .cfa -32 + ^ .cfa: $rsp 32 +
STACK CFI 193a9 $rbp: .cfa -40 + ^ .cfa: $rsp 40 +
STACK CFI 193aa $rbx: .cfa -48 + ^ .cfa: $rsp 48 +
STACK CFI 193ae .cfa: $rsp 176 +
STACK CFI 193e8 .cfa: $rsp 48 +
STACK CFI 193e9 .cfa: $rsp 40 +
STACK CFI 193ea .cfa: $rsp 32 +
STACK CFI 193ec .cfa: $rsp 24 +
STACK CFI 193ee .cfa: $rsp 16 +
STACK CFI 193f0 .cfa: $rsp 8 +
STACK CFI 193f1 .cfa: $rsp 176 +
STACK CFI INIT 231de 96 .cfa: $rsp 8 + .ra: .cfa -8 + ^
STACK CFI 231e0 $r12: .cfa -16 + ^ .cfa: $rsp 16 +
STACK CFI 231e1 $rbp: .cfa -24 + ^ .cfa: $rsp 24 +
STACK CFI 231e2 $rbx: .cfa -32 + ^ .cfa: $rsp 32 +
STACK CFI 231e6 .cfa: $rsp 48 +
STACK CFI 2322d .cfa: $rsp 32 +
STACK CFI 2322e .cfa: $rsp 24 +
STACK CFI 2322f .cfa: $rsp 16 +
STACK CFI 23231 .cfa: $rsp 8 +
STACK CFI 23232 .cfa: $rsp 48 +
STACK CFI INIT 23274 c1 .cfa: $rsp 8 + .ra: .cfa -8 + ^
STACK CFI 23275 $rbp: .cfa -16 + ^ .cfa: $rsp 16 +
STACK CFI 23278 .cfa: $rbp 16 +
STACK CFI 23282 $r12: .cfa -24 + ^ $rbx: .cfa -32 + ^
STACK CFI 23334 .cfa: $rsp 8 +
STACK CFI INIT 19984 a12 .cfa: $rsp 8 + .ra: .cfa -8 + ^
STACK CFI 19986 $r14: .cfa -16 + ^ .cfa: $rsp 16 +
STACK CFI 19988 $r13: .cfa -24 + ^ .cfa: $rsp 24 +
STACK CFI 1998a $r12: .cfa -32 + ^ .cfa: $rsp 32 +
STACK CFI 1998b $rbp: .cfa -40 + ^ .cfa: $rsp 40 +
STACK CFI 1998c $rbx: .cfa -48 + ^ .cfa: $rsp 48 +
STACK CFI 19990 .cfa: $rsp 128 +
STACK CFI 19bb7 .cfa: $rsp 48 +
STACK CFI 19bb8 .cfa: $rsp 40 +
STACK CFI 19bb9 .cfa: $rsp 32 +
STACK CFI 19bbb .cfa: $rsp 24 +
STACK CFI 19bbd .cfa: $rsp 16 +
STACK CFI 19bbf .cfa: $rsp 8 +
STACK CFI 19bc0 .cfa: $rsp 128 +
STACK CFI INIT 23336 f9 .cfa: $rsp 8 + .ra: .cfa -8 + ^
STACK CFI 23338 $r14: .cfa -16 + ^ .cfa: $rsp 16 +
STACK CFI 2333a $r13: .cfa -24 + ^ .cfa: $rsp 24 +
STACK CFI 2333c $r12: .cfa -32 + ^ .cfa: $rsp 32 +
STACK CFI 2333d $rbp: .cfa -40 + ^ .cfa: $rsp 40 +
STACK CFI 2333e $rbx: .cfa -48 + ^ .cfa: $rsp 48 +
STACK CFI 23342 .cfa: $rsp 80 +
STACK CFI 233d4 .cfa: $rsp 48 +
STACK CFI 233d5 .cfa: $rsp 40 +
STACK CFI 233d6 .cfa: $rsp 32 +
STACK CFI 233d8 .cfa: $rsp 24 +
STACK CFI 233da .cfa: $rsp 16 +
STACK CFI 233dc .cfa: $rsp 8 +
STACK CFI 233dd .cfa: $rsp 80 +
STACK CFI INIT 23430 250 .cfa: $rsp 8 + .ra: .cfa -8 + ^
STACK CFI 23432 $r14: .cfa -16 + ^ .cfa: $rsp 16 +
STACK CFI 23434 $r13: .cfa -24 + ^ .cfa: $rsp 24 +
STACK CFI 23436 $r12: .cfa -32 + ^ .cfa: $rsp 32 +
STACK CFI 23437 $rbp: .cfa -40 + ^ .cfa: $rsp 40 +
STACK CFI 23438 $rbx: .cfa -48 + ^ .cfa: $rsp 48 +
STACK CFI 2343c .cfa: $rsp 128 +
STACK CFI 23639 .cfa: $rsp 48 +
STACK CFI 2363a .cfa: $rsp 40 +
STACK CFI 2363b .cfa: $rsp 32 +
STACK CFI 2363d .cfa: $rsp 24 +
STACK CFI 2363f .cfa: $rsp 16 +
STACK CFI 23641 .cfa: $rsp 8 +
STACK CFI 23642 .cfa: $rsp 128 +
STACK CFI INIT 23680 86 .cfa: $rsp 8 + .ra: .cfa -8 + ^
STACK CFI 23681 $rbp: .cfa -16 + ^ .cfa: $rsp 16 +
STACK CFI 23682 $rbx: .cfa -24 + ^ .cfa: $rsp 24 +
STACK CFI 23686 .cfa: $rsp 80 +
STACK CFI 236de .cfa: $rsp 24 +
STACK CFI 236df .cfa: $rsp 16 +
STACK CFI 236e0 .cfa: $rsp 8 +
STACK CFI 236e1 .cfa: $rsp 80 +
STACK CFI INIT 23706 210 .cfa: $rsp 8 + .ra: .cfa -8 + ^
STACK CFI 23708 $r15: .cfa -16 + ^ .cfa: $rsp 16 +
STACK CFI 2370a $r14: .cfa -24 + ^ .cfa: $rsp 24 +
STACK CFI 2370c $r13: .cfa -32 + ^ .cfa: $rsp 32 +
STACK CFI 2370e $r12: .cfa -40 + ^ .cfa: $rsp 40 +
STACK CFI 2370f $rbp: .cfa -48 + ^ .cfa: $rsp 48 +
STACK CFI 23710 $rbx: .cfa -56 + ^ .cfa: $rsp 56 +
STACK CFI 23714 .cfa: $rsp 96 +
STACK CFI 238ad .cfa: $rsp 56 +
STACK CFI 238ae .cfa: $rsp 48 +
STACK CFI 238af .cfa: $rsp 40 +
STACK CFI 238b1 .cfa: $rsp 32 +
STACK CFI 238b3 .cfa: $rsp 24 +
STACK CFI 238b5 .cfa: $rsp 16 +
STACK CFI 238b7 .cfa: $rsp 8 +
STACK CFI 238b8 .cfa: $rsp 96 +
STACK CFI INIT 23916 115 .cfa: $rsp 8 + .ra: .cfa -8 + ^
STACK CFI 23918 $r12: .cfa -16 + ^ .cfa: $rsp 16 +
STACK CFI 23919 $rbp: .cfa -24 + ^ .cfa: $rsp 24 +
STACK CFI 2391a $rbx: .cfa -32 + ^ .cfa: $rsp 32 +
STACK CFI 23a06 .cfa: $rsp 24 +
STACK CFI 23a07 .cfa: $rsp 16 +
STACK CFI 23a09 .cfa: $rsp 8 +
STACK CFI 23a0a .cfa: $rsp 32 +
STACK CFI INIT 23a2c 80 .cfa: $rsp 8 + .ra: .cfa -8 + ^
STACK CFI 23a2d $rbp: .cfa -16 + ^ .cfa: $rsp 16 +
STACK CFI 23a2e $rbx: .cfa -24 + ^ .cfa: $rsp 24 +
STACK CFI 23a32 .cfa: $rsp 32 +
STACK CFI INIT 23aac 87 .cfa: $rsp 8 + .ra: .cfa -8 + ^
STACK CFI 23aad $rbp: .cfa -16 + ^ .cfa: $rsp 16 +
STACK CFI 23aae $rbx: .cfa -24 + ^ .cfa: $rsp 24 +
STACK CFI 23ab2 .cfa: $rsp 32 +
STACK CFI INIT 23b34 259 .cfa: $rsp 8 + .ra: .cfa -8 + ^
STACK CFI 23b36 $r12: .cfa -16 + ^ .cfa: $rsp 16 +
STACK CFI 23b37 $rbp: .cfa -24 + ^ .cfa: $rsp 24 +
STACK CFI 23b38 $rbx: .cfa -32 + ^ .cfa: $rsp 32 +
STACK CFI 23b3c .cfa: $rsp 48 +
STACK CFI 23d31 .cfa: $rsp 32 +
STACK CFI 23d32 .cfa: $rsp 24 +
STACK CFI 23d33 .cfa: $rsp 16 +
STACK CFI 23d35 .cfa: $rsp 8 +
STACK CFI 23d36 .cfa: $rsp 48 +
STACK CFI INIT 23d8e 252 .cfa: $rsp 8 + .ra: .cfa -8 + ^
STACK CFI 23d90 $r12: .cfa -16 + ^ .cfa: $rsp 16 +
STACK CFI 23d91 $rbp: .cfa -24 + ^ .cfa: $rsp 24 +
STACK CFI 23d92 $rbx: .cfa -32 + ^ .cfa: $rsp 32 +
STACK CFI 23d96 .cfa: $rsp 48 +
STACK CFI 23f84 .cfa: $rsp 32 +
STACK CFI 23f85 .cfa: $rsp 24 +
STACK CFI 23f86 .cfa: $rsp 16 +
STACK CFI 23f88 .cfa: $rsp 8 +
STACK CFI 23f89 .cfa: $rsp 48 +
STACK CFI INIT 23fe0 16b .cfa: $rsp 8 + .ra: .cfa -8 + ^
STACK CFI 23fe2 $r15: .cfa -16 + ^ .cfa: $rsp 16 +
STACK CFI 23fe4 $r14: .cfa -24 + ^ .cfa: $rsp 24 +
STACK CFI 23fe6 $r13: .cfa -32 + ^ .cfa: $rsp 32 +
STACK CFI 23fe8 $r12: .cfa -40 + ^ .cfa: $rsp 40 +
STACK CFI 23fe9 $rbp: .cfa -48 + ^ .cfa: $rsp 48 +
STACK CFI 23fea $rbx: .cfa -56 + ^ .cfa: $rsp 56 +
STACK CFI 23fee .cfa: $rsp 112 +
STACK CFI 240e5 .cfa: $rsp 56 +
STACK CFI 240e6 .cfa: $rsp 48 +
STACK CFI 240e7 .cfa: $rsp 40 +
STACK CFI 240e9 .cfa: $rsp 32 +
STACK CFI 240eb .cfa: $rsp 24 +
STACK CFI 240ed .cfa: $rsp 16 +
STACK CFI 240ef .cfa: $rsp 8 +
STACK CFI 240f0 .cfa: $rsp 112 +
STACK CFI INIT 2414c a6 .cfa: $rsp 8 + .ra: .cfa -8 + ^
STACK CFI 2414e $r13: .cfa -16 + ^ .cfa: $rsp 16 +
STACK CFI 24150 $r12: .cfa -24 + ^ .cfa: $rsp 24 +
STACK CFI 24151 $rbp: .cfa -32 + ^ .cfa: $rsp 32 +
STACK CFI 24152 $rbx: .cfa -40 + ^ .cfa: $rsp 40 +
STACK CFI 24156 .cfa: $rsp 96 +
STACK CFI 241c3 .cfa: $rsp 40 +
STACK CFI 241c4 .cfa: $rsp 32 +
STACK CFI 241c5 .cfa: $rsp 24 +
STACK CFI 241c7 .cfa: $rsp 16 +
STACK CFI 241c9 .cfa: $rsp 8 +
STACK CFI 241ca .cfa: $rsp 96 +
STACK CFI INIT 241f2 8f2 .cfa: $rsp 8 + .ra: .cfa -8 + ^
STACK CFI 241f4 $r15: .cfa -16 + ^ .cfa: $rsp 16 +
STACK CFI 241f6 $r14: .cfa -24 + ^ .cfa: $rsp 24 +
STACK CFI 241f8 $r13: .cfa -32 + ^ .cfa: $rsp 32 +
STACK CFI 241fa $r12: .cfa -40 + ^ .cfa: $rsp 40 +
STACK CFI 241fb $rbp: .cfa -48 + ^ .cfa: $rsp 48 +
STACK CFI 241fc $rbx: .cfa -56 + ^ .cfa: $rsp 56 +
STACK CFI 24200 .cfa: $rsp 80 +
STACK CFI 24234 .cfa: $rsp 56 +
STACK CFI 24235 .cfa: $rsp 48 +
STACK CFI 24236 .cfa: $rsp 40 +
STACK CFI 24238 .cfa: $rsp 32 +
STACK CFI 2423a .cfa: $rsp 24 +
STACK CFI 2423c .cfa: $rsp 16 +
STACK CFI 2423e .cfa: $rsp 8 +
STACK CFI 2423f .cfa: $rsp 80 +
STACK CFI INIT 24ae4 20 .cfa: $rsp 8 + .ra: .cfa -8 + ^
STACK CFI 24ae5 $rbx: .cfa -16 + ^ .cfa: $rsp 16 +
STACK CFI 24b03 .cfa: $rsp 8 +
STACK CFI INIT 24b04 67 .cfa: $rsp 8 + .ra: .cfa -8 + ^
STACK CFI 24b05 $rbp: .cfa -16 + ^ .cfa: $rsp 16 +
STACK CFI 24b06 $rbx: .cfa -24 + ^ .cfa: $rsp 24 +
STACK CFI 24b0a .cfa: $rsp 32 +
STACK CFI 24b68 .cfa: $rsp 24 +
STACK CFI 24b69 .cfa: $rsp 16 +
STACK CFI 24b6a .cfa: $rsp 8 +
STACK CFI INIT 1a396 123 .cfa: $rsp 8 + .ra: .cfa -8 + ^
STACK CFI 1a398 $r13: .cfa -16 + ^ .cfa: $rsp 16 +
STACK CFI 1a39a $r12: .cfa -24 + ^ .cfa: $rsp 24 +
STACK CFI 1a39b $rbp: .cfa -32 + ^ .cfa: $rsp 32 +
STACK CFI 1a39c $rbx: .cfa -40 + ^ .cfa: $rsp 40 +
STACK CFI 1a3a0 .cfa: $rsp 48 +
STACK CFI 1a4b2 .cfa: $rsp 40 +
STACK CFI 1a4b3 .cfa: $rsp 32 +
STACK CFI 1a4b4 .cfa: $rsp 24 +
STACK CFI 1a4b6 .cfa: $rsp 16 +
STACK CFI 1a4b8 .cfa: $rsp 8 +
STACK CFI INIT 24b6c 116 .cfa: $rsp 8 + .ra: .cfa -8 + ^
STACK CFI 24b6e $r13: .cfa -16 + ^ .cfa: $rsp 16 +
STACK CFI 24b70 $r12: .cfa -24 + ^ .cfa: $rsp 24 +
STACK CFI 24b71 $rbp: .cfa -32 + ^ .cfa: $rsp 32 +
STACK CFI 24b72 $rbx: .cfa -40 + ^ .cfa: $rsp 40 +
STACK CFI 24b76 .cfa: $rsp 48 +
STACK CFI 24c7b .cfa: $rsp 40 +
STACK CFI 24c7c .cfa: $rsp 32 +
STACK CFI 24c7d .cfa: $rsp 24 +
STACK CFI 24c7f .cfa: $rsp 16 +
STACK CFI 24c81 .cfa: $rsp 8 +
STACK CFI INIT 24c82 e7 .cfa: $rsp 8 + .ra: .cfa -8 + ^
STACK CFI 24c83 $rbx: .cfa -16 + ^ .cfa: $rsp 16 +
STACK CFI 24c87 .cfa: $rsp 48 +
STACK CFI 24d36 .cfa: $rsp 16 +
STACK CFI 24d37 .cfa: $rsp 8 +
STACK CFI 24d38 .cfa: $rsp 48 +
STACK CFI INIT 1a4b9 70 .cfa: $rsp 8 + .ra: .cfa -8 + ^
STACK CFI 1a4c8 .cfa: $rsp 16 +
STACK CFI 1a528 .cfa: $rsp 8 +
STACK CFI INIT 1a529 483 .cfa: $rsp 8 + .ra: .cfa -8 + ^
STACK CFI 1a52b $r12: .cfa -16 + ^ .cfa: $rsp 16 +
STACK CFI 1a52c $rbp: .cfa -24 + ^ .cfa: $rsp 24 +
STACK CFI 1a52d $rbx: .cfa -32 + ^ .cfa: $rsp 32 +
STACK CFI 1a534 .cfa: $rsp 4192 +
STACK CFI 1a64f .cfa: $rsp 32 +
STACK CFI 1a650 .cfa: $rsp 24 +
STACK CFI 1a651 .cfa: $rsp 16 +
STACK CFI 1a653 .cfa: $rsp 8 +
STACK CFI 1a654 .cfa: $rsp 4192 +
STACK CFI INIT 24d6a f0 .cfa: $rsp 8 + .ra: .cfa -8 + ^
STACK CFI 24d6c $r13: .cfa -16 + ^ .cfa: $rsp 16 +
STACK CFI 24d6e $r12: .cfa -24 + ^ .cfa: $rsp 24 +
STACK CFI 24d6f $rbp: .cfa -32 + ^ .cfa: $rsp 32 +
STACK CFI 24d70 $rbx: .cfa -40 + ^ .cfa: $rsp 40 +
STACK CFI 24d74 .cfa: $rsp 64 +
STACK CFI 24df5 .cfa: $rsp 40 +
STACK CFI 24df6 .cfa: $rsp 32 +
STACK CFI 24df7 .cfa: $rsp 24 +
STACK CFI 24df9 .cfa: $rsp 16 +
STACK CFI 24dfb .cfa: $rsp 8 +
STACK CFI 24dfc .cfa: $rsp 64 +
STACK CFI INIT 24e5a 90 .cfa: $rsp 8 + .ra: .cfa -8 + ^
STACK CFI 24e5c $r15: .cfa -16 + ^ .cfa: $rsp 16 +
STACK CFI 24e5e $r14: .cfa -24 + ^ .cfa: $rsp 24 +
STACK CFI 24e60 $r13: .cfa -32 + ^ .cfa: $rsp 32 +
STACK CFI 24e62 $r12: .cfa -40 + ^ .cfa: $rsp 40 +
STACK CFI 24e63 $rbp: .cfa -48 + ^ .cfa: $rsp 48 +
STACK CFI 24e64 $rbx: .cfa -56 + ^ .cfa: $rsp 56 +
STACK CFI 24e68 .cfa: $rsp 64 +
STACK CFI 24ed2 .cfa: $rsp 56 +
STACK CFI 24ed3 .cfa: $rsp 48 +
STACK CFI 24ed4 .cfa: $rsp 40 +
STACK CFI 24ed6 .cfa: $rsp 32 +
STACK CFI 24ed8 .cfa: $rsp 24 +
STACK CFI 24eda .cfa: $rsp 16 +
STACK CFI 24edc .cfa: $rsp 8 +
STACK CFI 24edd .cfa: $rsp 64 +
STACK CFI INIT 24eea 116 .cfa: $rsp 8 + .ra: .cfa -8 + ^
STACK CFI 24eec $r13: .cfa -16 + ^ .cfa: $rsp 16 +
STACK CFI 24eee $r12: .cfa -24 + ^ .cfa: $rsp 24 +
STACK CFI 24eef $rbp: .cfa -32 + ^ .cfa: $rsp 32 +
STACK CFI 24ef0 $rbx: .cfa -40 + ^ .cfa: $rsp 40 +
STACK CFI 24ef4 .cfa: $rsp 48 +
STACK CFI 24ff9 .cfa: $rsp 40 +
STACK CFI 24ffa .cfa: $rsp 32 +
STACK CFI 24ffb .cfa: $rsp 24 +
STACK CFI 24ffd .cfa: $rsp 16 +
STACK CFI 24fff .cfa: $rsp 8 +
STACK CFI INIT 25000 ff .cfa: $rsp 8 + .ra: .cfa -8 + ^
STACK CFI 25002 $r13: .cfa -16 + ^ .cfa: $rsp 16 +
STACK CFI 25004 $r12: .cfa -24 + ^ .cfa: $rsp 24 +
STACK CFI 25005 $rbp: .cfa -32 + ^ .cfa: $rsp 32 +
STACK CFI 25006 $rbx: .cfa -40 + ^ .cfa: $rsp 40 +
STACK CFI 2500a .cfa: $rsp 64 +
STACK CFI 2508b .cfa: $rsp 40 +
STACK CFI 2508c .cfa: $rsp 32 +
STACK CFI 2508d .cfa: $rsp 24 +
STACK CFI 2508f .cfa: $rsp 16 +
STACK CFI 25091 .cfa: $rsp 8 +
STACK CFI 25092 .cfa: $rsp 64 +
STACK CFI INIT 25100 d5 .cfa: $rsp 8 + .ra: .cfa -8 + ^
STACK CFI 25102 $r13: .cfa -16 + ^ .cfa: $rsp 16 +
STACK CFI 25104 $r12: .cfa -24 + ^ .cfa: $rsp 24 +
STACK CFI 25105 $rbp: .cfa -32 + ^ .cfa: $rsp 32 +
STACK CFI 25106 $rbx: .cfa -40 + ^ .cfa: $rsp 40 +
STACK CFI 2510a .cfa: $rsp 48 +
STACK CFI 25156 .cfa: $rsp 40 +
STACK CFI 25157 .cfa: $rsp 32 +
STACK CFI 25158 .cfa: $rsp 24 +
STACK CFI 2515a .cfa: $rsp 16 +
STACK CFI 2515c .cfa: $rsp 8 +
STACK CFI 2515d .cfa: $rsp 48 +
STACK CFI INIT 251d6 116 .cfa: $rsp 8 + .ra: .cfa -8 + ^
STACK CFI 251d8 $r13: .cfa -16 + ^ .cfa: $rsp 16 +
STACK CFI 251da $r12: .cfa -24 + ^ .cfa: $rsp 24 +
STACK CFI 251db $rbp: .cfa -32 + ^ .cfa: $rsp 32 +
STACK CFI 251dc $rbx: .cfa -40 + ^ .cfa: $rsp 40 +
STACK CFI 251e0 .cfa: $rsp 48 +
STACK CFI 252e5 .cfa: $rsp 40 +
STACK CFI 252e6 .cfa: $rsp 32 +
STACK CFI 252e7 .cfa: $rsp 24 +
STACK CFI 252e9 .cfa: $rsp 16 +
STACK CFI 252eb .cfa: $rsp 8 +
STACK CFI INIT 252ec 83 .cfa: $rsp 8 + .ra: .cfa -8 + ^
STACK CFI 252ee $r12: .cfa -16 + ^ .cfa: $rsp 16 +
STACK CFI 252ef $rbp: .cfa -24 + ^ .cfa: $rsp 24 +
STACK CFI 252f0 $rbx: .cfa -32 + ^ .cfa: $rsp 32 +
STACK CFI 25341 .cfa: $rsp 24 +
STACK CFI 25342 .cfa: $rsp 16 +
STACK CFI 25344 .cfa: $rsp 8 +
STACK CFI 25345 .cfa: $rsp 32 +
STACK CFI INIT 25370 49 .cfa: $rsp 8 + .ra: .cfa -8 + ^
STACK CFI INIT 253ba e9 .cfa: $rsp 8 + .ra: .cfa -8 + ^
STACK CFI 253bc $r13: .cfa -16 + ^ .cfa: $rsp 16 +
STACK CFI 253be $r12: .cfa -24 + ^ .cfa: $rsp 24 +
STACK CFI 253bf $rbp: .cfa -32 + ^ .cfa: $rsp 32 +
STACK CFI 253c0 $rbx: .cfa -40 + ^ .cfa: $rsp 40 +
STACK CFI 253c4 .cfa: $rsp 64 +
STACK CFI 25441 .cfa: $rsp 40 +
STACK CFI 25442 .cfa: $rsp 32 +
STACK CFI 25443 .cfa: $rsp 24 +
STACK CFI 25445 .cfa: $rsp 16 +
STACK CFI 25447 .cfa: $rsp 8 +
STACK CFI 25448 .cfa: $rsp 64 +
STACK CFI INIT 1a9ac 67b .cfa: $rsp 8 + .ra: .cfa -8 + ^
STACK CFI 1a9ae $r15: .cfa -16 + ^ .cfa: $rsp 16 +
STACK CFI 1a9b0 $r14: .cfa -24 + ^ .cfa: $rsp 24 +
STACK CFI 1a9b2 $r13: .cfa -32 + ^ .cfa: $rsp 32 +
STACK CFI 1a9b4 $r12: .cfa -40 + ^ .cfa: $rsp 40 +
STACK CFI 1a9b5 $rbp: .cfa -48 + ^ .cfa: $rsp 48 +
STACK CFI 1a9b6 $rbx: .cfa -56 + ^ .cfa: $rsp 56 +
STACK CFI 1a9ba .cfa: $rsp 176 +
STACK CFI 1ab3d .cfa: $rsp 56 +
STACK CFI 1ab3e .cfa: $rsp 48 +
STACK CFI 1ab3f .cfa: $rsp 40 +
STACK CFI 1ab41 .cfa: $rsp 32 +
STACK CFI 1ab43 .cfa: $rsp 24 +
STACK CFI 1ab45 .cfa: $rsp 16 +
STACK CFI 1ab47 .cfa: $rsp 8 +
STACK CFI 1ab48 .cfa: $rsp 176 +
STACK CFI INIT 254a4 231 .cfa: $rsp 8 + .ra: .cfa -8 + ^
STACK CFI 254a6 $r12: .cfa -16 + ^ .cfa: $rsp 16 +
STACK CFI 254a7 $rbp: .cfa -24 + ^ .cfa: $rsp 24 +
STACK CFI 254a8 $rbx: .cfa -32 + ^ .cfa: $rsp 32 +
STACK CFI 254ac .cfa: $rsp 48 +
STACK CFI 25676 .cfa: $rsp 32 +
STACK CFI 25677 .cfa: $rsp 24 +
STACK CFI 25678 .cfa: $rsp 16 +
STACK CFI 2567a .cfa: $rsp 8 +
STACK CFI 2567b .cfa: $rsp 48 +
STACK CFI INIT 256d5 6d .cfa: $rsp 8 + .ra: .cfa -8 + ^
STACK CFI 256d6 $rbp: .cfa -16 + ^ .cfa: $rsp 16 +
STACK CFI 256d7 $rbx: .cfa -24 + ^ .cfa: $rsp 24 +
STACK CFI 256de .cfa: $rsp 160 +
STACK CFI INIT 25742 fe .cfa: $rsp 8 + .ra: .cfa -8 + ^
STACK CFI 25744 $r13: .cfa -16 + ^ .cfa: $rsp 16 +
STACK CFI 25746 $r12: .cfa -24 + ^ .cfa: $rsp 24 +
STACK CFI 25747 $rbp: .cfa -32 + ^ .cfa: $rsp 32 +
STACK CFI 25748 $rbx: .cfa -40 + ^ .cfa: $rsp 40 +
STACK CFI 2574f .cfa: $rsp 176 +
STACK CFI INIT 25840 95 .cfa: $rsp 8 + .ra: .cfa -8 + ^
STACK CFI 25841 $rbx: .cfa -16 + ^ .cfa: $rsp 16 +
STACK CFI 25845 .cfa: $rsp 64 +
STACK CFI 258ae .cfa: $rsp 16 +
STACK CFI 258af .cfa: $rsp 8 +
STACK CFI 258b0 .cfa: $rsp 64 +
STACK CFI INIT 258d5 11e .cfa: $rsp 8 + .ra: .cfa -8 + ^
STACK CFI 258d7 $r12: .cfa -16 + ^ .cfa: $rsp 16 +
STACK CFI 258d8 $rbp: .cfa -24 + ^ .cfa: $rsp 24 +
STACK CFI 258d9 $rbx: .cfa -32 + ^ .cfa: $rsp 32 +
STACK CFI 258dd .cfa: $rsp 64 +
STACK CFI 259e2 .cfa: $rsp 32 +
STACK CFI 259e3 .cfa: $rsp 24 +
STACK CFI 259e4 .cfa: $rsp 16 +
STACK CFI 259e6 .cfa: $rsp 8 +
STACK CFI 259e7 .cfa: $rsp 64 +
STACK CFI INIT 259f3 78b .cfa: $rsp 8 + .ra: .cfa -8 + ^
STACK CFI 259f5 $r15: .cfa -16 + ^ .cfa: $rsp 16 +
STACK CFI 259f7 $r14: .cfa -24 + ^ .cfa: $rsp 24 +
STACK CFI 259f9 $r13: .cfa -32 + ^ .cfa: $rsp 32 +
STACK CFI 259fb $r12: .cfa -40 + ^ .cfa: $rsp 40 +
STACK CFI 259fc $rbp: .cfa -48 + ^ .cfa: $rsp 48 +
STACK CFI 259fd $rbx: .cfa -56 + ^ .cfa: $rsp 56 +
STACK CFI 25a01 .cfa: $rsp 176 +
STACK CFI 25dfe .cfa: $rsp 56 +
STACK CFI 25dff .cfa: $rsp 48 +
STACK CFI 25e00 .cfa: $rsp 40 +
STACK CFI 25e02 .cfa: $rsp 32 +
STACK CFI 25e04 .cfa: $rsp 24 +
STACK CFI 25e06 .cfa: $rsp 16 +
STACK CFI 25e08 .cfa: $rsp 8 +
STACK CFI 25e09 .cfa: $rsp 176 +
STACK CFI INIT 2617e 1e9 .cfa: $rsp 8 + .ra: .cfa -8 + ^
STACK CFI 26180 $r13: .cfa -16 + ^ .cfa: $rsp 16 +
STACK CFI 26182 $r12: .cfa -24 + ^ .cfa: $rsp 24 +
STACK CFI 26183 $rbp: .cfa -32 + ^ .cfa: $rsp 32 +
STACK CFI 26184 $rbx: .cfa -40 + ^ .cfa: $rsp 40 +
STACK CFI 2618b .cfa: $rsp 176 +
STACK CFI 2620e .cfa: $rsp 40 +
STACK CFI 2620f .cfa: $rsp 32 +
STACK CFI 26210 .cfa: $rsp 24 +
STACK CFI 26212 .cfa: $rsp 16 +
STACK CFI 26214 .cfa: $rsp 8 +
STACK CFI 26215 .cfa: $rsp 176 +
STACK CFI INIT 26367 383 .cfa: $rsp 8 + .ra: .cfa -8 + ^
STACK CFI 26369 $r15: .cfa -16 + ^ .cfa: $rsp 16 +
STACK CFI 2636b $r14: .cfa -24 + ^ .cfa: $rsp 24 +
STACK CFI 2636d $r13: .cfa -32 + ^ .cfa: $rsp 32 +
STACK CFI 2636f $r12: .cfa -40 + ^ .cfa: $rsp 40 +
STACK CFI 26370 $rbp: .cfa -48 + ^ .cfa: $rsp 48 +
STACK CFI 26371 $rbx: .cfa -56 + ^ .cfa: $rsp 56 +
STACK CFI 26378 .cfa: $rsp 736 +
STACK CFI 266cf .cfa: $rsp 56 +
STACK CFI 266d0 .cfa: $rsp 48 +
STACK CFI 266d1 .cfa: $rsp 40 +
STACK CFI 266d3 .cfa: $rsp 32 +
STACK CFI 266d5 .cfa: $rsp 24 +
STACK CFI 266d7 .cfa: $rsp 16 +
STACK CFI 266d9 .cfa: $rsp 8 +
STACK CFI 266da .cfa: $rsp 736 +
STACK CFI INIT 266ea 90 .cfa: $rsp 8 + .ra: .cfa -8 + ^
STACK CFI 266ec $r15: .cfa -16 + ^ .cfa: $rsp 16 +
STACK CFI 266ee $r14: .cfa -24 + ^ .cfa: $rsp 24 +
STACK CFI 266f0 $r13: .cfa -32 + ^ .cfa: $rsp 32 +
STACK CFI 266f2 $r12: .cfa -40 + ^ .cfa: $rsp 40 +
STACK CFI 266f3 $rbp: .cfa -48 + ^ .cfa: $rsp 48 +
STACK CFI 266f4 $rbx: .cfa -56 + ^ .cfa: $rsp 56 +
STACK CFI 266f8 .cfa: $rsp 64 +
STACK CFI 26762 .cfa: $rsp 56 +
STACK CFI 26763 .cfa: $rsp 48 +
STACK CFI 26764 .cfa: $rsp 40 +
STACK CFI 26766 .cfa: $rsp 32 +
STACK CFI 26768 .cfa: $rsp 24 +
STACK CFI 2676a .cfa: $rsp 16 +
STACK CFI 2676c .cfa: $rsp 8 +
STACK CFI 2676d .cfa: $rsp 64 +
STACK CFI INIT 2677a fd .cfa: $rsp 8 + .ra: .cfa -8 + ^
STACK CFI 2677c $r14: .cfa -16 + ^ .cfa: $rsp 16 +
STACK CFI 2677e $r13: .cfa -24 + ^ .cfa: $rsp 24 +
STACK CFI 26780 $r12: .cfa -32 + ^ .cfa: $rsp 32 +
STACK CFI 26781 $rbp: .cfa -40 + ^ .cfa: $rsp 40 +
STACK CFI 26782 $rbx: .cfa -48 + ^ .cfa: $rsp 48 +
STACK CFI 2686f .cfa: $rsp 40 +
STACK CFI 26870 .cfa: $rsp 32 +
STACK CFI 26872 .cfa: $rsp 24 +
STACK CFI 26874 .cfa: $rsp 16 +
STACK CFI 26876 .cfa: $rsp 8 +
STACK CFI INIT 1b027 99 .cfa: $rsp 8 + .ra: .cfa -8 + ^
STACK CFI 1b02b .cfa: $rsp 32 +
STACK CFI 1b052 .cfa: $rsp 8 +
STACK CFI 1b053 .cfa: $rsp 32 +
STACK CFI INIT 1b0c0 49 .cfa: $rsp 8 + .ra: .cfa -8 + ^
STACK CFI 1b0c1 $rbx: .cfa -16 + ^ .cfa: $rsp 16 +
STACK CFI 1b108 .cfa: $rsp 8 +
STACK CFI INIT 1b109 49 .cfa: $rsp 8 + .ra: .cfa -8 + ^
STACK CFI 1b10a $rbx: .cfa -16 + ^ .cfa: $rsp 16 +
STACK CFI 1b151 .cfa: $rsp 8 +
STACK CFI INIT 1b152 d5 .cfa: $rsp 8 + .ra: .cfa -8 + ^
STACK CFI 1b154 $r15: .cfa -16 + ^ .cfa: $rsp 16 +
STACK CFI 1b156 $r14: .cfa -24 + ^ .cfa: $rsp 24 +
STACK CFI 1b158 $r13: .cfa -32 + ^ .cfa: $rsp 32 +
STACK CFI 1b15a $r12: .cfa -40 + ^ .cfa: $rsp 40 +
STACK CFI 1b15b $rbp: .cfa -48 + ^ .cfa: $rsp 48 +
STACK CFI 1b15c $rbx: .cfa -56 + ^ .cfa: $rsp 56 +
STACK CFI 1b160 .cfa: $rsp 64 +
STACK CFI 1b1a6 .cfa: $rsp 72 +
STACK CFI 1b1ae .cfa: $rsp 80 +
STACK CFI 1b1b6 .cfa: $rsp 88 +
STACK CFI 1b1be .cfa: $rsp 96 +
STACK CFI 1b1c6 .cfa: $rsp 104 +
STACK CFI 1b1ce .cfa: $rsp 112 +
STACK CFI 1b1d6 .cfa: $rsp 120 +
STACK CFI 1b1de .cfa: $rsp 128 +
STACK CFI 1b1e5 .cfa: $rsp 136 +
STACK CFI 1b1ec .cfa: $rsp 144 +
STACK CFI 1b204 .cfa: $rsp 64 +
STACK CFI 1b21c .cfa: $rsp 56 +
STACK CFI 1b21d .cfa: $rsp 48 +
STACK CFI 1b21e .cfa: $rsp 40 +
STACK CFI 1b220 .cfa: $rsp 32 +
STACK CFI 1b222 .cfa: $rsp 24 +
STACK CFI 1b224 .cfa: $rsp 16 +
STACK CFI 1b226 .cfa: $rsp 8 +
STACK CFI INIT 1b227 c4 .cfa: $rsp 8 + .ra: .cfa -8 + ^
STACK CFI 1b229 $r15: .cfa -16 + ^ .cfa: $rsp 16 +
STACK CFI 1b22b $r14: .cfa -24 + ^ .cfa: $rsp 24 +
STACK CFI 1b22d $r13: .cfa -32 + ^ .cfa: $rsp 32 +
STACK CFI 1b22f $r12: .cfa -40 + ^ .cfa: $rsp 40 +
STACK CFI 1b230 $rbp: .cfa -48 + ^ .cfa: $rsp 48 +
STACK CFI 1b231 $rbx: .cfa -56 + ^ .cfa: $rsp 56 +
STACK CFI 1b235 .cfa: $rsp 80 +
STACK CFI 1b2af .cfa: $rsp 88 +
STACK CFI 1b2b0 .cfa: $rsp 96 +
STACK CFI 1b2ca .cfa: $rsp 80 +
STACK CFI 1b2e0 .cfa: $rsp 56 +
STACK CFI 1b2e1 .cfa: $rsp 48 +
STACK CFI 1b2e2 .cfa: $rsp 40 +
STACK CFI 1b2e4 .cfa: $rsp 32 +
STACK CFI 1b2e6 .cfa: $rsp 24 +
STACK CFI 1b2e8 .cfa: $rsp 16 +
STACK CFI 1b2ea .cfa: $rsp 8 +
STACK CFI INIT 1b2eb e0 .cfa: $rsp 8 + .ra: .cfa -8 + ^
STACK CFI 1b2ed $r13: .cfa -16 + ^ .cfa: $rsp 16 +
STACK CFI 1b2ef $r12: .cfa -24 + ^ .cfa: $rsp 24 +
STACK CFI 1b2f0 $rbp: .cfa -32 + ^ .cfa: $rsp 32 +
STACK CFI 1b2f1 $rbx: .cfa -40 + ^ .cfa: $rsp 40 +
STACK CFI 1b2f5 .cfa: $rsp 48 +
STACK CFI 1b36c .cfa: $rsp 40 +
STACK CFI 1b36d .cfa: $rsp 32 +
STACK CFI 1b36e .cfa: $rsp 24 +
STACK CFI 1b370 .cfa: $rsp 16 +
STACK CFI 1b372 .cfa: $rsp 8 +
STACK CFI 1b373 .cfa: $rsp 48 +
STACK CFI INIT 1b3cb 13c .cfa: $rsp 8 + .ra: .cfa -8 + ^
STACK CFI 1b3cd $r12: .cfa -16 + ^ .cfa: $rsp 16 +
STACK CFI 1b3ce $rbp: .cfa -24 + ^ .cfa: $rsp 24 +
STACK CFI 1b3cf $rbx: .cfa -32 + ^ .cfa: $rsp 32 +
STACK CFI 1b3d3 .cfa: $rsp 48 +
STACK CFI 1b4c0 .cfa: $rsp 32 +
STACK CFI 1b4c1 .cfa: $rsp 24 +
STACK CFI 1b4c2 .cfa: $rsp 16 +
STACK CFI 1b4c4 .cfa: $rsp 8 +
STACK CFI 1b4c5 .cfa: $rsp 48 +
STACK CFI INIT 1b507 3ad .cfa: $rsp 8 + .ra: .cfa -8 + ^
STACK CFI 1b509 $r14: .cfa -16 + ^ .cfa: $rsp 16 +
STACK CFI 1b50b $r13: .cfa -24 + ^ .cfa: $rsp 24 +
STACK CFI 1b50d $r12: .cfa -32 + ^ .cfa: $rsp 32 +
STACK CFI 1b50e $rbp: .cfa -40 + ^ .cfa: $rsp 40 +
STACK CFI 1b50f $rbx: .cfa -48 + ^ .cfa: $rsp 48 +
STACK CFI 1b513 .cfa: $rsp 80 +
STACK CFI 1b8ab .cfa: $rsp 48 +
STACK CFI 1b8ac .cfa: $rsp 40 +
STACK CFI 1b8ad .cfa: $rsp 32 +
STACK CFI 1b8af .cfa: $rsp 24 +
STACK CFI 1b8b1 .cfa: $rsp 16 +
STACK CFI 1b8b3 .cfa: $rsp 8 +
STACK CFI INIT 1b8b4 112 .cfa: $rsp 8 + .ra: .cfa -8 + ^
STACK CFI 1b8b6 $r12: .cfa -16 + ^ .cfa: $rsp 16 +
STACK CFI 1b8b7 $rbp: .cfa -24 + ^ .cfa: $rsp 24 +
STACK CFI 1b8b8 $rbx: .cfa -32 + ^ .cfa: $rsp 32 +
STACK CFI 1b8bc .cfa: $rsp 64 +
STACK CFI 1b9ae .cfa: $rsp 32 +
STACK CFI 1b9af .cfa: $rsp 24 +
STACK CFI 1b9b0 .cfa: $rsp 16 +
STACK CFI 1b9b2 .cfa: $rsp 8 +
STACK CFI 1b9b3 .cfa: $rsp 64 +
STACK CFI INIT 1b9c6 290 .cfa: $rsp 8 + .ra: .cfa -8 + ^
STACK CFI 1b9d1 $r13: .cfa -16 + ^ .cfa: $rsp 16 +
STACK CFI 1b9d3 $r12: .cfa -24 + ^ .cfa: $rsp 24 +
STACK CFI 1b9d4 $rbp: .cfa -32 + ^ .cfa: $rsp 32 +
STACK CFI 1b9d5 $rbx: .cfa -40 + ^ .cfa: $rsp 40 +
STACK CFI 1b9d9 .cfa: $rsp 112 +
STACK CFI 1bad6 .cfa: $rsp 40 +
STACK CFI 1bad7 .cfa: $rsp 32 +
STACK CFI 1bad8 .cfa: $rsp 24 +
STACK CFI 1bada .cfa: $rsp 16 +
STACK CFI 1badc .cfa: $rsp 8 +
STACK CFI 1badd .cfa: $rsp 112 +
STACK CFI 1bc55 $r12: $r12 $r13: $r13 $rbp: $rbp $rbx: $rbx .cfa: $rsp 8 +
STACK CFI INIT 1bc56 446 .cfa: $rsp 8 + .ra: .cfa -8 + ^
STACK CFI 1bc58 $r15: .cfa -16 + ^ .cfa: $rsp 16 +
STACK CFI 1bc5a $r14: .cfa -24 + ^ .cfa: $rsp 24 +
STACK CFI 1bc5c $r13: .cfa -32 + ^ .cfa: $rsp 32 +
STACK CFI 1bc5e $r12: .cfa -40 + ^ .cfa: $rsp 40 +
STACK CFI 1bc5f $rbp: .cfa -48 + ^ .cfa: $rsp 48 +
STACK CFI 1bc60 $rbx: .cfa -56 + ^ .cfa: $rsp 56 +
STACK CFI 1bc64 .cfa: $rsp 176 +
STACK CFI 1beeb .cfa: $rsp 56 +
STACK CFI 1beec .cfa: $rsp 48 +
STACK CFI 1beed .cfa: $rsp 40 +
STACK CFI 1beef .cfa: $rsp 32 +
STACK CFI 1bef1 .cfa: $rsp 24 +
STACK CFI 1bef3 .cfa: $rsp 16 +
STACK CFI 1bef5 .cfa: $rsp 8 +
STACK CFI 1bef6 .cfa: $rsp 176 +
STACK CFI INIT 1c09c 331f .cfa: $rsp 8 + .ra: .cfa -8 + ^
STACK CFI 1c09d $rbp: .cfa -16 + ^ .cfa: $rsp 16 +
STACK CFI 1c0a0 .cfa: $rbp 16 +
STACK CFI 1c0b0 $r12: .cfa -48 + ^ $r13: .cfa -40 + ^ $r14: .cfa -32 + ^ $r15: .cfa -24 + ^ $rbx: .cfa -56 + ^
STACK CFI 1f21f .cfa: $rsp 8 +
STACK CFI 1f220 .cfa: $rbp 16 +
STACK CFI INIT 1f3bb 19 .cfa: $rsp 8 + .ra: .cfa -8 + ^
STACK CFI 1f3bf .cfa: $rsp 16 +
STACK CFI 1f3d3 .cfa: $rsp 8 +
STACK CFI INIT 1f3d4 1a1 .cfa: $rsp 8 + .ra: .cfa -8 + ^
STACK CFI 1f3d6 $r13: .cfa -16 + ^ .cfa: $rsp 16 +
STACK CFI 1f3d8 $r12: .cfa -24 + ^ .cfa: $rsp 24 +
STACK CFI 1f3d9 $rbp: .cfa -32 + ^ .cfa: $rsp 32 +
STACK CFI 1f3da $rbx: .cfa -40 + ^ .cfa: $rsp 40 +
STACK CFI 1f3de .cfa: $rsp 64 +
STACK CFI 1f424 .cfa: $rsp 40 +
STACK CFI 1f425 .cfa: $rsp 32 +
STACK CFI 1f426 .cfa: $rsp 24 +
STACK CFI 1f428 .cfa: $rsp 16 +
STACK CFI 1f42a .cfa: $rsp 8 +
STACK CFI 1f42b .cfa: $rsp 64 +
STACK CFI INIT 26878 fd .cfa: $rsp 8 + .ra: .cfa -8 + ^
STACK CFI 2687a $r14: .cfa -16 + ^ .cfa: $rsp 16 +
STACK CFI 2687c $r13: .cfa -24 + ^ .cfa: $rsp 24 +
STACK CFI 2687e $r12: .cfa -32 + ^ .cfa: $rsp 32 +
STACK CFI 2687f $rbp: .cfa -40 + ^ .cfa: $rsp 40 +
STACK CFI 26880 $rbx: .cfa -48 + ^ .cfa: $rsp 48 +
STACK CFI 2696d .cfa: $rsp 40 +
STACK CFI 2696e .cfa: $rsp 32 +
STACK CFI 26970 .cfa: $rsp 24 +
STACK CFI 26972 .cfa: $rsp 16 +
STACK CFI 26974 .cfa: $rsp 8 +
STACK CFI INIT 1f575 200 .cfa: $rsp 8 + .ra: .cfa -8 + ^
STACK CFI 1f587 $r13: .cfa -16 + ^ .cfa: $rsp 16 +
STACK CFI 1f589 $r12: .cfa -24 + ^ .cfa: $rsp 24 +
STACK CFI 1f58a $rbp: .cfa -32 + ^ .cfa: $rsp 32 +
STACK CFI 1f58b $rbx: .cfa -40 + ^ .cfa: $rsp 40 +
STACK CFI 1f58f .cfa: $rsp 96 +
STACK CFI 1f6a2 .cfa: $rsp 40 +
STACK CFI 1f6a3 .cfa: $rsp 32 +
STACK CFI 1f6a4 .cfa: $rsp 24 +
STACK CFI 1f6a6 .cfa: $rsp 16 +
STACK CFI 1f6a8 .cfa: $rsp 8 +
STACK CFI 1f6a9 .cfa: $rsp 96 +
STACK CFI 1f774 $r12: $r12 $r13: $r13 $rbp: $rbp $rbx: $rbx .cfa: $rsp 8 +
STACK CFI INIT 26975 20 .cfa: $rsp 8 + .ra: .cfa -8 + ^
STACK CFI 26976 $rbx: .cfa -16 + ^ .cfa: $rsp 16 +
STACK CFI 26994 .cfa: $rsp 8 +
STACK CFI INIT 26996 8b .cfa: $rsp 8 + .ra: .cfa -8 + ^
STACK CFI 26998 $r13: .cfa -16 + ^ .cfa: $rsp 16 +
STACK CFI 2699a $r12: .cfa -24 + ^ .cfa: $rsp 24 +
STACK CFI 2699b $rbp: .cfa -32 + ^ .cfa: $rsp 32 +
STACK CFI 2699c $rbx: .cfa -40 + ^ .cfa: $rsp 40 +
STACK CFI 269a0 .cfa: $rsp 48 +
STACK CFI 26a1a .cfa: $rsp 40 +
STACK CFI 26a1b .cfa: $rsp 32 +
STACK CFI 26a1c .cfa: $rsp 24 +
STACK CFI 26a1e .cfa: $rsp 16 +
STACK CFI 26a20 .cfa: $rsp 8 +
STACK CFI INIT 26a22 20 .cfa: $rsp 8 + .ra: .cfa -8 + ^
STACK CFI 26a23 $rbx: .cfa -16 + ^ .cfa: $rsp 16 +
STACK CFI 26a41 .cfa: $rsp 8 +
STACK CFI INIT 1f776 20 .cfa: $rsp 8 + .ra: .cfa -8 + ^
STACK CFI 1f777 $rbx: .cfa -16 + ^ .cfa: $rsp 16 +
STACK CFI 1f795 .cfa: $rsp 8 +
STACK CFI INIT 26a42 d8 .cfa: $rsp 8 + .ra: .cfa -8 + ^
STACK CFI 26a44 $r12: .cfa -16 + ^ .cfa: $rsp 16 +
STACK CFI 26a45 $rbp: .cfa -24 + ^ .cfa: $rsp 24 +
STACK CFI 26a46 $rbx: .cfa -32 + ^ .cfa: $rsp 32 +
STACK CFI 26a4a .cfa: $rsp 64 +
STACK CFI 26b15 .cfa: $rsp 32 +
STACK CFI 26b16 .cfa: $rsp 24 +
STACK CFI 26b17 .cfa: $rsp 16 +
STACK CFI 26b19 .cfa: $rsp 8 +
STACK CFI INIT 26b1a 3a .cfa: $rsp 8 + .ra: .cfa -8 + ^
STACK CFI INIT 26b54 30 .cfa: $rsp 8 + .ra: .cfa -8 + ^
STACK CFI INIT 26b84 67 .cfa: $rsp 8 + .ra: .cfa -8 + ^
STACK CFI 26b8b $r14: .cfa -16 + ^ .cfa: $rsp 16 +
STACK CFI 26b8d $r13: .cfa -24 + ^ .cfa: $rsp 24 +
STACK CFI 26b8f $r12: .cfa -32 + ^ .cfa: $rsp 32 +
STACK CFI 26b90 $rbp: .cfa -40 + ^ .cfa: $rsp 40 +
STACK CFI 26b91 $rbx: .cfa -48 + ^ .cfa: $rsp 48 +
STACK CFI 26ba1 .cfa: $rsp 40 +
STACK CFI 26ba2 .cfa: $rsp 32 +
STACK CFI 26ba4 .cfa: $rsp 24 +
STACK CFI 26ba6 .cfa: $rsp 16 +
STACK CFI 26ba8 .cfa: $rsp 8 +
STACK CFI 26ba9 .cfa: $rsp 48 +
STACK CFI 26bea $r12: $r12 $r13: $r13 $r14: $r14 $rbp: $rbp $rbx: $rbx .cfa: $rsp 8 +
STACK CFI INIT 26beb 326 .cfa: $rsp 8 + .ra: .cfa -8 + ^
STACK CFI INIT 26f11 107 .cfa: $rsp 8 + .ra: .cfa -8 + ^
STACK CFI 26f12 $rbx: .cfa -16 + ^ .cfa: $rsp 16 +
STACK CFI 2700d .cfa: $rsp 8 +
STACK CFI 2700e .cfa: $rsp 16 +
STACK CFI INIT 27018 221 .cfa: $rsp 8 + .ra: .cfa -8 + ^
STACK CFI 2702c $r13: .cfa -16 + ^ .cfa: $rsp 16 +
STACK CFI 2702e $r12: .cfa -24 + ^ .cfa: $rsp 24 +
STACK CFI 2702f $rbp: .cfa -32 + ^ .cfa: $rsp 32 +
STACK CFI 27030 $rbx: .cfa -40 + ^ .cfa: $rsp 40 +
STACK CFI 27034 .cfa: $rsp 48 +
STACK CFI 270cd .cfa: $rsp 40 +
STACK CFI 270ce .cfa: $rsp 32 +
STACK CFI 270cf .cfa: $rsp 24 +
STACK CFI 270d1 .cfa: $rsp 16 +
STACK CFI 270d3 .cfa: $rsp 8 +
STACK CFI 270d4 .cfa: $rsp 48 +
STACK CFI 27238 $r12: $r12 $r13: $r13 $rbp: $rbp $rbx: $rbx .cfa: $rsp 8 +
STACK CFI INIT 2723a 576 .cfa: $rsp 8 + .ra: .cfa -8 + ^
STACK CFI 2723c $r15: .cfa -16 + ^ .cfa: $rsp 16 +
STACK CFI 2723e $r14: .cfa -24 + ^ .cfa: $rsp 24 +
STACK CFI 27240 $r13: .cfa -32 + ^ .cfa: $rsp 32 +
STACK CFI 27242 $r12: .cfa -40 + ^ .cfa: $rsp 40 +
STACK CFI 27243 $rbp: .cfa -48 + ^ .cfa: $rsp 48 +
STACK CFI 27244 $rbx: .cfa -56 + ^ .cfa: $rsp 56 +
STACK CFI 2724b .cfa: $rsp 224 +
STACK CFI 27742 .cfa: $rsp 56 +
STACK CFI 27743 .cfa: $rsp 48 +
STACK CFI 27744 .cfa: $rsp 40 +
STACK CFI 27746 .cfa: $rsp 32 +
STACK CFI 27748 .cfa: $rsp 24 +
STACK CFI 2774a .cfa: $rsp 16 +
STACK CFI 2774c .cfa: $rsp 8 +
STACK CFI 2774d .cfa: $rsp 224 +
STACK CFI INIT 277b0 4d .cfa: $rsp 8 + .ra: .cfa -8 + ^
STACK CFI 277b2 $r12: .cfa -16 + ^ .cfa: $rsp 16 +
STACK CFI 277b3 $rbp: .cfa -24 + ^ .cfa: $rsp 24 +
STACK CFI 277b4 $rbx: .cfa -32 + ^ .cfa: $rsp 32 +
STACK CFI 277f9 .cfa: $rsp 24 +
STACK CFI 277fa .cfa: $rsp 16 +
STACK CFI 277fc .cfa: $rsp 8 +
STACK CFI INIT 277fe 558 .cfa: $rsp 8 + .ra: .cfa -8 + ^
STACK CFI 27800 $r15: .cfa -16 + ^ .cfa: $rsp 16 +
STACK CFI 27802 $r14: .cfa -24 + ^ .cfa: $rsp 24 +
STACK CFI 27804 $r13: .cfa -32 + ^ .cfa: $rsp 32 +
STACK CFI 27806 $r12: .cfa -40 + ^ .cfa: $rsp 40 +
STACK CFI 27807 $rbp: .cfa -48 + ^ .cfa: $rsp 48 +
STACK CFI 27808 $rbx: .cfa -56 + ^ .cfa: $rsp 56 +
STACK CFI 2780f .cfa: $rsp 240 +
STACK CFI 27c9b .cfa: $rsp 56 +
STACK CFI 27c9c .cfa: $rsp 48 +
STACK CFI 27c9d .cfa: $rsp 40 +
STACK CFI 27c9f .cfa: $rsp 32 +
STACK CFI 27ca1 .cfa: $rsp 24 +
STACK CFI 27ca3 .cfa: $rsp 16 +
STACK CFI 27ca5 .cfa: $rsp 8 +
STACK CFI 27ca6 .cfa: $rsp 240 +
STACK CFI INIT 27d56 467 .cfa: $rsp 8 + .ra: .cfa -8 + ^
STACK CFI 27d58 $r15: .cfa -16 + ^ .cfa: $rsp 16 +
STACK CFI 27d5a $r14: .cfa -24 + ^ .cfa: $rsp 24 +
STACK CFI 27d5c $r13: .cfa -32 + ^ .cfa: $rsp 32 +
STACK CFI 27d5e $r12: .cfa -40 + ^ .cfa: $rsp 40 +
STACK CFI 27d5f $rbp: .cfa -48 + ^ .cfa: $rsp 48 +
STACK CFI 27d60 $rbx: .cfa -56 + ^ .cfa: $rsp 56 +
STACK CFI 27d67 .cfa: $rsp 240 +
STACK CFI 27ed5 .cfa: $rsp 56 +
STACK CFI 27ed6 .cfa: $rsp 48 +
STACK CFI 27ed7 .cfa: $rsp 40 +
STACK CFI 27ed9 .cfa: $rsp 32 +
STACK CFI 27edb .cfa: $rsp 24 +
STACK CFI 27edd .cfa: $rsp 16 +
STACK CFI 27edf .cfa: $rsp 8 +
STACK CFI 27ee0 .cfa: $rsp 240 +
STACK CFI INIT 281be 13f .cfa: $rsp 8 + .ra: .cfa -8 + ^
STACK CFI 281c0 $r13: .cfa -16 + ^ .cfa: $rsp 16 +
STACK CFI 281c2 $r12: .cfa -24 + ^ .cfa: $rsp 24 +
STACK CFI 281c3 $rbp: .cfa -32 + ^ .cfa: $rsp 32 +
STACK CFI 281c4 $rbx: .cfa -40 + ^ .cfa: $rsp 40 +
STACK CFI 281c8 .cfa: $rsp 112 +
STACK CFI 28204 .cfa: $rsp 40 +
STACK CFI 28205 .cfa: $rsp 32 +
STACK CFI 28206 .cfa: $rsp 24 +
STACK CFI 28208 .cfa: $rsp 16 +
STACK CFI 2820a .cfa: $rsp 8 +
STACK CFI 2820b .cfa: $rsp 112 +
STACK CFI INIT 1f796 11e7 .cfa: $rsp 8 + .ra: .cfa -8 + ^
STACK CFI 1f798 $r12: .cfa -16 + ^ .cfa: $rsp 16 +
STACK CFI 1f799 $rbp: .cfa -24 + ^ .cfa: $rsp 24 +
STACK CFI 1f79a $rbx: .cfa -32 + ^ .cfa: $rsp 32 +
STACK CFI 1f7a1 .cfa: $rsp 816 +
STACK CFI 20850 .cfa: $rsp 32 +
STACK CFI 20851 .cfa: $rsp 24 +
STACK CFI 20852 .cfa: $rsp 16 +
STACK CFI 20854 .cfa: $rsp 8 +
STACK CFI 20855 .cfa: $rsp 816 +
STACK CFI INIT 2097d 34c .cfa: $rsp 8 + .ra: .cfa -8 + ^
STACK CFI 2097f $r14: .cfa -16 + ^ .cfa: $rsp 16 +
STACK CFI 20981 $r13: .cfa -24 + ^ .cfa: $rsp 24 +
STACK CFI 20983 $r12: .cfa -32 + ^ .cfa: $rsp 32 +
STACK CFI 20984 $rbp: .cfa -40 + ^ .cfa: $rsp 40 +
STACK CFI 20985 $rbx: .cfa -48 + ^ .cfa: $rsp 48 +
STACK CFI 20c61 .cfa: $rsp 40 +
STACK CFI 20c62 .cfa: $rsp 32 +
STACK CFI 20c64 .cfa: $rsp 24 +
STACK CFI 20c66 .cfa: $rsp 16 +
STACK CFI 20c68 .cfa: $rsp 8 +
STACK CFI 20c69 .cfa: $rsp 48 +
STACK CFI INIT 282fe 319 .cfa: $rsp 8 + .ra: .cfa -8 + ^
STACK CFI 28300 $r15: .cfa -16 + ^ .cfa: $rsp 16 +
STACK CFI 28302 $r14: .cfa -24 + ^ .cfa: $rsp 24 +
STACK CFI 28304 $r13: .cfa -32 + ^ .cfa: $rsp 32 +
STACK CFI 28306 $r12: .cfa -40 + ^ .cfa: $rsp 40 +
STACK CFI 28307 $rbp: .cfa -48 + ^ .cfa: $rsp 48 +
STACK CFI 28308 $rbx: .cfa -56 + ^ .cfa: $rsp 56 +
STACK CFI 2830f .cfa: $rsp 224 +
STACK CFI 28591 .cfa: $rsp 56 +
STACK CFI 28592 .cfa: $rsp 48 +
STACK CFI 28593 .cfa: $rsp 40 +
STACK CFI 28595 .cfa: $rsp 32 +
STACK CFI 28597 .cfa: $rsp 24 +
STACK CFI 28599 .cfa: $rsp 16 +
STACK CFI 2859b .cfa: $rsp 8 +
STACK CFI 2859c .cfa: $rsp 224 +
STACK CFI INIT 20cc9 1612 .cfa: $rsp 8 + .ra: .cfa -8 + ^
STACK CFI 20ccb $r15: .cfa -16 + ^ .cfa: $rsp 16 +
STACK CFI 20ccd $r14: .cfa -24 + ^ .cfa: $rsp 24 +
STACK CFI 20ccf $r13: .cfa -32 + ^ .cfa: $rsp 32 +
STACK CFI 20cd1 $r12: .cfa -40 + ^ .cfa: $rsp 40 +
STACK CFI 20cd2 $rbp: .cfa -48 + ^ .cfa: $rsp 48 +
STACK CFI 20cd3 $rbx: .cfa -56 + ^ .cfa: $rsp 56 +
STACK CFI 20cda .cfa: $rsp 464 +
STACK CFI 220c9 .cfa: $rsp 56 +
STACK CFI 220ca .cfa: $rsp 48 +
STACK CFI 220cb .cfa: $rsp 40 +
STACK CFI 220cd .cfa: $rsp 32 +
STACK CFI 220cf .cfa: $rsp 24 +
STACK CFI 220d1 .cfa: $rsp 16 +
STACK CFI 220d3 .cfa: $rsp 8 +
STACK CFI 220d4 .cfa: $rsp 464 +
STACK CFI INIT 222db f8 .cfa: $rsp 8 + .ra: .cfa -8 + ^
STACK CFI 222dc $rbp: .cfa -16 + ^ .cfa: $rsp 16 +
STACK CFI 222dd $rbx: .cfa -24 + ^ .cfa: $rsp 24 +
STACK CFI 222e1 .cfa: $rsp 32 +
STACK CFI 2239b .cfa: $rsp 24 +
STACK CFI 2239c .cfa: $rsp 16 +
STACK CFI 2239d .cfa: $rsp 8 +
STACK CFI 2239e .cfa: $rsp 32 +
